(iedu.umass.cs.iesl.wikilink.expanded.data.ttypes
WikiLinkItem
p0
(dp1
S'url'
p2
S'http://thegreatgeekmanual.com/blog/this-day-in-geek-history-april-30'
p3
sS'content'
p4
(iedu.umass.cs.iesl.wikilink.expanded.data.ttypes
PageContentItem
p5
(dp6
S'articleText'
p7
NsS'raw'
p8
NsS'fullText'
p9
NsS'dom'
p10
S'<html>\n  <head profile="http://gmpg.org/xfn/11">\n    <meta content="D2SAT/T5JPgKNmxHD86wfAllvmrX5lPgrg4eZojRjHg=" name="verify-v1"></meta>\n    <meta content="text/html; charset=UTF-8" http-equiv="Content-Type"></meta>\n    <meta content="WordPress 3.4.2" name="generator"></meta>\n    <link media="screen" type="text/css" href="http://thegreatgeekmanual.com/blog/wp-content/themes/notso_freshe/style.css" rel="stylesheet"></link>\n    <link href="http://thegreatgeekmanual.com/blog/feed" title="The Great Geek Manual RSS 2.0" type="application/rss+xml" rel="alternate"></link>\n    <link href="http://thegreatgeekmanual.com/blog/feed/atom" title="The Great Geek Manual Atom 0.3" type="application/atom+xml" rel="alternate"></link>\n    <link href="http://thegreatgeekmanual.com/blog/xmlrpc.php" rel="pingback"></link>\n    <title>The Great Geek Manual \xc2\xbb This Day in Geek History: April 30 </title>\n    <link type="image/x-icon" href="http://thegreatgeekmanual.com/blog/wp-content/themes/notso_freshe/images/favicon.ico" rel="shortcut icon"></link>\n    <link type="image/x-icon" href="http://thegreatgeekmanual.com/blog/wp-content/themes/notso_freshe/images/favicon.ico" rel="icon"></link>\n    <meta content="fRJ3QkiKNKMrjegPF8aQOveGUg8" name="alexaVerifyID"></meta>\n    <link href="http://thegreatgeekmanual.com/blog/this-day-in-geek-history-april-30/feed" title="The Great Geek Manual \xc2\xbb This Day in Geek History: April 30 Comments Feed" type="application/rss+xml" rel="alternate"></link>\n    <link media="all" type="text/css" href="http://thegreatgeekmanual.com/blog/wp-content/plugins/wp-pagenavi/pagenavi-css.css?ver=2.70" rel="stylesheet" id="wp-pagenavi-css"></link>\n    <link media="all" type="text/css" href="http://thegreatgeekmanual.com/blog/wp-content/plugins/wp-greet-box/css/style.css?ver=3.4.2" rel="stylesheet" id="wp_greet_box_style-css"></link>\n    <script src="http://thegreatgeekmanual.com/blog/wp-includes/js/jquery/jquery.js?ver=1.7.2" type="text/javascript"></script>\n    <script src="http://thegreatgeekmanual.com/blog/wp-content/plugins/fd-footnotes/fdfootnotes.js?ver=1.3" type="text/javascript"></script>\n    <script src="http://thegreatgeekmanual.com/blog/wp-content/plugins/wp-greet-box/js/functions.js?ver=3.4.2" type="text/javascript"></script>\n    <script src="http://thegreatgeekmanual.com/blog/wp-content/plugins/wp-greet-box/js/js-mode.js?ver=3.4.2" type="text/javascript"></script>\n    <link href="http://thegreatgeekmanual.com/blog/xmlrpc.php?rsd" title="RSD" type="application/rsd+xml" rel="EditURI"></link>\n    <link href="http://thegreatgeekmanual.com/blog/wp-includes/wlwmanifest.xml" type="application/wlwmanifest+xml" rel="wlwmanifest"></link>\n    <link href="http://thegreatgeekmanual.com/blog/geek-quote-of-the-day-1368" title="Geek Quote of the Day" rel="prev"></link>\n    <link href="http://thegreatgeekmanual.com/blog/this-day-in-geek-history-april-30-2012" title="This Day in Geek History: April 30" rel="next"></link>\n    <meta content="WordPress 3.4.2" name="generator"></meta>\n    <link href="http://thegreatgeekmanual.com/blog/this-day-in-geek-history-april-30" rel="canonical"></link>\n    <link href="http://thegreatgeekmanual.com/blog/?p=21853" rel="shortlink"></link>\n    <script src="http://www.google.com/jsapi" type="text/javascript"></script>\n    <script type="text/javascript">\n      var arrAffiliates = {\n\t\t\t\'com\'   : \'thegregeeman-20\',\n\t\t\t\'co.uk\'\t: \'thegregeeman-21\',\n\t\t\t\'de\'\t: \'thegregeema03-21\',\n\t\t\t\'fr\'\t: \'thegregeema00-21\',\n\t\t\t\'ca\'\t: \'thegregeema0d-20\',\n\t\t\t\'co.jp\'\t: \'\',\n\t\t\t\'jp\'\t: \'\',\n\t\t\t\'it\'\t: \'\',\n\t\t\t\'cn\'\t: \'\',\n\t\t\t\'es\'\t: \'\'\n\t\t};\n\t\tvar strUrlAjax = \'http://thegreatgeekmanual.com/blog/wp-content/plugins/amazon-affiliate-link-localizer/ajax.php\';\n    </script>\n    <script src="http://thegreatgeekmanual.com/blog/wp-content/plugins/amazon-affiliate-link-localizer/js/amazon_linker.min.js" type="text/javascript"></script>\n    <script type="text/javascript">\n      //&lt;![CDATA[\n\tfunction external_links_in_new_windows_loop() {\n\t\tif (!document.links) {\n\t\t\tdocument.links = document.getElementsByTagName(\'a\');\n\t\t}\n\t\tvar change_link = false;\n\t\tvar force = \'\';\n\t\tvar ignore = \'\';\n\n\t\tfor (var t=0; t&lt;document.links.length; t++) {\n\t\t\tvar all_links = document.links[t];\n\t\t\tchange_link = false;\n\t\t\t\n\t\t\tif(document.links[t].hasAttribute(\'onClick\') == false) {\n\t\t\t\t// forced if the address starts with http (or also https), but does not link to the current domain\n\t\t\t\tif(all_links.href.search(/^http/) != -1 &amp;&amp; all_links.href.search(\'thegreatgeekmanual.com\') == -1) {\n\t\t\t\t\t// alert(\'Changeda \'+all_links.href);\n\t\t\t\t\tchange_link = true;\n\t\t\t\t}\n\t\t\t\t\t\n\t\t\t\tif(force != \'\' &amp;&amp; all_links.href.search(force) != -1) {\n\t\t\t\t\t// forced\n\t\t\t\t\t// alert(\'force \'+all_links.href);\n\t\t\t\t\tchange_link = true;\n\t\t\t\t}\n\t\t\t\t\n\t\t\t\tif(ignore != \'\' &amp;&amp; all_links.href.search(ignore) != -1) {\n\t\t\t\t\t// alert(\'ignore \'+all_links.href);\n\t\t\t\t\t// ignored\n\t\t\t\t\tchange_link = false;\n\t\t\t\t}\n\n\t\t\t\tif(change_link == true) {\n\t\t\t\t\t// alert(\'Changed \'+all_links.href);\n\t\t\t\t\tdocument.links[t].setAttribute(\'onClick\', \'javascript:window.open(\\\'\'+all_links.href+\'\\\'); return false;\');\n\t\t\t\t\tdocument.links[t].removeAttribute(\'target\');\n\t\t\t\t}\n\t\t\t}\n\t\t}\n\t}\n\t\n\t// Load\n\tfunction external_links_in_new_windows_load(func)\n\t{\t\n\t\tvar oldonload = window.onload;\n\t\tif (typeof window.onload != \'function\'){\n\t\t\twindow.onload = func;\n\t\t} else {\n\t\t\twindow.onload = function(){\n\t\t\t\toldonload();\n\t\t\t\tfunc();\n\t\t\t}\n\t\t}\n\t}\n\n\texternal_links_in_new_windows_load(external_links_in_new_windows_loop);\n\t//]]&gt;\n    </script>\n    <link href="http://thegreatgeekmanual.com/blog/wp-content/plugins/star-rating-for-reviews/star-rating.css" type="text/css" rel="stylesheet"></link>\n    <script type="text/javascript"> /* &lt;![CDATA[ */ jQuery.ajax({type:\'GET\',url:\'http://thegreatgeekmanual.com/blog/wp-admin/admin-ajax.php\',data:\'postviews_id=21853&amp;action=postviews\',cache:false});/* ]]&gt; */ </script>\n    <script type="text/javascript">ggv2id=\'2c622587\';</script>\n    <script src="http://g2.gumgum.com/javascripts/ggv2.js" type="text/javascript"></script>\n    <script type="text/javascript"> var infolink_pid = 264971; var infolink_wsid = 0; </script>\n    <script src="http://resources.infolinks.com/js/infolinks_main.js" type="text/javascript"></script>\n    <script type="text/javascript" src="http://www.google-analytics.com/urchin.js"> </script>\n    <script type="text/javascript"> _uacct = &quot;UA-878025-1&quot;; urchinTracker(); </script>\n    <script type="text/javascript" src="http://www.google-analytics.com/urchin.js"></script>\n    <script type="text/javascript"> _uacct = &quot;UA-878025-2&quot;; urchinTracker(); </script>\n  </head>\n  <body>\n    <a href="http://www.hostcolor.com/" class="socialtools" shape="rect">\n      <img title="HostColor: Multiple Web Site Hosting" style="position: absolute; top: 0px; right: 0px;" src="http://thegreatgeekmanual.com/blog/wp-content/themes/notso_freshe/images/corner-banner.png"></img>\n    </a>\n    <div id="outline">\n      <div id="header">\n        <div class="blogtitle">\n          <h1>\n            <a title="The Great Geek Manual" href="http://thegreatgeekmanual.com/blog" shape="rect">The Great Geek Manual</a>\n          </h1>\n          <div class="blogsubtitle">\n            <script src="/motivatequote.js" language="JavaScript1.1"></script>\n          </div>\n        </div>\n        <div id="navbar">\n          <ul class="menu">\n            <li class="page_item">\n              <a href="http://thegreatgeekmanual.com/blog" shape="rect"> Blog</a>\n            </li>\n          </ul>\n          <div class="searchbar">\n            <form action="http://thegreatgeekmanual.com/blog/" id="searchform" method="get" enctype="application/x-www-form-urlencoded">\n              <div>\n                <input name="s" value="" id="s" type="text"></input>\n              </div>\n            </form>\n          </div>\n        </div>\n        <div id="wrapper">\n          <div id="content">\n            <div id="post-21853" class="post2">\n              <div class="diggright">\xc2\xa0</div>\n              <div class="diggleft">\n                <h2 class="post2title">\n                  <a title="Permalink to This Day in Geek History: April 30" rel="bookmark" href="http://thegreatgeekmanual.com/blog/this-day-in-geek-history-april-30" shape="rect">This Day in Geek History: April 30</a>\n                </h2>\n                <script charset="utf-8" type="text/javascript" src="http://feeds.feedburner.com/~s/TheGreatGeekManualNews?i=http://thegreatgeekmanual.com/blog/this-day-in-geek-history-april-30"></script>\n                <p class="post2meta">\n                  <span class="post2-date">30 Apr 2012</span>\n                  \xc2\xa0\n                  <span class="post2-filed">\n                    <a rel="category tag" title="View all posts in Geek History" href="http://thegreatgeekmanual.com/blog/category/geek-history" shape="rect">Geek History</a>\n                  </span>\n                  <br clear="none"></br>\n                </p>\n              </div>\n              <div class="post2entry">\n                <p>\n                  <strong>1006</strong>\n                  <br clear="none"></br>\n                  <img style="float: right; margin-left: 1em;" alt="SuperNova 1006" src="http://thegreatgeekmanual.com/images/geekhistory/april/supernova-1006.jpg"></img>\n                  Supernova\n                  <a href="http://en.wikipedia.org/wiki/SN_1006" shape="rect">SN 1006</a>\n                  , the brightest supernova in recorded history, occurs in the southern\n                  <a href="http://en.wikipedia.org/wiki/Lupus_constellation" shape="rect">constellation Lupus</a>\n                  , near the star\n                  <a href="http://en.wikipedia.org/wiki/Beta_Lupi" shape="rect">Beta Lupi</a>\n                  .  Chinese and Arabic astronomers note the supernova, but the speed of the still-expanding shock wave won\xe2\x80\x99t be measured for nearly a millennium.  The event is also recorded by observers in Egypt, Iraq, Italy, Japan, and Switzerland.  From the careful descriptions recorded by Chinese astronomers of how the light varies, the Supernova is apparently yellow in color and visible for over a year.\n                  <br clear="none"></br>\n                  <span id="more-21853"></span>\n                  <br clear="none"></br>\n                  <strong>1665</strong>\n                  <br clear="none"></br>\n                  <img style="float: right; margin-left: 1em;" alt="The Great Plague of London" src="http://thegreatgeekmanual.com/images/geekhistory/april/the-great-plague-in-london.jpg"></img>\n                  <a href="http://en.wikipedia.org/wiki/Samuel_Pepys" shape="rect">Samuel Pepys</a>\n                  makes his first diary reference to\n                  <a href="http://en.wikipedia.org/wiki/Great_Plague_of_London" shape="rect">the Great Plague in London</a>\n                  .  \xe2\x80\x9cGreat fears of the sicknesses here in the City, it being said that two or three houses are already shut up. God preserve us all.\xe2\x80\x9d  The diary entries continue throughout the year, documenting the terrible conditions in the city as many thousands die, until Winter\xe2\x80\x99s freezing cold reduces the number of fleas that spread the disease.  The symptoms of the plague begin like those of a bad cold. A high fever follows, with vomiting and painful black swellings, called buboes appearing in the groin and under the armpits.  His diaries will cover a period from January 1660 to May 1669.  In them, he will also write about\n                  <a href="http://en.wikipedia.org/wiki/Great_Fire_of_London" shape="rect">the Great Fire of London</a>\n                  in 1666.\n                </p>\n                <p>\n                  <strong>1796</strong>\n                  <br clear="none"></br>\n                  The first U.S. patent for a pill of any kind is issued to Samuel Lee, Jr., of Connecticut, for a \xe2\x80\x9cComposition of bilious pills\xe2\x80\x9d which he markets as \xe2\x80\x9cLee\xe2\x80\x99s Windham Pills.\xe2\x80\x9d  The pills are highly popular for a long period.  An 1803 advertisement for \xe2\x80\x9cDoctor Lee\xe2\x80\x99s Patent New-London Bilious Pills\xe2\x80\x9d will describe them as \xe2\x80\x9cInteresting to all sea-faring People\xe2\x80\x9d and promise to cure a variety of ills, including \xe2\x80\x9cfoul stomachs, where pukes are indicated.\xe2\x80\x9d\n                </p>\n                <p>\n                  <strong>1878</strong>\n                  <br clear="none"></br>\n                  <a href="http://en.wikipedia.org/wiki/Louis_Pasteur" shape="rect">Louis Pasteur</a>\n                  lectures at the\n                  <a href="http://en.wikipedia.org/wiki/French_Academy_of_Science" shape="rect">French Academy of Science</a>\n                  in support of his\n                  <a href="http://en.wikipedia.org/wiki/Germ_theory_of_disease" shape="rect">germ theory of disease</a>\n                  , in which he holds that many diseases are caused by tiny organisms.  Pasteur also describes ways to prevent infection, and provides skeptics with an experiment with which to prove the theory to themselves.\n                </p>\n                <p>\n                  <strong>1883</strong>\n                  <br clear="none"></br>\n                  The Edison Electric Illuminating Co. is incorporated.  It will later build the first three-wire central station for incandescent lighting in the U.S.\n                </p>\n                <p>\n                  <strong>1897</strong>\n                  <br clear="none"></br>\n                  At the Royal Institution Friday Evening Discourse,\n                  <a href="http://en.wikipedia.org/wiki/J.J._Thomson" shape="rect">Joseph John Thomson</a>\n                  , first announces the existence of what will later be known as\n                  <a href="http://en.wikipedia.org/wiki/Electrons" shape="rect">electrons</a>\n                  .  Thomson tells the audience that earlier in the year, he had made a surprising discovery.  He had found a particle of matter a thousand times smaller than the atom.  He calls it a corpuscle, meaning \xe2\x80\x9csmall body.\xe2\x80\x9d  Although Thomson is the director of the\n                  <a href="http://en.wikipedia.org/wiki/Cavendish_Laboratory" shape="rect">Cavendish Laboratory</a>\n                  at the\n                  <a href="http://en.wikipedia.org/wiki/University_of_Cambridge" shape="rect">University of Cambridge</a>\n                  , and one of the most respected scientists in Great Britain, the scientists present find the news difficult to believe.  They believe that the atom is the smallest and most indivisible part of matter in existence.  Nevertheless, the electron is historically the first elementary particle to be discovered.\n                </p>\n                <p>\n                  <strong>1935</strong>\n                  <br clear="none"></br>\n                  The two millionth U.S. patent is granted to Joseph Ledwinka for a method of vehicle wheel construction.\n                </p>\n                <p>\n                  <strong>1938</strong>\n                  <br clear="none"></br>\n                  The cartoon short\n                  <a href="http://en.wikipedia.org/wiki/Porky%27s_Hare_Hunt" shape="rect">Porky\xe2\x80\x99s Hare Hunt</a>\n                  debuts in movie theaters, introducing\n                  <a href="http://en.wikipedia.org/wiki/Bugs_Bunny" shape="rect">Bugs Bunny</a>\n                  .\n                </p>\n                <p>\n                  <strong>1939</strong>\n                  <br clear="none"></br>\n                  Cosmic rays entering a\n                  <a href="http://en.wikipedia.org/wiki/Geiger-Mueller_counter" shape="rect">Geiger-Mueller counter</a>\n                  produce electrical impulses used to control electrical power.  The first ever such event is used for the illumination ceremony of the 1939 New York World\xe2\x80\x99s Fair.  The counter, at the\n                  <a href="http://en.wikipedia.org/wiki/Hayden_Planetarium" shape="rect">Hayden Planetarium</a>\n                  in New York City, switches on an electrical circuit wired to a display at the Lagoon of Nations where relays activate local battery circuits, ringing bells and flashing lights to signal each capture of a cosmic ray.  Guest speaker\n                  <a href="http://en.wikipedia.org/wiki/Albert_Einstein" shape="rect">Albert Einstein</a>\n                  explains cosmic rays.  Unfortunately, his accent and a faulty amplification system render his words incomprehensible to the crowd.  Upon the tenth ray\xe2\x80\x99s signal, a huge light is meant to be turned on to illuminate the 600 foot Trylon triangular spire, but the power source fails.\n                </p>\n                <p>\n                  The\n                  <a href="http://en.wikipedia.org/wiki/RCA" shape="rect">RCA</a>\n                  -owned\n                  <a href="http://en.wikipedia.org/wiki/NBC" shape="rect">NBC</a>\n                  network launches regular public television service with the formal opening of the\n                  <a href="http://en.wikipedia.org/wiki/1939_New_York_World%27s_Fair" shape="rect">1939 New York World\xe2\x80\x99s Fair</a>\n                  by President\n                  <a href="http://en.wikipedia.org/wiki/Franklin_Roosevelt" shape="rect">Franklin Roosevelt</a>\n                  .  (It is the first of only two appearances Roosevelt will make on television.)  The service will air two hours of programs a week, to be received on RCA sets, in order to \xe2\x80\x9cto make the art of television available to the public.\xe2\x80\x9d   By the end of the year, a thousand receivers will be sold in the U.S.  The screens of the receivers are initially only about five inches across.\n                </p>\n                <div id="greet_block">\n                  <noscript>\n                    <div class="greet_block">\n                      <div class="greet_text">\n                        <div class="greet_image">\n                          <a rel="nofollow" href="http://thegreatgeekmanual.com/blog/feed/rss" shape="rect">\n                            <img alt="WP Greet Box icon" src="http://thegreatgeekmanual.com/blog/wp-content/plugins/wp-greet-box/images/rss_icon.png"></img>\n                          </a>\n                        </div>\n                        Hello there! If you are new here, you might want to\n                        <a rel="nofollow" href="http://thegreatgeekmanual.com/blog/feed/rss" shape="rect">\n                          <strong>subscribe to the RSS feed</strong>\n                        </a>\n                        for updates on this topic.\n                        <div style="clear:both"></div>\n                      </div>\n                    </div>\n                  </noscript>\n                </div>\n                <strong>Pages:</strong>\n                1\n                <a href="http://thegreatgeekmanual.com/blog/this-day-in-geek-history-april-30/2" shape="rect">2</a>\n                <a href="http://thegreatgeekmanual.com/blog/this-day-in-geek-history-april-30/3" shape="rect">3</a>\n              </div>\n            </div>\n            <p align="center">\n              <table width="500" align="center">\n                <tbody>\n                  <tr width="500">\n                    <td rowspan="1" colspan="1">\n                      <script type="text/javascript">\n                        &lt;!--\n\t\t\tgoogle_ad_client = &quot;pub-5458530472845924&quot;;\n\t\t\tgoogle_ad_width = 250;\n\t\t\tgoogle_ad_height = 250;\n\t\t\tgoogle_ad_format = &quot;250x250_as&quot;;\n\t\t\tgoogle_ad_type = &quot;text_image&quot;;\n\t\t\tgoogle_ad_channel = &quot;&quot;;\n\t\t\tgoogle_color_border = &quot;e9e9e9&quot;;\n\t\t\tgoogle_color_bg = &quot;eeeeee&quot;;\n\t\t\tgoogle_color_link = &quot;FF9c00&quot;;\n\t\t\tgoogle_color_text = &quot;000000&quot;;\n\t\t\tgoogle_color_url = &quot;2f63b3&quot;;\n\t\t\t//--&gt;\n                      </script>\n                      <script src="http://pagead2.googlesyndication.com/pagead/show_ads.js" type="text/javascript"></script>\n                      <br clear="none"></br>\n                    </td>\n                    <td rowspan="1" colspan="1">\n                      <script type="text/javascript">\n                        &lt;!--\n\t\t\tgoogle_ad_client = &quot;pub-5458530472845924&quot;;\n\t\t\tgoogle_ad_width = 250;\n\t\t\tgoogle_ad_height = 250;\n\t\t\tgoogle_ad_format = &quot;250x250_as&quot;;\n\t\t\tgoogle_ad_type = &quot;text_image&quot;;\n\t\t\tgoogle_ad_channel = &quot;&quot;;\n\t\t\tgoogle_color_border = &quot;e9e9e9&quot;;\n\t\t\tgoogle_color_bg = &quot;eeeeee&quot;;\n\t\t\tgoogle_color_link = &quot;FF9c00&quot;;\n\t\t\tgoogle_color_text = &quot;000000&quot;;\n\t\t\tgoogle_color_url = &quot;2f63b3&quot;;\n\t\t\t//--&gt;\n                      </script>\n                      <script src="http://pagead2.googlesyndication.com/pagead/show_ads.js" type="text/javascript"></script>\n                      <br clear="none"></br>\n                    </td>\n                  </tr>\n                </tbody>\n              </table>\n            </p>\n            <div class="post2">\n              <div id="disqus_thread"> </div>\n              <script type="text/javascript">\n                /* &lt;![CDATA[ */\n    var disqus_url = \'http://thegreatgeekmanual.com/blog/this-day-in-geek-history-april-30\';\n    var disqus_identifier = \'21853 http://thegreatgeekmanual.com/blog/?p=21853\';\n    var disqus_container_id = \'disqus_thread\';\n    var disqus_domain = \'disqus.com\';\n    var disqus_shortname = \'greatgeekmanual\';\n    var disqus_title = &quot;This Day in Geek History: April 30&quot;;\n        var disqus_config = function () {\n        var config = this; // Access to the config object\n\n        /*\n           All currently supported events:\n            * preData \xc3\xa2\xe2\x82\xac\xe2\x80\x9d fires just before we request for initial data\n            * preInit - fires after we get initial data but before we load any dependencies\n            * onInit  - fires when all dependencies are resolved but before dtpl template is rendered\n            * afterRender - fires when template is rendered but before we show it\n            * onReady - everything is done\n         */\n\n        config.callbacks.preData.push(function() {\n            // clear out the container (its filled for SEO/legacy purposes)\n            document.getElementById(disqus_container_id).innerHTML = \'\';\n        });\n                config.callbacks.onReady.push(function() {\n            // sync comments in the background so we don\'t block the page\n            var script = document.createElement(\'script\');\n            script.async = true;\n            script.src = \'?cf_action=sync_comments&amp;post_id=21853\';\n\n            var firstScript = document.getElementsByTagName( &quot;script&quot; )[0];\n            firstScript.parentNode.insertBefore(script, firstScript);\n        });\n                    };\n    var facebookXdReceiverPath = \'http://thegreatgeekmanual.com/blog/wp-content/plugins/disqus-comment-system/xd_receiver.htm\';\n/* ]]&gt; */\n              </script>\n              <script type="text/javascript"> /* &lt;![CDATA[ */ var DsqLocal = { \'trackbacks\': [ ], \'trackback_url\': &quot;http:\\/\\/thegreatgeekmanual.com\\/blog\\/this-day-in-geek-history-april-30\\/trackback&quot; }; /* ]]&gt; */ </script>\n              <script type="text/javascript">\n                /* &lt;![CDATA[ */\n(function() {\n    var dsq = document.createElement(\'script\'); dsq.type = \'text/javascript\';\n    dsq.async = true;\n        dsq.src = \'http\' + \'://\' + disqus_shortname + \'.\' + \'disqus.com\' + \'/embed.js?pname=wordpress&amp;pver=2.73\';\n    (document.getElementsByTagName(\'head\')[0] || document.getElementsByTagName(\'body\')[0]).appendChild(dsq);\n})();\n/* ]]&gt; */\n              </script>\n            </div>\n          </div>\n          <div id="sidebar">\n            <div class="socialtools">\n              <h2>Add to Social Bookmarks</h2>\n              <a title="del.icio.us" href="http://del.icio.us/post?url=http%3A%2F%2Fthegreatgeekmanual.com%2Fblog%2Fthis-day-in-geek-history-april-30&amp;title=This+Day+in+Geek+History%3A+April+30" shape="rect">\n                <img alt="del.icio.us" src="http://thegreatgeekmanual.com/blog/wp-content/themes/notso_freshe/images/social/delicious.png"></img>\n              </a>\n              <a title="Reddit" href="http://reddit.com/submit?url=http%3A%2F%2Fthegreatgeekmanual.com%2Fblog%2Fthis-day-in-geek-history-april-30&amp;title=This+Day+in+Geek+History%3A+April+30" shape="rect">\n                <img alt="Reddit" src="http://thegreatgeekmanual.com/blog/wp-content/themes/notso_freshe/images/social/reddit.png"></img>\n              </a>\n              <a title="Technorati" href="http://www.technorati.com/faves?add=http%3A%2F%2Fthegreatgeekmanual.com%2Fblog%2Fthis-day-in-geek-history-april-30" shape="rect">\n                <img alt="Technorati" src="http://thegreatgeekmanual.com/blog/wp-content/themes/notso_freshe/images/social/technorati.png"></img>\n              </a>\n              <a title="Furl" href="http://furl.net/storeIt.jsp?t=This+Day+in+Geek+History%3A+April+30&amp;u=http%3A%2F%2Fthegreatgeekmanual.com%2Fblog%2Fthis-day-in-geek-history-april-30" shape="rect">\n                <img alt="Furl" src="http://thegreatgeekmanual.com/blog/wp-content/themes/notso_freshe/images/social/furl.png"></img>\n              </a>\n              <a title="Blinklist" href="http://blinklist.com/index.php?Action=Blink/addblink.php&amp;Name=This+Day+in+Geek+History%3A+April+30&amp;Description=This+Day+in+Geek+History%3A+April+30&amp;Url=http%3A%2F%2Fthegreatgeekmanual.com%2Fblog%2Fthis-day-in-geek-history-april-30" shape="rect">\n                <img alt="Blinklist" src="http://thegreatgeekmanual.com/blog/wp-content/themes/notso_freshe/images/social/blinklist.png"></img>\n              </a>\n              <a title="Netscape" href="http://www.netscape.com/submit/?U=http%3A%2F%2Fthegreatgeekmanual.com%2Fblog%2Fthis-day-in-geek-history-april-30&amp;T=This+Day+in+Geek+History%3A+April+30" shape="rect">\n                <img alt="Netscape" src="http://thegreatgeekmanual.com/blog/wp-content/themes/notso_freshe/images/social/netscape.png"></img>\n              </a>\n              <a title="Yahoo My Web" href="http://myweb2.search.yahoo.com/myresults/bookmarklet?u=http%3A%2F%2Fthegreatgeekmanual.com%2Fblog%2Fthis-day-in-geek-history-april-30&amp;t=This+Day+in+Geek+History%3A+April+30" shape="rect">\n                <img alt="Yahoo My Web" src="http://thegreatgeekmanual.com/blog/wp-content/themes/notso_freshe/images/social/yahoo_myweb.png"></img>\n              </a>\n              <a title="Newsvine" href="http://www.newsvine.com/_wine/save?u=http%3A%2F%2Fthegreatgeekmanual.com%2Fblog%2Fthis-day-in-geek-history-april-30&amp;h={title" shape="rect">\n                <img alt="Newsvine" src="http://thegreatgeekmanual.com/blog/wp-content/themes/notso_freshe/images/social/newsvine.png"></img>\n              </a>\n              <br clear="none"></br>\n              <a title="Socializer" href="http://ekstreme.com/socializer/?url=http%3A%2F%2Fthegreatgeekmanual.com%2Fblog%2Fthis-day-in-geek-history-april-30&amp;title=This+Day+in+Geek+History%3A+April+30" shape="rect">\n                <img alt="Socializer" src="http://thegreatgeekmanual.com/blog/wp-content/themes/notso_freshe/images/social/socializer.png"></img>\n              </a>\n              <a title="Ma.gnolia" href="http://ma.gnolia.com/bookmarklet/add?url=http%3A%2F%2Fthegreatgeekmanual.com%2Fblog%2Fthis-day-in-geek-history-april-30&amp;title=This+Day+in+Geek+History%3A+April+30&amp;description=This+Day+in+Geek+History%3A+April+30" shape="rect">\n                <img alt="Ma.gnolia" src="http://thegreatgeekmanual.com/blog/wp-content/themes/notso_freshe/images/social/magnolia.png"></img>\n              </a>\n              <a title="Stumble Upon" href="http://www.stumbleupon.com/refer.php?url=http%3A%2F%2Fthegreatgeekmanual.com%2Fblog%2Fthis-day-in-geek-history-april-30&amp;title=This+Day+in+Geek+History%3A+April+30" shape="rect">\n                <img alt="Stumble Upon" src="http://thegreatgeekmanual.com/blog/wp-content/themes/notso_freshe/images/social/stumbleupon.png"></img>\n              </a>\n              <a title="Google Bookmarks" href="http://www.google.com/bookmarks/mark?op=edit&amp;output=popup&amp;bkmk=http%3A%2F%2Fthegreatgeekmanual.com%2Fblog%2Fthis-day-in-geek-history-april-30&amp;title=This+Day+in+Geek+History%3A+April+30" shape="rect">\n                <img alt="Google Bookmarks" src="http://thegreatgeekmanual.com/blog/wp-content/themes/notso_freshe/images/social/google.png"></img>\n              </a>\n              <a title="RawSugar" href="http://www.rawsugar.com/tagger/?turl=http%3A%2F%2Fthegreatgeekmanual.com%2Fblog%2Fthis-day-in-geek-history-april-30&amp;tttl=This+Day+in+Geek+History%3A+April+30" shape="rect">\n                <img alt="RawSugar" src="http://thegreatgeekmanual.com/blog/wp-content/themes/notso_freshe/images/social/rawsugar.png"></img>\n              </a>\n              <a title="Squidoo" href="http://www.squidoo.com/lensmaster/bookmark?http%3A%2F%2Fthegreatgeekmanual.com%2Fblog%2Fthis-day-in-geek-history-april-30" shape="rect">\n                <img alt="Squidoo" src="http://thegreatgeekmanual.com/blog/wp-content/themes/notso_freshe/images/social/squidoo.png"></img>\n              </a>\n              <a title="Spurl" href="http://www.spurl.net/spurl.php?url=http%3A%2F%2Fthegreatgeekmanual.com%2Fblog%2Fthis-day-in-geek-history-april-30&amp;title=This+Day+in+Geek+History%3A+April+30" shape="rect">\n                <img alt="Spurl" src="http://thegreatgeekmanual.com/blog/wp-content/themes/notso_freshe/images/social/spurl.png"></img>\n              </a>\n              <a title="BlinkBits" href="http://blinkbits.com/bookmarklets/save.php?v=1&amp;source_url=http%3A%2F%2Fthegreatgeekmanual.com%2Fblog%2Fthis-day-in-geek-history-april-30&amp;title=This+Day+in+Geek+History%3A+April+30" shape="rect">\n                <img alt="BlinkBits" src="http://thegreatgeekmanual.com/blog/wp-content/themes/notso_freshe/images/social/blinkbits.png"></img>\n              </a>\n              <br clear="none"></br>\n              <a title="Netvouz" href="http://netvouz.com/action/submitBookmark?url=http%3A%2F%2Fthegreatgeekmanual.com%2Fblog%2Fthis-day-in-geek-history-april-30&amp;title=This+Day+in+Geek+History%3A+April+30&amp;popup=no" shape="rect">\n                <img alt="Netvouz" src="http://thegreatgeekmanual.com/blog/wp-content/themes/notso_freshe/images/social/netvouz.png"></img>\n              </a>\n              <a title="Rojo" href="http://www.rojo.com/add-subscription/?resource=http%3A%2F%2Fthegreatgeekmanual.com%2Fblog%2Fthis-day-in-geek-history-april-30" shape="rect">\n                <img alt="Rojo" src="http://thegreatgeekmanual.com/blog/wp-content/themes/notso_freshe/images/social/rojo.png"></img>\n              </a>\n              <a title="Blogmarks" href="http://blogmarks.net/my/new.php?mini=1&amp;simple=1&amp;url=http%3A%2F%2Fthegreatgeekmanual.com%2Fblog%2Fthis-day-in-geek-history-april-30&amp;title=This+Day+in+Geek+History%3A+April+30" shape="rect">\n                <img alt="Blogmarks" src="http://thegreatgeekmanual.com/blog/wp-content/themes/notso_freshe/images/social/bmarks.png"></img>\n              </a>\n              <a title="Co.mments" href="http://co.mments.com/track?url=http%3A%2F%2Fthegreatgeekmanual.com%2Fblog%2Fthis-day-in-geek-history-april-30&amp;title=This+Day+in+Geek+History%3A+April+30" shape="rect">\n                <img alt="Co.mments" src="http://thegreatgeekmanual.com/blog/wp-content/themes/notso_freshe/images/social/comments.png"></img>\n              </a>\n              <a title="Scuttle" href="http://www.scuttle.org/bookmarks.php/maxpower?action=add&amp;address=http%3A%2F%2Fthegreatgeekmanual.com%2Fblog%2Fthis-day-in-geek-history-april-30&amp;title=This+Day+in+Geek+History%3A+April+30&amp;description=This+Day+in+Geek+History%3A+April+30" shape="rect">\n                <img alt="Scuttle" src="http://thegreatgeekmanual.com/blog/wp-content/themes/notso_freshe/images/social/scuttle.png"></img>\n              </a>\n              <a title="Feed me links" href="http://feedmelinks.com/categorize?from=toolbar&amp;op=submit&amp;name={title}&amp;url={link}&amp;version=0.7" shape="rect">\n                <img alt="Feed Me Links" src="http://thegreatgeekmanual.com/blog/wp-content/themes/notso_freshe/images/social/feedmelinks.png"></img>\n              </a>\n              <a title="Yigg" href="http://yigg.de/newpost.php?exturl=http%3A%2F%2Fthegreatgeekmanual.com%2Fblog%2Fthis-day-in-geek-history-april-30" shape="rect">\n                <img alt="Yigg" src="http://thegreatgeekmanual.com/blog/wp-content/themes/notso_freshe/images/social/yigg.png"></img>\n              </a>\n              <a title="Mr.Wong" href="http://www.mister-wong.de/index.php?action=addurl&amp;bm_url=http%3A%2F%2Fthegreatgeekmanual.com%2Fblog%2Fthis-day-in-geek-history-april-30&amp;bm_description=This+Day+in+Geek+History%3A+April+30" shape="rect">\n                <img alt="Mr.Wong" src="http://thegreatgeekmanual.com/blog/wp-content/themes/notso_freshe/images/social/wong.png"></img>\n              </a>\n            </div>\n            <ul>\n              <li id="sidebar-splitted">\n                <div class="splitted-left">\n                  <h2>Archives</h2>\n                  <ul class="splittedlists">\n                    <li>\n                      <a title="October 2012" href="http://thegreatgeekmanual.com/blog/2012/10" shape="rect">October 2012</a>\n                    </li>\n                    <li>\n                      <a title="September 2012" href="http://thegreatgeekmanual.com/blog/2012/09" shape="rect">September 2012</a>\n                    </li>\n                    <li>\n                      <a title="August 2012" href="http://thegreatgeekmanual.com/blog/2012/08" shape="rect">August 2012</a>\n                    </li>\n                    <li>\n                      <a title="July 2012" href="http://thegreatgeekmanual.com/blog/2012/07" shape="rect">July 2012</a>\n                    </li>\n                    <li>\n                      <a title="June 2012" href="http://thegreatgeekmanual.com/blog/2012/06" shape="rect">June 2012</a>\n                    </li>\n                    <li>\n                      <a title="May 2012" href="http://thegreatgeekmanual.com/blog/2012/05" shape="rect">May 2012</a>\n                    </li>\n                    <li>\n                      <a title="April 2012" href="http://thegreatgeekmanual.com/blog/2012/04" shape="rect">April 2012</a>\n                    </li>\n                    <li>\n                      <a title="March 2012" href="http://thegreatgeekmanual.com/blog/2012/03" shape="rect">March 2012</a>\n                    </li>\n                    <li>\n                      <a title="February 2012" href="http://thegreatgeekmanual.com/blog/2012/02" shape="rect">February 2012</a>\n                    </li>\n                    <li>\n                      <a title="January 2012" href="http://thegreatgeekmanual.com/blog/2012/01" shape="rect">January 2012</a>\n                    </li>\n                    <li>\n                      <a title="December 2011" href="http://thegreatgeekmanual.com/blog/2011/12" shape="rect">December 2011</a>\n                    </li>\n                    <li>\n                      <a title="November 2011" href="http://thegreatgeekmanual.com/blog/2011/11" shape="rect">November 2011</a>\n                    </li>\n                  </ul>\n                </div>\n                <div class="splitted-right">\n                  <h2 style="width: 90%;">Categories</h2>\n                  <ul class="splittedlists">\n                    <li class="cat-item cat-item-14">\n                      <a title="View all posts filed under Gadgets &amp; More" href="http://thegreatgeekmanual.com/blog/category/gadgets" shape="rect">Gadgets &amp; More</a>\n                    </li>\n                    <li style="margin-left:1em;" class="cat-item cat-item-25">\n                      <a title="View all posts filed under T-Shirts" href="http://thegreatgeekmanual.com/blog/category/gadgets/t-shirts" shape="rect">T-Shirts</a>\n                    </li>\n                    <li class="cat-item cat-item-8">\n                      <a title="View all posts filed under Geek History" href="http://thegreatgeekmanual.com/blog/category/geek-history" shape="rect">Geek History</a>\n                    </li>\n                    <li class="cat-item cat-item-15">\n                      <a title="View all posts filed under Geekology" href="http://thegreatgeekmanual.com/blog/category/geekology" shape="rect">Geekology</a>\n                    </li>\n                    <li style="margin-left:1em;" class="cat-item cat-item-20">\n                      <a title="A collection of texts relating to Geek culture and history. " href="http://thegreatgeekmanual.com/blog/category/geekology/geek-reading" shape="rect">Geek Reading</a>\n                    </li>\n                    <li class="cat-item cat-item-3">\n                      <a title="View all posts filed under Humor" href="http://thegreatgeekmanual.com/blog/category/humor" shape="rect">Humor</a>\n                    </li>\n                    <li style="margin-left:1em;" class="cat-item cat-item-10">\n                      <a title="View all posts filed under Graphical Gags" href="http://thegreatgeekmanual.com/blog/category/humor/graphical-gags" shape="rect">Graphical Gags</a>\n                    </li>\n                    <li style="margin-left:1em;" class="cat-item cat-item-34">\n                      <a title="View all posts filed under Motivational" href="http://thegreatgeekmanual.com/blog/category/humor/motivational-posters" shape="rect">Motivational</a>\n                    </li>\n                    <li style="margin-left:1em;" class="cat-item cat-item-23">\n                      <a title="View all posts filed under Videos" href="http://thegreatgeekmanual.com/blog/category/humor/videos" shape="rect">Videos</a>\n                    </li>\n                    <li style="margin-left:1em;" class="cat-item cat-item-39">\n                      <a title="View all posts filed under Webcomic" href="http://thegreatgeekmanual.com/blog/category/humor/webcomic" shape="rect">Webcomic</a>\n                    </li>\n                    <li class="cat-item cat-item-342">\n                      <a title="View all posts filed under Infographics" href="http://thegreatgeekmanual.com/blog/category/infographics-2" shape="rect">Infographics</a>\n                    </li>\n                    <li class="cat-item cat-item-11">\n                      <a title="View all posts filed under Japan 101" href="http://thegreatgeekmanual.com/blog/category/japanese-culture" shape="rect">Japan 101</a>\n                    </li>\n                    <li class="cat-item cat-item-9">\n                      <a title="View all posts filed under Links" href="http://thegreatgeekmanual.com/blog/category/links" shape="rect">Links</a>\n                    </li>\n                    <li class="cat-item cat-item-5">\n                      <a title="View all posts filed under Media" href="http://thegreatgeekmanual.com/blog/category/media" shape="rect">Media</a>\n                    </li>\n                    <li style="margin-left:1em;" class="cat-item cat-item-31">\n                      <a title="View all posts filed under Books" href="http://thegreatgeekmanual.com/blog/category/media/literature" shape="rect">Books</a>\n                    </li>\n                    <li style="margin-left:2em;" class="cat-item cat-item-344">\n                      <a title="View all posts filed under Book Reviews" href="http://thegreatgeekmanual.com/blog/category/media/literature/book-reviews" shape="rect">Book Reviews</a>\n                    </li>\n                    <li style="margin-left:1em;" class="cat-item cat-item-30">\n                      <a title="View all posts filed under Movies" href="http://thegreatgeekmanual.com/blog/category/media/movies" shape="rect">Movies</a>\n                    </li>\n                    <li style="margin-left:1em;" class="cat-item cat-item-352">\n                      <a title="View all posts filed under Music" href="http://thegreatgeekmanual.com/blog/category/media/music-media" shape="rect">Music</a>\n                    </li>\n                    <li style="margin-left:1em;" class="cat-item cat-item-284">\n                      <a title="View all posts filed under Short Films" href="http://thegreatgeekmanual.com/blog/category/media/short-films" shape="rect">Short Films</a>\n                    </li>\n                    <li style="margin-left:1em;" class="cat-item cat-item-26">\n                      <a title="View all posts filed under Television" href="http://thegreatgeekmanual.com/blog/category/media/television" shape="rect">Television</a>\n                    </li>\n                    <li style="margin-left:1em;" class="cat-item cat-item-35">\n                      <a title="View all posts filed under Video Games" href="http://thegreatgeekmanual.com/blog/category/media/video-games" shape="rect">Video Games</a>\n                    </li>\n                    <li class="cat-item cat-item-4">\n                      <a title="View all posts filed under News" href="http://thegreatgeekmanual.com/blog/category/news-stories" shape="rect">News</a>\n                    </li>\n                    <li class="cat-item cat-item-38">\n                      <a title="View all posts filed under Photo Galleries" href="http://thegreatgeekmanual.com/blog/category/photo-galleries" shape="rect">Photo Galleries</a>\n                    </li>\n                    <li style="margin-left:1em;" class="cat-item cat-item-301">\n                      <a title="View all posts filed under Books" href="http://thegreatgeekmanual.com/blog/category/photo-galleries/books-photo-gallery" shape="rect">Books</a>\n                    </li>\n                    <li class="cat-item cat-item-44">\n                      <a title="View all posts filed under Quotations" href="http://thegreatgeekmanual.com/blog/category/quotations" shape="rect">Quotations</a>\n                    </li>\n                    <li class="cat-item cat-item-321">\n                      <a title="View all posts filed under Rantings" href="http://thegreatgeekmanual.com/blog/category/rantings" shape="rect">Rantings</a>\n                    </li>\n                    <li class="cat-item cat-item-16">\n                      <a title="View all posts filed under Science" href="http://thegreatgeekmanual.com/blog/category/science" shape="rect">Science</a>\n                    </li>\n                    <li class="cat-item cat-item-22">\n                      <a title="View all posts filed under Software &amp; Tech" href="http://thegreatgeekmanual.com/blog/category/software" shape="rect">Software &amp; Tech</a>\n                    </li>\n                  </ul>\n                </div>\n              </li>\n              <li id="related">\n                <h2>Related Posts</h2>\n                <ul class="no-splitted">\n                  <li>\n                    <a title="Permanent Link: April Fool\xe2\x80\x99s Day Link Round-Up" rel="bookmark" href="http://thegreatgeekmanual.com/blog/april-fools-day-link-round-up" shape="rect">April Fool\xe2\x80\x99s Day Link Round-Up</a>\n                  </li>\n                  <li>\n                    <a title="Permanent Link: Picture of the Week: Einstein Tribute" rel="bookmark" href="http://thegreatgeekmanual.com/blog/picture-of-the-week-einstein-tribute" shape="rect">Picture of the Week: Einstein Tribute</a>\n                  </li>\n                  <li>\n                    <a title="Permanent Link: April Sources" rel="bookmark" href="http://thegreatgeekmanual.com/blog/bibliography/april-sources" shape="rect">April Sources</a>\n                  </li>\n                  <li>\n                    <a title="Permanent Link: Motivational Poster: Gaming Obsession" rel="bookmark" href="http://thegreatgeekmanual.com/blog/motivational-poster-gaming-obsession" shape="rect">Motivational Poster: Gaming Obsession</a>\n                  </li>\n                </ul>\n              </li>\n              <li id="sponsors">\n                <h2>Sponsors</h2>\n                <ul class="no-splitted">\n                  <li>\n                    <a alt="Host Color Web Hosting" title="Reliable Hosting and Helpful Customer Service" href="http://www.hostcolor.com" shape="rect">Host Color: Multiple Web Site Hosting</a>\n                  </li>\n                  <li>\n                    Take home a\n                    <a alt="Robomaid" title="Robomaid" href="http://www.robomaid.com.au/" shape="rect">robot vacuum cleaner</a>\n                    from Robomaid.\n                  </li>\n                </ul>\n                <br clear="none"></br>\n                <script type="text/javascript">\n                  &lt;!--\ngoogle_ad_client = &quot;pub-5458530472845924&quot;;\ngoogle_ad_width = 234;\ngoogle_ad_height = 60;\ngoogle_ad_format = &quot;234x60_as&quot;;\ngoogle_ad_type = &quot;text&quot;;\ngoogle_ad_channel = &quot;&quot;;\ngoogle_color_border = &quot;E9E9E9&quot;;\ngoogle_color_bg = &quot;EEEEEE&quot;;\ngoogle_color_link = &quot;FF9C00&quot;;\ngoogle_color_text = &quot;000000&quot;;\ngoogle_color_url = &quot;2F63B3&quot;;\n//--&gt;\n                </script>\n                \xc2\xa0\n                <script src="http://pagead2.googlesyndication.com/pagead/show_ads.js" type="text/javascript"></script>\n              </li>\n            </ul>\n          </div>\n          <div id="bottom">\n            <div class="bottom-divs">\n              <div id="bottom-left">\n                <h2>\n                  Blog\n                  <span>Roll</span>\n                </h2>\n                <ul>\n                  <li>\n                    <a href="http://charles-tan.blogspot.com/" shape="rect">Bibliophile Stalker</a>\n                  </li>\n                  <li>\n                    <a href="http://www.dailytop10.net/" shape="rect">The Daily Top 10</a>\n                  </li>\n                  <li>\n                    <a href="http://www.geekanerdblog.com/" shape="rect">The Geekanerd Blog</a>\n                  </li>\n                  <li>\n                    <a href="http://www.icanhasmotivation.com/" shape="rect">I Can Has Motivation</a>\n                  </li>\n                  <li>\n                    <a href="http://www.jeffisageek.net/blog/" shape="rect">(Jeff)isageek</a>\n                  </li>\n                  <li>\n                    <a href="http://evildm.blogspot.com/" shape="rect">The Lair of the Evil DM</a>\n                  </li>\n                  <li>\n                    <a href="http://www.lisapaitzspindler.com/blog" shape="rect">Lisa Paitz Spindler</a>\n                  </li>\n                  <li>\n                    <a href="http://presurfer.blogspot.com/" shape="rect">The Presurfer</a>\n                  </li>\n                  <li>\n                    <a href="http://notsomotivational.com/" shape="rect">Not So Motivational</a>\n                  </li>\n                  <li>\n                    <a href="http://silverstairs.wordpress.com/" shape="rect">The Science of Fiction</a>\n                  </li>\n                  <li>\n                    <a href="http://www.weirdwarp.com" shape="rect">Weirdwarp</a>\n                  </li>\n                  <li>\n                    <a href="http://" shape="rect">Coming Soon...</a>\n                  </li>\n                  <li>\n                    <a href="http://" shape="rect">Coming Soon...</a>\n                  </li>\n                  <li>\n                    <a href="http://" shape="rect">Coming Soon...</a>\n                  </li>\n                  <li>\n                    <a href="http://" shape="rect">Coming Soon...</a>\n                  </li>\n                </ul>\n              </div>\n              <div id="bottom-mid">\n                <h2>\n                  Site\n                  <span>Info</span>\n                </h2>\n                <ul>\n                  <li>\n                    <a title="Learn more about your host" href="http://thegreatgeekmanual.com/blog/about/" shape="rect">About the Author</a>\n                  </li>\n                  <li>\n                    <a href="http://thegreatgeekmanual.com/blog/book-reviews-by-author" shape="rect">Book Reviews by Author</a>\n                  </li>\n                  <li>\n                    <a href="http://thegreatgeekmanual.com/blog/book-reviews-by-title" shape="rect">Book Reviews by Title</a>\n                  </li>\n                  <li>\n                    <a title="Contact information for the author" href="http://thegreatgeekmanual.com/blog/contact/" shape="rect">Contact the Author</a>\n                  </li>\n                  <li>\n                    <a title="Thanks to all the people who made this site possible." href="http://thegreatgeekmanual.com/blog/credits/" shape="rect">Credits</a>\n                  </li>\n                  <li>\n                    <a title="Copyright Notices and Terms of Use" href="http://thegreatgeekmanual.com/blog/disclaimers/" shape="rect">Disclaimers and Notices</a>\n                  </li>\n                  <li>\n                    <a title="Love the site? Drop a buck here, buy me some Warcraft time." href="http://thegreatgeekmanual.com/blog/donations/" shape="rect">Donations</a>\n                  </li>\n                  <li>\n                    <a title="Learn more about the reliable host and helpful customer service of our sponsor, Host Color!" href="http://thegreatgeekmanual.com/blog/host-color/" shape="rect">Hostcolor</a>\n                  </li>\n                  <li>\n                    <a href="http://thegreatgeekmanual.com/blog/recommended-reading" shape="rect">Recommended Reading</a>\n                  </li>\n                  <li>\n                    <a title="A list of the Services offered by The Great Geek Manual" href="http://thegreatgeekmanual.com/blog/services/" shape="rect">Site Services</a>\n                  </li>\n                  <li>\n                    <a title="View various statistics regarding this site" href="http://thegreatgeekmanual.com/blog/statistics/" shape="rect">Site Statistics</a>\n                  </li>\n                  <li>\n                    <a title="Subscribe to receive GGM posts via e-mail" href="http://thegreatgeekmanual.com/blog/feeds/" shape="rect">Subscribe via E-Mail or RSS</a>\n                  </li>\n                </ul>\n              </div>\n              <div id="bottom-right">\n                <h2>\n                  Popular\n                  <span>Posts</span>\n                </h2>\n                <ul>\n                  <li>\n                    <a href="http://thegreatgeekmanual.com/blog/blogging-is-a-lot-like-sex" shape="rect">Blogging is a lot like Sex...</a>\n                  </li>\n                  <li>\n                    <a href="http://thegreatgeekmanual.com/blog/category/humor/motivational-posters" shape="rect">Motivational Monday: Humorous Posters</a>\n                  </li>\n                  <li>\n                    <a href="http://thegreatgeekmanual.com/blog/picture-of-the-week-harry-potter-porn" shape="rect">Picture of the Week: Harry Potter Porn</a>\n                  </li>\n                  <li>\n                    <a href="http://thegreatgeekmanual.com/blog/portable-utilities-for-usb-drives" shape="rect">Portable Utilities for USB Drives</a>\n                  </li>\n                  <li>\n                    <a href="http://thegreatgeekmanual.com/blog/programming-is-like-sex" shape="rect">Programming is like Sex...</a>\n                  </li>\n                  <li>\n                    <a href="http://thegreatgeekmanual.com/blog/picture-of-the-week-neville-longbottoms-favorite-plant" shape="rect">Neville Longbottom\'s Favorite Plant</a>\n                  </li>\n                  <li>\n                    <a href="http://thegreatgeekmanual.com/blog/seven-endings-you-didnt-see-coming-for-harry-potter-seven" shape="rect">Seven Unexpected Harry Potter Endings</a>\n                  </li>\n                  <li>\n                    <a href="http://thegreatgeekmanual.com/blog/sex-advice-from-a-player" shape="rect">Sex Advice from a D&amp;D Player</a>\n                  </li>\n                  <li>\n                    <a href="http://thegreatgeekmanual.com/blog/signs-that-your-is-getting-out-of-hand" shape="rect">Signs the IT Department is out of Hand</a>\n                  </li>\n                  <li>\n                    <a href="http://thegreatgeekmanual.com/blog/top-10-halo-pick-up-lines" shape="rect">Top Ten Halo Pick-Up Lines</a>\n                  </li>\n                  <li>\n                    <a href="http://thegreatgeekmanual.com/blog/rapidshare-link-communities" shape="rect">Top RapidShare Link Communities</a>\n                  </li>\n                  <li>\n                    <a href="http://thegreatgeekmanual.com/blog/top-ten-signs-one-of-your-dd-players-is-secretly-gay" shape="rect">Top Ten Signs a D&amp;D Player is Gay</a>\n                  </li>\n                  <li>\n                    <a href="http://thegreatgeekmanual.com/blog/top-ten-turn-down-lines" shape="rect">Top Ten Turn Down Lines for Geek Chicks</a>\n                  </li>\n                  <li>\n                    <a href="http://thegreatgeekmanual.com/blog/a-dozen-ways-you-know-its-a-traditional-dd-thanksgiving" shape="rect">A Traditional D&amp;D Thanksgiving</a>\n                  </li>\n                  <li>\n                    <a href="http://thegreatgeekmanual.com/blog/the-ultimate-dd-gaming-cycle-flowchart" shape="rect">The Ultimate D&amp;D Gaming FlowChart</a>\n                  </li>\n                </ul>\n              </div>\n            </div>\n          </div>\n          <div id="footer">\n            <a alt="Host Color Web Hosting" title="Reliable Hosting and Helpful Customer Service" href="http://www.hostcolor.com" shape="rect">\n              <img alt="Host Color Web Hosting" src="http://thegreatgeekmanual.com/blog/wp-content/themes/notso_freshe/images/hostcolor.gif" class="credits"></img>\n            </a>\n            <p>\n              <a href="http://www.contentquality.com/fulloptions.asp?Url1=http://thegreatgeekmanual.com/blog" class="validate" shape="rect">508</a>\n              <a title="Valid CSS 2.0" href="http://jigsaw.w3.org/css-validator/check/referer" class="validate" shape="rect">CSS</a>\n              <a title="Valid XHTML 1.0 Strict" href="http://validator.w3.org/check/referer" class="validate" shape="rect">XHTML</a>\n              <br clear="none"></br>\n              Website\n              <a href="http://thegreatgeekmanual.com/blog/credits/" shape="rect">Credits</a>\n              &amp;\n              <a href="http://thegreatgeekmanual.com/blog/disclaimers/" shape="rect">Disclaimers</a>\n            </p>\n          </div>\n        </div>\n      </div>\n      <script type="text/javascript" src="http://www.google-analytics.com/urchin.js"> </script>\n      <script type="text/javascript"> _uacct = &quot;UA-878025-1&quot;; urchinTracker(); </script>\n    </div>\n  </body>\n</html>'
p11
sbsS'mentions'
p12
(lp13
(iedu.umass.cs.iesl.wikilink.expanded.data.ttypes
Mention
p14
(dp15
S'anchor_text'
p16
S'SN 1006'
p17
sS'context'
p18
(iedu.umass.cs.iesl.wikilink.expanded.data.ttypes
Context
p19
(dp20
S'middle'
p21
S'SN 1006'
p22
sS'right'
p23
S', the brightest supernova in recorded history, occurs in the southern constellation Lupus , near the star Beta Lupi . Chinese and Arabic astronomers note'
p24
sS'left'
p25
S'Geek History: April 30 The Great Geek Manual Blog \xc2\xa0 This Day in Geek History: April 30 30 Apr 2012 \xc2\xa0 Geek History 1006 Supernova'
p26
sbsS'freebase_id'
p27
S'9202a8c04000641f80000000005326d6'
p28
sS'raw_text_offset'
p29
I9075
sS'wiki_url'
p30
S'http://en.wikipedia.org/wiki/SN_1006'
p31
sba(iedu.umass.cs.iesl.wikilink.expanded.data.ttypes
Mention
p32
(dp33
g16
S'constellation Lupus'
p34
sg18
(iedu.umass.cs.iesl.wikilink.expanded.data.ttypes
Context
p35
(dp36
g21
S'constellation Lupus'
p37
sg23
S', near the star Beta Lupi . Chinese and Arabic astronomers note the supernova, but the speed of the still-expanding shock wave won\xe2\x80\x99t be measured'
p38
sg25
S'Geek History: April 30 30 Apr 2012 \xc2\xa0 Geek History 1006 Supernova SN 1006 , the brightest supernova in recorded history, occurs in the southern'
p39
sbsg27
S'9202a8c04000641f8000000000024b00'
p40
sg29
I9215
sg30
S'http://en.wikipedia.org/wiki/Lupus_constellation'
p41
sba(iedu.umass.cs.iesl.wikilink.expanded.data.ttypes
Mention
p42
(dp43
g16
S'Beta Lupi'
p44
sg18
(iedu.umass.cs.iesl.wikilink.expanded.data.ttypes
Context
p45
(dp46
g21
S'Beta Lupi'
p47
sg23
S'. Chinese and Arabic astronomers note the supernova, but the speed of the still-expanding shock wave won\xe2\x80\x99t be measured for nearly a millennium. The event'
p48
sg25
S'2012 \xc2\xa0 Geek History 1006 Supernova SN 1006 , the brightest supernova in recorded history, occurs in the southern constellation Lupus , near the star'
p49
sbsg27
S'9202a8c04000641f80000000047c4995'
p50
sg29
I9303
sg30
S'http://en.wikipedia.org/wiki/Beta_Lupi'
p51
sba(iedu.umass.cs.iesl.wikilink.expanded.data.ttypes
Mention
p52
(dp53
g16
S'Samuel Pepys'
p54
sg18
(iedu.umass.cs.iesl.wikilink.expanded.data.ttypes
Context
p55
(dp56
g21
S'Samuel Pepys'
p57
sg23
S'makes his first diary reference to the Great Plague in London . \xe2\x80\x9cGreat fears of the sicknesses here in the City, it being said that'
p58
sg25
S'careful descriptions recorded by Chinese astronomers of how the light varies, the Supernova is apparently yellow in color and visible for over a year. 1665'
p59
sbsg27
S'9202a8c04000641f800000000003738b'
p60
sg29
I10009
sg30
S'http://en.wikipedia.org/wiki/Samuel_Pepys'
p61
sba(iedu.umass.cs.iesl.wikilink.expanded.data.ttypes
Mention
p62
(dp63
g16
S'the Great Plague in London'
p64
sg18
(iedu.umass.cs.iesl.wikilink.expanded.data.ttypes
Context
p65
(dp66
g21
S'the Great Plague in London'
p67
sg23
S'. \xe2\x80\x9cGreat fears of the sicknesses here in the City, it being said that two or three houses are already shut up. God preserve us'
p68
sg25
S'the light varies, the Supernova is apparently yellow in color and visible for over a year. 1665 Samuel Pepys makes his first diary reference to'
p69
sbsg27
S'9202a8c04000641f8000000000019c8e'
p70
sg29
I10123
sg30
S'http://en.wikipedia.org/wiki/Great_Plague_of_London'
p71
sba(iedu.umass.cs.iesl.wikilink.expanded.data.ttypes
Mention
p72
(dp73
g16
S'the Great Fire of London'
p74
sg18
(iedu.umass.cs.iesl.wikilink.expanded.data.ttypes
Context
p75
(dp76
g21
S'the Great Fire of London'
p77
sg23
S'in 1666. 1796 The first U.S. patent for a pill of any kind is issued to Samuel Lee, Jr., of Connecticut, for a \xe2\x80\x9cComposition of'
p78
sg25
S'the groin and under the armpits. His diaries will cover a period from January 1660 to May 1669. In them, he will also write about'
p79
sbsg27
S'9202a8c04000641f8000000000019c99'
p80
sg29
I10851
sg30
S'http://en.wikipedia.org/wiki/Great_Fire_of_London'
p81
sba(iedu.umass.cs.iesl.wikilink.expanded.data.ttypes
Mention
p82
(dp83
g16
S'Louis Pasteur'
p84
sg18
(iedu.umass.cs.iesl.wikilink.expanded.data.ttypes
Context
p85
(dp86
g21
S'Louis Pasteur'
p87
sg23
S'lectures at the French Academy of Science in support of his germ theory of disease , in which he holds that many diseases are caused'
p88
sg25
S'will describe them as \xe2\x80\x9cInteresting to all sea-faring People\xe2\x80\x9d and promise to cure a variety of ills, including \xe2\x80\x9cfoul stomachs, where pukes are indicated.\xe2\x80\x9d 1878'
p89
sbsg27
S'9202a8c04000641f8000000000023d6b'
p90
sg29
I11532
sg30
S'http://en.wikipedia.org/wiki/Louis_Pasteur'
p91
sba(iedu.umass.cs.iesl.wikilink.expanded.data.ttypes
Mention
p92
(dp93
g16
S'French Academy of Science'
p94
sg18
(iedu.umass.cs.iesl.wikilink.expanded.data.ttypes
Context
p95
(dp96
g21
S'French Academy of Science'
p97
sg23
S'in support of his germ theory of disease , in which he holds that many diseases are caused by tiny organisms. Pasteur also describes ways'
p98
sg25
S'to all sea-faring People\xe2\x80\x9d and promise to cure a variety of ills, including \xe2\x80\x9cfoul stomachs, where pukes are indicated.\xe2\x80\x9d 1878 Louis Pasteur lectures at the'
p99
sbsg27
S'9202a8c04000641f800000000021a4bb'
p100
sg29
I11631
sg30
S'http://en.wikipedia.org/wiki/French_Academy_of_Science'
p101
sba(iedu.umass.cs.iesl.wikilink.expanded.data.ttypes
Mention
p102
(dp103
g16
S'germ theory of disease'
p104
sg18
(iedu.umass.cs.iesl.wikilink.expanded.data.ttypes
Context
p105
(dp106
g21
S'germ theory of disease'
p107
sg23
S', in which he holds that many diseases are caused by tiny organisms. Pasteur also describes ways to prevent infection, and provides skeptics with an'
p108
sg25
S'a variety of ills, including \xe2\x80\x9cfoul stomachs, where pukes are indicated.\xe2\x80\x9d 1878 Louis Pasteur lectures at the French Academy of Science in support of his'
p109
sbsg27
S'9202a8c04000641f800000000014a754'
p110
sg29
I11741
sg30
S'http://en.wikipedia.org/wiki/Germ_theory_of_disease'
p111
sba(iedu.umass.cs.iesl.wikilink.expanded.data.ttypes
Mention
p112
(dp113
g16
S'Joseph John Thomson'
p114
sg18
(iedu.umass.cs.iesl.wikilink.expanded.data.ttypes
Context
p115
(dp116
g21
S'Joseph John Thomson'
p117
sg23
S', first announces the existence of what will later be known as electrons . Thomson tells the audience that earlier in the year, he had'
p118
sg25
S'is incorporated. It will later build the first three-wire central station for incandescent lighting in the U.S. 1897 At the Royal Institution Friday Evening Discourse,'
p119
sbsg27
S'9202a8c04000641f800000000008191e'
p120
sg29
I12297
sg30
S'http://en.wikipedia.org/wiki/J.J._Thomson'
p121
sba(iedu.umass.cs.iesl.wikilink.expanded.data.ttypes
Mention
p122
(dp123
g16
S'electrons'
p124
sg18
(iedu.umass.cs.iesl.wikilink.expanded.data.ttypes
Context
p125
(dp126
g21
S'electrons'
p127
sg23
S'. Thomson tells the audience that earlier in the year, he had made a surprising discovery. He had found a particle of matter a thousand'
p128
sg25
S'the U.S. 1897 At the Royal Institution Friday Evening Discourse, Joseph John Thomson , first announces the existence of what will later be known as'
p129
sbsg27
S'9202a8c04000641f80000000000148fc'
p130
sg29
I12432
sg30
S'http://en.wikipedia.org/wiki/Electrons'
p131
sba(iedu.umass.cs.iesl.wikilink.expanded.data.ttypes
Mention
p132
(dp133
g16
S'Cavendish Laboratory'
p134
sg18
(iedu.umass.cs.iesl.wikilink.expanded.data.ttypes
Context
p135
(dp136
g21
S'Cavendish Laboratory'
p137
sg23
S'at the University of Cambridge , and one of the most respected scientists in Great Britain, the scientists present find the news difficult to believe.'
p138
sg25
S'particle of matter a thousand times smaller than the atom. He calls it a corpuscle, meaning \xe2\x80\x9csmall body.\xe2\x80\x9d Although Thomson is the director of the'
p139
sbsg27
S'9202a8c04000641f80000000000ed065'
p140
sg29
I12773
sg30
S'http://en.wikipedia.org/wiki/Cavendish_Laboratory'
p141
sba(iedu.umass.cs.iesl.wikilink.expanded.data.ttypes
Mention
p142
(dp143
g16
S'University of Cambridge'
p144
sg18
(iedu.umass.cs.iesl.wikilink.expanded.data.ttypes
Context
p145
(dp146
g21
S'University of Cambridge'
p147
sg23
S', and one of the most respected scientists in Great Britain, the scientists present find the news difficult to believe. They believe that the atom'
p148
sg25
S'thousand times smaller than the atom. He calls it a corpuscle, meaning \xe2\x80\x9csmall body.\xe2\x80\x9d Although Thomson is the director of the Cavendish Laboratory at the'
p149
sbsg27
S'9202a8c04000641f800000000003e5c4'
p150
sg29
I12868
sg30
S'http://en.wikipedia.org/wiki/University_of_Cambridge'
p151
sba(iedu.umass.cs.iesl.wikilink.expanded.data.ttypes
Mention
p152
(dp153
g16
S'Bugs Bunny'
p154
sg18
(iedu.umass.cs.iesl.wikilink.expanded.data.ttypes
Context
p155
(dp156
g21
S'Bugs Bunny'
p157
sg23
S'. 1939 Cosmic rays entering a Geiger-Mueller counter produce electrical impulses used to control electrical power. The first ever such event is used for the'
p158
sg25
S'patent is granted to Joseph Ledwinka for a method of vehicle wheel construction. 1938 The cartoon short Porky\xe2\x80\x99s Hare Hunt debuts in movie theaters, introducing'
p159
sbsg27
S'9202a8c04000641f8000000000062632'
p160
sg29
I13569
sg30
S'http://en.wikipedia.org/wiki/Bugs_Bunny'
p161
sba(iedu.umass.cs.iesl.wikilink.expanded.data.ttypes
Mention
p162
(dp163
g16
S'Geiger-Mueller counter'
p164
sg18
(iedu.umass.cs.iesl.wikilink.expanded.data.ttypes
Context
p165
(dp166
g21
S'Geiger-Mueller counter'
p167
sg23
S'produce electrical impulses used to control electrical power. The first ever such event is used for the illumination ceremony of the 1939 New York World\xe2\x80\x99s'
p168
sg25
S'method of vehicle wheel construction. 1938 The cartoon short Porky\xe2\x80\x99s Hare Hunt debuts in movie theaters, introducing Bugs Bunny . 1939 Cosmic rays entering a'
p169
sbsg27
S'9202a8c04000641f800000000001b199'
p170
sg29
I13705
sg30
S'http://en.wikipedia.org/wiki/Geiger-Mueller_counter'
p171
sba(iedu.umass.cs.iesl.wikilink.expanded.data.ttypes
Mention
p172
(dp173
g16
S'Hayden Planetarium'
p174
sg18
(iedu.umass.cs.iesl.wikilink.expanded.data.ttypes
Context
p175
(dp176
g21
S'Hayden Planetarium'
p177
sg23
S'in New York City, switches on an electrical circuit wired to a display at the Lagoon of Nations where relays activate local battery circuits, ringing'
p178
sg25
S'control electrical power. The first ever such event is used for the illumination ceremony of the 1939 New York World\xe2\x80\x99s Fair. The counter, at the'
p179
sbsg27
S'9202a8c04000641f80000000003c35bf'
p180
sg29
I13979
sg30
S'http://en.wikipedia.org/wiki/Hayden_Planetarium'
p181
sba(iedu.umass.cs.iesl.wikilink.expanded.data.ttypes
Mention
p182
(dp183
g16
S'Albert Einstein'
p184
sg18
(iedu.umass.cs.iesl.wikilink.expanded.data.ttypes
Context
p185
(dp186
g21
S'Albert Einstein'
p187
sg23
S'explains cosmic rays. Unfortunately, his accent and a faulty amplification system render his words incomprehensible to the crowd. Upon the tenth ray\xe2\x80\x99s signal, a huge'
p188
sg25
S'the Lagoon of Nations where relays activate local battery circuits, ringing bells and flashing lights to signal each capture of a cosmic ray. Guest speaker'
p189
sbsg27
S'9202a8c04000641f800000000000417c'
p190
sg29
I14288
sg30
S'http://en.wikipedia.org/wiki/Albert_Einstein'
p191
sba(iedu.umass.cs.iesl.wikilink.expanded.data.ttypes
Mention
p192
(dp193
g16
S'RCA'
p194
sg18
(iedu.umass.cs.iesl.wikilink.expanded.data.ttypes
Context
p195
(dp196
g21
S'RCA'
p197
sg23
S'-owned NBC network launches regular public television service with the formal opening of the 1939 New York World\xe2\x80\x99s Fair by President Franklin Roosevelt . (It'
p198
sg25
S'ray\xe2\x80\x99s signal, a huge light is meant to be turned on to illuminate the 600 foot Trylon triangular spire, but the power source fails. The'
p199
sbsg27
S'9202a8c04000641f8000000000033b19'
p200
sg29
I14647
sg30
S'http://en.wikipedia.org/wiki/RCA'
p201
sba(iedu.umass.cs.iesl.wikilink.expanded.data.ttypes
Mention
p202
(dp203
g16
S'NBC'
p204
sg18
(iedu.umass.cs.iesl.wikilink.expanded.data.ttypes
Context
p205
(dp206
g21
S'NBC'
p207
sg23
S'network launches regular public television service with the formal opening of the 1939 New York World\xe2\x80\x99s Fair by President Franklin Roosevelt . (It is the'
p208
sg25
S'a huge light is meant to be turned on to illuminate the 600 foot Trylon triangular spire, but the power source fails. The RCA -owned'
p209
sbsg27
S'9202a8c04000641f800000000002ba8d'
p210
sg29
I14704
sg30
S'http://en.wikipedia.org/wiki/NBC'
p211
sba(iedu.umass.cs.iesl.wikilink.expanded.data.ttypes
Mention
p212
(dp213
g16
S'Franklin Roosevelt'
p214
sg18
(iedu.umass.cs.iesl.wikilink.expanded.data.ttypes
Context
p215
(dp216
g21
S'Franklin Roosevelt'
p217
sg23
S'. (It is the first of only two appearances Roosevelt will make on television.) The service will air two hours of programs a week, to'
p218
sg25
S'source fails. The RCA -owned NBC network launches regular public television service with the formal opening of the 1939 New York World\xe2\x80\x99s Fair by President'
p219
sbsg27
S'9202a8c04000641f80000000000177a8'
p220
sg29
I14970
sg30
S'http://en.wikipedia.org/wiki/Franklin_Roosevelt'
p221
sba(iedu.umass.cs.iesl.wikilink.expanded.data.ttypes
Mention
p222
(dp223
g16
S"Porky's Hare Hunt"
p224
sg18
Nsg27
S'9202a8c04000641f80000000004d76fc'
p225
sg29
I13453
sg30
S"http://en.wikipedia.org/wiki/Porky's_Hare_Hunt"
p226
sba(iedu.umass.cs.iesl.wikilink.expanded.data.ttypes
Mention
p227
(dp228
g16
S"1939 New York World's Fair"
p229
sg18
Nsg27
S'9202a8c04000641f8000000000170791'
p230
sg29
I14862
sg30
S"http://en.wikipedia.org/wiki/1939_New_York_World's_Fair"
p231
sbasS'doc_id'
p232
I2745476
sS'rare_words'
p233
(lp234
(iedu.umass.cs.iesl.wikilink.expanded.data.ttypes
RareWord
p235
(dp236
S'word'
p237
S'bells'
p238
sS'offset'
p239
I14152
sba(iedu.umass.cs.iesl.wikilink.expanded.data.ttypes
RareWord
p240
(dp241
g237
S'pukes'
p242
sg239
I11416
sba(iedu.umass.cs.iesl.wikilink.expanded.data.ttypes
RareWord
p243
(dp244
g237
S'bad'
p245
sg239
I10557
sba(iedu.umass.cs.iesl.wikilink.expanded.data.ttypes
RareWord
p246
(dp247
g237
S'switches'
p248
sg239
I14020
sba(iedu.umass.cs.iesl.wikilink.expanded.data.ttypes
RareWord
p249
(dp250
g237
S'bilious'
p251
sg239
I11043
sba(iedu.umass.cs.iesl.wikilink.expanded.data.ttypes
RareWord
p252
(dp253
g237
S'Bunny'
p254
sg239
I13574
sba(iedu.umass.cs.iesl.wikilink.expanded.data.ttypes
RareWord
p255
(dp256
g237
S'advertisement'
p257
sg239
I11183
sba(iedu.umass.cs.iesl.wikilink.expanded.data.ttypes
RareWord
p258
(dp259
g237
S'words'
p260
sg239
I14402
sba(iedu.umass.cs.iesl.wikilink.expanded.data.ttypes
RareWord
p261
(dp262
g237
S'Jr'
p263
sg239
I10994
sba(iedu.umass.cs.iesl.wikilink.expanded.data.ttypes
RareWord
p264
(dp265
g237
S'Beta'
p266
sg239
I9303
sbasb.