(iedu.umass.cs.iesl.wikilink.expanded.data.ttypes
WikiLinkItem
p0
(dp1
S'url'
p2
S'http://highorganics.com/index/boost-your-physical-and-mental-energy-with-the-real-and-powerdrink-'
p3
sS'content'
p4
(iedu.umass.cs.iesl.wikilink.expanded.data.ttypes
PageContentItem
p5
(dp6
S'articleText'
p7
NsS'raw'
p8
NsS'fullText'
p9
NsS'dom'
p10
S'<html>\n  <head>\n    <meta content="text/html; charset=utf-8" http-equiv="content-type"></meta>\n    <title>Boost your physical and mental energy with the REAL and Powerdrink!</title>\n    <link href="index.rss" title="Boost your physical and mental energy with the REAL and Powerdrink! RSS feed" type="application/rss+xml" rel="alternate"></link>\n    <meta content="Organic Fitline is the choice highly organic natural vitamin supplement drink for Olympic Gold Medalists" name="description"></meta>\n    <meta content="Organic Vitamin, Probiotics, Holistic , Natural, Energy Drink, Elite Natural Energy Drink, Supervitamin, Supplement, Elite Athletes Energy Drink, Health Drink, Nandrolol, Non-Steroid, Non-Anabolic, Organic, Achim Heukemes, Organic Formula" name="keywords"></meta>\n    <base href="http://highorganics.com/"></base>\n    <link type="image/x-icon" rel="shortcut icon" href="resources/FPDrinkfavicon.ico"></link>\n    <link type="image/x-icon" rel="icon" href="resources/FPDrinkfavicon.ico"></link>\n    <style type="text/css">\n      /*\nTastelessly\nDesign by Free CSS Templates\nhttp://www.freecsstemplates.org\nReleased for free under a Creative Commons Attribution 2.5 License\n*/\n\n* {\n\tmargin: 0;\n\tpadding: 0;\n}\n\nbody {\n\tmargin: 20px 0;\n        background-color:#24340F;\n        background-image: url(resources/160.jpg);\n        background-repeat:repeat;\n        background-position:bottom left;\n        background-attachment:scroll;\n}\n\nbody, th, td, input, textarea {\n\tfont-family: &quot;Trebuchet MS&quot;, Arial, Helvetica, sans-serif;\n\tfont-size: 12px;\n\tcolor: #333333;\n}\n\nform {\n}\n\nfieldset {\n}\n\nh1, h2, h3 {\n\tmargin-top: 1.5em;\n\tcolor: #333333;;\n}\n\nh1 {\n\tfont-size: 3em;\n}\n\nh2 {\n\tfont-size: 1.1em;\n\tfont-weight: bold;\n\tcolor: #333333;;\n}\n\nh3 {\n\tfont-size: 1em;\n}\n\nul, ol {\n\tmargin-top: 1.5em;\n\tline-height: 1.8em;\n}\n\nul, ol {\n\tmargin-left: 3em;\n}\n\nblockquote {\n\tmargin-left: 3em;\n\tmargin-right: 3em;\n}\n\na {\n\ttext-decoration: none;\n}\n\na:hover {\n\tborder: none;\n}\n\nh1 a, h2 a, h3 a {\n\tborder: none;\n\ttext-decoration: none;\n}\n\nh1 a:hover, h2 a:hover, h3 a:hover {\n\tbackground: none;\n}\n\n\n/* Wrapper */\n\n#wrapper {\n}\n\n/* Header */\n\n#header {\n\twidth: 980px;\n\tmargin: 0 auto;\n}\n\n#menu {\n\tfloat: left;\n}\n\n#menu ul {\n\tmargin: 0;\n\tpadding: 0;\n\tlist-style: none;\n\tline-height: normal;\n}\n\n#menu li {\n\tfloat: left;\n}\n\n#menu a {\n\tdisplay: block;\n\tfloat: left;\n\theight: 25px;\n\tmargin-right: 1px;\n\tpadding: 10px 20px 0 20px;\n\ttext-decoration: none;\n\tfont-size: 1.1em;\n\tfont-weight: bold;\n\tcolor: #CCCCCC;\n}\n\n#menu a:hover {\n\tbackground:  #F3F3F3;\n\tcolor: #333333;\n}\n\n#menu .current_page_item a {\n\tbackground:  #F3F3F3;\n\tcolor: #2C2E22;\n}\n/* Logo */\n\n#logo {\n\twidth: 978px;\n\theight: 200px;\n\tmargin: 0 auto;\n\theight: 263px;\n\tborder: 20px solid #F3F3F3;\n}\n\n#sys_banner {\n\twidth: 978px;\n\theight: 200px;\n\tmargin: 0 auto;\n\theight: 263px;\n}\n\n#logo h1, #logo h2 {\n\tfloat: left;\n\tmargin: 0;\n\tpadding: 0;\n}\n\n#logo h1 {\n\tpadding: 100px 5px 0 20px;\n\tcolor: #FFFFFF;\n}\n\n#logo h2 {\n\tpadding: 115px 0 0 0;\n\tfont-style: italic;\n}\n\n#logo p {\n\tclear: left;\n\tmargin: 0;\n\tpadding: 0 0 0 20px;\n\tline-height: normal;\n\tfont-size: 1.2em;\n\tfont-weight: bold;\n}\n\n#logo a {\n\tcolor: #FFFFFF;\n}\n\n/* Page */\n\n#page {\n\twidth: 978px;\n\tmargin: 0 auto;\n\tpadding: 20px 0px 0 0px;\n\tbackground: #FFFFFF;\n\tborder: 20px solid #F3F3F3;\n\tborder-top: none;\n}\n\n/* Content */\n\n#content {\n\tfloat: left;\n\twidth: 938px;\n\tpadding: 0px 0px 0px 20px;\n}\n\n\n/* Footer */\n\n.sys_footer {\n\ttext-align: center;\n\tfont-size: 9px;\n\tcolor: #CCCCCC;\n}\n\n.sys_footer a {\n\tcolor: #FFFFFF;\n}\n\t\t\t\n.sys_txt{\n\tfont-family: &quot;Trebuchet MS&quot;, Arial, Helvetica, sans-serif;\n\tfont-size: 12px;\n\tcolor: #333333;\n\tpadding\t\t\t: 1px 0 0 0;\n\tfont-size-adjust: none;\n\tfont-style\t\t: normal;\n\tfont-variant\t: normal;\n\n}\n\na{color:#3C7BCF;}\n\n.sys_txt a img{\n\n\tborder : none;\n\n}\n\n.sys_txt a{\n\n\ttext-decoration: none;\n\n}\n\n.sys_txt a:hover{\n\n\ttext-decoration: none;\n\n}\n\n.sys_txt h1, .sys_txt h2, .sys_txt h3 {\n\tmargin-top: 1.5em;\n}\n\n.sys_txt h1 a, .sys_txt h2 a, .sys_txt h3 a {\n\tborder: none;\n\ttext-decoration: none;\n}\n\n.sys_txt h1 a:hover, .sys_txt h2 a:hover, .sys_txt h3 a:hover {\n\tbackground: none;\n}\n\n.sys_txt h1 {\n\tletter-spacing: -.075em;\n\tfont-size: 3em;\n}\n\n.sys_txt h2 {\n\tletter-spacing: -.05em;\n\tfont-size: 1.1em;\n\tfont-weight: bold;\n\tcolor: #333333;\n}\n\n.sys_txt h3 {\n\tfont-size: 1em;\n}\n\n.sys_txt h4{\n\tmargin:0;\n\tpadding:10px 0 10px 0;\n\t\n\t\n}\n\n.sys_txt h5{\n\t\n\tmargin:0;\n\tpadding:10px 0 10px 0;\n\t\n}\n\n.sys_txt h6{\n\tmargin:0;\n\tpadding:10px 0 10px 0;\n\t\n\t\n}\n\n.sys_txt p{\n\t\n\tmargin:0;\n\tpadding:5px 0;\n\t\n}\n\n.sys_txt blockquote {\n\t\n\tmargin: 0 20px;\n\tpadding:15px 0 15px 30px;\n\tpadding-left: 1em;\n\tborder-left: 5px solid #DDDDDD;\n\t\n}\t\n\t\t\t\n.sys_txt ul{\n\n\tmargin\t: 15px 5px;\n\tpadding\t: 0 35px;\n\tline-height:normal;\n\n\n}\n\n.sys_txt ul li{\n\n\tmargin : 0;\n\tpadding : 2px 0;\n\tline-height:normal;\n}\n    </style>\n    <link href="classes/components/BlogArchive/layouts/Default/Default.css" type="text/css" rel="stylesheet"></link>\n    <link href="classes/components/RecentPosts/layouts/Default/Default.css" type="text/css" rel="stylesheet"></link>\n    <link href="classes/components/BlogRss/layouts/Default/Default.css" type="text/css" rel="stylesheet"></link>\n    <link href="classes/components/BlogCategories/layouts/Default/Default.css" type="text/css" rel="stylesheet"></link>\n    <link href="classes/components/BlogTags/layouts/Default/Default.css" type="text/css" rel="stylesheet"></link>\n    <link href="classes/components/BlogAuthor/layouts/Default/Default.css" type="text/css" rel="stylesheet"></link>\n    <link href="classes/components/Form/layouts/Default/Default.css" type="text/css" rel="stylesheet"></link>\n    <link href="classes/components/BlogWidget/layouts/Default/Default.css" type="text/css" rel="stylesheet"></link>\n    <link href="classes/components/BlogSearchWidget/layouts/Default/Default.css" type="text/css" rel="stylesheet"></link>\n  </head>\n  <body id="sys_background">\n    <div id="header">\n      <div id="menu">\n        <ul class="sys_navigation">\n          <li>\n            <a title="Gold Medalist Interview" href="olympic-athletes-recommend.php" shape="rect">Gold Medalist Interview</a>\n          </li>\n          <li>\n            <a title="Fitline Products" href="fitline-products.php" shape="rect">Fitline Products</a>\n          </li>\n          <li>\n            <a title="Fitline Product Catalog" href="fitline-product-catalog.php" shape="rect">Fitline Product Catalog</a>\n          </li>\n          <li>\n            <a title="Download Fitline Sports Catalog" href="download-fitline-sports-catalog.php" shape="rect">Download Fitline Sports Catalog</a>\n          </li>\n          <li>\n            <a title="Real Testimonials From Athletes" href="real-testimonials-from-athletes.php" shape="rect">Real Testimonials From Athletes</a>\n          </li>\n          <li>\n            <a title="BAR Ultra Marathon Race Video" href="bar-ultra-marathon-race-video.php" shape="rect">BAR Ultra Marathon Race Video</a>\n          </li>\n          <li>\n            <a title="Health Blog" href="fitline-anecdotes.php" shape="rect">Health Blog</a>\n          </li>\n          <li>\n            <a title="Definition of Terms" href="definition-of-terms.php" shape="rect">Definition of Terms</a>\n          </li>\n          <li>\n            <a title="Sign Up Form" href="sign-up-form.php" shape="rect">Sign Up Form</a>\n          </li>\n          <li>\n            <a title="German Athletes Endorsed Fitline" href="athletes-endorsed-fitline.php" shape="rect">German Athletes Endorsed Fitline</a>\n          </li>\n          <li>\n            <a title="Uniqueness of Fitline" href="uniqueness-of-fitline.php" shape="rect">Uniqueness of Fitline</a>\n          </li>\n          <li>\n            <a title="Shocking Truth About Ionized Water" href="shocking-truth-about-ionized-water.php" shape="rect">Shocking Truth About Ionized Water</a>\n          </li>\n          <li>\n            <a title="Water" href="water.php" shape="rect">Water</a>\n          </li>\n          <li>\n            <a title="Health Energy Drink" href="health-energy-drink.php" shape="rect">Health Energy Drink</a>\n          </li>\n          <li class="current_page_item">\n            <a title="Real Orgainc" href="./" shape="rect">Real Organic</a>\n          </li>\n        </ul>\n      </div>\n    </div>\n    <div style="clear:both;"></div>\n    <div id="logo">\n      <div style="background: url(resources/Supervitamin%20Banner.jpg) no-repeat left top;" name="banner" id="sys_banner">\n        <h1>\n          <a href="./" id="sys_heading" shape="rect"></a>\n        </h1>\n      </div>\n    </div>\n    <div id="page">\n      <div id="content">\n        <div style="width: 100%; padding: 0px; margin: 0px" class="layout_1-column">\n          <div id="layout_row1">\n            <div style="margin:0px; padding:5px; vertical-align:top; line-height:normal; min-width:100px" id="sys_region_1" class="zone_top">\n              <div style="display:block;clear: both;" id="I256" class="Layout1_Default">\n                <table style="width:100%;" cellpadding="0" cellspacing="0" border="0">\n                  <tr>\n                    <td style="text-align:left; vertical-align:top; width:57.64192139737991%;" id="Left_I256" rowspan="1" colspan="1">\n                      <div style="display:block;clear: both;text-align:left;margin:0 20px 0 0;" id="I264" class="BlogWidget_Default">\n                        <style type="text/css"> .blog-pagination{ padding-top:20px; } .float-left{ float:left; } .float-right{ float:right; } </style>\n                        <div class="sys_txt">\n                          <div class="sys_blog">\n                            <div class="post">\n                              <h2>\n                                <a target="_self" title="Boost your physical and mental energy with the REAL and Powerdrink!" href="index/boost-your-physical-and-mental-energy-with-the-real-and-powerdrink-" shape="rect">Boost your physical and mental energy with the REAL and Powerdrink!</a>\n                              </h2>\n                              <div style="font-size:11px;padding-left:5px;">\n                                Posted by Joel Inocencio on Saturday, April 16, 2011\n                                <a title="View more in this category" target="_self" href="index/category/Your%20Health" shape="rect">Under: Your Health</a>\n                              </div>\n                              <div style="height:auto;overflow:hidden;" class="postcontent">\n                                <span style="color: rgb(51, 51, 51); font-family: \'Trebuchet MS\', Arial, Helvetica, sans-serif; font-size: 12px; line-height: normal; " class="Apple-style-span"></span>\n                                <p style="margin-top: 0px; margin-right: 0px; margin-bottom: 0px; margin-left: 0px; padding-top: 5px; padding-right: 0px; padding-bottom: 5px; padding-left: 0px; text-align: center; ">\n                                  <font style="margin-top: 0px; margin-right: 0px; margin-bottom: 0px; margin-left: 0px; padding-top: 0px; padding-right: 0px; padding-bottom: 0px; padding-left: 0px; " size="4">Always low on energy?</font>\n                                  <br style="margin-top: 0px; margin-right: 0px; margin-bottom: 0px; margin-left: 0px; padding-top: 0px; padding-right: 0px; padding-bottom: 0px; padding-left: 0px; " clear="none"></br>\n                                </p>\n                                <p style="margin-top: 0px; margin-right: 0px; margin-bottom: 0px; margin-left: 0px; padding-top: 5px; padding-right: 0px; padding-bottom: 5px; padding-left: 0px; text-align: center; ">\n                                  <img style="margin-top: 0px; margin-right: 0px; margin-bottom: 0px; margin-left: 0px; padding-top: 0px; padding-right: 0px; padding-bottom: 0px; padding-left: 0px; " src="http://supervitamin.yolasite.com/resources/Need%20energy%20drink.png?timestamp=1262040915214" class="yui-img"></img>\n                                  <br style="margin-top: 0px; margin-right: 0px; margin-bottom: 0px; margin-left: 0px; padding-top: 0px; padding-right: 0px; padding-bottom: 0px; padding-left: 0px; " clear="none"></br>\n                                </p>\n                                <p style="margin-top: 0px; margin-right: 0px; margin-bottom: 0px; margin-left: 0px; padding-top: 5px; padding-right: 0px; padding-bottom: 5px; padding-left: 0px; text-align: center; ">\n                                  <font style="margin-top: 0px; margin-right: 0px; margin-bottom: 0px; margin-left: 0px; padding-top: 0px; padding-right: 0px; padding-bottom: 0px; padding-left: 0px; " size="4">Feeling down...</font>\n                                  <br style="margin-top: 0px; margin-right: 0px; margin-bottom: 0px; margin-left: 0px; padding-top: 0px; padding-right: 0px; padding-bottom: 0px; padding-left: 0px; " clear="none"></br>\n                                </p>\n                                <p style="margin-top: 0px; margin-right: 0px; margin-bottom: 0px; margin-left: 0px; padding-top: 5px; padding-right: 0px; padding-bottom: 5px; padding-left: 0px; text-align: center; ">\n                                  <img \n                                  style="margin-top: 0px; margin-right: 0px; margin-bottom: 0px; margin-left: 0px; padding-top: 0px; padding-right: 0px; padding-bottom: 0px; padding-left: 0px; width: 189px; height: 168px; " src="http://supervitamin.yolasite.com/resources/Need%20Energy%20drink%202.jpg?timestamp=1262040963022" class="yui-img">\n</img>\n                                  <br style="margin-top: 0px; margin-right: 0px; margin-bottom: 0px; margin-left: 0px; padding-top: 0px; padding-right: 0px; padding-bottom: 0px; padding-left: 0px; " clear="none"></br>\n                                </p>\n                                <p style="margin-top: 0px; margin-right: 0px; margin-bottom: 0px; margin-left: 0px; padding-top: 5px; padding-right: 0px; padding-bottom: 5px; padding-left: 0px; text-align: center; ">\n                                  <font style="margin-top: 0px; margin-right: 0px; margin-bottom: 0px; margin-left: 0px; padding-top: 0px; padding-right: 0px; padding-bottom: 0px; padding-left: 0px; " size="4">Exhausted...</font>\n                                  <br style="margin-top: 0px; margin-right: 0px; margin-bottom: 0px; margin-left: 0px; padding-top: 0px; padding-right: 0px; padding-bottom: 0px; padding-left: 0px; " clear="none"></br>\n                                </p>\n                                <p style="margin-top: 0px; margin-right: 0px; margin-bottom: 0px; margin-left: 0px; padding-top: 5px; padding-right: 0px; padding-bottom: 5px; padding-left: 0px; text-align: center; ">\n                                  <img \n                                  style="margin-top: 0px; margin-right: 0px; margin-bottom: 0px; margin-left: 0px; padding-top: 0px; padding-right: 0px; padding-bottom: 0px; padding-left: 0px; width: 192px; height: 127px; " src="http://supervitamin.yolasite.com/resources/Take%20energy%20drink.jpg?timestamp=1262041011437" class="yui-img">\n</img>\n                                  <br style="margin-top: 0px; margin-right: 0px; margin-bottom: 0px; margin-left: 0px; padding-top: 0px; padding-right: 0px; padding-bottom: 0px; padding-left: 0px; " clear="none"></br>\n                                </p>\n                                <p style="margin-top: 0px; margin-right: 0px; margin-bottom: 0px; margin-left: 0px; padding-top: 5px; padding-right: 0px; padding-bottom: 5px; padding-left: 0px; text-align: center; ">\n                                  <font style="margin-top: 0px; margin-right: 0px; margin-bottom: 0px; margin-left: 0px; padding-top: 0px; padding-right: 0px; padding-bottom: 0px; padding-left: 0px; " size="4">Angry, Stressed out...</font>\n                                </p>\n                                <p style="margin-top: 0px; margin-right: 0px; margin-bottom: 0px; margin-left: 0px; padding-top: 5px; padding-right: 0px; padding-bottom: 5px; padding-left: 0px; text-align: center; ">\n                                  <img \n                                  style="margin-top: 0px; margin-right: 0px; margin-bottom: 0px; margin-left: 0px; padding-top: 0px; padding-right: 0px; padding-bottom: 0px; padding-left: 0px; width: 159px; height: 206px; " src="http://supervitamin.yolasite.com/resources/Relax%20with%20energy%20drink.jpg?timestamp=1262041067290" class="yui-img">\n</img>\n                                  <br style="margin-top: 0px; margin-right: 0px; margin-bottom: 0px; margin-left: 0px; padding-top: 0px; padding-right: 0px; padding-bottom: 0px; padding-left: 0px; " clear="none"></br>\n                                </p>\n                                <p style="margin-top: 0px; margin-right: 0px; margin-bottom: 0px; margin-left: 0px; padding-top: 5px; padding-right: 0px; padding-bottom: 5px; padding-left: 0px; text-align: center; ">\n                                  <font style="margin-top: 0px; margin-right: 0px; margin-bottom: 0px; margin-left: 0px; padding-top: 0px; padding-right: 0px; padding-bottom: 0px; padding-left: 0px; " size="4">and frustrated!!!</font>\n                                </p>\n                                <p style="margin-top: 0px; margin-right: 0px; margin-bottom: 0px; margin-left: 0px; padding-top: 5px; padding-right: 0px; padding-bottom: 5px; padding-left: 0px; text-align: center; ">\n                                  <img \n                                  style="margin-top: 0px; margin-right: 0px; margin-bottom: 0px; margin-left: 0px; padding-top: 0px; padding-right: 0px; padding-bottom: 0px; padding-left: 0px; width: 138px; height: 123px; " src="http://supervitamin.yolasite.com/resources/Need%20more%20energy%20drink.jpg?timestamp=1262041127133" class="yui-img">\n</img>\n                                  <br style="margin-top: 0px; margin-right: 0px; margin-bottom: 0px; margin-left: 0px; padding-top: 0px; padding-right: 0px; padding-bottom: 0px; padding-left: 0px; " clear="none"></br>\n                                </p>\n                                <p style="margin-top: 0px; margin-right: 0px; margin-bottom: 0px; margin-left: 0px; padding-top: 5px; padding-right: 0px; padding-bottom: 5px; padding-left: 0px; text-align: center; ">\n                                  <font style="margin-top: 0px; margin-right: 0px; margin-bottom: 0px; margin-left: 0px; padding-top: 0px; padding-right: 0px; padding-bottom: 0px; padding-left: 0px; " size="5">OK got the point!!!</font>\n                                  \xc2\xa0\n                                </p>\n                                <p style="margin-top: 0px; margin-right: 0px; margin-bottom: 0px; margin-left: 0px; padding-top: 5px; padding-right: 0px; padding-bottom: 5px; padding-left: 0px; text-align: left; ">\n                                  <font style="margin-top: 0px; margin-right: 0px; margin-bottom: 0px; margin-left: 0px; padding-top: 0px; padding-right: 0px; padding-bottom: 0px; padding-left: 0px; " size="3">\n                                    Now that\'s a problem common to most people. There are certain chemicals in our body that triggers all this feelings\n                                    <br style="margin-top: 0px; margin-right: 0px; margin-bottom: 0px; margin-left: 0px; padding-top: 0px; padding-right: 0px; padding-bottom: 0px; padding-left: 0px; " clear="none"></br>\n                                  </font>\n                                </p>\n                                <p style="margin-top: 0px; margin-right: 0px; margin-bottom: 0px; margin-left: 0px; padding-top: 5px; padding-right: 0px; padding-bottom: 5px; padding-left: 0px; text-align: center; ">\n                                  <font style="margin-top: 0px; margin-right: 0px; margin-bottom: 0px; margin-left: 0px; padding-top: 0px; padding-right: 0px; padding-bottom: 0px; padding-left: 0px; " size="5">Solutions!</font>\n                                </p>\n                                <p style="margin-top: 0px; margin-right: 0px; margin-bottom: 0px; margin-left: 0px; padding-top: 5px; padding-right: 0px; padding-bottom: 5px; padding-left: 0px; text-align: left; ">\n                                  <font style="margin-top: 0px; margin-right: 0px; margin-bottom: 0px; margin-left: 0px; padding-top: 0px; padding-right: 0px; padding-bottom: 0px; padding-left: 0px; " size="5">\n                                    <font style="margin-top: 0px; margin-right: 0px; margin-bottom: 0px; margin-left: 0px; padding-top: 0px; padding-right: 0px; padding-bottom: 0px; padding-left: 0px; " size="3">Olympic Champions Recommended Energy Drink</font>\n                                  </font>\n                                </p>\n                                <p style="margin-top: 0px; margin-right: 0px; margin-bottom: 0px; margin-left: 0px; padding-top: 5px; padding-right: 0px; padding-bottom: 5px; padding-left: 0px; text-align: center; ">\n                                  <font style="margin-top: 0px; margin-right: 0px; margin-bottom: 0px; margin-left: 0px; padding-top: 0px; padding-right: 0px; padding-bottom: 0px; padding-left: 0px; " size="3">\n                                    <img style="margin-top: 4px; margin-right: 4px; margin-bottom: 4px; margin-left: 4px; padding-top: 0px; padding-right: 0px; padding-bottom: 0px; padding-left: 0px; " src="http://supervitamin.yolasite.com/resources/Energy%20drink%201.jpg?timestamp=1262040263385" class="yui-img"></img>\n                                  </font>\n                                </p>\n                                <p style="margin-top: 0px; margin-right: 0px; margin-bottom: 0px; margin-left: 0px; padding-top: 5px; padding-right: 0px; padding-bottom: 5px; padding-left: 0px; text-align: center; ">\n                                  <font style="margin-top: 0px; margin-right: 0px; margin-bottom: 0px; margin-left: 0px; padding-top: 0px; padding-right: 0px; padding-bottom: 0px; padding-left: 0px; " size="3">\n                                    <span style="margin-top: 0px; margin-right: 0px; margin-bottom: 0px; margin-left: 0px; padding-top: 0px; padding-right: 0px; padding-bottom: 0px; padding-left: 0px; font-family: Verdana; ">Introducing Fitline\'s Activize Oxyplus</span>\n                                    \xc2\xa0a teaspoonful mix in juice or water once a day intake of this powerdrink cocktail will be enough for someone to be chasing bulls...\n                                  </font>\n                                </p>\n                                <p style="margin-top: 0px; margin-right: 0px; margin-bottom: 0px; margin-left: 0px; padding-top: 5px; padding-right: 0px; padding-bottom: 5px; padding-left: 0px; text-align: left; ">\n                                  FitLine Activize Oxyplus supplies exactly those active substances which our body needs to produce energy. Activize also supports the body in providing the body cells with additional vital substances.\n                                  <br style="margin-top: 0px; margin-right: 0px; margin-bottom: 0px; margin-left: 0px; padding-top: 0px; padding-right: 0px; padding-bottom: 0px; padding-left: 0px; " clear="none"></br>\n                                </p>\n                                <ul style="margin-top: 15px; margin-right: 5px; margin-bottom: 15px; margin-left: 5px; padding-top: 0px; padding-right: 35px; padding-bottom: 0px; padding-left: 35px; line-height: normal; " class="square" type="square">\n                                  <li style="margin-top: 0px; margin-right: 0px; margin-bottom: 0px; margin-left: 0px; padding-top: 2px; padding-right: 0px; padding-bottom: 2px; padding-left: 0px; line-height: normal; ">supports energy gain from food (carbohydrate combustion)</li>\n                                  <li style="margin-top: 0px; margin-right: 0px; margin-bottom: 0px; margin-left: 0px; padding-top: 2px; padding-right: 0px; padding-bottom: 2px; padding-left: 0px; line-height: normal; ">supplies the body with all B-vitamins for concentration and achievement levels</li>\n                                  <li style="margin-top: 0px; margin-right: 0px; margin-bottom: 0px; margin-left: 0px; padding-top: 2px; padding-right: 0px; padding-bottom: 2px; padding-left: 0px; line-height: normal; ">contains maritime algae powder</li>\n                                  <li style="margin-top: 0px; margin-right: 0px; margin-bottom: 0px; margin-left: 0px; padding-top: 2px; padding-right: 0px; padding-bottom: 2px; padding-left: 0px; line-height: normal; ">better\xc2\xa0bioavailability by the exclusive NTC</li>\n                                  <li style="margin-top: 0px; margin-right: 0px; margin-bottom: 0px; margin-left: 0px; padding-top: 2px; padding-right: 0px; padding-bottom: 2px; padding-left: 0px; line-height: normal; ">stimulates, invigorates, refreshes</li>\n                                  <li style="margin-top: 0px; margin-right: 0px; margin-bottom: 0px; margin-left: 0px; padding-top: 2px; padding-right: 0px; padding-bottom: 2px; padding-left: 0px; line-height: normal; ">patented (Patent Number: EP 1293133 + EP 1 563 743 [May 2008])</li>\n                                </ul>\n                                <div style="margin-top: 0px; margin-right: 0px; margin-bottom: 0px; margin-left: 0px; padding-top: 0px; padding-right: 0px; padding-bottom: 0px; padding-left: 0px; " class="subcapt">Ingredients:</div>\n                                <div style="margin-top: 0px; margin-right: 0px; margin-bottom: 0px; margin-left: 0px; padding-top: 0px; padding-right: 0px; padding-bottom: 0px; padding-left: 0px; ">\n                                  Vitamin C\n                                  <br style="margin-top: 0px; margin-right: 0px; margin-bottom: 0px; margin-left: 0px; padding-top: 0px; padding-right: 0px; padding-bottom: 0px; padding-left: 0px; " clear="none"></br>\n                                  Vitamin B1\n                                  <br style="margin-top: 0px; margin-right: 0px; margin-bottom: 0px; margin-left: 0px; padding-top: 0px; padding-right: 0px; padding-bottom: 0px; padding-left: 0px; " clear="none"></br>\n                                  Vitamin B2\n                                  <br style="margin-top: 0px; margin-right: 0px; margin-bottom: 0px; margin-left: 0px; padding-top: 0px; padding-right: 0px; padding-bottom: 0px; padding-left: 0px; " clear="none"></br>\n                                  Vitamin B6\n                                  <br style="margin-top: 0px; margin-right: 0px; margin-bottom: 0px; margin-left: 0px; padding-top: 0px; padding-right: 0px; padding-bottom: 0px; padding-left: 0px; " clear="none"></br>\n                                  Vitamin B12\n                                  <br style="margin-top: 0px; margin-right: 0px; margin-bottom: 0px; margin-left: 0px; padding-top: 0px; padding-right: 0px; padding-bottom: 0px; padding-left: 0px; " clear="none"></br>\n                                  Biotin\n                                  <br style="margin-top: 0px; margin-right: 0px; margin-bottom: 0px; margin-left: 0px; padding-top: 0px; padding-right: 0px; padding-bottom: 0px; padding-left: 0px; " clear="none"></br>\n                                  Folic Acid\n                                  <br style="margin-top: 0px; margin-right: 0px; margin-bottom: 0px; margin-left: 0px; padding-top: 0px; padding-right: 0px; padding-bottom: 0px; padding-left: 0px; " clear="none"></br>\n                                  Niacin\n                                  <br style="margin-top: 0px; margin-right: 0px; margin-bottom: 0px; margin-left: 0px; padding-top: 0px; padding-right: 0px; padding-bottom: 0px; padding-left: 0px; " clear="none"></br>\n                                  Pantothenate\n                                  <br style="margin-top: 0px; margin-right: 0px; margin-bottom: 0px; margin-left: 0px; padding-top: 0px; padding-right: 0px; padding-bottom: 0px; padding-left: 0px; " clear="none"></br>\n                                  Guarana Powder\n                                  <br style="margin-top: 0px; margin-right: 0px; margin-bottom: 0px; margin-left: 0px; padding-top: 0px; padding-right: 0px; padding-bottom: 0px; padding-left: 0px; " clear="none"></br>\n                                  <br style="margin-top: 0px; margin-right: 0px; margin-bottom: 0px; margin-left: 0px; padding-top: 0px; padding-right: 0px; padding-bottom: 0px; padding-left: 0px; " clear="none"></br>\n                                  <br style="margin-top: 0px; margin-right: 0px; margin-bottom: 0px; margin-left: 0px; padding-top: 0px; padding-right: 0px; padding-bottom: 0px; padding-left: 0px; " clear="none"></br>\n                                </div>\n                                <p style="margin-top: 0px; margin-right: 0px; margin-bottom: 0px; margin-left: 0px; padding-top: 5px; padding-right: 0px; padding-bottom: 5px; padding-left: 0px; text-align: center; ">\n                                  <font style="margin-top: 0px; margin-right: 0px; margin-bottom: 0px; margin-left: 0px; padding-top: 0px; padding-right: 0px; padding-bottom: 0px; padding-left: 0px; " size="3">It also comes in handy premixed sachet for Your convenience</font>\n                                </p>\n                                <font style="margin-top: 0px; margin-right: 0px; margin-bottom: 0px; margin-left: 0px; padding-top: 0px; padding-right: 0px; padding-bottom: 0px; padding-left: 0px; " size="3">\n                                  <img style="margin-top: 0px; margin-right: 0px; margin-bottom: 0px; margin-left: 0px; padding-top: 0px; padding-right: 0px; padding-bottom: 0px; padding-left: 0px; " src="http://supervitamin.yolasite.com/resources/Energy%20Drink%20power%20cocktail.jpg?timestamp=1262043047805" class="yui-img"></img>\n                                  <br style="margin-top: 0px; margin-right: 0px; margin-bottom: 0px; margin-left: 0px; padding-top: 0px; padding-right: 0px; padding-bottom: 0px; padding-left: 0px; " clear="none"></br>\n                                </font>\n                                <p style="margin-top: 0px; margin-right: 0px; margin-bottom: 0px; margin-left: 0px; padding-top: 5px; padding-right: 0px; padding-bottom: 5px; padding-left: 0px; text-align: left; ">\n                                  <font style="margin-top: 0px; margin-right: 0px; margin-bottom: 0px; margin-left: 0px; padding-top: 0px; padding-right: 0px; padding-bottom: 0px; padding-left: 0px; " size="3">\n                                    Let\'s find out what\'s inside\n                                    <br style="margin-top: 0px; margin-right: 0px; margin-bottom: 0px; margin-left: 0px; padding-top: 0px; padding-right: 0px; padding-bottom: 0px; padding-left: 0px; " clear="none"></br>\n                                  </font>\n                                </p>\n                                <ul style="margin-top: 15px; margin-right: 5px; margin-bottom: 15px; margin-left: 5px; padding-top: 0px; padding-right: 35px; padding-bottom: 0px; padding-left: 35px; line-height: normal; ">\n                                  <li style="margin-top: 0px; margin-right: 0px; margin-bottom: 0px; margin-left: 0px; padding-top: 2px; padding-right: 0px; padding-bottom: 2px; padding-left: 0px; line-height: normal; ">\n                                    <font style="margin-top: 0px; margin-right: 0px; margin-bottom: 0px; margin-left: 0px; padding-top: 0px; padding-right: 0px; padding-bottom: 0px; padding-left: 0px; " size="3">30 day supply of powdered juice drink</font>\n                                  </li>\n                                </ul>\n                                <font style="margin-top: 0px; margin-right: 0px; margin-bottom: 0px; margin-left: 0px; padding-top: 0px; padding-right: 0px; padding-bottom: 0px; padding-left: 0px; " size="3">\n                                  What\'s so special with this power drink and why are Olympic Gold Medalist endorsing this product even without monetary interest?\xc2\xa0\n                                  <br style="margin-top: 0px; margin-right: 0px; margin-bottom: 0px; margin-left: 0px; padding-top: 0px; padding-right: 0px; padding-bottom: 0px; padding-left: 0px; " clear="none"></br>\n                                  The company that invented the technology, manufacture and distributes this product does not offer any fee for endorsement deal with these athletes.\xc2\xa0\n                                  <br style="margin-top: 0px; margin-right: 0px; margin-bottom: 0px; margin-left: 0px; padding-top: 0px; padding-right: 0px; padding-bottom: 0px; padding-left: 0px; " clear="none"></br>\n                                  However, they are provided with supply and are closely monitored on and off competition to guarantee that they are free from any performance enhancing drugs.\n                                  <br style="margin-top: 0px; margin-right: 0px; margin-bottom: 0px; margin-left: 0px; padding-top: 0px; padding-right: 0px; padding-bottom: 0px; padding-left: 0px; " clear="none"></br>\n                                  Over thousand of Athlete using this energy drink have been subjected to European standards of Athlete screening in compliance to their strict anti-doping law.\xc2\xa0\n                                  <br style="margin-top: 0px; margin-right: 0px; margin-bottom: 0px; margin-left: 0px; padding-top: 0px; padding-right: 0px; padding-bottom: 0px; padding-left: 0px; " clear="none"></br>\n                                  Every single one pass the test and was cleared to compete.\n                                  <br style="margin-top: 0px; margin-right: 0px; margin-bottom: 0px; margin-left: 0px; padding-top: 0px; padding-right: 0px; padding-bottom: 0px; padding-left: 0px; " clear="none"></br>\n                                  Who are these Athletes?\n                                  <br style="margin-top: 0px; margin-right: 0px; margin-bottom: 0px; margin-left: 0px; padding-top: 0px; padding-right: 0px; padding-bottom: 0px; padding-left: 0px; " clear="none"></br>\n                                  Since this company is from Germany most of the Athletes are European:\n                                  <br style="margin-top: 0px; margin-right: 0px; margin-bottom: 0px; margin-left: 0px; padding-top: 0px; padding-right: 0px; padding-bottom: 0px; padding-left: 0px; " clear="none"></br>\n                                  To name a few:\n                                  <br style="margin-top: 0px; margin-right: 0px; margin-bottom: 0px; margin-left: 0px; padding-top: 0px; padding-right: 0px; padding-bottom: 0px; padding-left: 0px; " clear="none"></br>\n                                  <img \n                                  style="margin-top: 4px; margin-right: 4px; margin-bottom: 4px; margin-left: 4px; padding-top: 0px; padding-right: 0px; padding-bottom: 0px; padding-left: 0px; width: 232px; height: 264px; float: left; font-weight: bold; " src="http://supervitamin.yolasite.com/resources/Energy%20Drink%20.jpg?timestamp=1262043807343" class="yui-img">\n</img>\n                                  Achim Heukemes 1st Place winner for the Bad Water Ultra Marathon held in Death Valley Arizona in 2007 and took the 2nd place in 2008 in Corona, Queens NY.\n                                  <br style="margin-top: 0px; margin-right: 0px; margin-bottom: 0px; margin-left: 0px; padding-top: 0px; padding-right: 0px; padding-bottom: 0px; padding-left: 0px; " clear="none"></br>\n                                  <br style="margin-top: 0px; margin-right: 0px; margin-bottom: 0px; margin-left: 0px; padding-top: 0px; padding-right: 0px; padding-bottom: 0px; padding-left: 0px; " clear="none"></br>\n                                  If you haven\'t heard of Bad Water Marathon, it\'s the World toughest foot race.\n                                  <br style="margin-top: 0px; margin-right: 0px; margin-bottom: 0px; margin-left: 0px; padding-top: 0px; padding-right: 0px; padding-bottom: 0px; padding-left: 0px; " clear="none"></br>\n                                  <br style="margin-top: 0px; margin-right: 0px; margin-bottom: 0px; margin-left: 0px; padding-top: 0px; padding-right: 0px; padding-bottom: 0px; padding-left: 0px; " clear="none"></br>\n                                </font>\n                                AdventureCORPS, Inc., an event production firm specializing in ultra-endurance and extreme sports events, hosts the Badwater\n                                <img style="margin-top: 0px; margin-right: 0px; margin-bottom: 0px; margin-left: 0px; padding-top: 0px; padding-right: 0px; padding-bottom: 0px; padding-left: 0px; " width="12" height="12" border="0" alt="" src="http://www.badwater.com/images/tm.gif" class="yui-img"></img>\n                                \xc2\xa0Ultramarathon in July of each year. Recognized globally as &quot;the world\'s toughest foot race,&quot; this legendary event puts up to 90 of the world\'s toughest athletes\xc3\xa2\xe2\x82\xac\xe2\x80\x9drunners, triathletes, adventure racers, and mountaineers\xc3\xa2\xe2\x82\xac\xe2\x80\x9dagainst one another and the elements.\xc2\xa0\n                                <br style="margin-top: 0px; margin-right: 0px; margin-bottom: 0px; margin-left: 0px; padding-top: 0px; padding-right: 0px; padding-bottom: 0px; padding-left: 0px; " clear="none"></br>\n                                <br style="margin-top: 0px; margin-right: 0px; margin-bottom: 0px; margin-left: 0px; padding-top: 0px; padding-right: 0px; padding-bottom: 0px; padding-left: 0px; " clear="none"></br>\n                                Covering 135 miles (217km) non-stop from Death Valley to Mt. Whitney, CA in temperatures up to 130F (55c), it is the most demanding and extreme running race offered anywhere on the planet.\n                                <br style="margin-top: 0px; margin-right: 0px; margin-bottom: 0px; margin-left: 0px; padding-top: 0px; padding-right: 0px; padding-bottom: 0px; padding-left: 0px; " clear="none"></br>\n                                <br style="margin-top: 0px; margin-right: 0px; margin-bottom: 0px; margin-left: 0px; padding-top: 0px; padding-right: 0px; padding-bottom: 0px; padding-left: 0px; " clear="none"></br>\n                                So now you know. That\'s Achim on the left. At 51 years of age with sheer determination and stamina plus the Fitline, he did\xc2\xa0 not only made it alive during the toughest non-stop race in the world.\xc2\xa0 He was a placer. With his equally gifted wife who also won a second place in previous competition.\xc2\xa0\n                                <br style="margin-top: 0px; margin-right: 0px; margin-bottom: 0px; margin-left: 0px; padding-top: 0px; padding-right: 0px; padding-bottom: 0px; padding-left: 0px; " clear="none"></br>\n                                <br style="margin-top: 0px; margin-right: 0px; margin-bottom: 0px; margin-left: 0px; padding-top: 0px; padding-right: 0px; padding-bottom: 0px; padding-left: 0px; " clear="none"></br>\n                                These guys are the gems of Fitline.\n                                <br style="margin-top: 0px; margin-right: 0px; margin-bottom: 0px; margin-left: 0px; padding-top: 0px; padding-right: 0px; padding-bottom: 0px; padding-left: 0px; " clear="none"></br>\n                                <br style="margin-top: 0px; margin-right: 0px; margin-bottom: 0px; margin-left: 0px; padding-top: 0px; padding-right: 0px; padding-bottom: 0px; padding-left: 0px; " clear="none"></br>\n                                <img \n                                style="margin-top: 4px; margin-right: 4px; margin-bottom: 4px; margin-left: 4px; padding-top: 0px; padding-right: 0px; padding-bottom: 0px; padding-left: 0px; width: 245px; height: 245px; float: left; font-weight: bold; " src="http://supervitamin.yolasite.com/resources/Christian%20Schwarzer.jpg?timestamp=1262044390268" class="yui-img">\n</img>\n                                <br style="margin-top: 0px; margin-right: 0px; margin-bottom: 0px; margin-left: 0px; padding-top: 0px; padding-right: 0px; padding-bottom: 0px; padding-left: 0px; " clear="none"></br>\n                                <p style="margin-top: 0px; margin-right: 0px; margin-bottom: 0px; margin-left: 0px; padding-top: 5px; padding-right: 0px; padding-bottom: 5px; padding-left: 0px; ">\n                                  <b style="margin-top: 0px; margin-right: 0px; margin-bottom: 0px; margin-left: 0px; padding-top: 0px; padding-right: 0px; padding-bottom: 0px; padding-left: 0px; ">Christian &quot;Blacky&quot; Schwarzer</b>\n                                  \xc2\xa0(born 23 October 1969) is a\xc2\xa0\n                                  <a style="margin-top: 0px; margin-right: 0px; margin-bottom: 0px; margin-left: 0px; padding-top: 0px; padding-right: 0px; padding-bottom: 0px; padding-left: 0px; text-decoration: none; color: rgb(60, 123, 207); " title="Germany" href="http://en.wikipedia.org/wiki/Germany" class="" shape="rect">\n                                    German\n                                  </a>\n                                  \xc2\xa0\n                                  <a \n                                  style="margin-top: 0px; margin-right: 0px; margin-bottom: 0px; margin-left: 0px; padding-top: 0px; padding-right: 0px; padding-bottom: 0px; padding-left: 0px; text-decoration: none; color: rgb(60, 123, 207); " title="Team handball" href="http://en.wikipedia.org/wiki/Team_handball" class="" shape="rect">\n                                    handball\n</a>\n                                  \xc2\xa0player.\n                                </p>\n                                <p style="margin-top: 0px; margin-right: 0px; margin-bottom: 0px; margin-left: 0px; padding-top: 5px; padding-right: 0px; padding-bottom: 5px; padding-left: 0px; ">\n                                  Born in\xc2\xa0\n                                  <a \n                                  style="margin-top: 0px; margin-right: 0px; margin-bottom: 0px; margin-left: 0px; padding-top: 0px; padding-right: 0px; padding-bottom: 0px; padding-left: 0px; text-decoration: none; color: rgb(60, 123, 207); " title="Braunschweig" href="http://en.wikipedia.org/wiki/Braunschweig" class="" shape="rect">\n                                    Braunschweig\n</a>\n                                  , he has played for\xc2\xa0\n                                  <a \n                                  style="margin-top: 0px; margin-right: 0px; margin-bottom: 0px; margin-left: 0px; padding-top: 0px; padding-right: 0px; padding-bottom: 0px; padding-left: 0px; text-decoration: none; color: rgb(60, 123, 207); " title="VfL Fredenbeck (page does not exist)" href="http://en.wikipedia.org/w/index.php?title=VfL_Fredenbeck&amp;action=edit&amp;redlink=1" class="new" shape="rect">\n                                    VfL Fredenbeck\n</a>\n                                  \xc2\xa0from 1987 to 1991 and for\xc2\xa0\n                                  <a \n                                  style="margin-top: 0px; margin-right: 0px; margin-bottom: 0px; margin-left: 0px; padding-top: 0px; padding-right: 0px; padding-bottom: 0px; padding-left: 0px; text-decoration: none; color: rgb(60, 123, 207); " title="TV Niederw\xc3\x83\xc5\x92rzbach (page does not exist)" href="http://en.wikipedia.org/w/index.php?title=TV_Niederw%C3%BCrzbach&amp;action=edit&amp;redlink=1" class="new" shape="rect">\n                                    TV Niederw\xc3\x83\xc5\x92rzbach\n</a>\n                                  \xc2\xa0from 1991 to 1999. While playing for\xc2\xa0\n                                  <a \n                                  style="margin-top: 0px; margin-right: 0px; margin-bottom: 0px; margin-left: 0px; padding-top: 0px; padding-right: 0px; padding-bottom: 0px; padding-left: 0px; text-decoration: none; color: rgb(60, 123, 207); " title="FC Barcelona Handbol" href="http://en.wikipedia.org/wiki/FC_Barcelona_Handbol" class="" shape="rect">\n                                    FC Barcelona Handbol\n</a>\n                                  \xc2\xa0from 1999 to 2001, the German handball player of the year 2001, won the\n                                  <a \n                                  style="margin-top: 0px; margin-right: 0px; margin-bottom: 0px; margin-left: 0px; padding-top: 0px; padding-right: 0px; padding-bottom: 0px; padding-left: 0px; text-decoration: none; color: rgb(60, 123, 207); " title="National Championship of Spain (page does not exist)" href="http://en.wikipedia.org/w/index.php?title=National_Championship_of_Spain&amp;action=edit&amp;redlink=1" class="new" shape="rect">\n                                    National Championship of Spain\n</a>\n                                  , the\xc2\xa0\n                                  <a \n                                  style="margin-top: 0px; margin-right: 0px; margin-bottom: 0px; margin-left: 0px; padding-top: 0px; padding-right: 0px; padding-bottom: 0px; padding-left: 0px; text-decoration: none; color: rgb(60, 123, 207); " title="National Cup of Spain (page does not exist)" href="http://en.wikipedia.org/w/index.php?title=National_Cup_of_Spain&amp;action=edit&amp;redlink=1" class="new" shape="rect">\n                                    National Cup of Spain\n</a>\n                                  \xc2\xa0and the\xc2\xa0\n                                  <a \n                                  style="margin-top: 0px; margin-right: 0px; margin-bottom: 0px; margin-left: 0px; padding-top: 0px; padding-right: 0px; padding-bottom: 0px; padding-left: 0px; text-decoration: none; color: rgb(60, 123, 207); " title="EHF Champions League" href="http://en.wikipedia.org/wiki/EHF_Champions_League" class="" shape="rect">\n                                    EHF Champions League\n</a>\n                                  \xc2\xa0in 2000. Since 2001, he is playing for\xc2\xa0\n                                  <a style="margin-top: 0px; margin-right: 0px; margin-bottom: 0px; margin-left: 0px; padding-top: 0px; padding-right: 0px; padding-bottom: 0px; padding-left: 0px; text-decoration: none; color: rgb(60, 123, 207); " title="TBV Lemgo" href="http://en.wikipedia.org/wiki/TBV_Lemgo" class="" shape="rect">\n                                    TBV Lemgo\n                                  </a>\n                                  , with which he won the\xc2\xa0\n                                  <a \n                                  style="margin-top: 0px; margin-right: 0px; margin-bottom: 0px; margin-left: 0px; padding-top: 0px; padding-right: 0px; padding-bottom: 0px; padding-left: 0px; text-decoration: none; color: rgb(60, 123, 207); " title="National Cup of Germany (page does not exist)" href="http://en.wikipedia.org/w/index.php?title=National_Cup_of_Germany&amp;action=edit&amp;redlink=1" class="new" shape="rect">\n                                    National Cup of Germany\n</a>\n                                  \xc2\xa0in 2002, the\xc2\xa0\n                                  <a \n                                  style="margin-top: 0px; margin-right: 0px; margin-bottom: 0px; margin-left: 0px; padding-top: 0px; padding-right: 0px; padding-bottom: 0px; padding-left: 0px; text-decoration: none; color: rgb(60, 123, 207); " title="National Championship of Germany (page does not exist)" href="http://en.wikipedia.org/w/index.php?title=National_Championship_of_Germany&amp;action=edit&amp;redlink=1" class="new" shape="rect">\n                                    National Championship of Germany\n</a>\n                                  in 2003 and the\xc2\xa0\n                                  <a style="margin-top: 0px; margin-right: 0px; margin-bottom: 0px; margin-left: 0px; padding-top: 0px; padding-right: 0px; padding-bottom: 0px; padding-left: 0px; text-decoration: none; color: rgb(60, 123, 207); " title="EHF Cup" href="http://en.wikipedia.org/wiki/EHF_Cup" class="" shape="rect">\n                                    EHF Cup\n                                  </a>\n                                  \xc2\xa0in 2006.\n                                </p>\n                                <p style="margin-top: 0px; margin-right: 0px; margin-bottom: 0px; margin-left: 0px; padding-top: 5px; padding-right: 0px; padding-bottom: 5px; padding-left: 0px; ">\n                                  Schwarzer has taken part in six\xc2\xa0\n                                  <a \n                                  style="margin-top: 0px; margin-right: 0px; margin-bottom: 0px; margin-left: 0px; padding-top: 0px; padding-right: 0px; padding-bottom: 0px; padding-left: 0px; text-decoration: none; color: rgb(60, 123, 207); " title="World Men\'s Handball Championship" href="http://en.wikipedia.org/wiki/World_Men%27s_Handball_Championship" class="" shape="rect">\n                                    World Men\'s Handball Championship\n</a>\n                                  , five\xc2\xa0\n                                  <a \n                                  style="margin-top: 0px; margin-right: 0px; margin-bottom: 0px; margin-left: 0px; padding-top: 0px; padding-right: 0px; padding-bottom: 0px; padding-left: 0px; text-decoration: none; color: rgb(60, 123, 207); " title="European Men\'s Handball Championship" href="http://en.wikipedia.org/wiki/European_Men%27s_Handball_Championship" class="" shape="rect">\n                                    European Men\'s Handball Championships\n</a>\n                                  \xc2\xa0and three\xc2\xa0\n                                  <a \n                                  style="margin-top: 0px; margin-right: 0px; margin-bottom: 0px; margin-left: 0px; padding-top: 0px; padding-right: 0px; padding-bottom: 0px; padding-left: 0px; text-decoration: none; color: rgb(60, 123, 207); " title="Olympic Games" href="http://en.wikipedia.org/wiki/Olympic_Games" class="" shape="rect">\n                                    Olympic Games\n</a>\n                                  . As of January 2007, he has made 310 international matches with 949 goals. He made his first game for the\xc2\xa0\n                                  <a \n                                  style="margin-top: 0px; margin-right: 0px; margin-bottom: 0px; margin-left: 0px; padding-top: 0px; padding-right: 0px; padding-bottom: 0px; padding-left: 0px; text-decoration: none; color: rgb(60, 123, 207); " title="Germany national handball team" href="http://en.wikipedia.org/wiki/Germany_national_handball_team" class="" shape="rect">\n                                    German national handball team\n</a>\n                                  \xc2\xa0against the\xc2\xa0\n                                  <a \n                                  style="margin-top: 0px; margin-right: 0px; margin-bottom: 0px; margin-left: 0px; padding-top: 0px; padding-right: 0px; padding-bottom: 0px; padding-left: 0px; text-decoration: none; color: rgb(60, 123, 207); " title="German Democratic Republic" href="http://en.wikipedia.org/wiki/German_Democratic_Republic" class="mw-redirect" shape="rect">\n                                    German Democratic Republic\n</a>\n                                  \xc2\xa0in\xc2\xa0\n                                  <a \n                                  style="margin-top: 0px; margin-right: 0px; margin-bottom: 0px; margin-left: 0px; padding-top: 0px; padding-right: 0px; padding-bottom: 0px; padding-left: 0px; text-decoration: none; color: rgb(60, 123, 207); " title="Wilhelmshaven" href="http://en.wikipedia.org/wiki/Wilhelmshaven" class="" shape="rect">\n                                    Wilhelmshaven\n</a>\n                                  \xc2\xa0on 21 November 1989. In 2004, he retired but was reactivated for the\xc2\xa0\n                                  <a \n                                  style="margin-top: 0px; margin-right: 0px; margin-bottom: 0px; margin-left: 0px; padding-top: 0px; padding-right: 0px; padding-bottom: 0px; padding-left: 0px; text-decoration: none; color: rgb(60, 123, 207); " title="2007 World Men\'s Handball Championship" href="http://en.wikipedia.org/wiki/2007_World_Men%27s_Handball_Championship" class="" shape="rect">\n                                    2007 World Men\'s Handball Championship\n</a>\n                                  . After becoming World champion, he stepped down again.\n                                </p>\n                                <ul style="margin-top: 15px; margin-right: 5px; margin-bottom: 15px; margin-left: 5px; padding-top: 0px; padding-right: 35px; padding-bottom: 0px; padding-left: 35px; line-height: normal; ">\n                                  <li style="margin-top: 0px; margin-right: 0px; margin-bottom: 0px; margin-left: 0px; padding-top: 2px; padding-right: 0px; padding-bottom: 2px; padding-left: 0px; line-height: normal; ">Supports energy gain from food (burns carbohydrates)</li>\n                                  <li style="margin-top: 0px; margin-right: 0px; margin-bottom: 0px; margin-left: 0px; padding-top: 2px; padding-right: 0px; padding-bottom: 2px; padding-left: 0px; line-height: normal; ">Supplies the body with all B-vitamins for concentration and performance</li>\n                                  <li style="margin-top: 0px; margin-right: 0px; margin-bottom: 0px; margin-left: 0px; padding-top: 2px; padding-right: 0px; padding-bottom: 2px; padding-left: 0px; line-height: normal; ">Contains a maritime algae powder (brown algae)</li>\n                                  <li style="margin-top: 0px; margin-right: 0px; margin-bottom: 0px; margin-left: 0px; padding-top: 2px; padding-right: 0px; padding-bottom: 2px; padding-left: 0px; line-height: normal; ">Has a stimulating, invigorating and refreshing effect</li>\n                                  <li style="margin-top: 0px; margin-right: 0px; margin-bottom: 0px; margin-left: 0px; padding-top: 2px; padding-right: 0px; padding-bottom: 2px; padding-left: 0px; line-height: normal; ">Strengthens the body\xc3\xa2\xe2\x82\xac\xe2\x84\xa2s own immune defenses</li>\n                                  <li style="margin-top: 0px; margin-right: 0px; margin-bottom: 0px; margin-left: 0px; padding-top: 2px; padding-right: 0px; padding-bottom: 2px; padding-left: 0px; line-height: normal; ">With many antioxidative vital substances</li>\n                                  <li style="margin-top: 0px; margin-right: 0px; margin-bottom: 0px; margin-left: 0px; padding-top: 2px; padding-right: 0px; padding-bottom: 2px; padding-left: 0px; line-height: normal; ">Contains an absorption-promoting Ayurvedic herbal aroma</li>\n                                </ul>\n                              </div>\n                              <p>\n                                In :\n                                <a title="Browse by category: Your Health" target="_self" href="index/category/Your%20Health" shape="rect">Your Health</a>\n                                \xc2\xa0\n                              </p>\n                              <div class="float-right">\n                                <a title="Next post: I\xc3\xa2\xe2\x82\xac\xe2\x84\xa2m no quitter! I\xc3\xa2\xe2\x82\xac\xe2\x84\xa2m a doer\xc3\xa2\xe2\x82\xac\xc5\xa0so when I said I\xc3\xa2\xe2\x82\xac\xe2\x84\xa2ll quit, I\xc3\xa2\xe2\x82\xac\xe2\x84\xa2d did it!" href="index/i-m-no-quitter-i-m-a-doer-so-when-i-said-i-ll-quit-i-d-did-it-" shape="rect">\n                                  <strong>Next post:</strong>\n                                  I\xc3\xa2\xe2\x82\xac\xe2\x84\xa2m no quitter!...\n                                </a>\n                              </div>\n                              <div class="float-left">\n                                <a title="Previous post: Obesity...serious problem!" href="index/obesity-serious-problem-" shape="rect">\n                                  <strong>Previous post:</strong>\n                                  Obesity...serious...\n                                </a>\n                              </div>\n                              <div style="clear:left;"></div>\n                              <br clear="none"></br>\n                              Tags:\n                              <a title="Browse by tag: fitline" target="_self" href="index/tag/fitline" shape="rect">fitline</a>\n                              \xc2\xa0\n                              <a title="Browse by tag: akim heukemes" target="_self" href="index/tag/%20akim%20heukemes" shape="rect"> akim heukemes</a>\n                              \xc2\xa0\n                              <a title="Browse by tag: energy drink" target="_self" href="index/tag/%20energy%20drink" shape="rect"> energy drink</a>\n                              \xc2\xa0\n                              <a title="Browse by tag: powerdrink" target="_self" href="index/tag/%20powerdrink" shape="rect"> powerdrink</a>\n                              \xc2\xa0\n                              <div class="blog-pagination">\n                                <a target="_self" title="Back to posts" href="index.php" shape="rect">\xc2\xab Back to posts</a>\n                              </div>\n                              <br clear="none"></br>\n                              <div id="disqus_thread"></div>\n                              <script type="text/javascript">\n                                /**\n    * var disqus_identifier; [Optional but recommended: Define a unique identifier (e.g. post id or slug) for this thread] \n    */\n  (function() {\n   var dsq = document.createElement(\'script\'); dsq.type = \'text/javascript\'; dsq.async = true;\n   dsq.src = \'http://healthenergydrink.disqus.com/embed.js\';\n   (document.getElementsByTagName(\'head\')[0] || document.getElementsByTagName(\'body\')[0]).appendChild(dsq);\n  })();\n                              </script>\n                              <noscript>\n                                Please enable JavaScript to view the\n                                <a href="http://disqus.com/?ref_noscript=healthenergydrink" shape="rect">comments powered by Disqus.</a>\n                              </noscript>\n                              <a href="http://disqus.com" class="dsq-brlink" shape="rect">\n                                blog comments powered by\n                                <span class="logo-disqus">Disqus</span>\n                              </a>\n                            </div>\n                          </div>\n                        </div>\n                      </div>\n                      <div style="display:block;clear: both;text-align:center;margin:15px 15px 15px 15px;" id="I274" class="YouTube_Default">\n                        <object height="350" width="425">\n                          <param value="http://www.youtube.com/v/_Gn2UDu7hFw" name="movie" valuetype="data"></param>\n                          <param value="transparent" name="wmode" valuetype="data"></param>\n                          <embed height="350" width="425" wmode="transparent" type="application/x-shockwave-flash" src="http://www.youtube.com/v/_Gn2UDu7hFw"></embed>\n                        </object>\n                      </div>\n                      <div style="display:block;clear: both;text-align:center;" id="I283" class="HTML_Default">\n                        <div id="I283_html">\n                          <div id="disqus_thread"></div>\n                          <script type="text/javascript">\n                            /**\n    * var disqus_identifier; [Optional but recommended: Define a unique identifier (e.g. post id or slug) for this thread] \n    */\n  (function() {\n   var dsq = document.createElement(\'script\'); dsq.type = \'text/javascript\'; dsq.async = true;\n   dsq.src = \'http://healthenergydrink.disqus.com/embed.js\';\n   (document.getElementsByTagName(\'head\')[0] || document.getElementsByTagName(\'body\')[0]).appendChild(dsq);\n  })();\n                          </script>\n                          <noscript>\n                            Please enable JavaScript to view the\n                            <a href="http://disqus.com/?ref_noscript=healthenergydrink" shape="rect">comments powered by Disqus.</a>\n                          </noscript>\n                          <a href="http://disqus.com" class="dsq-brlink" shape="rect">\n                            blog comments powered by\n                            <span class="logo-disqus">Disqus</span>\n                          </a>\n                        </div>\n                      </div>\n                    </td>\n                    <td style="vertical-align:top; width:42.35807860262009%;" id="Right_I256" rowspan="1" colspan="1">\n                      <div style="display:block;clear: both;text-align:left;margin:0 0 0 0;" id="I258" class="BlogAuthor_Default">\n                        <div class="sys_txt">\n                          <div id="I_Blog_Author">\n                            <h2 class="blog_widget_title">Prevention is your best defense...</h2>\n                            <table cellspacing="0" cellpadding="0" style="padding-top:0px;" class="user-info-table">\n                              <tr>\n                                <td rowspan="1" colspan="1">\n                                  <strong>Joel Inocencio BSN, RN</strong>\n                                </td>\n                              </tr>\n                              <tr>\n                                <td rowspan="1" colspan="1">New York</td>\n                              </tr>\n                            </table>\n                            <br clear="none"></br>\n                            <div class="info_container">\n                              <table cellspacing="0" cellpadding="0">\n                                <tr>\n                                  <td style="vertical-align:top;padding:0 5px;" rowspan="1" colspan="1">\n                                    <img width="75" alt="Joel Inocencio BSN, RN" src="resources/Joel BW.jpg" class="user_image"></img>\n                                    It\'s cheaper to prevent than treat your illness. \nI can advocate for the natural way to keep you in shape but the ultimate decision rest on you. Your health is your wealth!\n                                  </td>\n                                </tr>\n                                <tr></tr>\n                              </table>\n                            </div>\n                            <div style="clear:both;height:1px;overflow:hidden;"></div>\n                          </div>\n                        </div>\n                      </div>\n                      <div style="display:block;clear: both;text-align:left;margin:0 0 0 0;" id="I257" class="BlogSearchWidget_Default">\n                        <script type="text/javascript">\n                          //&lt;![CDATA[\n\tfunction doSearch18(){\n\t\tif(document.getElementById(\'blogSearchText18\').value == &quot;&quot;){\n\t\t\treturn false;\n\t\t}\n\t\tif(document.getElementById(\'blogSearchText18\').value == &quot;Search Posts&quot;){\n\t\t\treturn false;\n\t\t}\n\t\t\n\t\tvar tmp = document.getElementById(\'blogSearchText18\').value;\n\n                                    document.getElementById(\'fsearch18\').action = \'index.search?q=\' + encodeURIComponent(tmp);\n\t\t\t\tdocument.fsearch18.submit();\n\t}\n\t\n\tfunction checkKey18(e){\t\n\t\tvar key = e.which||e.keyCode;\t\t\n\t\tif(key==13){\n\t\t\tdocument.getElementById(\'btnBlogSearch18\').click();\n\t\t}\n\t}\n\t\n\tfunction doClear18(){\n\t\tif(document.getElementById(\'blogSearchText18\').value == &quot;Search Posts&quot;){\n\t\t\tdocument.getElementById(\'blogSearchText18\').value = &quot;&quot;;\n\t\t}\n\t}\n\t\n\tfunction updateSubmitAction18() {\n\n\t\tvar tmp = document.getElementById(\'blogSearchText18\').value;\t\t\t\n\t\tdocument.getElementById(\'fsearch18\').action = \'index.search?q=\' + encodeURIComponent(tmp);\n\t}\n//]]&gt;\n                        </script>\n                        <div class="sys_txt">\n                          <div id="I_Blog_Search">\n                            <form action="" name="fsearch18" id="fsearch18" method="POST" enctype="application/x-www-form-urlencoded">\n                              <label for="blogSearchText">\n                                <input value="Search Posts" name="blogSearchText18" onclick="javascript:doClear18();" onfocus="javascript:doClear18();" onkeydown="javascript:updateSubmitAction18(); checkKey18(event);" id="blogSearchText18" class="text" type="text"></input>\n                              </label>\n                              <input onclick="javascript:doSearch18();" value="Search" name="btnBlogSearch18" id="btnBlogSearch18" type="button"></input>\n                            </form>\n                          </div>\n                        </div>\n                      </div>\n                      <div style="display:block;clear: both;text-align:center;" id="I296" class="HTML_Default">\n                        <div id="I296_html">\n                          <iframe allowfullscreen="allowfullscreen" src="http://www.youtube.com/embed/u6KSoNLv9Rw" height="290" width="280" scrolling="auto" frameborder="0"></iframe>\n                        </div>\n                      </div>\n                      <div style="display:block;clear: both;text-align:left;margin:0 0 0 0;" id="I259" class="BlogTags_Default">\n                        <div id="I_Blog_Tags" class="sys_txt">\n                          <h2 class="blog_widget_title">Tags</h2>\n                          <div>\n                            <a style="font-size:12px" title="" href="index/tag/energy" class="tag" shape="rect">energy</a>\n                            <a style="font-size:12px" title="" href="index/tag/sports" class="tag" shape="rect">sports</a>\n                          </div>\n                        </div>\n                      </div>\n                      <div style="display:block;clear: both;text-align:center;" id="I279" class="HTML_Default">\n                        <div id="I279_html">\n                          <iframe allowfullscreen="allowfullscreen" src="http://www.youtube.com/embed/jBh236nlbks" height="290" width="280" title="YouTube video player" scrolling="auto" frameborder="0"></iframe>\n                        </div>\n                      </div>\n                      <div style="display:block;clear: both;text-align:left;" id="I260" class="BlogCategories_Default">\n                        <div id="I_Blog_Categories" class="sys_txt">\n                          <h2 class="blog_widget_title">Categories</h2>\n                          <ul>\n                            <li>\n                              <a title="View posts by category" target="_self" href="index/category/Sports" shape="rect">Sports\xc2\xa0(3)</a>\n                            </li>\n                            <li>\n                              <a title="View posts by category" target="_self" href="index/category/Supplement" shape="rect">Supplement\xc2\xa0(1)</a>\n                            </li>\n                            <li>\n                              <a title="View posts by category" target="_self" href="index/category/Your%20Health" shape="rect">Your Health\xc2\xa0(5)</a>\n                            </li>\n                          </ul>\n                        </div>\n                      </div>\n                      <div style="display:block;clear: both;text-align:center;" id="I280" class="HTML_Default">\n                        <div id="I280_html">\n                          <iframe allowfullscreen="allowfullscreen" src="http://www.youtube.com/embed/dMFCcYO3yLU" height="290" width="280" title="YouTube video player" scrolling="auto" frameborder="0"></iframe>\n                        </div>\n                      </div>\n                      <div style="display:block;clear: both;text-align:left;" id="I261" class="RecentPosts_Default">\n                        <div id="I_Blog_Recentposts" class="sys_txt">\n                          <h2 class="blog_widget_title">Recent Posts </h2>\n                          <ul>\n                            <li>\n                              <a target="_self" title="Congratulations Bruno Spengle" href="index/congratulations-bruno-spengler-" shape="rect">Congratulations Bruno Spengle</a>\n                            </li>\n                            <li>\n                              <a target="_self" title="The Pacman retains his WBO title!" href="index/the-pacman-retains-his-wbo-title-" shape="rect">The Pacman retains his WBO title!</a>\n                            </li>\n                            <li>\n                              <a target="_self" title="Novak Djokovic remains unbeaten in 2011!" href="index/novak-djokovic-remains-unbeaten-in-2011-" shape="rect">Novak Djokovic remains unbeaten in 2011!</a>\n                            </li>\n                            <li>\n                              <a target="_self" title="Darn...It\'s allergy time again!" href="index/darn-it-s-allergy-time-again-" shape="rect">Darn...It\'s allergy time again!</a>\n                            </li>\n                            <li>\n                              <a target="_self" title="Anti-Oxidants" href="index/anti-oxidants" shape="rect">Anti-Oxidants</a>\n                            </li>\n                          </ul>\n                        </div>\n                      </div>\n                      <div style="display:block;clear: both;text-align:left;margin:0 0 0 0;" id="I262" class="BlogArchive_Default">\n                        <div id="I_Blog_Archive" class="sys_txt">\n                          <h2 class="blog_widget_title">Blog Archive</h2>\n                          <ul>\n                            <li>\n                              <a title="View posts from April 2011" target="_self" href="index/archive/2011/April" shape="rect">April\xc2\xa02011</a>\n                            </li>\n                            <li>\n                              <a title="View posts from May 2011" target="_self" href="index/archive/2011/May" shape="rect">May\xc2\xa02011</a>\n                            </li>\n                          </ul>\n                        </div>\n                      </div>\n                      <div style="display:block;clear: both;text-align:left;" id="I263" class="BlogRss_Default">\n                        <div class="sys_txt">\n                          <a style="display:block; float:left; width:32px; height:32px" target="_blank" title="Subscribe to this blog" href="index.rss" shape="rect">\n                            <img style="border:none;" border="0" alt="Subscribe to this blog" src="classes/components/BlogRss/resources/images/32x32Rss.png"></img>\n                          </a>\n                          \xc2\xa0\n                          <a target="_blank" title="Subscribe to this blog" href="index.rss" shape="rect">Subscribe to this blog</a>\n                          <div style="clear:left;height:1px;">\xc2\xa0</div>\n                        </div>\n                      </div>\n                      <div style="display:block;clear: both;" id="I266" class="Form_Default">\n                        <div class="sys_yola_form">\n                          <h2>Sign-up If you want absolutely FREE info </h2>\n                          <form action="http://forms.yola.com/formservice/en_US/8a4986c823cd3ca30123dd99bbe94ca0/8a4986c823e440d90123e6ddec231db9/8a49866b2f593d4c012f5f10ec272427/I266/" method="post" enctype="application/x-www-form-urlencoded">\n                            <p class="label">\n                              <label for="yola_form_widget_I266_0">Name</label>\n                            </p>\n                            <input value="" name="0&lt;text&gt;" id="yola_form_widget_I266_0" class="text" type="text"></input>\n                            <input value="Name" name="0&lt;label&gt;" type="hidden"></input>\n                            <p class="label">\n                              <label for="yola_form_widget_I266_1">E-mail</label>\n                            </p>\n                            <input value="" name="1&lt;text&gt;" id="yola_form_widget_I266_1" class="text" type="text"></input>\n                            <input value="E-mail" name="1&lt;label&gt;" type="hidden"></input>\n                            <p class="form-paragraph">We hate SPAM! Your E-mail</p>\n                            <input value="We hate SPAM! Your E-mail" name="2&lt;label&gt;" type="hidden"></input>\n                            <p class="form-paragraph">will be kept confidential.</p>\n                            <input value="will be kept confidential." name="3&lt;label&gt;" type="hidden"></input>\n                            <input value="http://highorganics.com/index/boost-your-physical-and-mental-energy-with-the-real-and-powerdrink-?formI266Posted=true" name="redirect" type="hidden"></input>\n                            <input value="http://highorganics.com/index/boost-your-physical-and-mental-energy-with-the-real-and-powerdrink-?formI266PostFailed=true" name="redirect_fail" type="hidden"></input>\n                            <input value="Sign-up If you want absolutely FREE info " name="form_name" type="hidden"></input>\n                            <input value="Supervitamin" name="site_name" type="hidden"></input>\n                            <input value="ycDomYniV1M1II6bKp-HrTBdS72nSxgPykahuQZ0ZqX6Pw==:2G9qgQqlw0nOiko9JyIVqQe0J4zLJK3Fvw1QewUf_GY=" name="destination" type="hidden"></input>\n                            <p>\n                              <input value="Submit" class="submit" type="submit"></input>\n                            </p>\n                          </form>\n                        </div>\n                      </div>\n                      <div style="display:block;clear: both;" id="I271" class="Text_Default">\n                        <div style="margin:0px; padding:0px; color:; font:; background-color:;" id="I271_sys_txt" class="sys_txt">\n                          <p style="text-align: center;">\n                            \xc2\xa0\n                            <b>Novak Djokovic\xc2\xa0</b>\n                          </p>\n                          <p style="text-align: center;">Triumph against Andy Murray of Scotland in the 2011 Australian Open Tennis Tournament</p>\n                          <p style="text-align: center;">Click the image for the story...</p>\n                        </div>\n                      </div>\n                      <div style="display:block;clear: both;text-align:center;" id="I270" class="HTML_Default">\n                        <div id="I270_html">\n                          <a href="http://fitline.com/?action=article&amp;cid=223&amp;c_id=1899&amp;a_id=20859&amp;TP=24002291" shape="rect">\n                            <img alt="Novak Djokovic.jpg" height="100" width="100" src="http://supervitamin.yolasite.com/resources/Novak Djokovic.jpg"></img>\n                          </a>\n                        </div>\n                      </div>\n                      <div style="display:block;clear: both;text-align:center;" id="I275" class="HTML_Default">\n                        <div id="I275_html">\n                          <div class="a2a_kit a2a_default_style">\n                            <a href="http://www.addtoany.com/share_save?linkurl=http%3A %2F%2Fyhep.yolasite.com&amp;linkname=Yhep%20Blogs!" class="a2a_dd" shape="rect">Shar e</a>\n                            <span class="a2a_divider"></span>\n                            <a class="a2a_button_facebook" shape="rect"></a>\n                            <a class="a2a_button_twitter" shape="rect"></a>\n                            <a class="a2a_button_email" shape="rect"></a>\n                            <a class="a2a_button_delicious" shape="rect"></a>\n                            <a class="a2a_button_google_buzz" shape="rect"></a>\n                            <a class="a2a_button_linkedin" shape="rect"></a>\n                            <a class="a2a_button_multiply" shape="rect"></a>\n                            <a class="a2a_button_stumbleupon" shape="rect"></a>\n                            <a class="a2a_button_yahoo_bookmarks" shape="rect"></a>\n                            <a class="a2a_button_wordpress" shape="rect"></a>\n                            <a class="a2a_button_squidoo" shape="rect"></a>\n                            <a class="a2a_button_google_reader" shape="rect"></a>\n                            <a class="a2a_button_digg" shape="rect"></a>\n                            <a class="a2a_button_blogger_post" shape="rect"></a>\n                            <a class="a2a_button_aim" shape="rect"></a>\n                          </div>\n                          <script type="text/javascript"> var a2a_config = a2a_config || {}; a2a_config.linkname = &quot;Yhep Blogs!&quot;; a2a_config.linkurl = &quot;http://yhep.yolasite.com&quot;; </script>\n                          <script src="http://static.addtoany.com/menu/page.js" type="text/javascript"></script>\n                        </div>\n                      </div>\n                      <div style="display:block;clear: both;text-align:center;" id="I276" class="HTML_Default">\n                        <div id="I276_html">\n                          <script src="http://feedjit.com/serve/?vv=724&amp;tft=3&amp;dd=0 &amp;wid=f5b009871709de5e&amp;pid=0&amp;proid=0&amp;bc=F AFCED&amp;tc=575757&amp;brd1=41B352&amp;lnk=329441&amp;h c=FFFFFF&amp;hfc=09B800&amp;btn=6B6B6B&amp;ww=200&amp;we nt=10" type="text/javascript"></script>\n                          <noscript>\n                            <a href="http://feedjit.com/" shape="rect">Feedjit Live Blog Stats</a>\n                          </noscript>\n                        </div>\n                      </div>\n                      <div style="display:block;clear: both;" id="I289" class="Text_Default">\n                        <div style="margin:0px; padding:0px; color:; font:; background-color:;" id="I289_sys_txt" class="sys_txt">\n                          <p style="text-align: center;">If you feel generous today click on donate</p>\n                          <p style="text-align: center;">I could use some support.\xc2\xa0</p>\n                        </div>\n                      </div>\n                      <div style="display:block;clear: both;text-align:center;margin:10px 10px 10px 10px;" id="I288" class="PayPalDonation_Default">\n                        <form action="https://www.paypal.com/cgi-bin/webscr" target="_blank" name="_xclick" method="post" enctype="application/x-www-form-urlencoded">\n                          <input value="_xclick" name="cmd" type="hidden"></input>\n                          <input value="leojin@optonline.net" name="business" type="hidden"></input>\n                          <input value="" name="item_name" type="hidden"></input>\n                          <input value="USD" name="currency_code" type="hidden"></input>\n                          <input value="" name="amount" type="hidden"></input>\n                          <input alt="Make payments with PayPal - it\'s fast, free and secure!" name="submit" border="0" src="http://www.paypal.com/en_US/i/btn/btn_donate_LG.gif" style="border: 0px; width: 92px; height:26px" type="image"></input>\n                          <input value="Yola_eCommerce_WPS_US" name="bn" type="hidden"></input>\n                        </form>\n                      </div>\n                      <div style="display:block;clear: both;text-align:center;" id="I291" class="HTML_Default">\n                        <div id="I291_html">\n                          <a target="_blank" href="http://www.societyofsocialpreneurs.blogspot.com" shape="rect">\n                            <img border="0" src="http://i845.photobucket.com/albums/ab13/jacquiblogger/Teresa%20Olvera/SocietyofSocialpreneurs-button-pink.png" alt="Society of Socialpreneurs"></img>\n                          </a>\n                        </div>\n                      </div>\n                    </td>\n                  </tr>\n                </table>\n              </div>\n            </div>\n          </div>\n        </div>\n      </div>\n      <div style="clear: both;">\xc2\xa0</div>\n    </div>\n    <div id="sys_footer" class="sys_footer">\n      Designed by\n      <a target="_blank" href="http://www.freecsstemplates.org" shape="rect">Free CSS Templates</a>\n    </div>\n    <style type="text/css">\n      a#sys_yolacredit_a1:hover {text-decoration: underline!important; font-weight:normal!important}\n    a#sys_yolacredit_a2:hover {text-decoration: underline!important; font-weight:normal!important}\n    a#sys_yolacredit_a1 {text-decoration: none!important; font-weight:normal!important}\n    a#sys_yolacredit_a2 {text-decoration: none!important; font-weight:normal!important}\n    #sys_yolacredit_left {background:url(classes/commons/yola_footer/png/yolaTag.png) top left no-repeat;}\n    #sys_yolacredit_center {background:url(classes/commons/yola_footer/png/yolaTag.png) -10px top no-repeat;}\n    #sys_yolacredit_right {background:url(classes/commons/yola_footer/png/yolaTag.png) top right no-repeat;}\n    </style>\n    <div title="Visit Yola.com to create your own free website" style="margin: 1em auto;text-align:center; width:220px; display:block; visibility:visible; height:35px" id="sys_yolacredit">\n      <div style="width:6px; height:32px; float:left;margin:0px; padding:0px" id="sys_yolacredit_left"></div>\n      <div style="height:35px; float:left;padding-left:3px; margin:0px; background-repeat: repeat-x; display:block; visibility:visible; font-family: Arial; font-size: 9px; line-height:33px;color: #000;" id="sys_yolacredit_center">\n        Make a\n        <a target="_blank" style="color:#000; display:inline; visibility: visible;font-family: Arial; font-size: 9px;" href="http://www.yola.com/" id="sys_yolacredit_a1" shape="rect">Free Website</a>\n        with\n        <span target="_blank" style="color: #E7004F;display:inline;visibility:visible;font-family:Arial;font-size:9px;" id="sys_yolacredit_a2">Yola.</span>\n      </div>\n      <div style="width:8px; height:32px; float:left; margin:0px; padding:0px" id="sys_yolacredit_right"></div>\n      <div style="clear:both"></div>\n    </div>\n    <script type="text/javascript">\n      var _yts = _yts || [];\n        _yts.push([&quot;_siteId&quot;, &quot;8a4986c823e440d90123e6ddec231db9&quot;]);\n        _yts.push([&quot;_trackPageview&quot;]);\n\t    (function() {\n            var yts = document.createElement(&quot;script&quot;);\n            yts.type = &quot;text/javascript&quot;;\n            yts.async = true;\n            yts.src = &quot;http://analytics.yola.net/tracking.js&quot;;\n            (document.getElementsByTagName(&quot;head&quot;)[0] || document.getElementsByTagName(&quot;body&quot;)[0]).appendChild(yts);\n        })();\n    </script>\n    <script src="http://edge.quantserve.com/quant.js" type="text/javascript"></script>\n    <script type="text/javascript">_qacct=&quot;p-b8x17GqsQ_656&quot;;quantserve();</script>\n    <noscript>\n      <a target="_blank" href="http://www.quantcast.com/p-b8x17GqsQ_656" shape="rect">\n        <img alt="Quantcast" width="1" height="1" border="0" style="display: none;" src="http://pixel.quantserve.com/pixel/p-b8x17GqsQ_656.gif"></img>\n      </a>\n    </noscript>\n  </body>\n</html>'
p11
sbsS'mentions'
p12
(lp13
(iedu.umass.cs.iesl.wikilink.expanded.data.ttypes
Mention
p14
(dp15
S'anchor_text'
p16
S'handball'
p17
sS'context'
p18
(iedu.umass.cs.iesl.wikilink.expanded.data.ttypes
Context
p19
(dp20
S'middle'
p21
S'handball'
p22
sS'right'
p23
S'\xc2\xa0player. Born in\xc2\xa0 Braunschweig , he has played for\xc2\xa0 VfL Fredenbeck \xc2\xa0from 1987 to 1991 and for\xc2\xa0 TV Niederw\xc3\x83\xc5\x92rzbach \xc2\xa0from 1991 to 1999. While playing'
p24
sS'left'
p25
S'won a second place in previous competition.\xc2\xa0 These guys are the gems of Fitline. Christian "Blacky" Schwarzer \xc2\xa0(born 23 October 1969) is a\xc2\xa0 German \xc2\xa0'
p26
sbsS'freebase_id'
p27
S'9202a8c04000641f800000000001c6f0'
p28
sS'raw_text_offset'
p29
I34486
sS'wiki_url'
p30
S'http://en.wikipedia.org/wiki/Team_handball'
p31
sba(iedu.umass.cs.iesl.wikilink.expanded.data.ttypes
Mention
p32
(dp33
g16
S'Braunschweig'
p34
sg18
(iedu.umass.cs.iesl.wikilink.expanded.data.ttypes
Context
p35
(dp36
g21
S'Braunschweig'
p37
sg23
S', he has played for\xc2\xa0 VfL Fredenbeck \xc2\xa0from 1987 to 1991 and for\xc2\xa0 TV Niederw\xc3\x83\xc5\x92rzbach \xc2\xa0from 1991 to 1999. While playing for\xc2\xa0 FC Barcelona Handbol'
p38
sg25
S'in previous competition.\xc2\xa0 These guys are the gems of Fitline. Christian "Blacky" Schwarzer \xc2\xa0(born 23 October 1969) is a\xc2\xa0 German \xc2\xa0 handball \xc2\xa0player. Born in\xc2\xa0'
p39
sbsg27
S'9202a8c04000641f80000000000639bc'
p40
sg29
I34984
sg30
S'http://en.wikipedia.org/wiki/Braunschweig'
p41
sba(iedu.umass.cs.iesl.wikilink.expanded.data.ttypes
Mention
p42
(dp43
g16
S'FC Barcelona Handbol'
p44
sg18
(iedu.umass.cs.iesl.wikilink.expanded.data.ttypes
Context
p45
(dp46
g21
S'FC Barcelona Handbol'
p47
sg23
S'\xc2\xa0from 1999 to 2001, the German handball player of the year 2001, won the National Championship of Spain , the\xc2\xa0 National Cup of Spain \xc2\xa0and'
p48
sg25
S'Born in\xc2\xa0 Braunschweig , he has played for\xc2\xa0 VfL Fredenbeck \xc2\xa0from 1987 to 1991 and for\xc2\xa0 TV Niederw\xc3\x83\xc5\x92rzbach \xc2\xa0from 1991 to 1999. While playing for\xc2\xa0'
p49
sbsg27
S'9202a8c04000641f8000000000621179'
p50
sg29
I36198
sg30
S'http://en.wikipedia.org/wiki/FC_Barcelona_Handbol'
p51
sba(iedu.umass.cs.iesl.wikilink.expanded.data.ttypes
Mention
p52
(dp53
g16
S'EHF Champions League'
p54
sg18
(iedu.umass.cs.iesl.wikilink.expanded.data.ttypes
Context
p55
(dp56
g21
S'EHF Champions League'
p57
sg23
S'\xc2\xa0in 2000. Since 2001, he is playing for\xc2\xa0 TBV Lemgo , with which he won the\xc2\xa0 National Cup of Germany \xc2\xa0in 2002, the\xc2\xa0 National Championship'
p58
sg25
S'1999 to 2001, the German handball player of the year 2001, won the National Championship of Spain , the\xc2\xa0 National Cup of Spain \xc2\xa0and the\xc2\xa0'
p59
sbsg27
S'9202a8c04000641f8000000000c24cc5'
p60
sg29
I37470
sg30
S'http://en.wikipedia.org/wiki/EHF_Champions_League'
p61
sba(iedu.umass.cs.iesl.wikilink.expanded.data.ttypes
Mention
p62
(dp63
g16
S'TBV Lemgo'
p64
sg18
(iedu.umass.cs.iesl.wikilink.expanded.data.ttypes
Context
p65
(dp66
g21
S'TBV Lemgo'
p67
sg23
S', with which he won the\xc2\xa0 National Cup of Germany \xc2\xa0in 2002, the\xc2\xa0 National Championship of Germany in 2003 and the\xc2\xa0 EHF Cup \xc2\xa0in 2006.'
p68
sg25
S'won the National Championship of Spain , the\xc2\xa0 National Cup of Spain \xc2\xa0and the\xc2\xa0 EHF Champions League \xc2\xa0in 2000. Since 2001, he is playing for\xc2\xa0'
p69
sbsg27
S'9202a8c04000641f8000000000eebf59'
p70
sg29
I37830
sg30
S'http://en.wikipedia.org/wiki/TBV_Lemgo'
p71
sba(iedu.umass.cs.iesl.wikilink.expanded.data.ttypes
Mention
p72
(dp73
g16
S'EHF Cup'
p74
sg18
(iedu.umass.cs.iesl.wikilink.expanded.data.ttypes
Context
p75
(dp76
g21
S'EHF Cup'
p77
sg23
S"\xc2\xa0in 2006. Schwarzer has taken part in six\xc2\xa0 World Men's Handball Championship , five\xc2\xa0 European Men's Handball Championships \xc2\xa0and three\xc2\xa0 Olympic Games . As of"
p78
sg25
S'playing for\xc2\xa0 TBV Lemgo , with which he won the\xc2\xa0 National Cup of Germany \xc2\xa0in 2002, the\xc2\xa0 National Championship of Germany in 2003 and the\xc2\xa0'
p79
sbsg27
S'9202a8c04000641f8000000000eea783'
p80
sg29
I39044
sg30
S'http://en.wikipedia.org/wiki/EHF_Cup'
p81
sba(iedu.umass.cs.iesl.wikilink.expanded.data.ttypes
Mention
p82
(dp83
g16
S'Olympic Games'
p84
sg18
(iedu.umass.cs.iesl.wikilink.expanded.data.ttypes
Context
p85
(dp86
g21
S'Olympic Games'
p87
sg23
S'. As of January 2007, he has made 310 international matches with 949 goals. He made his first game for the\xc2\xa0 German national handball team'
p88
sg25
S"2003 and the\xc2\xa0 EHF Cup \xc2\xa0in 2006. Schwarzer has taken part in six\xc2\xa0 World Men's Handball Championship , five\xc2\xa0 European Men's Handball Championships \xc2\xa0and three\xc2\xa0"
p89
sbsg27
S'9202a8c04000641f800000000002d19f'
p90
sg29
I40357
sg30
S'http://en.wikipedia.org/wiki/Olympic_Games'
p91
sba(iedu.umass.cs.iesl.wikilink.expanded.data.ttypes
Mention
p92
(dp93
g16
S'German national handball team'
p94
sg18
(iedu.umass.cs.iesl.wikilink.expanded.data.ttypes
Context
p95
(dp96
g21
S'German national handball team'
p97
sg23
S"\xc2\xa0against the\xc2\xa0 German Democratic Republic \xc2\xa0in\xc2\xa0 Wilhelmshaven \xc2\xa0on 21 November 1989. In 2004, he retired but was reactivated for the\xc2\xa0 2007 World Men's Handball Championship"
p98
sg25
S'\xc2\xa0and three\xc2\xa0 Olympic Games . As of January 2007, he has made 310 international matches with 949 goals. He made his first game for the\xc2\xa0'
p99
sbsg27
S'9202a8c04000641f80000000045db7b1'
p100
sg29
I40814
sg30
S'http://en.wikipedia.org/wiki/Germany_national_handball_team'
p101
sba(iedu.umass.cs.iesl.wikilink.expanded.data.ttypes
Mention
p102
(dp103
g16
S'German Democratic Republic'
p104
sg18
(iedu.umass.cs.iesl.wikilink.expanded.data.ttypes
Context
p105
(dp106
g21
S'German Democratic Republic'
p107
sg23
S"\xc2\xa0in\xc2\xa0 Wilhelmshaven \xc2\xa0on 21 November 1989. In 2004, he retired but was reactivated for the\xc2\xa0 2007 World Men's Handball Championship . After becoming World champion,"
p108
sg25
S'of January 2007, he has made 310 international matches with 949 goals. He made his first game for the\xc2\xa0 German national handball team \xc2\xa0against the\xc2\xa0'
p109
sbsg27
S'9202a8c04000641f800000000001b45b'
p110
sg29
I41201
sg30
S'http://en.wikipedia.org/wiki/German_Democratic_Republic'
p111
sba(iedu.umass.cs.iesl.wikilink.expanded.data.ttypes
Mention
p112
(dp113
g16
S'Wilhelmshaven'
p114
sg18
(iedu.umass.cs.iesl.wikilink.expanded.data.ttypes
Context
p115
(dp116
g21
S'Wilhelmshaven'
p117
sg23
S"\xc2\xa0on 21 November 1989. In 2004, he retired but was reactivated for the\xc2\xa0 2007 World Men's Handball Championship . After becoming World champion, he stepped"
p118
sg25
S'has made 310 international matches with 949 goals. He made his first game for the\xc2\xa0 German national handball team \xc2\xa0against the\xc2\xa0 German Democratic Republic \xc2\xa0in\xc2\xa0'
p119
sbsg27
S'9202a8c04000641f800000000011641e'
p120
sg29
I41539
sg30
S'http://en.wikipedia.org/wiki/Wilhelmshaven'
p121
sba(iedu.umass.cs.iesl.wikilink.expanded.data.ttypes
Mention
p122
(dp123
g16
S"World Men's Handball Championship"
p124
sg18
(iedu.umass.cs.iesl.wikilink.expanded.data.ttypes
Context
p125
(dp126
g21
S"World Men's Handball Championship"
p127
sg23
S", five\xc2\xa0 European Men's Handball Championships \xc2\xa0and three\xc2\xa0 Olympic Games . As of January 2007, he has made 310 international matches with 949 goals. He"
p128
sg25
S'National Cup of Germany \xc2\xa0in 2002, the\xc2\xa0 National Championship of Germany in 2003 and the\xc2\xa0 EHF Cup \xc2\xa0in 2006. Schwarzer has taken part in six\xc2\xa0'
p129
sbsg27
S'9202a8c04000641f800000000051c7d3'
p130
sg29
I39610
sg30
S"http://en.wikipedia.org/wiki/World_Men's_Handball_Championship"
p131
sba(iedu.umass.cs.iesl.wikilink.expanded.data.ttypes
Mention
p132
(dp133
g16
S"European Men's Handball Championships"
p134
sg18
(iedu.umass.cs.iesl.wikilink.expanded.data.ttypes
Context
p135
(dp136
g21
S"European Men's Handball Championships"
p137
sg23
S'\xc2\xa0and three\xc2\xa0 Olympic Games . As of January 2007, he has made 310 international matches with 949 goals. He made his first game for the\xc2\xa0'
p138
sg25
S"the\xc2\xa0 National Championship of Germany in 2003 and the\xc2\xa0 EHF Cup \xc2\xa0in 2006. Schwarzer has taken part in six\xc2\xa0 World Men's Handball Championship , five\xc2\xa0"
p139
sbsg27
S'9202a8c04000641f800000000004ae22'
p140
sg29
I40001
sg30
S"http://en.wikipedia.org/wiki/European_Men's_Handball_Championship"
p141
sba(iedu.umass.cs.iesl.wikilink.expanded.data.ttypes
Mention
p142
(dp143
g16
S"2007 World Men's Handball Championship"
p144
sg18
(iedu.umass.cs.iesl.wikilink.expanded.data.ttypes
Context
p145
(dp146
g21
S"2007 World Men's Handball Championship"
p147
sg23
S'. After becoming World champion, he stepped down again. Supports energy gain from food (burns carbohydrates) Supplies the body with all B-vitamins for concentration and'
p148
sg25
S'the\xc2\xa0 German national handball team \xc2\xa0against the\xc2\xa0 German Democratic Republic \xc2\xa0in\xc2\xa0 Wilhelmshaven \xc2\xa0on 21 November 1989. In 2004, he retired but was reactivated for the\xc2\xa0'
p149
sbsg27
S'9202a8c04000641f800000000096e90a'
p150
sg29
I41982
sg30
S"http://en.wikipedia.org/wiki/2007_World_Men's_Handball_Championship"
p151
sbasS'doc_id'
p152
I1371482
sS'rare_words'
p153
(lp154
(iedu.umass.cs.iesl.wikilink.expanded.data.ttypes
RareWord
p155
(dp156
S'word'
p157
S'Handbol'
p158
sS'offset'
p159
I36211
sba(iedu.umass.cs.iesl.wikilink.expanded.data.ttypes
RareWord
p160
(dp161
g157
S'our'
p162
sg159
I20304
sba(iedu.umass.cs.iesl.wikilink.expanded.data.ttypes
RareWord
p163
(dp164
g157
S'invented'
p165
sg159
I27459
sba(iedu.umass.cs.iesl.wikilink.expanded.data.ttypes
RareWord
p166
(dp167
g157
S'plus'
p168
sg159
I32081
sba(iedu.umass.cs.iesl.wikilink.expanded.data.ttypes
RareWord
p169
(dp170
g157
S'retired'
p171
sg159
I41595
sba(iedu.umass.cs.iesl.wikilink.expanded.data.ttypes
RareWord
p172
(dp173
g157
S'did'
p174
sg159
I32102
sba(iedu.umass.cs.iesl.wikilink.expanded.data.ttypes
RareWord
p175
(dp176
g157
S'off'
p177
sg159
I27832
sba(iedu.umass.cs.iesl.wikilink.expanded.data.ttypes
RareWord
p178
(dp179
g157
S'patented'
p180
sg159
I22206
sba(iedu.umass.cs.iesl.wikilink.expanded.data.ttypes
RareWord
p181
(dp182
g157
S'Badwater'
p183
sg159
I30588
sba(iedu.umass.cs.iesl.wikilink.expanded.data.ttypes
RareWord
p184
(dp185
g157
S'sports'
p186
sg159
I30563
sbasb.