(iedu.umass.cs.iesl.wikilink.expanded.data.ttypes
WikiLinkItem
p0
(dp1
S'url'
p2
S'http://www.mr70s.com/bay-city-rollers--bye-bye-baby-the-very-best-of-the-bay-city-rollers-cd-85-p.asp'
p3
sS'content'
p4
(iedu.umass.cs.iesl.wikilink.expanded.data.ttypes
PageContentItem
p5
(dp6
S'articleText'
p7
NsS'raw'
p8
NsS'fullText'
p9
NsS'dom'
p10
S'<html>\n  <head>\n    <meta content="IE=EmulateIE7" http-equiv="X-UA-Compatible"></meta>\n    <title>Bay City Rollers - Bye Bye Baby The Very Best Of The Bay City Rollers CD</title>\n    <meta content="The Bay City Rollers were a Scottish pop rock band of the 1970s Their youthful clean-cut image distinctive styling featuring tartan-trimmed outfits" name="description"></meta>\n    <meta content="city, rollers, scottish, rock, band, 1970s, youthful, clean-cut, image, distinctive, styling, featuring, tartan-trimmed, outfits, cheery, sing-along, hits, helped, group, popular, musical, acts, time, fervent, period, " name="keywords"></meta>\n    <link type="image/x-icon" href="/ekmps/shops/mr70s/favicon.ico" rel="shortcut icon"></link>\n    <link type="image/x-icon" href="/ekmps/shops/mr70s/favicon.ico" rel="icon"></link>\n    <meta content="text/html; charset=utf-8" http-equiv="Content-Type"></meta>\n    <style>\n      &lt;!--\n\t\t\tbody{font-family:Arial, Helvetica, sans-serif;}\n\t\t\tA:hover {color: #224466}\n\t\t\tA:link {text-decoration: none;}\n\t\t\tA:visited {text-decoration: none;}\n\t\t--&gt;\n\t\t\t.ekm-extra-web-pages ul {margin:0; padding:0;}\n\t\t\t.ekm-extra-web-pages ul li {list-style:none; float:right}\n\t\t\t.ekm-extra-web-pages ul li a {margin-right:3px; color:#111; padding-right:8px; padding-left:8px;}\n\t\t\t.ekm-extra-web-pages ul li a:hover { text-decoration:underline}\n    </style>\n    <link href="http://www.mr70s.com/bay-city-rollers--bye-bye-baby-the-very-best-of-the-bay-city-rollers-cd-85-p.asp" rel="canonical"></link>\n    <script src="/ekmps/scripts/jQuery/jquery-1.5.2.min.js" type="text/javascript"></script>\n    <script src="/ekmps/scripts/jQuery/init.min.js" type="text/javascript"></script>\n    <link href="/ekmps/scripts/jQuery/mousezoom/jquery.mousezoom.css" rel="stylesheet" type="text/css"></link>\n    <script src="/ekmps/scripts/jQuery/mousezoom/jquery.mousezoom.js" type="text/javascript"></script>\n    <script type="text/javascript">ekm.mousezoomOptions = {offsetX:0,offsetY:0,glass:false};</script>\n    <script src="/ekmps/scripts/jQuery/mousezoom/init.js" type="text/javascript"></script>\n    <link href="/ekmps/scripts/jQuery/lightbox/jquery.lightbox.css" rel="stylesheet" type="text/css"></link>\n    <script src="/ekmps/scripts/jQuery/lightbox/jquery.lightbox.js" type="text/javascript"></script>\n    <script src="/ekmps/scripts/jQuery/lightbox/init.js" type="text/javascript"></script>\n  </head>\n  <body vlink="800080" link="#0000ff" text="#000000" bgcolor="#FFFFFF">\n    <table width="100%" cellpadding="0" cellspacing="0" border="0">\n      <tr>\n        <td height="66" rowspan="1" colspan="1">\n          <table width="100%" cellpadding="0" cellspacing="0" border="0">\n            <tr>\n              <td rowspan="1" colspan="1" align="LEFT">\n                <font size="6" face="Arial, Helvetica, sans-serif">\n                  <img alt="Mr 70s" border="0" height="73" width="250" src="/ekmps/shops/mr70s/images/system/mr-70-s-logo-ekm.jpg"></img>\n                </font>\n              </td>\n              <td style="WIDTH:800PX;" rowspan="1" colspan="1" align="RIGHT">\n                <font size="1" face="Verdana, Arial, Helvetica, sans-serif"> </font>\n                <div class="ekm-extra-web-pages">\n                  <ul>\n                    <li>\n                      <strong>\n                        <a href="http://www.mr70s.com" shape="rect">Home Page</a>\n                      </strong>\n                    </li>\n                    <li>\n                      <strong>\n                        <a href="about-us-1-w.asp" shape="rect">About Us</a>\n                      </strong>\n                      |\n                    </li>\n                    <li>\n                      <strong>\n                        <a href="product-grading--buyers-guide-2-w.asp" shape="rect">Product Grading &amp; Buyers Guide</a>\n                      </strong>\n                      |\n                    </li>\n                    <li>\n                      <strong>\n                        <a href="shipping-3-w.asp" shape="rect">Shipping</a>\n                      </strong>\n                      |\n                    </li>\n                    <li>\n                      <strong>\n                        <a href="terms--conditions-4-w.asp" shape="rect">Terms &amp; Conditions</a>\n                      </strong>\n                      |\n                    </li>\n                    <li>\n                      \xc2\xa0\n                      <a href="index.asp?function=CHECKOUT" shape="rect">\n                        <font color="#000000">\n                          <b>Checkout</b>\n                        </font>\n                      </a>\n                      |\n                    </li>\n                    <li>\n                      <a href="index.asp?function=CART" shape="rect">\n                        <font color="#000000">\n                          <b>View Cart</b>\n                        </font>\n                      </a>\n                      |\n                    </li>\n                    <li>\n                      <a href="index.asp" shape="rect">\n                        <strong>Home</strong>\n                      </a>\n                      |\n                    </li>\n                  </ul>\n                </div>\n              </td>\n            </tr>\n          </table>\n        </td>\n      </tr>\n      <tr>\n        <td height="26" valign="BOTTOM" rowspan="1" colspan="1">\n          <center>\n            <table cellpadding="0" cellspacing="0" border="0">\n              <tr>\n                <td onclick="javascript:document.location.href=\'index.asp\'" onmouseout="this.style.backgroundColor=\'#EEEECC\';" onmouseover="this.style.backgroundColor=\'#76FFFF\';" style="background-color: #EEEECC; cursor: pointer;" bgcolor="#EEEECC" valign="BOTTOM" rowspan="1" colspan="1">\n                  <table cellpadding="0" cellspacing="0" border="0">\n                    <tr>\n                      <td width="100%" rowspan="1" colspan="1">\n                        <table width="100%" cellpadding="0" cellspacing="0" border="0">\n                          <tr>\n                            <td width="10" valign="TOP" rowspan="1" colspan="1" align="LEFT">\n                              <img alt="" height="10" width="10" src="/ekmps/designs/templates/14000/images/topleft_tab.gif"></img>\n                            </td>\n                            <td width="100%" valign="TOP" rowspan="1" colspan="1">\n                              <table width="100%" cellpadding="0" cellspacing="0" border="0">\n                                <tr>\n                                  <td bgcolor="#000000" height="1" rowspan="1" colspan="1">\n                                    <img height="1" width="1" src="/ekmps/designs/templates/14000/images/spacer.gif"></img>\n                                  </td>\n                                </tr>\n                              </table>\n                            </td>\n                            <td width="10" valign="TOP" rowspan="1" colspan="1" align="RIGHT">\n                              <img alt="" height="10" width="10" src="/ekmps/designs/templates/14000/images/topright_tab.gif"></img>\n                            </td>\n                          </tr>\n                        </table>\n                      </td>\n                    </tr>\n                    <tr>\n                      <td width="100%" rowspan="1" colspan="1">\n                        <table height="100%" width="100%" cellpadding="0" cellspacing="0" border="0">\n                          <tr>\n                            <td bgcolor="#000000" width="1" rowspan="1" colspan="1">\n                              <img height="1" width="1" src="/ekmps/designs/templates/14000/images/spacer.gif"></img>\n                            </td>\n                            <td width="5" rowspan="1" colspan="1">\n                              <img height="1" width="5" src="/ekmps/designs/templates/14000/images/spacer.gif"></img>\n                            </td>\n                            <td rowspan="1" colspan="1">\n                              <a href="index.asp" shape="rect">\n                                <font color="#000000" size="1" face="Verdana, Arial, Helvetica, sans-serif">\n                                  <b>Home</b>\n                                  <br clear="none"></br>\n                                </font>\n                              </a>\n                            </td>\n                            <td width="5" rowspan="1" colspan="1">\n                              <img height="1" width="5" src="/ekmps/designs/templates/14000/images/spacer.gif"></img>\n                            </td>\n                            <td bgcolor="#000000" width="1" rowspan="1" colspan="1">\n                              <img height="1" width="1" src="/ekmps/designs/templates/14000/images/spacer.gif"></img>\n                            </td>\n                          </tr>\n                          <tr>\n                            <td bgcolor="#000000" width="1" rowspan="1" colspan="1">\n                              <img height="1" width="1" src="/ekmps/designs/templates/14000/images/spacer.gif"></img>\n                            </td>\n                            <td width="5" rowspan="1" colspan="1">\n                              <img height="1" width="5" src="/ekmps/designs/templates/14000/images/spacer.gif"></img>\n                            </td>\n                            <td height="5" rowspan="1" colspan="1">\n                              <img height="5" width="1" src="/ekmps/designs/templates/14000/images/spacer.gif"></img>\n                            </td>\n                            <td width="5" rowspan="1" colspan="1">\n                              <img height="1" width="5" src="/ekmps/designs/templates/14000/images/spacer.gif"></img>\n                            </td>\n                            <td bgcolor="#000000" width="1" rowspan="1" colspan="1">\n                              <img height="1" width="1" src="/ekmps/designs/templates/14000/images/spacer.gif"></img>\n                            </td>\n                          </tr>\n                        </table>\n                      </td>\n                    </tr>\n                  </table>\n                </td>\n                <td onclick="javascript:document.location.href=\'12-singles-vinyl-8-c.asp\'" onmouseout="this.style.backgroundColor=\'#EEEECC\' ;" onmouseover="this.style.backgroundColor=\'#76FFFF\' ;" style="background-color: #EEEECC; cursor: pointer;" bgcolor="#EEEECC" valign="BOTTOM" rowspan="1" colspan="1">\n                  <table cellpadding="0" cellspacing="0" border="0">\n                    <tr>\n                      <td width="100%" valign="BOTTOM" rowspan="1" colspan="1">\n                        <table width="100%" cellpadding="0" cellspacing="0" border="0">\n                          <tr>\n                            <td width="10" valign="TOP" rowspan="1" colspan="1" align="LEFT">\n                              <img alt="" height="10" width="10" src="/ekmps/designs/templates/14000/images/topleft_tab.gif"></img>\n                            </td>\n                            <td width="100%" valign="TOP" rowspan="1" colspan="1">\n                              <table width="100%" cellpadding="0" cellspacing="0" border="0">\n                                <tr>\n                                  <td bgcolor="#000000" height="1" rowspan="1" colspan="1">\n                                    <img height="1" width="1" src="/ekmps/designs/templates/14000/images/spacer.gif"></img>\n                                  </td>\n                                </tr>\n                              </table>\n                            </td>\n                            <td width="10" valign="TOP" rowspan="1" colspan="1" align="RIGHT">\n                              <img alt="" height="10" width="10" src="/ekmps/designs/templates/14000/images/topright_tab.gif"></img>\n                            </td>\n                          </tr>\n                        </table>\n                      </td>\n                    </tr>\n                    <tr>\n                      <td width="100%" rowspan="1" colspan="1">\n                        <table width="100%" cellpadding="0" cellspacing="0" border="0">\n                          <tr>\n                            <td bgcolor="#000000" width="1" rowspan="1" colspan="1">\n                              <img height="1" width="1" src="/ekmps/designs/templates/14000/images/spacer.gif"></img>\n                            </td>\n                            <td width="5" rowspan="1" colspan="1">\n                              <img height="1" width="5" src="/ekmps/designs/templates/14000/images/spacer.gif"></img>\n                            </td>\n                            <td rowspan="1" colspan="1">\n                              <center>\n                                <font color="#000000" size="1" face="Verdana, Arial, Helvetica, sans-serif">\n                                  <b>\n                                    <b>\n                                      <font size="1" face="verdana">\n                                        <a href="12-singles-vinyl-8-c.asp" shape="rect">12&quot; Singles (Vinyl)</a>\n                                      </font>\n                                    </b>\n                                  </b>\n                                  <br clear="none"></br>\n                                </font>\n                              </center>\n                            </td>\n                            <td width="5" rowspan="1" colspan="1">\n                              <img height="1" width="5" src="/ekmps/designs/templates/14000/images/spacer.gif"></img>\n                            </td>\n                            <td bgcolor="#000000" width="1" rowspan="1" colspan="1">\n                              <img height="1" width="1" src="/ekmps/designs/templates/14000/images/spacer.gif"></img>\n                            </td>\n                          </tr>\n                          <tr>\n                            <td bgcolor="#000000" width="1" rowspan="1" colspan="1">\n                              <img height="1" width="1" src="/ekmps/designs/templates/14000/images/spacer.gif"></img>\n                            </td>\n                            <td width="5" rowspan="1" colspan="1">\n                              <img height="1" width="5" src="/ekmps/designs/templates/14000/images/spacer.gif"></img>\n                            </td>\n                            <td height="5" rowspan="1" colspan="1">\n                              <img height="5" width="1" src="/ekmps/designs/templates/14000/images/spacer.gif"></img>\n                            </td>\n                            <td width="5" rowspan="1" colspan="1">\n                              <img height="1" width="5" src="/ekmps/designs/templates/14000/images/spacer.gif"></img>\n                            </td>\n                            <td bgcolor="#000000" width="1" rowspan="1" colspan="1">\n                              <img height="1" width="1" src="/ekmps/designs/templates/14000/images/spacer.gif"></img>\n                            </td>\n                          </tr>\n                        </table>\n                      </td>\n                    </tr>\n                  </table>\n                </td>\n                <td onclick="javascript:document.location.href=\'7-singles-vinyl-9-c.asp\'" onmouseout="this.style.backgroundColor=\'#EEEECC\' ;" onmouseover="this.style.backgroundColor=\'#76FFFF\' ;" style="background-color: #EEEECC; cursor: pointer;" bgcolor="#EEEECC" valign="BOTTOM" rowspan="1" colspan="1">\n                  <table cellpadding="0" cellspacing="0" border="0">\n                    <tr>\n                      <td width="100%" valign="BOTTOM" rowspan="1" colspan="1">\n                        <table width="100%" cellpadding="0" cellspacing="0" border="0">\n                          <tr>\n                            <td width="10" valign="TOP" rowspan="1" colspan="1" align="LEFT">\n                              <img alt="" height="10" width="10" src="/ekmps/designs/templates/14000/images/topleft_tab.gif"></img>\n                            </td>\n                            <td width="100%" valign="TOP" rowspan="1" colspan="1">\n                              <table width="100%" cellpadding="0" cellspacing="0" border="0">\n                                <tr>\n                                  <td bgcolor="#000000" height="1" rowspan="1" colspan="1">\n                                    <img height="1" width="1" src="/ekmps/designs/templates/14000/images/spacer.gif"></img>\n                                  </td>\n                                </tr>\n                              </table>\n                            </td>\n                            <td width="10" valign="TOP" rowspan="1" colspan="1" align="RIGHT">\n                              <img alt="" height="10" width="10" src="/ekmps/designs/templates/14000/images/topright_tab.gif"></img>\n                            </td>\n                          </tr>\n                        </table>\n                      </td>\n                    </tr>\n                    <tr>\n                      <td width="100%" rowspan="1" colspan="1">\n                        <table width="100%" cellpadding="0" cellspacing="0" border="0">\n                          <tr>\n                            <td bgcolor="#000000" width="1" rowspan="1" colspan="1">\n                              <img height="1" width="1" src="/ekmps/designs/templates/14000/images/spacer.gif"></img>\n                            </td>\n                            <td width="5" rowspan="1" colspan="1">\n                              <img height="1" width="5" src="/ekmps/designs/templates/14000/images/spacer.gif"></img>\n                            </td>\n                            <td rowspan="1" colspan="1">\n                              <center>\n                                <font color="#000000" size="1" face="Verdana, Arial, Helvetica, sans-serif">\n                                  <b>\n                                    <b>\n                                      <font size="1" face="verdana">\n                                        <a href="7-singles-vinyl-9-c.asp" shape="rect">7&quot; Singles (Vinyl)</a>\n                                      </font>\n                                    </b>\n                                  </b>\n                                  <br clear="none"></br>\n                                </font>\n                              </center>\n                            </td>\n                            <td width="5" rowspan="1" colspan="1">\n                              <img height="1" width="5" src="/ekmps/designs/templates/14000/images/spacer.gif"></img>\n                            </td>\n                            <td bgcolor="#000000" width="1" rowspan="1" colspan="1">\n                              <img height="1" width="1" src="/ekmps/designs/templates/14000/images/spacer.gif"></img>\n                            </td>\n                          </tr>\n                          <tr>\n                            <td bgcolor="#000000" width="1" rowspan="1" colspan="1">\n                              <img height="1" width="1" src="/ekmps/designs/templates/14000/images/spacer.gif"></img>\n                            </td>\n                            <td width="5" rowspan="1" colspan="1">\n                              <img height="1" width="5" src="/ekmps/designs/templates/14000/images/spacer.gif"></img>\n                            </td>\n                            <td height="5" rowspan="1" colspan="1">\n                              <img height="5" width="1" src="/ekmps/designs/templates/14000/images/spacer.gif"></img>\n                            </td>\n                            <td width="5" rowspan="1" colspan="1">\n                              <img height="1" width="5" src="/ekmps/designs/templates/14000/images/spacer.gif"></img>\n                            </td>\n                            <td bgcolor="#000000" width="1" rowspan="1" colspan="1">\n                              <img height="1" width="1" src="/ekmps/designs/templates/14000/images/spacer.gif"></img>\n                            </td>\n                          </tr>\n                        </table>\n                      </td>\n                    </tr>\n                  </table>\n                </td>\n                <td onclick="javascript:document.location.href=\'78s-vinyl-11-c.asp\'" onmouseout="this.style.backgroundColor=\'#EEEECC\' ;" onmouseover="this.style.backgroundColor=\'#76FFFF\' ;" style="background-color: #EEEECC; cursor: pointer;" bgcolor="#EEEECC" valign="BOTTOM" rowspan="1" colspan="1">\n                  <table cellpadding="0" cellspacing="0" border="0">\n                    <tr>\n                      <td width="100%" valign="BOTTOM" rowspan="1" colspan="1">\n                        <table width="100%" cellpadding="0" cellspacing="0" border="0">\n                          <tr>\n                            <td width="10" valign="TOP" rowspan="1" colspan="1" align="LEFT">\n                              <img alt="" height="10" width="10" src="/ekmps/designs/templates/14000/images/topleft_tab.gif"></img>\n                            </td>\n                            <td width="100%" valign="TOP" rowspan="1" colspan="1">\n                              <table width="100%" cellpadding="0" cellspacing="0" border="0">\n                                <tr>\n                                  <td bgcolor="#000000" height="1" rowspan="1" colspan="1">\n                                    <img height="1" width="1" src="/ekmps/designs/templates/14000/images/spacer.gif"></img>\n                                  </td>\n                                </tr>\n                              </table>\n                            </td>\n                            <td width="10" valign="TOP" rowspan="1" colspan="1" align="RIGHT">\n                              <img alt="" height="10" width="10" src="/ekmps/designs/templates/14000/images/topright_tab.gif"></img>\n                            </td>\n                          </tr>\n                        </table>\n                      </td>\n                    </tr>\n                    <tr>\n                      <td width="100%" rowspan="1" colspan="1">\n                        <table width="100%" cellpadding="0" cellspacing="0" border="0">\n                          <tr>\n                            <td bgcolor="#000000" width="1" rowspan="1" colspan="1">\n                              <img height="1" width="1" src="/ekmps/designs/templates/14000/images/spacer.gif"></img>\n                            </td>\n                            <td width="5" rowspan="1" colspan="1">\n                              <img height="1" width="5" src="/ekmps/designs/templates/14000/images/spacer.gif"></img>\n                            </td>\n                            <td rowspan="1" colspan="1">\n                              <center>\n                                <font color="#000000" size="1" face="Verdana, Arial, Helvetica, sans-serif">\n                                  <b>\n                                    <b>\n                                      <font size="1" face="verdana">\n                                        <a href="78s-vinyl-11-c.asp" shape="rect">78s (Vinyl)</a>\n                                      </font>\n                                    </b>\n                                  </b>\n                                  <br clear="none"></br>\n                                </font>\n                              </center>\n                            </td>\n                            <td width="5" rowspan="1" colspan="1">\n                              <img height="1" width="5" src="/ekmps/designs/templates/14000/images/spacer.gif"></img>\n                            </td>\n                            <td bgcolor="#000000" width="1" rowspan="1" colspan="1">\n                              <img height="1" width="1" src="/ekmps/designs/templates/14000/images/spacer.gif"></img>\n                            </td>\n                          </tr>\n                          <tr>\n                            <td bgcolor="#000000" width="1" rowspan="1" colspan="1">\n                              <img height="1" width="1" src="/ekmps/designs/templates/14000/images/spacer.gif"></img>\n                            </td>\n                            <td width="5" rowspan="1" colspan="1">\n                              <img height="1" width="5" src="/ekmps/designs/templates/14000/images/spacer.gif"></img>\n                            </td>\n                            <td height="5" rowspan="1" colspan="1">\n                              <img height="5" width="1" src="/ekmps/designs/templates/14000/images/spacer.gif"></img>\n                            </td>\n                            <td width="5" rowspan="1" colspan="1">\n                              <img height="1" width="5" src="/ekmps/designs/templates/14000/images/spacer.gif"></img>\n                            </td>\n                            <td bgcolor="#000000" width="1" rowspan="1" colspan="1">\n                              <img height="1" width="1" src="/ekmps/designs/templates/14000/images/spacer.gif"></img>\n                            </td>\n                          </tr>\n                        </table>\n                      </td>\n                    </tr>\n                  </table>\n                </td>\n                <td onclick="javascript:document.location.href=\'lps-vinyl-10-c.asp\'" onmouseout="this.style.backgroundColor=\'#EEEECC\' ;" onmouseover="this.style.backgroundColor=\'#76FFFF\' ;" style="background-color: #EEEECC; cursor: pointer;" bgcolor="#EEEECC" valign="BOTTOM" rowspan="1" colspan="1">\n                  <table cellpadding="0" cellspacing="0" border="0">\n                    <tr>\n                      <td width="100%" valign="BOTTOM" rowspan="1" colspan="1">\n                        <table width="100%" cellpadding="0" cellspacing="0" border="0">\n                          <tr>\n                            <td width="10" valign="TOP" rowspan="1" colspan="1" align="LEFT">\n                              <img alt="" height="10" width="10" src="/ekmps/designs/templates/14000/images/topleft_tab.gif"></img>\n                            </td>\n                            <td width="100%" valign="TOP" rowspan="1" colspan="1">\n                              <table width="100%" cellpadding="0" cellspacing="0" border="0">\n                                <tr>\n                                  <td bgcolor="#000000" height="1" rowspan="1" colspan="1">\n                                    <img height="1" width="1" src="/ekmps/designs/templates/14000/images/spacer.gif"></img>\n                                  </td>\n                                </tr>\n                              </table>\n                            </td>\n                            <td width="10" valign="TOP" rowspan="1" colspan="1" align="RIGHT">\n                              <img alt="" height="10" width="10" src="/ekmps/designs/templates/14000/images/topright_tab.gif"></img>\n                            </td>\n                          </tr>\n                        </table>\n                      </td>\n                    </tr>\n                    <tr>\n                      <td width="100%" rowspan="1" colspan="1">\n                        <table width="100%" cellpadding="0" cellspacing="0" border="0">\n                          <tr>\n                            <td bgcolor="#000000" width="1" rowspan="1" colspan="1">\n                              <img height="1" width="1" src="/ekmps/designs/templates/14000/images/spacer.gif"></img>\n                            </td>\n                            <td width="5" rowspan="1" colspan="1">\n                              <img height="1" width="5" src="/ekmps/designs/templates/14000/images/spacer.gif"></img>\n                            </td>\n                            <td rowspan="1" colspan="1">\n                              <center>\n                                <font color="#000000" size="1" face="Verdana, Arial, Helvetica, sans-serif">\n                                  <b>\n                                    <b>\n                                      <font size="1" face="verdana">\n                                        <a href="lps-vinyl-10-c.asp" shape="rect">LPs (Vinyl)</a>\n                                      </font>\n                                    </b>\n                                  </b>\n                                  <br clear="none"></br>\n                                </font>\n                              </center>\n                            </td>\n                            <td width="5" rowspan="1" colspan="1">\n                              <img height="1" width="5" src="/ekmps/designs/templates/14000/images/spacer.gif"></img>\n                            </td>\n                            <td bgcolor="#000000" width="1" rowspan="1" colspan="1">\n                              <img height="1" width="1" src="/ekmps/designs/templates/14000/images/spacer.gif"></img>\n                            </td>\n                          </tr>\n                          <tr>\n                            <td bgcolor="#000000" width="1" rowspan="1" colspan="1">\n                              <img height="1" width="1" src="/ekmps/designs/templates/14000/images/spacer.gif"></img>\n                            </td>\n                            <td width="5" rowspan="1" colspan="1">\n                              <img height="1" width="5" src="/ekmps/designs/templates/14000/images/spacer.gif"></img>\n                            </td>\n                            <td height="5" rowspan="1" colspan="1">\n                              <img height="5" width="1" src="/ekmps/designs/templates/14000/images/spacer.gif"></img>\n                            </td>\n                            <td width="5" rowspan="1" colspan="1">\n                              <img height="1" width="5" src="/ekmps/designs/templates/14000/images/spacer.gif"></img>\n                            </td>\n                            <td bgcolor="#000000" width="1" rowspan="1" colspan="1">\n                              <img height="1" width="1" src="/ekmps/designs/templates/14000/images/spacer.gif"></img>\n                            </td>\n                          </tr>\n                        </table>\n                      </td>\n                    </tr>\n                  </table>\n                </td>\n                <td onclick="javascript:document.location.href=\'sheet-music-14-c.asp\'" onmouseout="this.style.backgroundColor=\'#EEEECC\' ;" onmouseover="this.style.backgroundColor=\'#76FFFF\' ;" style="background-color: #EEEECC; cursor: pointer;" bgcolor="#EEEECC" valign="BOTTOM" rowspan="1" colspan="1">\n                  <table cellpadding="0" cellspacing="0" border="0">\n                    <tr>\n                      <td width="100%" valign="BOTTOM" rowspan="1" colspan="1">\n                        <table width="100%" cellpadding="0" cellspacing="0" border="0">\n                          <tr>\n                            <td width="10" valign="TOP" rowspan="1" colspan="1" align="LEFT">\n                              <img alt="" height="10" width="10" src="/ekmps/designs/templates/14000/images/topleft_tab.gif"></img>\n                            </td>\n                            <td width="100%" valign="TOP" rowspan="1" colspan="1">\n                              <table width="100%" cellpadding="0" cellspacing="0" border="0">\n                                <tr>\n                                  <td bgcolor="#000000" height="1" rowspan="1" colspan="1">\n                                    <img height="1" width="1" src="/ekmps/designs/templates/14000/images/spacer.gif"></img>\n                                  </td>\n                                </tr>\n                              </table>\n                            </td>\n                            <td width="10" valign="TOP" rowspan="1" colspan="1" align="RIGHT">\n                              <img alt="" height="10" width="10" src="/ekmps/designs/templates/14000/images/topright_tab.gif"></img>\n                            </td>\n                          </tr>\n                        </table>\n                      </td>\n                    </tr>\n                    <tr>\n                      <td width="100%" rowspan="1" colspan="1">\n                        <table width="100%" cellpadding="0" cellspacing="0" border="0">\n                          <tr>\n                            <td bgcolor="#000000" width="1" rowspan="1" colspan="1">\n                              <img height="1" width="1" src="/ekmps/designs/templates/14000/images/spacer.gif"></img>\n                            </td>\n                            <td width="5" rowspan="1" colspan="1">\n                              <img height="1" width="5" src="/ekmps/designs/templates/14000/images/spacer.gif"></img>\n                            </td>\n                            <td rowspan="1" colspan="1">\n                              <center>\n                                <font color="#000000" size="1" face="Verdana, Arial, Helvetica, sans-serif">\n                                  <b>\n                                    <b>\n                                      <font size="1" face="verdana">\n                                        <a href="sheet-music-14-c.asp" shape="rect">Sheet Music</a>\n                                      </font>\n                                    </b>\n                                  </b>\n                                  <br clear="none"></br>\n                                </font>\n                              </center>\n                            </td>\n                            <td width="5" rowspan="1" colspan="1">\n                              <img height="1" width="5" src="/ekmps/designs/templates/14000/images/spacer.gif"></img>\n                            </td>\n                            <td bgcolor="#000000" width="1" rowspan="1" colspan="1">\n                              <img height="1" width="1" src="/ekmps/designs/templates/14000/images/spacer.gif"></img>\n                            </td>\n                          </tr>\n                          <tr>\n                            <td bgcolor="#000000" width="1" rowspan="1" colspan="1">\n                              <img height="1" width="1" src="/ekmps/designs/templates/14000/images/spacer.gif"></img>\n                            </td>\n                            <td width="5" rowspan="1" colspan="1">\n                              <img height="1" width="5" src="/ekmps/designs/templates/14000/images/spacer.gif"></img>\n                            </td>\n                            <td height="5" rowspan="1" colspan="1">\n                              <img height="5" width="1" src="/ekmps/designs/templates/14000/images/spacer.gif"></img>\n                            </td>\n                            <td width="5" rowspan="1" colspan="1">\n                              <img height="1" width="5" src="/ekmps/designs/templates/14000/images/spacer.gif"></img>\n                            </td>\n                            <td bgcolor="#000000" width="1" rowspan="1" colspan="1">\n                              <img height="1" width="1" src="/ekmps/designs/templates/14000/images/spacer.gif"></img>\n                            </td>\n                          </tr>\n                        </table>\n                      </td>\n                    </tr>\n                  </table>\n                </td>\n                <td onclick="javascript:document.location.href=\'cds-12-c.asp\'" onmouseout="this.style.backgroundColor=\'#EEEECC\' ;" onmouseover="this.style.backgroundColor=\'#76FFFF\' ;" style="background-color: #EEEECC; cursor: pointer;" bgcolor="#EEEECC" valign="BOTTOM" rowspan="1" colspan="1">\n                  <table cellpadding="0" cellspacing="0" border="0">\n                    <tr>\n                      <td width="100%" valign="BOTTOM" rowspan="1" colspan="1">\n                        <table width="100%" cellpadding="0" cellspacing="0" border="0">\n                          <tr>\n                            <td width="10" valign="TOP" rowspan="1" colspan="1" align="LEFT">\n                              <img alt="" height="10" width="10" src="/ekmps/designs/templates/14000/images/topleft_tab.gif"></img>\n                            </td>\n                            <td width="100%" valign="TOP" rowspan="1" colspan="1">\n                              <table width="100%" cellpadding="0" cellspacing="0" border="0">\n                                <tr>\n                                  <td bgcolor="#000000" height="1" rowspan="1" colspan="1">\n                                    <img height="1" width="1" src="/ekmps/designs/templates/14000/images/spacer.gif"></img>\n                                  </td>\n                                </tr>\n                              </table>\n                            </td>\n                            <td width="10" valign="TOP" rowspan="1" colspan="1" align="RIGHT">\n                              <img alt="" height="10" width="10" src="/ekmps/designs/templates/14000/images/topright_tab.gif"></img>\n                            </td>\n                          </tr>\n                        </table>\n                      </td>\n                    </tr>\n                    <tr>\n                      <td width="100%" rowspan="1" colspan="1">\n                        <table width="100%" cellpadding="0" cellspacing="0" border="0">\n                          <tr>\n                            <td bgcolor="#000000" width="1" rowspan="1" colspan="1">\n                              <img height="1" width="1" src="/ekmps/designs/templates/14000/images/spacer.gif"></img>\n                            </td>\n                            <td width="5" rowspan="1" colspan="1">\n                              <img height="1" width="5" src="/ekmps/designs/templates/14000/images/spacer.gif"></img>\n                            </td>\n                            <td rowspan="1" colspan="1">\n                              <center>\n                                <font color="#000000" size="1" face="Verdana, Arial, Helvetica, sans-serif">\n                                  <b>\n                                    <b>\n                                      <font size="1" face="verdana">\n                                        <a href="cds-12-c.asp" shape="rect">CDs</a>\n                                      </font>\n                                    </b>\n                                  </b>\n                                  <br clear="none"></br>\n                                </font>\n                              </center>\n                            </td>\n                            <td width="5" rowspan="1" colspan="1">\n                              <img height="1" width="5" src="/ekmps/designs/templates/14000/images/spacer.gif"></img>\n                            </td>\n                            <td bgcolor="#000000" width="1" rowspan="1" colspan="1">\n                              <img height="1" width="1" src="/ekmps/designs/templates/14000/images/spacer.gif"></img>\n                            </td>\n                          </tr>\n                          <tr>\n                            <td bgcolor="#000000" width="1" rowspan="1" colspan="1">\n                              <img height="1" width="1" src="/ekmps/designs/templates/14000/images/spacer.gif"></img>\n                            </td>\n                            <td width="5" rowspan="1" colspan="1">\n                              <img height="1" width="5" src="/ekmps/designs/templates/14000/images/spacer.gif"></img>\n                            </td>\n                            <td height="5" rowspan="1" colspan="1">\n                              <img height="5" width="1" src="/ekmps/designs/templates/14000/images/spacer.gif"></img>\n                            </td>\n                            <td width="5" rowspan="1" colspan="1">\n                              <img height="1" width="5" src="/ekmps/designs/templates/14000/images/spacer.gif"></img>\n                            </td>\n                            <td bgcolor="#000000" width="1" rowspan="1" colspan="1">\n                              <img height="1" width="1" src="/ekmps/designs/templates/14000/images/spacer.gif"></img>\n                            </td>\n                          </tr>\n                        </table>\n                      </td>\n                    </tr>\n                  </table>\n                </td>\n                <td onclick="javascript:document.location.href=\'dvds-13-c.asp\'" onmouseout="this.style.backgroundColor=\'#EEEECC\' ;" onmouseover="this.style.backgroundColor=\'#76FFFF\' ;" style="background-color: #EEEECC; cursor: pointer;" bgcolor="#EEEECC" valign="BOTTOM" rowspan="1" colspan="1">\n                  <table cellpadding="0" cellspacing="0" border="0">\n                    <tr>\n                      <td width="100%" valign="BOTTOM" rowspan="1" colspan="1">\n                        <table width="100%" cellpadding="0" cellspacing="0" border="0">\n                          <tr>\n                            <td width="10" valign="TOP" rowspan="1" colspan="1" align="LEFT">\n                              <img alt="" height="10" width="10" src="/ekmps/designs/templates/14000/images/topleft_tab.gif"></img>\n                            </td>\n                            <td width="100%" valign="TOP" rowspan="1" colspan="1">\n                              <table width="100%" cellpadding="0" cellspacing="0" border="0">\n                                <tr>\n                                  <td bgcolor="#000000" height="1" rowspan="1" colspan="1">\n                                    <img height="1" width="1" src="/ekmps/designs/templates/14000/images/spacer.gif"></img>\n                                  </td>\n                                </tr>\n                              </table>\n                            </td>\n                            <td width="10" valign="TOP" rowspan="1" colspan="1" align="RIGHT">\n                              <img alt="" height="10" width="10" src="/ekmps/designs/templates/14000/images/topright_tab.gif"></img>\n                            </td>\n                          </tr>\n                        </table>\n                      </td>\n                    </tr>\n                    <tr>\n                      <td width="100%" rowspan="1" colspan="1">\n                        <table width="100%" cellpadding="0" cellspacing="0" border="0">\n                          <tr>\n                            <td bgcolor="#000000" width="1" rowspan="1" colspan="1">\n                              <img height="1" width="1" src="/ekmps/designs/templates/14000/images/spacer.gif"></img>\n                            </td>\n                            <td width="5" rowspan="1" colspan="1">\n                              <img height="1" width="5" src="/ekmps/designs/templates/14000/images/spacer.gif"></img>\n                            </td>\n                            <td rowspan="1" colspan="1">\n                              <center>\n                                <font color="#000000" size="1" face="Verdana, Arial, Helvetica, sans-serif">\n                                  <b>\n                                    <b>\n                                      <font size="1" face="verdana">\n                                        <a href="dvds-13-c.asp" shape="rect">DVDs</a>\n                                      </font>\n                                    </b>\n                                  </b>\n                                  <br clear="none"></br>\n                                </font>\n                              </center>\n                            </td>\n                            <td width="5" rowspan="1" colspan="1">\n                              <img height="1" width="5" src="/ekmps/designs/templates/14000/images/spacer.gif"></img>\n                            </td>\n                            <td bgcolor="#000000" width="1" rowspan="1" colspan="1">\n                              <img height="1" width="1" src="/ekmps/designs/templates/14000/images/spacer.gif"></img>\n                            </td>\n                          </tr>\n                          <tr>\n                            <td bgcolor="#000000" width="1" rowspan="1" colspan="1">\n                              <img height="1" width="1" src="/ekmps/designs/templates/14000/images/spacer.gif"></img>\n                            </td>\n                            <td width="5" rowspan="1" colspan="1">\n                              <img height="1" width="5" src="/ekmps/designs/templates/14000/images/spacer.gif"></img>\n                            </td>\n                            <td height="5" rowspan="1" colspan="1">\n                              <img height="5" width="1" src="/ekmps/designs/templates/14000/images/spacer.gif"></img>\n                            </td>\n                            <td width="5" rowspan="1" colspan="1">\n                              <img height="1" width="5" src="/ekmps/designs/templates/14000/images/spacer.gif"></img>\n                            </td>\n                            <td bgcolor="#000000" width="1" rowspan="1" colspan="1">\n                              <img height="1" width="1" src="/ekmps/designs/templates/14000/images/spacer.gif"></img>\n                            </td>\n                          </tr>\n                        </table>\n                      </td>\n                    </tr>\n                  </table>\n                </td>\n                <td onclick="javascript:document.location.href=\'styli--cartridges-15-c.asp\'" onmouseout="this.style.backgroundColor=\'#EEEECC\' ;" onmouseover="this.style.backgroundColor=\'#76FFFF\' ;" style="background-color: #EEEECC; cursor: pointer;" bgcolor="#EEEECC" valign="BOTTOM" rowspan="1" colspan="1">\n                  <table cellpadding="0" cellspacing="0" border="0">\n                    <tr>\n                      <td width="100%" valign="BOTTOM" rowspan="1" colspan="1">\n                        <table width="100%" cellpadding="0" cellspacing="0" border="0">\n                          <tr>\n                            <td width="10" valign="TOP" rowspan="1" colspan="1" align="LEFT">\n                              <img alt="" height="10" width="10" src="/ekmps/designs/templates/14000/images/topleft_tab.gif"></img>\n                            </td>\n                            <td width="100%" valign="TOP" rowspan="1" colspan="1">\n                              <table width="100%" cellpadding="0" cellspacing="0" border="0">\n                                <tr>\n                                  <td bgcolor="#000000" height="1" rowspan="1" colspan="1">\n                                    <img height="1" width="1" src="/ekmps/designs/templates/14000/images/spacer.gif"></img>\n                                  </td>\n                                </tr>\n                              </table>\n                            </td>\n                            <td width="10" valign="TOP" rowspan="1" colspan="1" align="RIGHT">\n                              <img alt="" height="10" width="10" src="/ekmps/designs/templates/14000/images/topright_tab.gif"></img>\n                            </td>\n                          </tr>\n                        </table>\n                      </td>\n                    </tr>\n                    <tr>\n                      <td width="100%" rowspan="1" colspan="1">\n                        <table width="100%" cellpadding="0" cellspacing="0" border="0">\n                          <tr>\n                            <td bgcolor="#000000" width="1" rowspan="1" colspan="1">\n                              <img height="1" width="1" src="/ekmps/designs/templates/14000/images/spacer.gif"></img>\n                            </td>\n                            <td width="5" rowspan="1" colspan="1">\n                              <img height="1" width="5" src="/ekmps/designs/templates/14000/images/spacer.gif"></img>\n                            </td>\n                            <td rowspan="1" colspan="1">\n                              <center>\n                                <font color="#000000" size="1" face="Verdana, Arial, Helvetica, sans-serif">\n                                  <b>\n                                    <b>\n                                      <font size="1" face="verdana">\n                                        <a href="styli--cartridges-15-c.asp" shape="rect">Styli &amp; Cartridges</a>\n                                      </font>\n                                    </b>\n                                  </b>\n                                  <br clear="none"></br>\n                                </font>\n                              </center>\n                            </td>\n                            <td width="5" rowspan="1" colspan="1">\n                              <img height="1" width="5" src="/ekmps/designs/templates/14000/images/spacer.gif"></img>\n                            </td>\n                            <td bgcolor="#000000" width="1" rowspan="1" colspan="1">\n                              <img height="1" width="1" src="/ekmps/designs/templates/14000/images/spacer.gif"></img>\n                            </td>\n                          </tr>\n                          <tr>\n                            <td bgcolor="#000000" width="1" rowspan="1" colspan="1">\n                              <img height="1" width="1" src="/ekmps/designs/templates/14000/images/spacer.gif"></img>\n                            </td>\n                            <td width="5" rowspan="1" colspan="1">\n                              <img height="1" width="5" src="/ekmps/designs/templates/14000/images/spacer.gif"></img>\n                            </td>\n                            <td height="5" rowspan="1" colspan="1">\n                              <img height="5" width="1" src="/ekmps/designs/templates/14000/images/spacer.gif"></img>\n                            </td>\n                            <td width="5" rowspan="1" colspan="1">\n                              <img height="1" width="5" src="/ekmps/designs/templates/14000/images/spacer.gif"></img>\n                            </td>\n                            <td bgcolor="#000000" width="1" rowspan="1" colspan="1">\n                              <img height="1" width="1" src="/ekmps/designs/templates/14000/images/spacer.gif"></img>\n                            </td>\n                          </tr>\n                        </table>\n                      </td>\n                    </tr>\n                  </table>\n                </td>\n                <td \n                onclick="javascript:document.location.href=\'collectables--rare-items-130-c.asp\'" onmouseout="this.style.backgroundColor=\'#EEEECC\' ;" onmouseover="this.style.backgroundColor=\'#76FFFF\' ;" style="background-color: #EEEECC; cursor: pointer;" bgcolor="#EEEECC" valign="BOTTOM" rowspan="1" colspan="1">\n                  <table cellpadding="0" cellspacing="0" border="0">\n                    <tr>\n                      <td width="100%" valign="BOTTOM" rowspan="1" colspan="1">\n                        <table width="100%" cellpadding="0" cellspacing="0" border="0">\n                          <tr>\n                            <td width="10" valign="TOP" rowspan="1" colspan="1" align="LEFT">\n                              <img alt="" height="10" width="10" src="/ekmps/designs/templates/14000/images/topleft_tab.gif"></img>\n                            </td>\n                            <td width="100%" valign="TOP" rowspan="1" colspan="1">\n                              <table width="100%" cellpadding="0" cellspacing="0" border="0">\n                                <tr>\n                                  <td bgcolor="#000000" height="1" rowspan="1" colspan="1">\n                                    <img height="1" width="1" src="/ekmps/designs/templates/14000/images/spacer.gif"></img>\n                                  </td>\n                                </tr>\n                              </table>\n                            </td>\n                            <td width="10" valign="TOP" rowspan="1" colspan="1" align="RIGHT">\n                              <img alt="" height="10" width="10" src="/ekmps/designs/templates/14000/images/topright_tab.gif"></img>\n                            </td>\n                          </tr>\n                        </table>\n                      </td>\n                    </tr>\n                    <tr>\n                      <td width="100%" rowspan="1" colspan="1">\n                        <table width="100%" cellpadding="0" cellspacing="0" border="0">\n                          <tr>\n                            <td bgcolor="#000000" width="1" rowspan="1" colspan="1">\n                              <img height="1" width="1" src="/ekmps/designs/templates/14000/images/spacer.gif"></img>\n                            </td>\n                            <td width="5" rowspan="1" colspan="1">\n                              <img height="1" width="5" src="/ekmps/designs/templates/14000/images/spacer.gif"></img>\n                            </td>\n                            <td rowspan="1" colspan="1">\n                              <center>\n                                <font color="#000000" size="1" face="Verdana, Arial, Helvetica, sans-serif">\n                                  <b>\n                                    <b>\n                                      <font size="1" face="verdana">\n                                        <a href="collectables--rare-items-130-c.asp" shape="rect">Collectables &amp; Rare Items</a>\n                                      </font>\n                                    </b>\n                                  </b>\n                                  <br clear="none"></br>\n                                </font>\n                              </center>\n                            </td>\n                            <td width="5" rowspan="1" colspan="1">\n                              <img height="1" width="5" src="/ekmps/designs/templates/14000/images/spacer.gif"></img>\n                            </td>\n                            <td bgcolor="#000000" width="1" rowspan="1" colspan="1">\n                              <img height="1" width="1" src="/ekmps/designs/templates/14000/images/spacer.gif"></img>\n                            </td>\n                          </tr>\n                          <tr>\n                            <td bgcolor="#000000" width="1" rowspan="1" colspan="1">\n                              <img height="1" width="1" src="/ekmps/designs/templates/14000/images/spacer.gif"></img>\n                            </td>\n                            <td width="5" rowspan="1" colspan="1">\n                              <img height="1" width="5" src="/ekmps/designs/templates/14000/images/spacer.gif"></img>\n                            </td>\n                            <td height="5" rowspan="1" colspan="1">\n                              <img height="5" width="1" src="/ekmps/designs/templates/14000/images/spacer.gif"></img>\n                            </td>\n                            <td width="5" rowspan="1" colspan="1">\n                              <img height="1" width="5" src="/ekmps/designs/templates/14000/images/spacer.gif"></img>\n                            </td>\n                            <td bgcolor="#000000" width="1" rowspan="1" colspan="1">\n                              <img height="1" width="1" src="/ekmps/designs/templates/14000/images/spacer.gif"></img>\n                            </td>\n                          </tr>\n                        </table>\n                      </td>\n                    </tr>\n                  </table>\n</td>\n                <td onclick="javascript:document.location.href=\'electronic-components-136-c.asp\'" onmouseout="this.style.backgroundColor=\'#EEEECC\' ;" onmouseover="this.style.backgroundColor=\'#76FFFF\' ;" style="background-color: #EEEECC; cursor: pointer;" bgcolor="#EEEECC" valign="BOTTOM" rowspan="1" colspan="1">\n                  <table cellpadding="0" cellspacing="0" border="0">\n                    <tr>\n                      <td width="100%" valign="BOTTOM" rowspan="1" colspan="1">\n                        <table width="100%" cellpadding="0" cellspacing="0" border="0">\n                          <tr>\n                            <td width="10" valign="TOP" rowspan="1" colspan="1" align="LEFT">\n                              <img alt="" height="10" width="10" src="/ekmps/designs/templates/14000/images/topleft_tab.gif"></img>\n                            </td>\n                            <td width="100%" valign="TOP" rowspan="1" colspan="1">\n                              <table width="100%" cellpadding="0" cellspacing="0" border="0">\n                                <tr>\n                                  <td bgcolor="#000000" height="1" rowspan="1" colspan="1">\n                                    <img height="1" width="1" src="/ekmps/designs/templates/14000/images/spacer.gif"></img>\n                                  </td>\n                                </tr>\n                              </table>\n                            </td>\n                            <td width="10" valign="TOP" rowspan="1" colspan="1" align="RIGHT">\n                              <img alt="" height="10" width="10" src="/ekmps/designs/templates/14000/images/topright_tab.gif"></img>\n                            </td>\n                          </tr>\n                        </table>\n                      </td>\n                    </tr>\n                    <tr>\n                      <td width="100%" rowspan="1" colspan="1">\n                        <table width="100%" cellpadding="0" cellspacing="0" border="0">\n                          <tr>\n                            <td bgcolor="#000000" width="1" rowspan="1" colspan="1">\n                              <img height="1" width="1" src="/ekmps/designs/templates/14000/images/spacer.gif"></img>\n                            </td>\n                            <td width="5" rowspan="1" colspan="1">\n                              <img height="1" width="5" src="/ekmps/designs/templates/14000/images/spacer.gif"></img>\n                            </td>\n                            <td rowspan="1" colspan="1">\n                              <center>\n                                <font color="#000000" size="1" face="Verdana, Arial, Helvetica, sans-serif">\n                                  <b>\n                                    <b>\n                                      <font size="1" face="verdana">\n                                        <a href="electronic-components-136-c.asp" shape="rect">Electronic Components</a>\n                                      </font>\n                                    </b>\n                                  </b>\n                                  <br clear="none"></br>\n                                </font>\n                              </center>\n                            </td>\n                            <td width="5" rowspan="1" colspan="1">\n                              <img height="1" width="5" src="/ekmps/designs/templates/14000/images/spacer.gif"></img>\n                            </td>\n                            <td bgcolor="#000000" width="1" rowspan="1" colspan="1">\n                              <img height="1" width="1" src="/ekmps/designs/templates/14000/images/spacer.gif"></img>\n                            </td>\n                          </tr>\n                          <tr>\n                            <td bgcolor="#000000" width="1" rowspan="1" colspan="1">\n                              <img height="1" width="1" src="/ekmps/designs/templates/14000/images/spacer.gif"></img>\n                            </td>\n                            <td width="5" rowspan="1" colspan="1">\n                              <img height="1" width="5" src="/ekmps/designs/templates/14000/images/spacer.gif"></img>\n                            </td>\n                            <td height="5" rowspan="1" colspan="1">\n                              <img height="5" width="1" src="/ekmps/designs/templates/14000/images/spacer.gif"></img>\n                            </td>\n                            <td width="5" rowspan="1" colspan="1">\n                              <img height="1" width="5" src="/ekmps/designs/templates/14000/images/spacer.gif"></img>\n                            </td>\n                            <td bgcolor="#000000" width="1" rowspan="1" colspan="1">\n                              <img height="1" width="1" src="/ekmps/designs/templates/14000/images/spacer.gif"></img>\n                            </td>\n                          </tr>\n                        </table>\n                      </td>\n                    </tr>\n                  </table>\n                </td>\n                <td onclick="javascript:document.location.href=\'old--vintage-photos-153-c.asp\'" onmouseout="this.style.backgroundColor=\'#EEEECC\' ;" onmouseover="this.style.backgroundColor=\'#76FFFF\' ;" style="background-color: #EEEECC; cursor: pointer;" bgcolor="#EEEECC" valign="BOTTOM" rowspan="1" colspan="1">\n                  <table cellpadding="0" cellspacing="0" border="0">\n                    <tr>\n                      <td width="100%" valign="BOTTOM" rowspan="1" colspan="1">\n                        <table width="100%" cellpadding="0" cellspacing="0" border="0">\n                          <tr>\n                            <td width="10" valign="TOP" rowspan="1" colspan="1" align="LEFT">\n                              <img alt="" height="10" width="10" src="/ekmps/designs/templates/14000/images/topleft_tab.gif"></img>\n                            </td>\n                            <td width="100%" valign="TOP" rowspan="1" colspan="1">\n                              <table width="100%" cellpadding="0" cellspacing="0" border="0">\n                                <tr>\n                                  <td bgcolor="#000000" height="1" rowspan="1" colspan="1">\n                                    <img height="1" width="1" src="/ekmps/designs/templates/14000/images/spacer.gif"></img>\n                                  </td>\n                                </tr>\n                              </table>\n                            </td>\n                            <td width="10" valign="TOP" rowspan="1" colspan="1" align="RIGHT">\n                              <img alt="" height="10" width="10" src="/ekmps/designs/templates/14000/images/topright_tab.gif"></img>\n                            </td>\n                          </tr>\n                        </table>\n                      </td>\n                    </tr>\n                    <tr>\n                      <td width="100%" rowspan="1" colspan="1">\n                        <table width="100%" cellpadding="0" cellspacing="0" border="0">\n                          <tr>\n                            <td bgcolor="#000000" width="1" rowspan="1" colspan="1">\n                              <img height="1" width="1" src="/ekmps/designs/templates/14000/images/spacer.gif"></img>\n                            </td>\n                            <td width="5" rowspan="1" colspan="1">\n                              <img height="1" width="5" src="/ekmps/designs/templates/14000/images/spacer.gif"></img>\n                            </td>\n                            <td rowspan="1" colspan="1">\n                              <center>\n                                <font color="#000000" size="1" face="Verdana, Arial, Helvetica, sans-serif">\n                                  <b>\n                                    <b>\n                                      <font size="1" face="verdana">\n                                        <a href="old--vintage-photos-153-c.asp" shape="rect">Old &amp; Vintage Photos</a>\n                                      </font>\n                                    </b>\n                                  </b>\n                                  <br clear="none"></br>\n                                </font>\n                              </center>\n                            </td>\n                            <td width="5" rowspan="1" colspan="1">\n                              <img height="1" width="5" src="/ekmps/designs/templates/14000/images/spacer.gif"></img>\n                            </td>\n                            <td bgcolor="#000000" width="1" rowspan="1" colspan="1">\n                              <img height="1" width="1" src="/ekmps/designs/templates/14000/images/spacer.gif"></img>\n                            </td>\n                          </tr>\n                          <tr>\n                            <td bgcolor="#000000" width="1" rowspan="1" colspan="1">\n                              <img height="1" width="1" src="/ekmps/designs/templates/14000/images/spacer.gif"></img>\n                            </td>\n                            <td width="5" rowspan="1" colspan="1">\n                              <img height="1" width="5" src="/ekmps/designs/templates/14000/images/spacer.gif"></img>\n                            </td>\n                            <td height="5" rowspan="1" colspan="1">\n                              <img height="5" width="1" src="/ekmps/designs/templates/14000/images/spacer.gif"></img>\n                            </td>\n                            <td width="5" rowspan="1" colspan="1">\n                              <img height="1" width="5" src="/ekmps/designs/templates/14000/images/spacer.gif"></img>\n                            </td>\n                            <td bgcolor="#000000" width="1" rowspan="1" colspan="1">\n                              <img height="1" width="1" src="/ekmps/designs/templates/14000/images/spacer.gif"></img>\n                            </td>\n                          </tr>\n                        </table>\n                      </td>\n                    </tr>\n                  </table>\n                </td>\n              </tr>\n            </table>\n          </center>\n        </td>\n      </tr>\n      <tr>\n        <td height="29" bgcolor="#220084" rowspan="1" colspan="1"> </td>\n      </tr>\n      <tr>\n        <td height="29" bgcolor="#7A1900" rowspan="1" colspan="1"> </td>\n      </tr>\n      <tr>\n        <td height="16" bgcolor="#FFFFDD" rowspan="1" colspan="1"> </td>\n      </tr>\n      <tr>\n        <td height="10" rowspan="1" colspan="1"> </td>\n      </tr>\n    </table>\n    <table width="100%" cellpadding="0" cellspacing="0" border="0">\n      <tr>\n        <td width="15%" valign="TOP" rowspan="1" colspan="1">\n          <table bgcolor="#220084" width="100%" cellpadding="0" cellspacing="0" border="0">\n            <tr>\n              <td rowspan="1" colspan="1">\n                <table width="100%" cellpadding="0" cellspacing="0" border="0">\n                  <tr>\n                    <td width="10" valign="TOP" rowspan="1" colspan="1" align="LEFT">\n                      <img alt="" height="5" width="5" src="/ekmps/designs/templates/14000/images/up-left-corner.gif"></img>\n                    </td>\n                    <td height="25" rowspan="1" colspan="1">\n                      <font color="#FFFFFF" size="1" face="Verdana, Arial, Helvetica, sans-serif">\n                        <b>Search</b>\n                      </font>\n                    </td>\n                    <td width="10" valign="TOP" rowspan="1" colspan="1" align="RIGHT">\n                      <img alt="" height="5" width="5" src="/ekmps/designs/templates/14000/images/up-right-corner.gif"></img>\n                    </td>\n                  </tr>\n                </table>\n              </td>\n            </tr>\n            <tr>\n              <td rowspan="1" colspan="1">\n                <table width="100%" cellpadding="5" cellspacing="1" border="0">\n                  <tr>\n                    <form action="index.asp?function=SEARCH" name="SearchBox" method="POST" enctype="application/x-www-form-urlencoded">\n                      <td bgcolor="#D4FAFF" rowspan="1" colspan="1">\n                        <table border="0">\n                          <tr>\n                            <td rowspan="1" colspan="1">\n                              <input size="23" name="search" type="text"></input>\n                            </td>\n                          </tr>\n                          <tr>\n                            <td rowspan="1" colspan="1">\n                              <input value="Search" type="submit"></input>\n                            </td>\n                          </tr>\n                        </table>\n                      </td>\n                    </form>\n                  </tr>\n                </table>\n              </td>\n            </tr>\n          </table>\n          <br clear="none"></br>\n          <table bgcolor="#220084" width="100%" cellpadding="0" cellspacing="0" border="0">\n            <tr>\n              <td rowspan="1" colspan="1">\n                <table width="100%" cellpadding="0" cellspacing="0" border="0">\n                  <tr>\n                    <td width="10" valign="TOP" rowspan="1" colspan="1" align="LEFT">\n                      <img alt="" height="5" width="5" src="/ekmps/designs/templates/14000/images/up-left-corner.gif"></img>\n                    </td>\n                    <td height="25" rowspan="1" colspan="1">\n                      <font color="#FFFFFF" size="1" face="Verdana, Arial, Helvetica, sans-serif">\n                        <b>Shopping Cart</b>\n                      </font>\n                    </td>\n                    <td width="10" valign="TOP" rowspan="1" colspan="1" align="RIGHT">\n                      <img alt="" height="5" width="5" src="/ekmps/designs/templates/14000/images/up-right-corner.gif"></img>\n                    </td>\n                  </tr>\n                </table>\n              </td>\n            </tr>\n            <tr>\n              <td rowspan="1" colspan="1">\n                <table width="100%" cellpadding="5" cellspacing="1" border="0">\n                  <tr>\n                    <td bgcolor="#D4FAFF" rowspan="1" colspan="1">\n                      <center>\n                        <table width="100%" cellspacing="5" border="0">\n                          <tr>\n                            <td rowspan="1" colspan="1">\n                              <font size="1" face="verdana">\n                                <b>Item</b>\n                              </font>\n                            </td>\n                            <td rowspan="1" colspan="1">\n                              <font size="1" face="verdana">\n                                <b>Qty</b>\n                              </font>\n                            </td>\n                            <td rowspan="1" colspan="1">\n                              <font size="1" face="verdana">\n                                <b>Price</b>\n                              </font>\n                            </td>\n                          </tr>\n                          <tr></tr>\n                          <tr>\n                            <td rowspan="1" colspan="3">\n                              <hr width="100%" size="1"></hr>\n                            </td>\n                          </tr>\n                          <tr>\n                            <td rowspan="1" colspan="3" align="RIGHT">\n                              <table border="0">\n                                <tr>\n                                  <td rowspan="1" colspan="1" align="RIGHT">\n                                    <font size="1" face="verdana">Sub Total: </font>\n                                  </td>\n                                  <td rowspan="1" colspan="1">\n                                    <font size="1" face="verdana">\xc2\xa30.00</font>\n                                  </td>\n                                </tr>\n                                <tr>\n                                  <td rowspan="1" colspan="1" align="RIGHT">\n                                    <font size="1" face="verdana">Delivery: </font>\n                                  </td>\n                                  <td rowspan="1" colspan="1">\n                                    <font size="1" face="verdana">\xc2\xa30.00</font>\n                                  </td>\n                                </tr>\n                                <tr>\n                                  <td rowspan="1" colspan="1" align="RIGHT">\n                                    <font size="1" face="verdana">Total: </font>\n                                  </td>\n                                  <td rowspan="1" colspan="1">\n                                    <font size="1" face="verdana">\xc2\xa30.00</font>\n                                  </td>\n                                </tr>\n                              </table>\n                            </td>\n                          </tr>\n                        </table>\n                        <br clear="none"></br>\n                        <table cellpadding="0" cellspacing="0" border="0">\n                          <tr>\n                            <td rowspan="1" colspan="1">\n                              <center>\n                                <font color="" size="1" face="verdana, arial">\n                                  <strong>Select Currency</strong>\n                                </font>\n                              </center>\n                            </td>\n                          </tr>\n                          <tr>\n                            <td rowspan="1" colspan="1">\n                              <center>\n                                <table cellpadding="1" cellspacing="0" border="0">\n                                  <tr>\n                                    <td rowspan="1" colspan="1">\n                                      <a href="index.asp?function=CART&amp;mode=CURRENCY&amp;code=AUD&amp;catid=&amp;productid=85" shape="rect">\n                                        <img border="0" alt="Australian Dollar" height="14" width="22" src="/ekmps/images/system/flags/aud.png"></img>\n                                      </a>\n                                    </td>\n                                    <td rowspan="1" colspan="1">\n                                      <a href="index.asp?function=CART&amp;mode=CURRENCY&amp;code=CAD&amp;catid=&amp;productid=85" shape="rect">\n                                        <img border="0" alt="Canadian Dollar" height="14" width="22" src="/ekmps/images/system/flags/cad.png"></img>\n                                      </a>\n                                    </td>\n                                    <td rowspan="1" colspan="1">\n                                      <a href="index.asp?function=CART&amp;mode=CURRENCY&amp;code=EUR&amp;catid=&amp;productid=85" shape="rect">\n                                        <img border="0" alt="Euro" height="14" width="22" src="/ekmps/images/system/flags/eur.png"></img>\n                                      </a>\n                                    </td>\n                                    <td rowspan="1" colspan="1">\n                                      <a href="index.asp?function=CART&amp;mode=CURRENCY&amp;code=GBP&amp;catid=&amp;productid=85" shape="rect">\n                                        <img border="2" alt="Pound Sterling" height="14" width="22" src="/ekmps/images/system/flags/gbp.png"></img>\n                                      </a>\n                                    </td>\n                                    <td rowspan="1" colspan="1">\n                                      <a href="index.asp?function=CART&amp;mode=CURRENCY&amp;code=USD&amp;catid=&amp;productid=85" shape="rect">\n                                        <img border="0" alt="US Dollar" height="14" width="22" src="/ekmps/images/system/flags/usd.png"></img>\n                                      </a>\n                                    </td>\n                                  </tr>\n                                </table>\n                              </center>\n                            </td>\n                          </tr>\n                        </table>\n                        <br clear="none"></br>\n                      </center>\n                    </td>\n                  </tr>\n                </table>\n              </td>\n            </tr>\n          </table>\n          <br clear="none"></br>\n          <table width="100%" cellpadding="0" cellspacing="0" border="0">\n            <tr>\n              <td rowspan="1" colspan="1">\n                <p style="text-align: center">\n                  <span style="font-size: larger;">\n                    All Orders despatched\n                    <br clear="none"></br>\n                  </span>\n                </p>\n                <p style="text-align: center;">\n                  <span style="font-size: larger;">within 24 hours</span>\n                </p>\n                <p style="text-align: center">\n                  <a target="_blank" href="http://youraccount.ekmpowershop8.com/ekmps/shops/mr70s/shipping-3-w.asp" shape="rect">\n                    <span style="font-size: large">\n                      <span>\n                        <strong>\n                          <img style="width: 150px; height: 94px;" alt="" src="/ekmps/shops/mr70s/resources/Design/worldwide.gif"></img>\n                        </strong>\n                      </span>\n                    </span>\n                  </a>\n                </p>\n                <p style="text-align: center"></p>\n                <p style="text-align: center"></p>\n                <p style="text-align: center"></p>\n                <p></p>\n              </td>\n            </tr>\n          </table>\n          <br clear="none"></br>\n          <table bgcolor="#220084" width="100%" cellpadding="0" cellspacing="0" border="0">\n            <tr>\n              <td rowspan="1" colspan="1">\n                <table width="100%" cellpadding="0" cellspacing="0" border="0">\n                  <tr>\n                    <td width="10" valign="TOP" rowspan="1" colspan="1" align="LEFT">\n                      <img alt="" height="5" width="5" src="/ekmps/designs/templates/14000/images/up-left-corner.gif"></img>\n                    </td>\n                    <td height="25" rowspan="1" colspan="1">\n                      <font color="#FFFFFF" size="1" face="Verdana, Arial, Helvetica, sans-serif">\n                        <b>Categories</b>\n                      </font>\n                    </td>\n                    <td width="10" valign="TOP" rowspan="1" colspan="1" align="RIGHT">\n                      <img alt="" height="5" width="5" src="/ekmps/designs/templates/14000/images/up-right-corner.gif"></img>\n                    </td>\n                  </tr>\n                </table>\n              </td>\n            </tr>\n            <tr>\n              <td rowspan="1" colspan="1">\n                <table width="100%" cellpadding="5" cellspacing="1" border="0">\n                  <tr>\n                    <td bgcolor="#D4FAFF" rowspan="1" colspan="1"> </td>\n                  </tr>\n                </table>\n              </td>\n            </tr>\n          </table>\n        </td>\n        <td valign="TOP" rowspan="1" colspan="1">\n          <table width="100%" border="0">\n            <tr>\n              <td width="10" rowspan="1" colspan="1"></td>\n              <td rowspan="1" colspan="1">\n                <font size="2" face="Arial, Helvetica, sans-serif"> </font>\n                <table border="0" width="100%">\n                  <tr>\n                    <td width="20" rowspan="1" colspan="1">\xc2\xa0</td>\n                    <td rowspan="1" colspan="1">\n                      <font size="2" face="verdana">\n                        <a href="index.asp" shape="rect">Home</a>\n                        &gt;\n                        <a href="cds-12-c.asp" shape="rect">CDs</a>\n                        &gt;\n                        <a href="pop-37-c.asp" shape="rect">Pop</a>\n                        &gt;\n                      </font>\n                      <br clear="none"></br>\n                      <br clear="none"></br>\n                      <table width="100%" border="0">\n                        <form action="index.asp?function=CART&amp;mode=ADD&amp;productid=85" name="product" id="product_form" method="post" enctype="application/x-www-form-urlencoded">\n                          <input value="0" name="referring category" type="hidden"></input>\n                          <tr>\n                            <td width="10" valign="TOP" rowspan="1" colspan="1">\n                              <table border="0">\n                                <tr>\n                                  <td rowspan="1" colspan="1">\n                                    <center>\n                                      <a \n                                      data-largeimg="/ekmps/shops/mr70s/images/bay-city-rollers-bye-bye-baby-the-very-best-of-the-bay-city-rollers.-cd-85-p[ekm]300x298[ekm].jpg" data-thumbnailimg="/ekmps/shops/mr70s/images/bay-city-rollers-bye-bye-baby-the-very-best-of-the-bay-city-rollers.-cd-85-p[ekm]80x79[ekm].jpg" rel="lightbox[1] mousezoom[1]" href="/ekmps/shops/mr70s/images/bay-city-rollers-bye-bye-baby-the-very-best-of-the-bay-city-rollers.-cd-85-p.jpg" id="_EKM_PRODUCTIMAGE_LINK_1" shape="rect">\n                                        <span id="hiddenstatus">\n                                          <img border="0" alt="Bay City Rollers -(Bye Bye Baby) The Very Best Of The Bay City Rollers. CD" height="298" width="300" src="/ekmps/shops/mr70s/images/bay-city-rollers-bye-bye-baby-the-very-best-of-the-bay-city-rollers.-cd-85-p[ekm]300x298[ekm].jpg" id="_EKM_PRODUCTIMAGE_1"></img>\n                                        </span>\n</a>\n                                    </center>\n                                  </td>\n                                </tr>\n                                <tr>\n                                  <td rowspan="1" colspan="1">\n                                    <center>\n                                      <table border="0">\n                                        <tr>\n                                          <td valign="top" rowspan="1" colspan="1">\n                                            <a \n                                            data-largeimg="/ekmps/shops/mr70s/images/bay-city-rollers-bye-bye-baby-the-very-best-of-the-bay-city-rollers.-cd-[2]-85-p[ekm]300x254[ekm].jpg" data-thumbnailimg="/ekmps/shops/mr70s/images/bay-city-rollers-bye-bye-baby-the-very-best-of-the-bay-city-rollers.-cd-[2]-85-p[ekm]80x67[ekm].jpg" rel="lightbox[1] mousezoom[1]" href="/ekmps/shops/mr70s/images/bay-city-rollers-bye-bye-baby-the-very-best-of-the-bay-city-rollers.-cd-[2]-85-p.jpg" id="_EKM_PRODUCTIMAGE_LINK_2" shape="rect">\n                                              <img border="0" alt="Bay City Rollers -(Bye Bye Baby) The Very Best Of The Bay City Rollers. CD" height="67" width="80" src="/ekmps/shops/mr70s/images/bay-city-rollers-bye-bye-baby-the-very-best-of-the-bay-city-rollers.-cd-[2]-85-p[ekm]80x67[ekm].jpg" id="_EKM_PRODUCTIMAGE_2"></img>\n</a>\n                                          </td>\n                                          <td valign="top" rowspan="1" colspan="1"></td>\n                                          <td valign="top" rowspan="1" colspan="1"></td>\n                                          <td valign="top" rowspan="1" colspan="1"></td>\n                                        </tr>\n                                      </table>\n                                    </center>\n                                  </td>\n                                </tr>\n                              </table>\n                            </td>\n                          </tr>\n                          <tr>\n                            <td rowspan="1" colspan="1">\n                              <h1 style="padding: 0; margin: 0; font-weight: normal; font-family: arial; font-size: large;">Bay City Rollers -(Bye Bye Baby) The Very Best Of The Bay City Rollers. CD</h1>\n                              <br clear="none"></br>\n                              <font size="3" face="arial"></font>\n                              <p>\n                                The\n                                <b>Bay City Rollers</b>\n                                were a\n                                <a href="http://en.wikipedia.org/wiki/Scotland" title="Scotland" shape="rect">Scottish</a>\n                                <a href="http://en.wikipedia.org/wiki/Pop/rock" title="Pop/rock" class="mw-redirect" shape="rect">pop/rock</a>\n                                band of the 1970s. Their youthful, clean-cut image, distinctive styling featuring\n                                <a href="http://en.wikipedia.org/wiki/Tartan" title="Tartan" shape="rect">tartan</a>\n                                -trimmed outfits, and cheery, sing-along pop hits helped the group become among the most popular musical acts of their time. For a relatively brief but fervent period (nicknamed &quot;Rollermania&quot;), they were worldwide\n                                <a href="http://en.wikipedia.org/wiki/Teen_idol" title="Teen idol" shape="rect">teen idols</a>\n                                . The group\'s line-up featured numerous changes over the years, but the classic line-up during its heyday included guitarists\n                                <a href="http://en.wikipedia.org/wiki/Eric_Faulkner" title="Eric Faulkner" shape="rect">Eric Faulkner</a>\n                                and\n                                <a href="http://en.wikipedia.org/wiki/Stuart_Woody_Wood" title="Stuart Woody Wood" class="mw-redirect" shape="rect">Stuart Wood</a>\n                                , singer\n                                <a href="http://en.wikipedia.org/wiki/Les_McKeown" title="Les McKeown" shape="rect">Les McKeown</a>\n                                , bassist\n                                <a href="http://en.wikipedia.org/wiki/Alan_Longmuir" title="Alan Longmuir" shape="rect">Alan Longmuir</a>\n                                , and drummer\n                                <a href="http://en.wikipedia.org/wiki/Derek_Longmuir" title="Derek Longmuir" shape="rect">Derek Longmuir</a>\n                                .\n                              </p>\n                              <p>Since the band\'s quick rise to, and subsequent fall from fame, the members have endured numerous and varied struggles regarding royalty payments, substance abuse, and personal legal problems.</p>\n                              <p>\n                                \xc2\xa0\n                                <strong>The Very Best of Les Mckeowns 70s Bay City Rollers</strong>\n                              </p>\n                              <p>\n                                <strong>Brand New, Sealed</strong>\n                              </p>\n                              <p>\n                                <strong>17 tracks: </strong>\n                              </p>\n                              <ol>\n                                <li>\n                                  <strong>Shang A Lang </strong>\n                                </li>\n                                <li>\n                                  <strong>Bye Bye Baby </strong>\n                                </li>\n                                <li>\n                                  <strong>Remember Sha La La </strong>\n                                </li>\n                                <li>\n                                  <strong>Saturday Night </strong>\n                                </li>\n                                <li>\n                                  <strong>I Only Wanna Be You </strong>\n                                </li>\n                                <li>\n                                  <strong>Give A Little Love </strong>\n                                </li>\n                                <li>\n                                  <strong>Rock &amp; Roll Love Letter </strong>\n                                </li>\n                                <li>\n                                  <strong>Its A Game </strong>\n                                </li>\n                                <li>\n                                  <strong>You Made Me Believe in Magic </strong>\n                                </li>\n                                <li>\n                                  <strong>Money </strong>\n                                </li>\n                                <li>\n                                  <strong>Summer Love Sensation </strong>\n                                </li>\n                                <li>\n                                  <strong>Yesterdays Hero </strong>\n                                </li>\n                                <li>\n                                  <strong>Dedication </strong>\n                                </li>\n                                <li>\n                                  <strong>Holding On </strong>\n                                </li>\n                                <li>\n                                  <strong>Hearts On Fire </strong>\n                                </li>\n                                <li>\n                                  <strong>Be My Baby </strong>\n                                </li>\n                                <li>\n                                  <strong>Megamix, Medley</strong>\n                                </li>\n                              </ol>\n                              <p>If you require further info\' contact us</p>\n                              <br clear="none"></br>\n                              <script language="javascript">function ekmValidProductOptions(){return true;}</script>\n                              <input value="-1" name="numberofoptions" type="hidden"></input>\n                              <br clear="none"></br>\n                              <br clear="none"></br>\n                              <font size="3" face="arial">\n                                <span id="_EKM_SURROUND_PRODUCTPRICE">\n                                  <b>\n                                    Our Price:\n                                    <font color="DARKRED">\n                                      \xc2\xa3\n                                      <span id="_EKM_PRODUCTPRICE">7.99</span>\n                                    </font>\n                                  </b>\n                                </span>\n                              </font>\n                              <br clear="none"></br>\n                              <br clear="none"></br>\n                              <span id="_EKM_PRODUCTADDCARTMESSAGE"></span>\n                              <span id="_EKM_PRODUCTADDCART">\n                                <input onclick="javascript:return ekmValidProductOptions();" title="Add to Cart" value="Add to Cart" type="Submit"></input>\n                              </span>\n                            </td>\n                          </tr>\n                        </form>\n                      </table>\n                      <br clear="none"></br>\n                      <br clear="none"></br>\n                      <hr width="100%" size="1"></hr>\n                      <strong>Customer Reviews</strong>\n                      <font size="-1">\n                        <br clear="none"></br>\n                        <a href="index.asp?function=CUSTOMERREVIEW&amp;productid=85" shape="rect">Write an online review</a>\n                        and share your thoughts with other shoppers!\n                      </font>\n                      <br clear="none"></br>\n                      <br clear="none"></br>\n                      <br clear="none"></br>\n                      <font size="2" face="verdana">\n                        <b>\n                          <a href="pop-37-c.asp" shape="rect">\xc2\xab Back</a>\n                        </b>\n                      </font>\n                    </td>\n                  </tr>\n                </table>\n              </td>\n              <td width="10" rowspan="1" colspan="1"></td>\n            </tr>\n          </table>\n        </td>\n        <td width="15%" valign="TOP" rowspan="1" colspan="1">\n          <table width="100%" cellpadding="0" cellspacing="0" border="0">\n            <tr>\n              <td rowspan="1" colspan="1">\n                <p style="text-align: center;">\n                  <img src="/ekmps/shops/mr70s/resources/Design/record-stock-2.jpg" alt="" height="188" width="250"></img>\n                  <a href="http://www.mr70s.com/page_1166713534484.html" target="_blank" shape="rect">\n                    <span style="font-size: medium;">\n                      <br clear="none"></br>\n                    </span>\n                  </a>\n                </p>\n                <p style="text-align: center;">\n                  <span style="font-size: medium;">\n                    <span style="font-family: Arial;">Recommended by DJ\'s, Radio Stations &amp; Production Studios Worldwide</span>\n                  </span>\n                </p>\n                <p style="text-align: center;" class="MsoNormal">\n                  <span style="font-size: medium;">\n                    <u>\n                      <span class="ctldeslbl">\n                        Mr 70s is a\n                        <span style="font-weight: normal;">100% Secure site</span>\n                        Your order details are encrypted and safe\n                      </span>\n                      <span class="ctldeslbl">.</span>\n                    </u>\n                  </span>\n                </p>\n              </td>\n            </tr>\n          </table>\n          <br clear="none"></br>\n          <table bgcolor="#220084" width="100%" cellpadding="0" cellspacing="0" border="0">\n            <tr>\n              <td rowspan="1" colspan="1">\n                <table width="100%" cellpadding="0" cellspacing="0" border="0">\n                  <tr>\n                    <td width="10" valign="TOP" rowspan="1" colspan="1" align="LEFT">\n                      <img alt="" height="5" width="5" src="/ekmps/designs/templates/14000/images/up-left-corner.gif"></img>\n                    </td>\n                    <td height="25" rowspan="1" colspan="1">\n                      <font color="#FFFFFF" size="1" face="Verdana, Arial, Helvetica, sans-serif">\n                        <b>Experienced International Music Dealer</b>\n                      </font>\n                    </td>\n                    <td width="10" valign="TOP" rowspan="1" colspan="1" align="RIGHT">\n                      <img alt="" height="5" width="5" src="/ekmps/designs/templates/14000/images/up-right-corner.gif"></img>\n                    </td>\n                  </tr>\n                </table>\n              </td>\n            </tr>\n            <tr>\n              <td rowspan="1" colspan="1">\n                <table width="100%" cellpadding="5" cellspacing="1" border="0">\n                  <tr>\n                    <td bgcolor="#D4FAFF" rowspan="1" colspan="1">\n                      <p style="text-align: center;"></p>\n                      <p></p>\n                      <p></p>\n                      <p style="text-align: center;"></p>\n                      <p>\n                        <span style="font-size: smaller;">\n                          Mr 70s has been in the music industry since 1970.\n                          <span style="font-weight: normal;">We are specialists\'\xc2\xa0 in rare, deleted &amp; unusual music. </span>\n                          <span style="font-weight: normal;">\n                            Here you can purchase all types of hard to find and unusual music that you wont find anywhere else. All types of deleted, out of date music. All from various era\'s from early 1900\'s to the present day, from Funk, Soul, Dance, Pop, Classical, Opera, Easy Listening and a whole lot more. We also sell a limited amount of unusual &amp; rare collectors items (see collectors items category).\n                          </span>\n                        </span>\n                        <span style="font-size: smaller;"></span>\n                      </p>\n                      <p>\n                        <span style="font-size: smaller;">\n                          <span style="font-weight: normal;">Mr 70s is a family run business headed by Lou Vegas, a veteran D.J. / Producer / Music Promoter of the\xc2\xa0</span>\n                          <span style="font-weight: normal;">European night club scene. The company is based in the </span>\n                          <span style="font-weight: normal;">UK</span>\n                          <span style="font-weight: normal;">, with links worldwide. We supply everyone from the individual who wants a single CD or record to music professionals, DJs, Producers, TV companies, Radio stations, retail outlets etc.</span>\n                        </span>\n                      </p>\n                      <p></p>\n                      <p></p>\n                      <p style="text-align: center;"></p>\n                    </td>\n                  </tr>\n                </table>\n              </td>\n            </tr>\n          </table>\n          <br clear="none"></br>\n          <table bgcolor="#220084" width="100%" cellpadding="0" cellspacing="0" border="0">\n            <tr>\n              <td rowspan="1" colspan="1">\n                <table width="100%" cellpadding="0" cellspacing="0" border="0">\n                  <tr>\n                    <td width="10" valign="TOP" rowspan="1" colspan="1" align="LEFT">\n                      <img alt="" height="5" width="5" src="/ekmps/designs/templates/14000/images/up-left-corner.gif"></img>\n                    </td>\n                    <td height="25" rowspan="1" colspan="1">\n                      <font color="#FFFFFF" size="1" face="Verdana, Arial, Helvetica, sans-serif">\n                        <b>Special Offers</b>\n                      </font>\n                    </td>\n                    <td width="10" valign="TOP" rowspan="1" colspan="1" align="RIGHT">\n                      <img alt="" height="5" width="5" src="/ekmps/designs/templates/14000/images/up-right-corner.gif"></img>\n                    </td>\n                  </tr>\n                </table>\n              </td>\n            </tr>\n            <tr>\n              <td rowspan="1" colspan="1">\n                <table width="100%" cellpadding="5" cellspacing="1" border="0">\n                  <tr>\n                    <td bgcolor="#D4FAFF" rowspan="1" colspan="1"> </td>\n                  </tr>\n                </table>\n              </td>\n            </tr>\n          </table>\n          <br clear="none"></br>\n          <table width="100%" cellpadding="0" cellspacing="0" border="0">\n            <tr>\n              <td rowspan="1" colspan="1"> </td>\n            </tr>\n          </table>\n          <br clear="none"></br>\n          <table width="100%" cellpadding="0" cellspacing="0" border="0">\n            <tr>\n              <td rowspan="1" colspan="1">\n                <p style="text-align: left;">\n                  <a href="http://www.mr70s.com" shape="rect"> </a>\n                </p>\n                <p style="text-align: left;"></p>\n                <p style="text-align: left;"></p>\n                <p style="text-align: left;"></p>\n                <p style="text-align: left;"></p>\n                <p style="text-align: center;"></p>\n              </td>\n            </tr>\n          </table>\n        </td>\n      </tr>\n    </table>\n    <hr width="100%" size="1"></hr>\n    <center>\n      <font size="1" face="Verdana, Arial, Helvetica, sans-serif">\n        <a href="sitemap.asp" shape="rect">Site Map</a>\n        |\n        <a href="terms-conditions.asp" shape="rect">Terms &amp; Conditions</a>\n      </font>\n      <br clear="none"></br>\n      You Can Contact us at:- mr.70s@virginmedia.com\n      <br clear="none"></br>\n      <font size="1" face="Verdana, Arial, Helvetica, sans-serif"></font>\n    </center>\n  </body>\n  <body>\n    <div style="z-index: 10; position:absolute; padding: 0px; display:none;" id="pinpoint_container">\n      <script src="http://global.ekmpinpoint.com/hits/info-global.js" language="JavaScript"></script>\n      <script language="JavaScript"> &lt;!-- GetStatsGlobal(\'mr70s\',\'8\',\'0\'); // --&gt; </script>\n    </div>\n  </body>\n</html>'
p11
sbsS'mentions'
p12
(lp13
(iedu.umass.cs.iesl.wikilink.expanded.data.ttypes
Mention
p14
(dp15
S'anchor_text'
p16
S'pop/rock'
p17
sS'context'
p18
(iedu.umass.cs.iesl.wikilink.expanded.data.ttypes
Context
p19
(dp20
S'middle'
p21
S'pop/rock'
p22
sS'right'
p23
S'band of the 1970s. Their youthful, clean-cut image, distinctive styling featuring tartan -trimmed outfits, and cheery, sing-along pop hits helped the group become among the'
p24
sS'left'
p25
S'> Pop > Bay City Rollers -(Bye Bye Baby) The Very Best Of The Bay City Rollers. CD The Bay City Rollers were a Scottish'
p26
sbsS'freebase_id'
p27
NsS'raw_text_offset'
p28
I42280
sS'wiki_url'
p29
S'http://en.wikipedia.org/wiki/Pop/rock'
p30
sba(iedu.umass.cs.iesl.wikilink.expanded.data.ttypes
Mention
p31
(dp32
g16
S'tartan'
p33
sg18
(iedu.umass.cs.iesl.wikilink.expanded.data.ttypes
Context
p34
(dp35
g21
S'tartan'
p36
sg23
S'-trimmed outfits, and cheery, sing-along pop hits helped the group become among the most popular musical acts of their time. For a relatively brief but'
p37
sg25
S'Of The Bay City Rollers. CD The Bay City Rollers were a Scottish pop/rock band of the 1970s. Their youthful, clean-cut image, distinctive styling featuring'
p38
sbsg27
S'9202a8c04000641f80000000001f071a'
p39
sg28
I42436
sg29
S'http://en.wikipedia.org/wiki/Tartan'
p40
sba(iedu.umass.cs.iesl.wikilink.expanded.data.ttypes
Mention
p41
(dp42
g16
S'teen idols'
p43
sg18
(iedu.umass.cs.iesl.wikilink.expanded.data.ttypes
Context
p44
(dp45
g21
S'teen idols'
p46
sg23
S". The group's line-up featured numerous changes over the years, but the classic line-up during its heyday included guitarists Eric Faulkner and Stuart Wood ,"
p47
sg25
S'helped the group become among the most popular musical acts of their time. For a relatively brief but fervent period (nicknamed "Rollermania"), they were worldwide'
p48
sbsg27
S'9202a8c04000641f800000000009a924'
p49
sg28
I42737
sg29
S'http://en.wikipedia.org/wiki/Teen_idol'
p50
sba(iedu.umass.cs.iesl.wikilink.expanded.data.ttypes
Mention
p51
(dp52
g16
S'Eric Faulkner'
p53
sg18
(iedu.umass.cs.iesl.wikilink.expanded.data.ttypes
Context
p54
(dp55
g21
S'Eric Faulkner'
p56
sg23
S"and Stuart Wood , singer Les McKeown , bassist Alan Longmuir , and drummer Derek Longmuir . Since the band's quick rise to, and subsequent"
p57
sg25
S'"Rollermania"), they were worldwide teen idols . The group\'s line-up featured numerous changes over the years, but the classic line-up during its heyday included guitarists'
p58
sbsg27
S'9202a8c04000641f80000000008f9ebd'
p59
sg28
I42952
sg29
S'http://en.wikipedia.org/wiki/Eric_Faulkner'
p60
sba(iedu.umass.cs.iesl.wikilink.expanded.data.ttypes
Mention
p61
(dp62
g16
S'Stuart Wood'
p63
sg18
(iedu.umass.cs.iesl.wikilink.expanded.data.ttypes
Context
p64
(dp65
g21
S'Stuart Wood'
p66
sg23
S", singer Les McKeown , bassist Alan Longmuir , and drummer Derek Longmuir . Since the band's quick rise to, and subsequent fall from fame,"
p67
sg25
S"worldwide teen idols . The group's line-up featured numerous changes over the years, but the classic line-up during its heyday included guitarists Eric Faulkner and"
p68
sbsg27
S'9202a8c04000641f80000000007d9d71'
p69
sg28
I43077
sg29
S'http://en.wikipedia.org/wiki/Stuart_Woody_Wood'
p70
sba(iedu.umass.cs.iesl.wikilink.expanded.data.ttypes
Mention
p71
(dp72
g16
S'Les McKeown'
p73
sg18
(iedu.umass.cs.iesl.wikilink.expanded.data.ttypes
Context
p74
(dp75
g21
S'Les McKeown'
p76
sg23
S", bassist Alan Longmuir , and drummer Derek Longmuir . Since the band's quick rise to, and subsequent fall from fame, the members have endured"
p77
sg25
S"The group's line-up featured numerous changes over the years, but the classic line-up during its heyday included guitarists Eric Faulkner and Stuart Wood , singer"
p78
sbsg27
S'9202a8c04000641f80000000006acdf7'
p79
sg28
I43172
sg29
S'http://en.wikipedia.org/wiki/Les_McKeown'
p80
sba(iedu.umass.cs.iesl.wikilink.expanded.data.ttypes
Mention
p81
(dp82
g16
S'Alan Longmuir'
p83
sg18
(iedu.umass.cs.iesl.wikilink.expanded.data.ttypes
Context
p84
(dp85
g21
S'Alan Longmuir'
p86
sg23
S", and drummer Derek Longmuir . Since the band's quick rise to, and subsequent fall from fame, the members have endured numerous and varied struggles"
p87
sg25
S'numerous changes over the years, but the classic line-up during its heyday included guitarists Eric Faulkner and Stuart Wood , singer Les McKeown , bassist'
p88
sbsg27
S'9202a8c04000641f8000000000c0aa5f'
p89
sg28
I43272
sg29
S'http://en.wikipedia.org/wiki/Alan_Longmuir'
p90
sba(iedu.umass.cs.iesl.wikilink.expanded.data.ttypes
Mention
p91
(dp92
g16
S'Derek Longmuir'
p93
sg18
(iedu.umass.cs.iesl.wikilink.expanded.data.ttypes
Context
p94
(dp95
g21
S'Derek Longmuir'
p96
sg23
S". Since the band's quick rise to, and subsequent fall from fame, the members have endured numerous and varied struggles regarding royalty payments, substance abuse,"
p97
sg25
S'but the classic line-up during its heyday included guitarists Eric Faulkner and Stuart Wood , singer Les McKeown , bassist Alan Longmuir , and drummer'
p98
sbsg27
S'9202a8c04000641f8000000000c0aad1'
p99
sg28
I43380
sg29
S'http://en.wikipedia.org/wiki/Derek_Longmuir'
p100
sbasS'doc_id'
p101
I3030284
sS'rare_words'
p102
(lp103
(iedu.umass.cs.iesl.wikilink.expanded.data.ttypes
RareWord
p104
(dp105
S'word'
p106
S'sing'
p107
sS'offset'
p108
I42476
sba(iedu.umass.cs.iesl.wikilink.expanded.data.ttypes
RareWord
p109
(dp110
g106
S'during'
p111
sg108
I42839
sba(iedu.umass.cs.iesl.wikilink.expanded.data.ttypes
RareWord
p112
(dp113
g106
S'idols'
p114
sg108
I42742
sba(iedu.umass.cs.iesl.wikilink.expanded.data.ttypes
RareWord
p115
(dp116
g106
S"band's"
p117
sg108
I43418
sba(iedu.umass.cs.iesl.wikilink.expanded.data.ttypes
RareWord
p118
(dp119
g106
S'band'
p120
sg108
I42293
sba(iedu.umass.cs.iesl.wikilink.expanded.data.ttypes
RareWord
p121
(dp122
g106
S'rock'
p123
sg108
I42284
sba(iedu.umass.cs.iesl.wikilink.expanded.data.ttypes
RareWord
p124
(dp125
g106
S'Alan'
p126
sg108
I43272
sba(iedu.umass.cs.iesl.wikilink.expanded.data.ttypes
RareWord
p127
(dp128
g106
S'Faulkner'
p129
sg108
I42957
sba(iedu.umass.cs.iesl.wikilink.expanded.data.ttypes
RareWord
p130
(dp131
g106
S'cheery'
p132
sg108
I42468
sba(iedu.umass.cs.iesl.wikilink.expanded.data.ttypes
RareWord
p133
(dp134
g106
S'Their'
p135
sg108
I42312
sbasb.