(iedu.umass.cs.iesl.wikilink.expanded.data.ttypes
WikiLinkItem
p0
(dp1
S'url'
p2
S'http://1opinionatedwoman.blogspot.com/2012/07/velocity-by-discovery-is-great-tv-for.html'
p3
sS'content'
p4
(iedu.umass.cs.iesl.wikilink.expanded.data.ttypes
PageContentItem
p5
(dp6
S'articleText'
p7
NsS'raw'
p8
NsS'fullText'
p9
NsS'dom'
p10
S'<html b:version="2" dir="ltr" class="v2">\n  <head>\n    <meta content="IE=EmulateIE7" http-equiv="X-UA-Compatible"></meta>\n    <meta content="width=1100" name="viewport"></meta>\n    <meta content="text/html; charset=UTF-8" http-equiv="Content-Type"></meta>\n    <script type="text/javascript">\n      (function() { var a=window,b=&quot;jstiming&quot;,d=&quot;tick&quot;;var e=function(c){this.t={};this.tick=function(c,p,h){h=void 0!=h?h:(new Date).getTime();this.t[c]=[h,p]};this[d](&quot;start&quot;,null,c)},f=new e;a.jstiming={Timer:e,load:f};if(a.performance&amp;&amp;a.performance.timing){var g=a.performance.timing,j=a[b].load,k=g.navigationStart,l=g.responseStart;0&lt;k&amp;&amp;l&gt;=k&amp;&amp;(j[d](&quot;_wtsrt&quot;,void 0,k),j[d](&quot;wtsrt_&quot;,&quot;_wtsrt&quot;,l),j[d](&quot;tbsd_&quot;,&quot;wtsrt_&quot;))}\ntry{var m=null;a.chrome&amp;&amp;a.chrome.csi&amp;&amp;(m=Math.floor(a.chrome.csi().pageT),j&amp;&amp;0&lt;k&amp;&amp;(j[d](&quot;_tbnd&quot;,void 0,a.chrome.csi().startE),j[d](&quot;tbnd_&quot;,&quot;_tbnd&quot;,k)));null==m&amp;&amp;a.gtbExternal&amp;&amp;(m=a.gtbExternal.pageT());null==m&amp;&amp;a.external&amp;&amp;(m=a.external.pageT,j&amp;&amp;0&lt;k&amp;&amp;(j[d](&quot;_tbnd&quot;,void 0,a.external.startE),j[d](&quot;tbnd_&quot;,&quot;_tbnd&quot;,k)));m&amp;&amp;(a[b].pt=m)}catch(n){};a.tickAboveFold=function(c){var i=0;if(c.offsetParent){do i+=c.offsetTop;while(c=c.offsetParent)}c=i;750&gt;=c&amp;&amp;a[b].load[d](&quot;aft&quot;)};var q=!1;function r(){q||(q=!0,a[b].load[d](&quot;firstScrollTime&quot;))}a.addEventListener?a.addEventListener(&quot;scroll&quot;,r,!1):a.attachEvent(&quot;onscroll&quot;,r);\n })();\n    </script>\n    <meta content="true" name="MSSmartTagsPreventParsing"></meta>\n    <meta content="blogger" name="generator"></meta>\n    <link type="image/x-icon" rel="icon" href="http://1opinionatedwoman.blogspot.com/favicon.ico"></link>\n    <link rel="canonical" href="http://1opinionatedwoman.blogspot.com/2012/07/velocity-by-discovery-is-great-tv-for.html"></link>\n    <link href="http://1opinionatedwoman.blogspot.com/feeds/posts/default" title="One Opinionated Woman - Atom" type="application/atom+xml" rel="alternate"></link>\n    <link href="http://1opinionatedwoman.blogspot.com/feeds/posts/default?alt=rss" title="One Opinionated Woman - RSS" type="application/rss+xml" rel="alternate"></link>\n    <link href="http://www.blogger.com/feeds/4953674377944291047/posts/default" title="One Opinionated Woman - Atom" type="application/atom+xml" rel="service.post"></link>\n    <link href="http://www.blogger.com/rsd.g?blogID=4953674377944291047" title="RSD" type="application/rsd+xml" rel="EditURI"></link>\n    <link href="http://1opinionatedwoman.blogspot.com/feeds/77241029842138081/comments/default" title="One Opinionated Woman - Atom" type="application/atom+xml" rel="alternate"></link>\n    <link href="http://4.bp.blogspot.com/-kBLxT0xTpgI/UBC5h2dn5KI/AAAAAAAABWw/AnrqDM4kS5M/s72-c/Velocity_Logo_ID.jpg" rel="image_src"></link>\n    <title>One Opinionated Woman: Velocity by Discovery is great TV for automobile enthusiasts</title>\n    <script type="text/javascript">\n      if (navigator.userAgent.indexOf(\'MSIE 6\') == -1) {\n  WebFontConfig = {\n    google: { families: [ \'Calligraffitti\' ],\n    api: \'//themes.googleusercontent.com/fonts/css?kit=vLVN2Y-z65rVu1R7lWdvyIpV-QMqvBCZh8vrjY0FYwI\'\n    },\n    loading: function() {\n      if (window.jstiming) window.jstiming.load.tick(\'webfontLoading\');\n    },\n    active: function() {\n      if (window.jstiming) window.jstiming.load.tick(\'webfontActive\');\n    }\n  };\n  (function() {\n    var wf = document.createElement(\'script\');\n    wf.src = \'//ajax.googleapis.com/ajax/libs/webfont/1/webfont.js\';\n    wf.type = \'text/javascript\';\n    wf.async = \'true\';\n    var s = document.getElementsByTagName(\'script\')[0];\n    s.parentNode.insertBefore(wf, s);\n  })();\n} else {\n  document.documentElement.className = \'wf-inactive\';\n}\n    </script>\n    <style type="text/css">\n      .wf-inactive .header h1, .wf-calligraffitti-n4-loading .header h1, .wf-calligraffitti-n4-inactive .header h1 {\n  font-family: cursive;\n}\n.wf-inactive .tabs-inner .widget li a, .wf-calligraffitti-n4-loading .tabs-inner .widget li a, .wf-calligraffitti-n4-inactive .tabs-inner .widget li a {\n  font-family: cursive;\n}\n    </style>\n    <link href="//www.blogger.com/static/v1/widgets/4219271310-widget_css_2_bundle.css" rel="stylesheet" type="text/css"></link>\n    <link href="//www.blogger.com/dyn-css/authorization.css?targetBlogID=4953674377944291047&amp;zx=d0d2d544-8dff-452b-851d-11657bf1b147" rel="stylesheet" type="text/css"></link>\n    <style type="text/css" id="page-skin-1">\n      &lt;!--\n/*-----------------------------------------------\nBlogger Template Style\nName:     Picture Window\nDesigner: Josh Peterson\nURL:      www.noaesthetic.com\n----------------------------------------------- */\n/* Variable definitions\n====================\n&lt;Variable name=&quot;keycolor&quot; description=&quot;Main Color&quot; type=&quot;color&quot; default=&quot;#1a222a&quot;/&gt;\n&lt;Variable name=&quot;body.background&quot; description=&quot;Body Background&quot; type=&quot;background&quot;\ncolor=&quot;#dddddd&quot; default=&quot;#111111 url(//themes.googleusercontent.com/image?id=1OACCYOE0-eoTRTfsBuX1NMN9nz599ufI1Jh0CggPFA_sK80AGkIr8pLtYRpNUKPmwtEa) repeat-x fixed top center&quot;/&gt;\n&lt;Group description=&quot;Page Text&quot; selector=&quot;body&quot;&gt;\n&lt;Variable name=&quot;body.font&quot; description=&quot;Font&quot; type=&quot;font&quot;\ndefault=&quot;normal normal 15px Arial, Tahoma, Helvetica, FreeSans, sans-serif&quot;/&gt;\n&lt;Variable name=&quot;body.text.color&quot; description=&quot;Text Color&quot; type=&quot;color&quot; default=&quot;#333333&quot;/&gt;\n&lt;/Group&gt;\n&lt;Group description=&quot;Backgrounds&quot; selector=&quot;.body-fauxcolumns-outer&quot;&gt;\n&lt;Variable name=&quot;body.background.color&quot; description=&quot;Outer Background&quot; type=&quot;color&quot; default=&quot;#296695&quot;/&gt;\n&lt;Variable name=&quot;header.background.color&quot; description=&quot;Header Background&quot; type=&quot;color&quot; default=&quot;transparent&quot;/&gt;\n&lt;Variable name=&quot;post.background.color&quot; description=&quot;Post Background&quot; type=&quot;color&quot; default=&quot;#ffffff&quot;/&gt;\n&lt;/Group&gt;\n&lt;Group description=&quot;Links&quot; selector=&quot;.main-outer&quot;&gt;\n&lt;Variable name=&quot;link.color&quot; description=&quot;Link Color&quot; type=&quot;color&quot; default=&quot;#336699&quot;/&gt;\n&lt;Variable name=&quot;link.visited.color&quot; description=&quot;Visited Color&quot; type=&quot;color&quot; default=&quot;#6699cc&quot;/&gt;\n&lt;Variable name=&quot;link.hover.color&quot; description=&quot;Hover Color&quot; type=&quot;color&quot; default=&quot;#33aaff&quot;/&gt;\n&lt;/Group&gt;\n&lt;Group description=&quot;Blog Title&quot; selector=&quot;.header h1&quot;&gt;\n&lt;Variable name=&quot;header.font&quot; description=&quot;Title Font&quot; type=&quot;font&quot;\ndefault=&quot;normal normal 36px Arial, Tahoma, Helvetica, FreeSans, sans-serif&quot;/&gt;\n&lt;Variable name=&quot;header.text.color&quot; description=&quot;Text Color&quot; type=&quot;color&quot; default=&quot;#ffffff&quot; /&gt;\n&lt;/Group&gt;\n&lt;Group description=&quot;Tabs Text&quot; selector=&quot;.tabs-inner .widget li a&quot;&gt;\n&lt;Variable name=&quot;tabs.font&quot; description=&quot;Font&quot; type=&quot;font&quot;\ndefault=&quot;normal normal 15px Arial, Tahoma, Helvetica, FreeSans, sans-serif&quot;/&gt;\n&lt;Variable name=&quot;tabs.text.color&quot; description=&quot;Text Color&quot; type=&quot;color&quot; default=&quot;#ffffff&quot;/&gt;\n&lt;Variable name=&quot;tabs.selected.text.color&quot; description=&quot;Selected Color&quot; type=&quot;color&quot; default=&quot;#992211&quot;/&gt;\n&lt;/Group&gt;\n&lt;Group description=&quot;Tabs Background&quot; selector=&quot;.tabs-outer .PageList&quot;&gt;\n&lt;Variable name=&quot;tabs.background.color&quot; description=&quot;Background Color&quot; type=&quot;color&quot; default=&quot;transparent&quot;/&gt;\n&lt;Variable name=&quot;tabs.selected.background.color&quot; description=&quot;Selected Color&quot; type=&quot;color&quot; default=&quot;transparent&quot;/&gt;\n&lt;Variable name=&quot;tabs.separator.color&quot; description=&quot;Separator Color&quot; type=&quot;color&quot; default=&quot;transparent&quot;/&gt;\n&lt;/Group&gt;\n&lt;Group description=&quot;Post Title&quot; selector=&quot;h3.post-title, .comments h4&quot;&gt;\n&lt;Variable name=&quot;post.title.font&quot; description=&quot;Title Font&quot; type=&quot;font&quot;\ndefault=&quot;normal normal 18px Arial, Tahoma, Helvetica, FreeSans, sans-serif&quot;/&gt;\n&lt;/Group&gt;\n&lt;Group description=&quot;Date Header&quot; selector=&quot;.date-header&quot;&gt;\n&lt;Variable name=&quot;date.header.color&quot; description=&quot;Text Color&quot; type=&quot;color&quot; default=&quot;#333333&quot;/&gt;\n&lt;/Group&gt;\n&lt;Group description=&quot;Post&quot; selector=&quot;.post&quot;&gt;\n&lt;Variable name=&quot;post.footer.text.color&quot; description=&quot;Footer Text Color&quot; type=&quot;color&quot; default=&quot;#999999&quot;/&gt;\n&lt;Variable name=&quot;post.border.color&quot; description=&quot;Border Color&quot; type=&quot;color&quot; default=&quot;#dddddd&quot;/&gt;\n&lt;/Group&gt;\n&lt;Group description=&quot;Gadgets&quot; selector=&quot;h2&quot;&gt;\n&lt;Variable name=&quot;widget.title.font&quot; description=&quot;Title Font&quot; type=&quot;font&quot;\ndefault=&quot;bold normal 13px Arial, Tahoma, Helvetica, FreeSans, sans-serif&quot;/&gt;\n&lt;Variable name=&quot;widget.title.text.color&quot; description=&quot;Title Color&quot; type=&quot;color&quot; default=&quot;#888888&quot;/&gt;\n&lt;/Group&gt;\n&lt;Group description=&quot;Footer&quot; selector=&quot;.footer-outer&quot;&gt;\n&lt;Variable name=&quot;footer.text.color&quot; description=&quot;Text Color&quot; type=&quot;color&quot; default=&quot;#cccccc&quot;/&gt;\n&lt;Variable name=&quot;footer.widget.title.text.color&quot; description=&quot;Gadget Title Color&quot; type=&quot;color&quot; default=&quot;#aaaaaa&quot;/&gt;\n&lt;/Group&gt;\n&lt;Group description=&quot;Footer Links&quot; selector=&quot;.footer-outer&quot;&gt;\n&lt;Variable name=&quot;footer.link.color&quot; description=&quot;Link Color&quot; type=&quot;color&quot; default=&quot;#99ccee&quot;/&gt;\n&lt;Variable name=&quot;footer.link.visited.color&quot; description=&quot;Visited Color&quot; type=&quot;color&quot; default=&quot;#77aaee&quot;/&gt;\n&lt;Variable name=&quot;footer.link.hover.color&quot; description=&quot;Hover Color&quot; type=&quot;color&quot; default=&quot;#33aaff&quot;/&gt;\n&lt;/Group&gt;\n&lt;Variable name=&quot;content.margin&quot; description=&quot;Content Margin Top&quot; type=&quot;length&quot; default=&quot;20px&quot;/&gt;\n&lt;Variable name=&quot;content.padding&quot; description=&quot;Content Padding&quot; type=&quot;length&quot; default=&quot;0&quot;/&gt;\n&lt;Variable name=&quot;content.background&quot; description=&quot;Content Background&quot; type=&quot;background&quot;\ndefault=&quot;transparent none repeat scroll top left&quot;/&gt;\n&lt;Variable name=&quot;content.border.radius&quot; description=&quot;Content Border Radius&quot; type=&quot;length&quot; default=&quot;0&quot;/&gt;\n&lt;Variable name=&quot;content.shadow.spread&quot; description=&quot;Content Shadow Spread&quot; type=&quot;length&quot; default=&quot;0&quot;/&gt;\n&lt;Variable name=&quot;header.padding&quot; description=&quot;Header Padding&quot; type=&quot;length&quot; default=&quot;0&quot;/&gt;\n&lt;Variable name=&quot;header.background.gradient&quot; description=&quot;Header Gradient&quot; type=&quot;url&quot;\ndefault=&quot;none&quot;/&gt;\n&lt;Variable name=&quot;header.border.radius&quot; description=&quot;Header Border Radius&quot; type=&quot;length&quot; default=&quot;0&quot;/&gt;\n&lt;Variable name=&quot;main.border.radius.top&quot; description=&quot;Main Border Radius&quot; type=&quot;length&quot; default=&quot;20px&quot;/&gt;\n&lt;Variable name=&quot;footer.border.radius.top&quot; description=&quot;Footer Border Radius Top&quot; type=&quot;length&quot; default=&quot;0&quot;/&gt;\n&lt;Variable name=&quot;footer.border.radius.bottom&quot; description=&quot;Footer Border Radius Bottom&quot; type=&quot;length&quot; default=&quot;20px&quot;/&gt;\n&lt;Variable name=&quot;region.shadow.spread&quot; description=&quot;Main and Footer Shadow Spread&quot; type=&quot;length&quot; default=&quot;3px&quot;/&gt;\n&lt;Variable name=&quot;region.shadow.offset&quot; description=&quot;Main and Footer Shadow Offset&quot; type=&quot;length&quot; default=&quot;1px&quot;/&gt;\n&lt;Variable name=&quot;tabs.background.gradient&quot; description=&quot;Tab Background Gradient&quot; type=&quot;url&quot; default=&quot;none&quot;/&gt;\n&lt;Variable name=&quot;tab.selected.background.gradient&quot; description=&quot;Selected Tab Background&quot; type=&quot;url&quot;\ndefault=&quot;url(//www.blogblog.com/1kt/transparent/white80.png)&quot;/&gt;\n&lt;Variable name=&quot;tab.background&quot; description=&quot;Tab Background&quot; type=&quot;background&quot;\ndefault=&quot;transparent url(//www.blogblog.com/1kt/transparent/black50.png) repeat scroll top left&quot;/&gt;\n&lt;Variable name=&quot;tab.border.radius&quot; description=&quot;Tab Border Radius&quot; type=&quot;length&quot; default=&quot;10px&quot; /&gt;\n&lt;Variable name=&quot;tab.first.border.radius&quot; description=&quot;First Tab Border Radius&quot; type=&quot;length&quot; default=&quot;10px&quot; /&gt;\n&lt;Variable name=&quot;tabs.border.radius&quot; description=&quot;Tabs Border Radius&quot; type=&quot;length&quot; default=&quot;0&quot; /&gt;\n&lt;Variable name=&quot;tabs.spacing&quot; description=&quot;Tab Spacing&quot; type=&quot;length&quot; default=&quot;.25em&quot;/&gt;\n&lt;Variable name=&quot;tabs.margin.bottom&quot; description=&quot;Tab Margin Bottom&quot; type=&quot;length&quot; default=&quot;0&quot;/&gt;\n&lt;Variable name=&quot;tabs.margin.sides&quot; description=&quot;Tab Margin Sides&quot; type=&quot;length&quot; default=&quot;20px&quot;/&gt;\n&lt;Variable name=&quot;main.background&quot; description=&quot;Main Background&quot; type=&quot;background&quot;\ndefault=&quot;transparent url(//www.blogblog.com/1kt/transparent/white80.png) repeat scroll top left&quot;/&gt;\n&lt;Variable name=&quot;main.padding.sides&quot; description=&quot;Main Padding Sides&quot; type=&quot;length&quot; default=&quot;20px&quot;/&gt;\n&lt;Variable name=&quot;footer.background&quot; description=&quot;Footer Background&quot; type=&quot;background&quot;\ndefault=&quot;transparent url(//www.blogblog.com/1kt/transparent/black50.png) repeat scroll top left&quot;/&gt;\n&lt;Variable name=&quot;post.margin.sides&quot; description=&quot;Post Margin Sides&quot; type=&quot;length&quot; default=&quot;-20px&quot;/&gt;\n&lt;Variable name=&quot;post.border.radius&quot; description=&quot;Post Border Radius&quot; type=&quot;length&quot; default=&quot;5px&quot;/&gt;\n&lt;Variable name=&quot;widget.title.text.transform&quot; description=&quot;Widget Title Text Transform&quot; type=&quot;string&quot; default=&quot;uppercase&quot;/&gt;\n&lt;Variable name=&quot;mobile.background.overlay&quot; description=&quot;Mobile Background Overlay&quot; type=&quot;string&quot;\ndefault=&quot;transparent none repeat scroll top left&quot;/&gt;\n&lt;Variable name=&quot;startSide&quot; description=&quot;Side where text starts in blog language&quot; type=&quot;automatic&quot; default=&quot;left&quot;/&gt;\n&lt;Variable name=&quot;endSide&quot; description=&quot;Side where text ends in blog language&quot; type=&quot;automatic&quot; default=&quot;right&quot;/&gt;\n*/\n/* Content\n----------------------------------------------- */\nbody {\nfont: normal normal 15px Arial, Tahoma, Helvetica, FreeSans, sans-serif;\ncolor: #333333;\nbackground: #dddddd url(http://4.bp.blogspot.com/-M9xeD9qKMkM/T7q0a_lYskI/AAAAAAAABHA/V4K1CiuLx-k/s0/Mayaro2Twitter.jpg) repeat fixed top left;\n}\nhtml body .region-inner {\nmin-width: 0;\nmax-width: 100%;\nwidth: auto;\n}\n.content-outer {\nfont-size: 90%;\n}\na:link {\ntext-decoration:none;\ncolor: #992211;\n}\na:visited {\ntext-decoration:none;\ncolor: #771000;\n}\na:hover {\ntext-decoration:underline;\ncolor: #cc4411;\n}\n.content-outer {\nbackground: transparent url(http://www.blogblog.com/1kt/transparent/white80.png) repeat scroll top left;\n-moz-border-radius: 15px;\n-webkit-border-radius: 15px;\n-goog-ms-border-radius: 15px;\nborder-radius: 15px;\n-moz-box-shadow: 0 0 3px rgba(0, 0, 0, .15);\n-webkit-box-shadow: 0 0 3px rgba(0, 0, 0, .15);\n-goog-ms-box-shadow: 0 0 3px rgba(0, 0, 0, .15);\nbox-shadow: 0 0 3px rgba(0, 0, 0, .15);\nmargin: 30px auto;\n}\n.content-inner {\npadding: 15px;\n}\n/* Header\n----------------------------------------------- */\n.header-outer {\nbackground: #992211 url(http://www.blogblog.com/1kt/transparent/header_gradient_shade.png) repeat-x scroll top left;\n_background-image: none;\ncolor: #ffffff;\n-moz-border-radius: 10px;\n-webkit-border-radius: 10px;\n-goog-ms-border-radius: 10px;\nborder-radius: 10px;\n}\n.Header img, .Header #header-inner {\n-moz-border-radius: 10px;\n-webkit-border-radius: 10px;\n-goog-ms-border-radius: 10px;\nborder-radius: 10px;\n}\n.header-inner .Header .titlewrapper,\n.header-inner .Header .descriptionwrapper {\npadding-left: 30px;\npadding-right: 30px;\n}\n.Header h1 {\nfont: normal bold 50px Calligraffitti;\ntext-shadow: 1px 1px 3px rgba(0, 0, 0, 0.3);\n}\n.Header h1 a {\ncolor: #ffffff;\n}\n.Header .description {\nfont-size: 130%;\n}\n/* Tabs\n----------------------------------------------- */\n.tabs-inner {\nmargin: .5em 0 0;\npadding: 0;\n}\n.tabs-inner .section {\nmargin: 0;\n}\n.tabs-inner .widget ul {\npadding: 0;\nbackground: #f5f5f5 url(http://www.blogblog.com/1kt/transparent/tabs_gradient_shade.png) repeat scroll bottom;\n-moz-border-radius: 10px;\n-webkit-border-radius: 10px;\n-goog-ms-border-radius: 10px;\nborder-radius: 10px;\n}\n.tabs-inner .widget li {\nborder: none;\n}\n.tabs-inner .widget li a {\ndisplay: inline-block;\npadding: .5em 1em;\nmargin-right: 0;\ncolor: #992211;\nfont: normal bold 14px Calligraffitti;\n-moz-border-radius: 0 0 0 0;\n-webkit-border-top-left-radius: 0;\n-webkit-border-top-right-radius: 0;\n-goog-ms-border-radius: 0 0 0 0;\nborder-radius: 0 0 0 0;\nbackground: transparent none no-repeat scroll top left;\nborder-right: 1px solid #cccccc;\n}\n.tabs-inner .widget li:first-child a {\npadding-left: 1.25em;\n-moz-border-radius-topleft: 10px;\n-moz-border-radius-bottomleft: 10px;\n-webkit-border-top-left-radius: 10px;\n-webkit-border-bottom-left-radius: 10px;\n-goog-ms-border-top-left-radius: 10px;\n-goog-ms-border-bottom-left-radius: 10px;\nborder-top-left-radius: 10px;\nborder-bottom-left-radius: 10px;\n}\n.tabs-inner .widget li.selected a,\n.tabs-inner .widget li a:hover {\nposition: relative;\nz-index: 1;\nbackground: #ffffff url(http://www.blogblog.com/1kt/transparent/tabs_gradient_shade.png) repeat scroll bottom;\ncolor: #000000;\n-moz-box-shadow: 0 0 0 rgba(0, 0, 0, .15);\n-webkit-box-shadow: 0 0 0 rgba(0, 0, 0, .15);\n-goog-ms-box-shadow: 0 0 0 rgba(0, 0, 0, .15);\nbox-shadow: 0 0 0 rgba(0, 0, 0, .15);\n}\n/* Headings\n----------------------------------------------- */\nh2 {\nfont: bold normal 13px Arial, Tahoma, Helvetica, FreeSans, sans-serif;\ntext-transform: uppercase;\ncolor: #666666;\nmargin: .5em 0;\n}\n/* Main\n----------------------------------------------- */\n.main-outer {\nbackground: transparent none repeat scroll top center;\n-moz-border-radius: 0 0 0 0;\n-webkit-border-top-left-radius: 0;\n-webkit-border-top-right-radius: 0;\n-webkit-border-bottom-left-radius: 0;\n-webkit-border-bottom-right-radius: 0;\n-goog-ms-border-radius: 0 0 0 0;\nborder-radius: 0 0 0 0;\n-moz-box-shadow: 0 0 0 rgba(0, 0, 0, .15);\n-webkit-box-shadow: 0 0 0 rgba(0, 0, 0, .15);\n-goog-ms-box-shadow: 0 0 0 rgba(0, 0, 0, .15);\nbox-shadow: 0 0 0 rgba(0, 0, 0, .15);\n}\n.main-inner {\npadding: 15px 5px 20px;\n}\n.main-inner .column-center-inner {\npadding: 0 0;\n}\n.main-inner .column-left-inner {\npadding-left: 0;\n}\n.main-inner .column-right-inner {\npadding-right: 0;\n}\n/* Posts\n----------------------------------------------- */\nh3.post-title {\nmargin: 0;\nfont: italic bold 28px Arial, Tahoma, Helvetica, FreeSans, sans-serif;\n}\n.comments h4 {\nmargin: 1em 0 0;\nfont: italic bold 28px Arial, Tahoma, Helvetica, FreeSans, sans-serif;\n}\n.date-header span {\ncolor: #333333;\n}\n.post-outer {\nbackground-color: #ffffff;\nborder: solid 1px #dddddd;\n-moz-border-radius: 10px;\n-webkit-border-radius: 10px;\nborder-radius: 10px;\n-goog-ms-border-radius: 10px;\npadding: 15px 20px;\nmargin: 0 -20px 20px;\n}\n.post-body {\nline-height: 1.4;\nfont-size: 110%;\nposition: relative;\n}\n.post-header {\nmargin: 0 0 1.5em;\ncolor: #999999;\nline-height: 1.6;\n}\n.post-footer {\nmargin: .5em 0 0;\ncolor: #999999;\nline-height: 1.6;\n}\n#blog-pager {\nfont-size: 140%\n}\n#comments .comment-author {\npadding-top: 1.5em;\nborder-top: dashed 1px #ccc;\nborder-top: dashed 1px rgba(128, 128, 128, .5);\nbackground-position: 0 1.5em;\n}\n#comments .comment-author:first-child {\npadding-top: 0;\nborder-top: none;\n}\n.avatar-image-container {\nmargin: .2em 0 0;\n}\n/* Comments\n----------------------------------------------- */\n.comments .comments-content .icon.blog-author {\nbackground-repeat: no-repeat;\nbackground-image: url(data:image/png;base64,iVBORw0KGgoAAAANSUhEUgAAABIAAAASCAYAAABWzo5XAAAAAXNSR0IArs4c6QAAAAZiS0dEAP8A/wD/oL2nkwAAAAlwSFlzAAALEgAACxIB0t1+/AAAAAd0SU1FB9sLFwMeCjjhcOMAAAD+SURBVDjLtZSvTgNBEIe/WRRnm3U8RC1neQdsm1zSBIU9VVF1FkUguQQsD9ITmD7ECZIJSE4OZo9stoVjC/zc7ky+zH9hXwVwDpTAWWLrgS3QAe8AZgaAJI5zYAmc8r0G4AHYHQKVwII8PZrZFsBFkeRCABYiMh9BRUhnSkPTNCtVXYXURi1FpBDgArj8QU1eVXUzfnjv7yP7kwu1mYrkWlU33vs1QNu2qU8pwN0UpKoqokjWwCztrMuBhEhmh8bD5UDqur75asbcX0BGUB9/HAMB+r32hznJgXy2v0sGLBcyAJ1EK3LFcbo1s91JeLwAbwGYu7TP/3ZGfnXYPgAVNngtqatUNgAAAABJRU5ErkJggg==);\n}\n.comments .comments-content .loadmore a {\nborder-top: 1px solid #cc4411;\nborder-bottom: 1px solid #cc4411;\n}\n.comments .continue {\nborder-top: 2px solid #cc4411;\n}\n/* Widgets\n----------------------------------------------- */\n.widget ul, .widget #ArchiveList ul.flat {\npadding: 0;\nlist-style: none;\n}\n.widget ul li, .widget #ArchiveList ul.flat li {\nborder-top: dashed 1px #ccc;\nborder-top: dashed 1px rgba(128, 128, 128, .5);\n}\n.widget ul li:first-child, .widget #ArchiveList ul.flat li:first-child {\nborder-top: none;\n}\n.widget .post-body ul {\nlist-style: disc;\n}\n.widget .post-body ul li {\nborder: none;\n}\n/* Footer\n----------------------------------------------- */\n.footer-outer {\ncolor:#eeeeee;\nbackground: transparent url(//www.blogblog.com/1kt/transparent/black50.png) repeat scroll top left;\n-moz-border-radius: 10px 10px 10px 10px;\n-webkit-border-top-left-radius: 10px;\n-webkit-border-top-right-radius: 10px;\n-webkit-border-bottom-left-radius: 10px;\n-webkit-border-bottom-right-radius: 10px;\n-goog-ms-border-radius: 10px 10px 10px 10px;\nborder-radius: 10px 10px 10px 10px;\n-moz-box-shadow: 0 0 0 rgba(0, 0, 0, .15);\n-webkit-box-shadow: 0 0 0 rgba(0, 0, 0, .15);\n-goog-ms-box-shadow: 0 0 0 rgba(0, 0, 0, .15);\nbox-shadow: 0 0 0 rgba(0, 0, 0, .15);\n}\n.footer-inner {\npadding: 10px 5px 20px;\n}\n.footer-outer a {\ncolor: #ffffdd;\n}\n.footer-outer a:visited {\ncolor: #cccc99;\n}\n.footer-outer a:hover {\ncolor: #ffffff;\n}\n.footer-outer .widget h2 {\ncolor: #bbbbbb;\n}\n/* Mobile\n----------------------------------------------- */\nhtml body.mobile {\nheight: auto;\n}\nhtml body.mobile {\nmin-height: 480px;\nbackground-size: 100% auto;\n}\n.mobile .body-fauxcolumn-outer {\nbackground: transparent none repeat scroll top left;\n}\nhtml .mobile .mobile-date-outer, html .mobile .blog-pager {\nborder-bottom: none;\nbackground: transparent none repeat scroll top center;\nmargin-bottom: 10px;\n}\n.mobile .date-outer {\nbackground: transparent none repeat scroll top center;\n}\n.mobile .header-outer, .mobile .main-outer,\n.mobile .post-outer, .mobile .footer-outer {\n-moz-border-radius: 0;\n-webkit-border-radius: 0;\n-goog-ms-border-radius: 0;\nborder-radius: 0;\n}\n.mobile .content-outer,\n.mobile .main-outer,\n.mobile .post-outer {\nbackground: inherit;\nborder: none;\n}\n.mobile .content-outer {\nfont-size: 100%;\n}\n.mobile-link-button {\nbackground-color: #992211;\n}\n.mobile-link-button a:link, .mobile-link-button a:visited {\ncolor: #ffffff;\n}\n.mobile-index-contents {\ncolor: #333333;\n}\n.mobile .tabs-inner .PageList .widget-content {\nbackground: #ffffff url(http://www.blogblog.com/1kt/transparent/tabs_gradient_shade.png) repeat scroll bottom;\ncolor: #000000;\n}\n.mobile .tabs-inner .PageList .widget-content .pagelist-arrow {\nborder-left: 1px solid #cccccc;\n}\n\n--&gt;\n    </style>\n    <style type="text/css" id="template-skin-1">\n      &lt;!--\nbody {\nmin-width: 1260px;\n}\n.content-outer, .content-fauxcolumn-outer, .region-inner {\nmin-width: 1260px;\nmax-width: 1260px;\n_width: 1260px;\n}\n.main-inner .columns {\npadding-left: 0;\npadding-right: 320px;\n}\n.main-inner .fauxcolumn-center-outer {\nleft: 0;\nright: 320px;\n/* IE6 does not respect left and right together */\n_width: expression(this.parentNode.offsetWidth -\nparseInt(&quot;0&quot;) -\nparseInt(&quot;320px&quot;) + \'px\');\n}\n.main-inner .fauxcolumn-left-outer {\nwidth: 0;\n}\n.main-inner .fauxcolumn-right-outer {\nwidth: 320px;\n}\n.main-inner .column-left-outer {\nwidth: 0;\nright: 100%;\nmargin-left: -0;\n}\n.main-inner .column-right-outer {\nwidth: 320px;\nmargin-right: -320px;\n}\n#layout {\nmin-width: 0;\n}\n#layout .content-outer {\nmin-width: 0;\nwidth: 800px;\n}\n#layout .region-inner {\nmin-width: 0;\nwidth: auto;\n}\n--&gt;\n    </style>\n    <script type="text/javascript">\n      var a=navigator,b=&quot;userAgent&quot;,c=&quot;indexOf&quot;,f=&quot;&amp;m=1&quot;,g=&quot;(^|&amp;)m=&quot;,h=&quot;?&quot;,i=&quot;?m=1&quot;;function j(){var d=window.location.href,e=d.split(h);switch(e.length){case 1:return d+i;case 2:return 0&lt;=e[1].search(g)?null:d+f;default:return null}}if(-1!=a[b][c](&quot;Mobile&quot;)&amp;&amp;-1!=a[b][c](&quot;WebKit&quot;)&amp;&amp;-1==a[b][c](&quot;iPad&quot;)||-1!=a[b][c](&quot;Opera Mini&quot;)||-1!=a[b][c](&quot;IEMobile&quot;)){var k=j();k&amp;&amp;window.location.replace(k)};\n    </script>\n    <script type="text/javascript"> if (window.jstiming) window.jstiming.load.tick(\'headEnd\'); </script>\n  </head>\n  <body class="loading">\n    <div id="navbar" class="navbar section">\n      <div id="Navbar1" class="widget Navbar">\n        <script type="text/javascript"> function setAttributeOnload(object, attribute, val) { if(window.addEventListener) { window.addEventListener(\'load\', function(){ object[attribute] = val; }, false); } else { window.attachEvent(\'onload\', function(){ object[attribute] = val; }); } } </script>\n        <div id="navbar-iframe-container"></div>\n        <script src="https://apis.google.com/js/plusone.js" type="text/javascript"></script>\n        <script type="text/javascript">\n          gapi.load(&quot;iframes-styles-bubble&quot;, function() {\n          if (window.iframes &amp;&amp; iframes.open) {\n            iframes.open(\n                \'//www.blogger.com/navbar.g?targetBlogID\\0754953674377944291047\\46blogName\\75One+Opinionated+Woman\\46publishMode\\75PUBLISH_MODE_BLOGSPOT\\46navbarType\\75LIGHT\\46layoutType\\75LAYOUTS\\46searchRoot\\75http://1opinionatedwoman.blogspot.com/search\\46blogLocale\\75en\\46v\\0752\\46homepageUrl\\75http://1opinionatedwoman.blogspot.com/\\46targetPostID\\07577241029842138081\\46blogPostOrPageUrl\\75http://1opinionatedwoman.blogspot.com/2012/07/velocity-by-discovery-is-great-tv-for.html\\46vt\\75-7009067685945340379\',\n                {\n                  container: &quot;navbar-iframe-container&quot;,\n                  id: &quot;navbar-iframe&quot;\n                },\n                {\n                });\n          }\n        });\n        </script>\n        <script type="text/javascript">\n          (function() {\nvar script = document.createElement(\'script\');\nscript.type = \'text/javascript\';\nscript.src = \'//pagead2.googlesyndication.com/pagead/js/google_top_exp.js\';\nvar head = document.getElementsByTagName(\'head\')[0];\nif (head) {\nhead.appendChild(script);\n}})();\n        </script>\n      </div>\n    </div>\n    <div class="body-fauxcolumns">\n      <div class="fauxcolumn-outer body-fauxcolumn-outer">\n        <div class="cap-top">\n          <div class="cap-left"></div>\n          <div class="cap-right"></div>\n        </div>\n        <div class="fauxborder-left">\n          <div class="fauxborder-right"></div>\n          <div class="fauxcolumn-inner"> </div>\n        </div>\n        <div class="cap-bottom">\n          <div class="cap-left"></div>\n          <div class="cap-right"></div>\n        </div>\n      </div>\n    </div>\n    <div class="content">\n      <div class="content-fauxcolumns">\n        <div class="fauxcolumn-outer content-fauxcolumn-outer">\n          <div class="cap-top">\n            <div class="cap-left"></div>\n            <div class="cap-right"></div>\n          </div>\n          <div class="fauxborder-left">\n            <div class="fauxborder-right"></div>\n            <div class="fauxcolumn-inner"> </div>\n          </div>\n          <div class="cap-bottom">\n            <div class="cap-left"></div>\n            <div class="cap-right"></div>\n          </div>\n        </div>\n      </div>\n      <div class="content-outer">\n        <div class="content-cap-top cap-top">\n          <div class="cap-left"></div>\n          <div class="cap-right"></div>\n        </div>\n        <div class="fauxborder-left content-fauxborder-left">\n          <div class="fauxborder-right content-fauxborder-right"></div>\n          <div class="content-inner">\n            <header>\n              <div class="header-outer">\n                <div class="header-cap-top cap-top">\n                  <div class="cap-left"></div>\n                  <div class="cap-right"></div>\n                </div>\n                <div class="fauxborder-left header-fauxborder-left">\n                  <div class="fauxborder-right header-fauxborder-right"></div>\n                  <div class="region-inner header-inner">\n                    <div id="header" class="header section">\n                      <div id="Header1" class="widget Header">\n                        <div id="header-inner">\n                          <div class="titlewrapper">\n                            <h1 class="title">\n                              <a href="http://1opinionatedwoman.blogspot.com/" shape="rect">One Opinionated Woman</a>\n                            </h1>\n                          </div>\n                          <div class="descriptionwrapper">\n                            <p class="description">\n                              <span>This Christian, Caribbean, Renaissance chick takes no prisoners and has no filters on fitness, food and fast cars.</span>\n                            </p>\n                          </div>\n                        </div>\n                      </div>\n                    </div>\n                  </div>\n                </div>\n                <div class="header-cap-bottom cap-bottom">\n                  <div class="cap-left"></div>\n                  <div class="cap-right"></div>\n                </div>\n              </div>\n            </header>\n            <div class="tabs-outer">\n              <div class="tabs-cap-top cap-top">\n                <div class="cap-left"></div>\n                <div class="cap-right"></div>\n              </div>\n              <div class="fauxborder-left tabs-fauxborder-left">\n                <div class="fauxborder-right tabs-fauxborder-right"></div>\n                <div class="region-inner tabs-inner">\n                  <div id="crosscol" class="tabs section">\n                    <div id="PageList1" class="widget PageList">\n                      <h2>Pages</h2>\n                      <div class="widget-content">\n                        <ul>\n                          <li>\n                            <a href="http://1opinionatedwoman.blogspot.com/" shape="rect">The Latest</a>\n                          </li>\n                          <li>\n                            <a href="http://1opinionatedwoman.blogspot.com/p/my-fitness-revolution.html" shape="rect">My Fitness Revolution</a>\n                          </li>\n                          <li>\n                            <a href="http://1opinionatedwoman.blogspot.com/p/from-spain-with-love.html" shape="rect">From Spain With Love</a>\n                          </li>\n                          <li>\n                            <a href="http://1opinionatedwoman.blogspot.com/p/top-gear-on-history.html" shape="rect">Top Gear on History</a>\n                          </li>\n                          <li>\n                            <a href="http://1opinionatedwoman.blogspot.com/p/whos-this-woman.html" shape="rect">Who\'s this woman?</a>\n                          </li>\n                        </ul>\n                        <div class="clear"></div>\n                        <span class="widget-item-control">\n                          <span class="item-control blog-admin">\n                            <a \n                            title="Edit" target="configPageList1" onclick="return _WidgetManager._PopupConfig(document.getElementById(&quot;PageList1&quot;));" href="//www.blogger.com/rearrange?blogID=4953674377944291047&amp;widgetType=PageList&amp;widgetId=PageList1&amp;action=editWidget&amp;sectionId=crosscol" class="quickedit" shape="rect">\n                              <img width="18" src="http://img1.blogblog.com/img/icon18_wrench_allbkg.png" height="18" alt=""></img>\n</a>\n                          </span>\n                        </span>\n                        <div class="clear"></div>\n                      </div>\n                    </div>\n                  </div>\n                  <div id="crosscol-overflow" class="tabs section"></div>\n                </div>\n              </div>\n              <div class="tabs-cap-bottom cap-bottom">\n                <div class="cap-left"></div>\n                <div class="cap-right"></div>\n              </div>\n            </div>\n            <div class="main-outer">\n              <div class="main-cap-top cap-top">\n                <div class="cap-left"></div>\n                <div class="cap-right"></div>\n              </div>\n              <div class="fauxborder-left main-fauxborder-left">\n                <div class="fauxborder-right main-fauxborder-right"></div>\n                <div class="region-inner main-inner">\n                  <div class="columns fauxcolumns">\n                    <div class="fauxcolumn-outer fauxcolumn-center-outer">\n                      <div class="cap-top">\n                        <div class="cap-left"></div>\n                        <div class="cap-right"></div>\n                      </div>\n                      <div class="fauxborder-left">\n                        <div class="fauxborder-right"></div>\n                        <div class="fauxcolumn-inner"> </div>\n                      </div>\n                      <div class="cap-bottom">\n                        <div class="cap-left"></div>\n                        <div class="cap-right"></div>\n                      </div>\n                    </div>\n                    <div class="fauxcolumn-outer fauxcolumn-left-outer">\n                      <div class="cap-top">\n                        <div class="cap-left"></div>\n                        <div class="cap-right"></div>\n                      </div>\n                      <div class="fauxborder-left">\n                        <div class="fauxborder-right"></div>\n                        <div class="fauxcolumn-inner"> </div>\n                      </div>\n                      <div class="cap-bottom">\n                        <div class="cap-left"></div>\n                        <div class="cap-right"></div>\n                      </div>\n                    </div>\n                    <div class="fauxcolumn-outer fauxcolumn-right-outer">\n                      <div class="cap-top">\n                        <div class="cap-left"></div>\n                        <div class="cap-right"></div>\n                      </div>\n                      <div class="fauxborder-left">\n                        <div class="fauxborder-right"></div>\n                        <div class="fauxcolumn-inner"> </div>\n                      </div>\n                      <div class="cap-bottom">\n                        <div class="cap-left"></div>\n                        <div class="cap-right"></div>\n                      </div>\n                    </div>\n                    <div class="columns-inner">\n                      <div class="column-center-outer">\n                        <div class="column-center-inner">\n                          <div id="main" class="main section">\n                            <div id="Blog1" class="widget Blog">\n                              <div class="blog-posts hfeed">\n                                <div class="date-outer">\n                                  <h2 class="date-header">\n                                    <span>Wednesday, July 25, 2012</span>\n                                  </h2>\n                                  <div class="date-posts">\n                                    <div class="post-outer">\n                                      <div itemtype="http://schema.org/BlogPosting" itemscope="itemscope" class="post hentry"> </div>\n                                    </div>\n                                  </div>\n                                </div>\n                              </div>\n                            </div>\n                          </div>\n                        </div>\n                      </div>\n                    </div>\n                  </div>\n                </div>\n              </div>\n            </div>\n          </div>\n        </div>\n      </div>\n    </div>\n  </body>\n  <head>\n    <meta itemprop="image_url" content="http://4.bp.blogspot.com/-kBLxT0xTpgI/UBC5h2dn5KI/AAAAAAAABWw/AnrqDM4kS5M/s72-c/Velocity_Logo_ID.jpg"></meta>\n  </head>\n  <body>\n    <a name="77241029842138081" shape="rect"></a>\n    <h3 itemprop="name" class="post-title entry-title"> Velocity by Discovery is great TV for automobile enthusiasts </h3>\n    <div class="post-header">\n      <div class="post-header-line-1"></div>\n    </div>\n    <div itemprop="description articleBody" id="post-body-77241029842138081" class="post-body entry-content">\n      <br clear="none"></br>\n      <div style="clear: both; text-align: center;" class="separator"> </div>\n      <div style="clear: both; text-align: center;" class="separator">\n        <a style="clear: left; float: left; margin-bottom: 1em; margin-right: 1em;" imageanchor="1" href="http://4.bp.blogspot.com/-kBLxT0xTpgI/UBC5h2dn5KI/AAAAAAAABWw/AnrqDM4kS5M/s1600/Velocity_Logo_ID.jpg" shape="rect">\n          <img width="320" src="http://4.bp.blogspot.com/-kBLxT0xTpgI/UBC5h2dn5KI/AAAAAAAABWw/AnrqDM4kS5M/s320/Velocity_Logo_ID.jpg" height="179" border="0"></img>\n        </a>\n      </div>\n      <div style="text-align: justify; text-justify: inter-ideograph;" class="MsoNormal">\n        Gearheads,\nmotorheads, petrolheads, car nuts, grease monkeys, etc. are all nicknames for\nautomobile enthusiasts.\xc2\xa0 However, this\ngroup is as diverse as its many monikers.\xc2\xa0\nRace fans are not always classic car buffs.\xc2\xa0 Some Formula 1 fans couldn\xe2\x80\x99t care less about\n        <a href="http://www.alms.com/" shape="rect">ALMS</a>\n        . Those who love restorations don\xe2\x80\x99t always\nlike customisation.\xc2\xa0 It really is a\nmatter of different strokes for different folks.\xc2\xa0 By extension, a number of television channels\ntry to capture that market but only two have dedicated their entire schedules\nto all things automotive:\n        <a href="http://www.speedtv.com/" shape="rect">SPEED</a>\n        and\n        <a href="http://velocity.discovery.com/videos/" shape="rect">Velocity</a>\n        .\xc2\xa0 I\xe2\x80\x99d like to tell you more about the latter.\xc2\xa0 One may not ordinarily associate\n        <a href="http://dsc.discovery.com/" shape="rect">Discovery Channel</a>\n        with car culture.\xc2\xa0 However in the mid-2000\xe2\x80\x99s two shows captured\nthe attention of those who claim to have petrol in their veins.\xc2\xa0 It was the Tuesday night combination of\n        <a href="http://overhaulin.tv/" shape="rect">Overhaulin\xe2\x80\x99</a>\n        and\n        <a href="http://en.wikipedia.org/wiki/Rides_(American_TV_series)" shape="rect">Rides</a>\n        .\xc2\xa0 Now Velocity has a slew of shows including\nthese two that should satiate any car lover\xe2\x80\x99s appetite, except for\n        <a href="http://en.wikipedia.org/wiki/World_Poker_Tour" shape="rect">World Poker Tour Season 8</a>\n        .\xc2\xa0 I\xe2\x80\x99m not too sure what that\xe2\x80\x99s doing there but whatever.\xc2\xa0 Here are some of the shows that I\xe2\x80\x99ve seen,\nenjoyed and encourage you to check out.\n      </div>\n      <div style="text-align: justify; text-justify: inter-ideograph;" class="MsoNormal">\n        <br clear="none"></br>\n      </div>\n      <div style="text-align: justify; text-justify: inter-ideograph;" class="MsoNormal">\n        <span style="font-size: 14pt;">\n          <a href="http://velocity.discovery.com/videos/inside-west-coast-customs/" shape="rect">\n            <b>\n              <i>Inside West Coast Customs</i>\n            </b>\n          </a>\n          <b>\n            <i>\n              <o:p></o:p>\n            </i>\n          </b>\n        </span>\n      </div>\n      <div style="clear: both; text-align: center;" class="separator">\n        <a style="clear: right; float: right; margin-bottom: 1em; margin-left: 1em;" imageanchor="1" href="http://2.bp.blogspot.com/-Y5oXFiYYM9E/UBC5m8f5qUI/AAAAAAAABW4/HjWMjX8kWiQ/s1600/wcc-01.jpg" shape="rect">\n          <img width="200" src="http://2.bp.blogspot.com/-Y5oXFiYYM9E/UBC5m8f5qUI/AAAAAAAABW4/HjWMjX8kWiQ/s200/wcc-01.jpg" height="143" border="0"></img>\n        </a>\n      </div>\n      <div style="text-align: justify; text-justify: inter-ideograph;" class="MsoNormal">\n        I\nfirst learned about\n        <a href="http://www.westcoastcustoms.com/" shape="rect">West Coast Customs</a>\n        and its intrepid founder, Ryan Friedlinghaus from\n        <a href="http://www.mtv.com/shows/pimp_my_ride/season_5/series.jhtml" shape="rect">MTV\xe2\x80\x99s Pimp My Ride</a>\n        .\xc2\xa0 The transformations were\nastounding even though I didn\xe2\x80\x99t care for the\n        <i>excessive</i>\n        use of chrome.\xc2\xa0 On\nthis show, which is incarnated from TLC\xe2\x80\x99s\n        <a href="http://tlc.discovery.com/tv/street-customs/" shape="rect">Street Customs</a>\n        , we see\nhow the company has grown.\xc2\xa0 This series\nfocuses more on their corporate jobs and elite clients like Virgin, Nintendo\nand DC Shoes.\xc2\xa0 In addition to some really\njaw-dropping work, they\xe2\x80\x99ve also eliminated a good deal of the drama that\noccupied too much time in the previous series. \xc2\xa0Every job has drama.\xc2\xa0 Parts don\xe2\x80\x99t always arrive on time.\xc2\xa0 A contractor started or finished their task\nlate.\xc2\xa0 Power outages, equipment failure,\na customer making last-minutes changes or requests all put the deadline in\njeopardy.\xc2\xa0 Nothing irritates me more than\nan episode that devotes up to ten minutes for two grown dudes screaming at each\nother over tools, paperwork or women.\xc2\xa0\nMost of that stuff seems staged and diminishes the show\xe2\x80\x99s authenticity.\xc2\xa0 Still, it\xe2\x80\x99s the only problem I have with the\nshow and I enjoy it in spite of that.\n      </div>\n      <div style="text-align: justify; text-justify: inter-ideograph;" class="MsoNormal">\n        <br clear="none"></br>\n      </div>\n      <div style="text-align: justify; text-justify: inter-ideograph;" class="MsoNormal">\n        <span style="font-size: 14pt;">\n          <a href="http://velocity.discovery.com/videos/chasing-classic-cars/" shape="rect">\n            <b>\n              <i>Chasing Classic Cars</i>\n            </b>\n          </a>\n          <b>\n            <i>\n              <u>\n                <o:p></o:p>\n              </u>\n            </i>\n          </b>\n        </span>\n      </div>\n      <div style="clear: both; text-align: center;" class="separator">\n        <a style="clear: left; float: left; margin-bottom: 1em; margin-right: 1em;" imageanchor="1" href="http://4.bp.blogspot.com/-Uskmz2UcSjQ/UBC5uvNwp3I/AAAAAAAABXA/59tEjRM4r0U/s1600/Chasing+Classic+Cars.jpg" shape="rect">\n          <img width="200" src="http://4.bp.blogspot.com/-Uskmz2UcSjQ/UBC5uvNwp3I/AAAAAAAABXA/59tEjRM4r0U/s200/Chasing+Classic+Cars.jpg" height="170" border="0"></img>\n        </a>\n      </div>\n      <div style="text-align: justify; text-justify: inter-ideograph;" class="MsoNormal">\n        Hosted\nby\n        <a href="http://www.f40.com/page.php?page=Meet_Wayne_Carini" shape="rect">Wayne Carini</a>\n        ,\nviewers follow him as he buys, restores and sells classic cars at high-end auctions\nacross the US for himself and private owners.\xc2\xa0\nEvery episode chronicles the entire process and usually he walks away\nhappy.\xc2\xa0 Usually.\xc2\xa0 Carini has an easy-going style that\ntranslates well to the screen although he\xe2\x80\x99s clearly not a TV personality.\xc2\xa0 He\xe2\x80\x99s a shrewd businessman with great\ncredibility in the classic car community.\xc2\xa0\nI didn\xe2\x80\x99t really get classic cars until I saw some fully restored and\npreserved beauties at the\n        <a href="http://1opinionatedwoman.blogspot.com/2012/04/celebration-exotic-car-festival-2012.html" shape="rect">Celebration Exotic Car Festival</a>\n        this year.\xc2\xa0 Quite\nfrankly, I could see myself behind the wheel of a\n        <a href="http://pinterest.com/pin/257268197434262768/" shape="rect">1967 Corvette</a>\n        .\xc2\xa0 I also enjoy that he\xe2\x80\x99s a no-nonsense kind of\nguy and his cars are of the highest quality.\xc2\xa0\nHe talks about selling cars in the same way people talk about finding\nhomes for rescued animals.\xc2\xa0 When I\xe2\x80\x99m\nready to get my Vette, I\xe2\x80\x99m calling him.\n      </div>\n      <div style="text-align: justify; text-justify: inter-ideograph;" class="MsoNormal">\n        <br clear="none"></br>\n      </div>\n      <div style="text-align: justify; text-justify: inter-ideograph;" class="MsoNormal">\n        <span style="font-size: 14pt;">\n          <a href="http://velocity.discovery.com/videos/wheeler-dealers/" shape="rect">\n            <b>\n              <i>Wheeler Dealers</i>\n            </b>\n          </a>\n          <b>\n            <i>\n              <u>\n                <o:p></o:p>\n              </u>\n            </i>\n          </b>\n        </span>\n      </div>\n      <div style="clear: both; text-align: center;" class="separator">\n        <a style="clear: right; float: right; margin-bottom: 1em; margin-left: 1em;" imageanchor="1" href="http://1.bp.blogspot.com/-4mCBKFBH5cA/UBC505h5c4I/AAAAAAAABXI/BhP6sqvU4Cs/s1600/wheeler_dealers-vw_campervan-58.jpg" shape="rect">\n          <img width="200" src="http://1.bp.blogspot.com/-4mCBKFBH5cA/UBC505h5c4I/AAAAAAAABXI/BhP6sqvU4Cs/s200/wheeler_dealers-vw_campervan-58.jpg" height="133" border="0"></img>\n        </a>\n      </div>\n      <div style="text-align: justify; text-justify: inter-ideograph;" class="MsoNormal">\n        In\nthis British series, quirky hosts\n        <a href="http://www.wheelerdealer.com/" shape="rect">Mike Brewer</a>\n        and\n        <a href="http://www.greasejunkie.com/" shape="rect">Edd China</a>\n        flip cars.\xc2\xa0 Mike who\xe2\x80\x99s a bit of a caricature, which makes\nhim a quintessential salesman, brings them in.\xc2\xa0\nEdd, on the other hand is more of a punky/arty/mad/brilliant chap, fixes\nthem up for sale.\xc2\xa0 I like that Edd\nexplains what he does so it\xe2\x80\x99s almost like a how-to for\n        <s>jalopy</s>\n        car owners.\xc2\xa0 I haven\xe2\x80\x99t watched a whole lot of this show\nbut feel like every episode taught me something.\xc2\xa0 They also have that British humour which I\nget and that\xe2\x80\x99s always fun.\n      </div>\n      <div style="text-align: justify; text-justify: inter-ideograph;" class="MsoNormal">\n        <br clear="none"></br>\n      </div>\n      <div style="text-align: justify; text-justify: inter-ideograph;" class="MsoNormal">\n        <span style="font-size: 14pt;">\n          <a href="http://www.southbeachclassics.com/" shape="rect">\n            <b>\n              <i>South Beach Classics</i>\n            </b>\n          </a>\n          <b>\n            <i>\n              <u>\n                <o:p></o:p>\n              </u>\n            </i>\n          </b>\n        </span>\n      </div>\n      <div style="clear: both; text-align: center;" class="separator">\n        <a style="clear: left; float: left; margin-bottom: 1em; margin-right: 1em;" imageanchor="1" href="http://3.bp.blogspot.com/-4M4Zye0F9Kw/UBC55A7I1BI/AAAAAAAABXQ/15I_bKhPDN0/s1600/south+beach+classics.jpg" shape="rect">\n          <img width="150" src="http://3.bp.blogspot.com/-4M4Zye0F9Kw/UBC55A7I1BI/AAAAAAAABXQ/15I_bKhPDN0/s200/south+beach+classics.jpg" height="200" border="0"></img>\n        </a>\n      </div>\n      <div style="text-align: justify; text-justify: inter-ideograph;" class="MsoNormal">\n        This\nis a show my Dad would absolutely love.\xc2\xa0\nHe sold cars for forty years and is a master negotiator, which is a big\npart of this show.\xc2\xa0\n        <a href="http://www.tedvernon.com/" shape="rect">Ted Vernon</a>\n        and his statuesque wife Robin, buy,\nsell, trade and exchange classic cars.\xc2\xa0\nThey have a small crew of mechanics who repair and maintain vehicles in\naddition to small tutorials for the viewers.\xc2\xa0\nThe Vernons\xe2\x80\x99 larger-than-life personalities fit their way of making a\nliving, especially when it comes to bartering.\xc2\xa0\nThis show is a lesson on the art of negotiation.\xc2\xa0 Even if you\xe2\x80\x99re not in the market for a\nclassic car, this is a good show to give you a look at how used car dealers\noperate; and that will give viewers an edge in their own vehicular purchases.\n      </div>\n      <div style="text-align: justify; text-justify: inter-ideograph;" class="MsoNormal">\n        <br clear="none"></br>\n      </div>\n      <div style="text-align: justify; text-justify: inter-ideograph;" class="MsoNormal">\n        <o:p>\n          <br clear="none"></br>\n        </o:p>\n      </div>\n      <div style="text-align: justify; text-justify: inter-ideograph;" class="MsoNormal">\n        <o:p>\n          <br clear="none"></br>\n        </o:p>\n      </div>\n      <div style="text-align: justify; text-justify: inter-ideograph;" class="MsoNormal">\n        <o:p>\n          <br clear="none"></br>\n        </o:p>\n      </div>\n      <div style="text-align: justify; text-justify: inter-ideograph;" class="MsoNormal">\n        <span style="font-size: 14pt;">\n          <a href="http://velocity.discovery.com/videos/cafe-racer/" shape="rect">\n            <b>\n              <i>Caf</i>\n            </b>\n            <b>\n              <i>\xc3\x83\xc2\xa9 Racer</i>\n            </b>\n          </a>\n          <b>\n            <i>\n              <u>\n                <o:p></o:p>\n              </u>\n            </i>\n          </b>\n        </span>\n      </div>\n      <div style="clear: both; text-align: center;" class="separator">\n        <a style="clear: right; float: right; margin-bottom: 1em; margin-left: 1em;" imageanchor="1" href="http://4.bp.blogspot.com/-WAqMCj4HfYk/UBC6b1TzpwI/AAAAAAAABXg/ixauBuDMdJc/s1600/Cafe_Racer_logo+smaller.jpg" shape="rect">\n          <img width="200" src="http://4.bp.blogspot.com/-WAqMCj4HfYk/UBC6b1TzpwI/AAAAAAAABXg/ixauBuDMdJc/s200/Cafe_Racer_logo+smaller.jpg" height="200" border="0"></img>\n        </a>\n      </div>\n      <div style="text-align: justify; text-justify: inter-ideograph;" class="MsoNormal">\n        Despite\nmy well-document love of cars, I do have a growing fascination with\nmotorcycles.\xc2\xa0 There\xe2\x80\x99s a\xc2\xa0\n        <a href="http://pinterest.com/pin/257268197433238397/" shape="rect">\n          <span style="font-family: inherit;">2012 Kawasaki Ninja 1000</span>\n        </a>\n        \xc2\xa0on my Pinterest\n        <a href="http://pinterest.com/marshashaneiph/my-future-rides/" shape="rect">My Future Rides</a>\n        board.\xc2\xa0 What?\xc2\xa0 That\xe2\x80\x99s responsible pinning, people.\xc2\xa0 Anyway, I don\xe2\x80\x99t always know too much about\nwhat\xe2\x80\x99s happening on Caf\xc3\x83\xc2\xa9 Racer but I watch it because I want to expand my\nknowledge of motorcycles.\xc2\xa0 Of course,\nthere are colourful characters and very, very cool bikes.\xc2\xa0 At least Velocity is trying to keep all those\nwith gas on their brains happy, including those who prefer two wheels instead\nof four.\n      </div>\n      <br clear="none"></br>\n      <div style="clear: both;"></div>\n    </div>\n    <div class="post-footer">\n      <div class="post-footer-line post-footer-line-1">\n        <span class="post-author vcard">\n          Posted by\n          <span itemtype="http://schema.org/Person" itemscope="itemscope" itemprop="author" class="fn"> </span>\n        </span>\n      </div>\n    </div>\n  </body>\n  <head>\n    <meta itemprop="url" content="http://www.blogger.com/profile/17082349056650614845"></meta>\n    <meta itemprop="articleBody/aiaBlogId" content="4953674377944291047"></meta>\n    <meta itemprop="articleBody/aiaPostId" content="77241029842138081"></meta>\n  </head>\n  <body>\n    <a title="author profile" rel="author" href="http://www.blogger.com/profile/17082349056650614845" shape="rect">\n      <span itemprop="name">Marsha S. Haneiph</span>\n    </a>\n    <span class="post-timestamp"> at </span>\n  </body>\n  <head>\n    <meta itemprop="url" content="http://1opinionatedwoman.blogspot.com/2012/07/velocity-by-discovery-is-great-tv-for.html"></meta>\n  </head>\n  <body>\n    <a title="permanent link" rel="bookmark" href="http://1opinionatedwoman.blogspot.com/2012/07/velocity-by-discovery-is-great-tv-for.html" class="timestamp-link" shape="rect">\n      <abbr title="2012-07-25T23:39:00-04:00" itemprop="datePublished" class="published">11:39 PM</abbr>\n    </a>\n    <span class="post-icons">\n      <span class="item-action">\n        <a title="Email Post" href="http://www.blogger.com/email-post.g?blogID=4953674377944291047&amp;postID=77241029842138081" shape="rect">\n          <img width="18" src="http://img1.blogblog.com/img/icon18_email.gif" height="13" alt="" class="icon-action"></img>\n        </a>\n      </span>\n      <span class="item-control blog-admin pid-330446576">\n        <a title="Edit Post" href="http://www.blogger.com/post-edit.g?blogID=4953674377944291047&amp;postID=77241029842138081&amp;from=pencil" shape="rect">\n          <img width="18" src="http://img2.blogblog.com/img/icon18_edit_allbkg.gif" height="18" alt="" class="icon-action"></img>\n        </a>\n      </span>\n    </span>\n    <div class="post-share-buttons goog-inline-block">\n      <a title="Email This" target="_blank" href="http://www.blogger.com/share-post.g?blogID=4953674377944291047&amp;postID=77241029842138081&amp;target=email" class="goog-inline-block share-button sb-email" shape="rect">\n        <span class="share-button-link-text">Email This</span>\n      </a>\n      <a \n      title="BlogThis!" target="_blank" onclick="window.open(this.href, &quot;_blank&quot;, &quot;height=270,width=475&quot;); return false;" href="http://www.blogger.com/share-post.g?blogID=4953674377944291047&amp;postID=77241029842138081&amp;target=blog" class="goog-inline-block share-button sb-blog" shape="rect">\n        <span class="share-button-link-text">BlogThis!</span>\n</a>\n      <a title="Share to Twitter" target="_blank" href="http://www.blogger.com/share-post.g?blogID=4953674377944291047&amp;postID=77241029842138081&amp;target=twitter" class="goog-inline-block share-button sb-twitter" shape="rect">\n        <span class="share-button-link-text">Share to Twitter</span>\n      </a>\n      <a \n      title="Share to Facebook" target="_blank" onclick="window.open(this.href, &quot;_blank&quot;, &quot;height=430,width=640&quot;); return false;" href="http://www.blogger.com/share-post.g?blogID=4953674377944291047&amp;postID=77241029842138081&amp;target=facebook" class="goog-inline-block share-button sb-facebook" shape="rect">\n        <span class="share-button-link-text">Share to Facebook</span>\n</a>\n      <div class="goog-inline-block dummy-container">\n        <g:plusone annotation="inline" width="300" size="medium" href="http://1opinionatedwoman.blogspot.com/2012/07/velocity-by-discovery-is-great-tv-for.html" source="blogger:blog:plusone"></g:plusone>\n      </div>\n    </div>\n    <span class="post-backlinks post-comment-link"> </span>\n    <div class="post-footer-line post-footer-line-2"></div>\n    <div class="post-footer-line post-footer-line-3">\n      <span class="reaction-buttons"> </span>\n      <table width="100%" cellspacing="0" cellpadding="0" border="0">\n        <tr>\n          <td width="1%" class="reactions-label-cell" valign="top" rowspan="1" nowrap="nowrap" colspan="1">\n            <span class="reactions-label"> Reactions:</span>\n            \xc2\xa0\n          </td>\n          <td rowspan="1" colspan="1">\n            <iframe \n            src="http://www.blogger.com/blog-post-reactions.g?options=%5Bfunny,+interesting,+cool%5D&amp;textColor=%23999999#http://1opinionatedwoman.blogspot.com/2012/07/velocity-by-discovery-is-great-tv-for.html" name="reactions" allowtransparency="true" class="reactions-iframe" scrolling="no" frameborder="0">\n</iframe>\n          </td>\n        </tr>\n      </table>\n    </div>\n    <div id="comments" class="comments">\n      <a name="comments" shape="rect"></a>\n      <div id="backlinks-container">\n        <div id="Blog1_backlinks-container">\n          <a name="links" shape="rect"></a>\n          <h4> </h4>\n          <p class="comment-footer">\n            <a target="_blank" href="" id="Blog1_backlinks-create-link" class="comment-link" shape="rect"> </a>\n          </p>\n        </div>\n      </div>\n    </div>\n    <div id="blog-pager" class="blog-pager">\n      <span id="blog-pager-newer-link">\n        <a title="Newer Post" href="http://1opinionatedwoman.blogspot.com/2012/07/twitter-discovery-men-who-dine.html" id="Blog1_blog-pager-newer-link" class="blog-pager-newer-link" shape="rect">Newer Post</a>\n      </span>\n      <span id="blog-pager-older-link">\n        <a title="Older Post" href="http://1opinionatedwoman.blogspot.com/2012/07/my-fitness-revolution-days-268-to-270.html" id="Blog1_blog-pager-older-link" class="blog-pager-older-link" shape="rect">Older Post</a>\n      </span>\n      <a href="http://1opinionatedwoman.blogspot.com/" class="home-link" shape="rect">Home</a>\n    </div>\n    <div class="clear"></div>\n    <div class="post-feeds"> </div>\n    <script type="text/javascript">\n      window.___gcfg = {\'lang\': \'en\'};window.___gapisync = false;(function() {var po = document.createElement(\'script\');po.type = \'text/javascript\';po.async = true;po.src = \'https://apis.google.com/js/plusone.js\';var s = document.body.getElementsByTagName(\'script\')[0];s.parentNode.insertBefore(po, s);})();\n    </script>\n    <div id="HTML10" class="widget HTML">\n      <h2 class="title">LinkWithin</h2>\n      <div class="widget-content">\n        <script> var linkwithin_site_id = 1013847; </script>\n        <script src="http://www.linkwithin.com/widget.js"></script>\n        <a href="http://www.linkwithin.com/" shape="rect">\n          <img style="border: 0" alt="Related Posts Plugin for WordPress, Blogger..." src="http://www.linkwithin.com/pixel.png"></img>\n        </a>\n      </div>\n      <div class="clear"></div>\n      <span class="widget-item-control">\n        <span class="item-control blog-admin">\n          <a \n          title="Edit" target="configHTML10" onclick="return _WidgetManager._PopupConfig(document.getElementById(&quot;HTML10&quot;));" href="//www.blogger.com/rearrange?blogID=4953674377944291047&amp;widgetType=HTML&amp;widgetId=HTML10&amp;action=editWidget&amp;sectionId=main" class="quickedit" shape="rect">\n            <img width="18" src="http://img1.blogblog.com/img/icon18_wrench_allbkg.png" height="18" alt=""></img>\n</a>\n        </span>\n      </span>\n      <div class="clear"></div>\n    </div>\n    <div id="HTML9" class="widget HTML">\n      <script type="text/javascript">\n        var disqus_shortname = \'1opinionatedwoman\';\n                var disqus_blogger_current_url = &quot;http://1opinionatedwoman.blogspot.com/2012/07/velocity-by-discovery-is-great-tv-for.html&quot;;\n                if (!disqus_blogger_current_url.length) {\n                    disqus_blogger_current_url = &quot;http://1opinionatedwoman.blogspot.com/2012/07/velocity-by-discovery-is-great-tv-for.html&quot;;\n                }\n                var disqus_blogger_homepage_url = &quot;http://1opinionatedwoman.blogspot.com/&quot;;\n                var disqus_blogger_canonical_homepage_url = &quot;http://1opinionatedwoman.blogspot.com/&quot;;\n      </script>\n      <style type="text/css"> #comments {display:none;} </style>\n      <script type="text/javascript">\n        (function() {\n                        var bloggerjs = document.createElement(\'script\');\n                        bloggerjs.type = \'text/javascript\';\n                        bloggerjs.async = true;\n                        bloggerjs.src = \'http://\'+disqus_shortname+\'.disqus.com/blogger_item.js\';\n                        (document.getElementsByTagName(\'head\')[0] || document.getElementsByTagName(\'body\')[0]).appendChild(bloggerjs);\n                    })();\n      </script>\n      <style type="text/css"> .post-comment-link { visibility: hidden; } </style>\n      <script type="text/javascript">\n        (function() {\n                    var bloggerjs = document.createElement(\'script\');\n                    bloggerjs.type = \'text/javascript\';\n                    bloggerjs.async = true;\n                    bloggerjs.src = \'http://\'+disqus_shortname+\'.disqus.com/blogger_index.js\';\n                    (document.getElementsByTagName(\'head\')[0] || document.getElementsByTagName(\'body\')[0]).appendChild(bloggerjs);\n                })();\n      </script>\n    </div>\n    <div class="column-left-outer">\n      <div class="column-left-inner">\n        <aside> </aside>\n      </div>\n    </div>\n    <div class="column-right-outer">\n      <div class="column-right-inner">\n        <aside>\n          <div id="sidebar-right-1" class="sidebar section">\n            <div id="HTML8" class="widget HTML">\n              <div class="widget-content">\n                <a data-show-count="false" href="https://twitter.com/1opinionated" class="twitter-follow-button" shape="rect">Follow @1opinionated</a>\n                <script>!function(d,s,id){var js,fjs=d.getElementsByTagName(s)[0];if(!d.getElementById(id)){js=d.createElement(s);js.id=id;js.src=&quot;//platform.twitter.com/widgets.js&quot;;fjs.parentNode.insertBefore(js,fjs);}}(document,&quot;script&quot;,&quot;twitter-wjs&quot;);</script>\n              </div>\n              <div class="clear"></div>\n              <span class="widget-item-control">\n                <span class="item-control blog-admin">\n                  <a \n                  title="Edit" target="configHTML8" onclick="return _WidgetManager._PopupConfig(document.getElementById(&quot;HTML8&quot;));" href="//www.blogger.com/rearrange?blogID=4953674377944291047&amp;widgetType=HTML&amp;widgetId=HTML8&amp;action=editWidget&amp;sectionId=sidebar-right-1" class="quickedit" shape="rect">\n                    <img width="18" src="http://img1.blogblog.com/img/icon18_wrench_allbkg.png" height="18" alt=""></img>\n</a>\n                </span>\n              </span>\n              <div class="clear"></div>\n            </div>\n            <div id="PlusBadge1" class="widget PlusBadge">\n              <link rel="publisher" href="https://plus.google.com/117075947700203633091"></link>\n              <script type="text/javascript">\n                window.___gcfg = {\n    lang: \'en\'\n  };\n\n  (function() {\n    var po = document.createElement(&quot;script&quot;);\n    po.type = &quot;text/javascript&quot;;\n    po.async = true;\n    po.src = &quot;https://apis.google.com/js/plusone.js&quot;;\n    var s = document.getElementsByTagName(&quot;script&quot;)[0];\n    s.parentNode.insertBefore(po, s);\n  })();\n              </script>\n              <g:plus width="275" theme="light" source="blogger:blog:badge" rel="author" href="https://plus.google.com/117075947700203633091" height="69"></g:plus>\n            </div>\n            <div id="HTML13" class="widget HTML">\n              <h2 class="title">Training Widget</h2>\n              <div class="widget-content">\n                <script type="text/javascript" src="http://www.dailymile.com/people/MarshaS_H/training/widget.js"></script>\n                <noscript>\n                  <a title="Running Training Log" href="http://www.dailymile.com/people/MarshaS_H" shape="rect">\n                    <img style="border: 0;" src="http://www.dailymile.com/images/badges/dailymile_badge_180x60_orange.gif" alt="Running Training Log"></img>\n                  </a>\n                </noscript>\n              </div>\n              <div class="clear"></div>\n              <span class="widget-item-control">\n                <span class="item-control blog-admin">\n                  <a \n                  title="Edit" target="configHTML13" onclick="return _WidgetManager._PopupConfig(document.getElementById(&quot;HTML13&quot;));" href="//www.blogger.com/rearrange?blogID=4953674377944291047&amp;widgetType=HTML&amp;widgetId=HTML13&amp;action=editWidget&amp;sectionId=sidebar-right-1" class="quickedit" shape="rect">\n                    <img width="18" src="http://img1.blogblog.com/img/icon18_wrench_allbkg.png" height="18" alt=""></img>\n</a>\n                </span>\n              </span>\n              <div class="clear"></div>\n            </div>\n            <div id="HTML6" class="widget HTML">\n              <div class="widget-content">\n                <script type="text/javascript" src="http://cdn.wibiya.com/Toolbars/dir_1121/Toolbar_1121029/Loader_1121029.js"></script>\n                <noscript>\n                  <a href="http://www.wibiya.com/" shape="rect">Web Toolbar by Wibiya</a>\n                </noscript>\n              </div>\n              <div class="clear"></div>\n              <span class="widget-item-control">\n                <span class="item-control blog-admin">\n                  <a \n                  title="Edit" target="configHTML6" onclick="return _WidgetManager._PopupConfig(document.getElementById(&quot;HTML6&quot;));" href="//www.blogger.com/rearrange?blogID=4953674377944291047&amp;widgetType=HTML&amp;widgetId=HTML6&amp;action=editWidget&amp;sectionId=sidebar-right-1" class="quickedit" shape="rect">\n                    <img width="18" src="http://img1.blogblog.com/img/icon18_wrench_allbkg.png" height="18" alt=""></img>\n</a>\n                </span>\n              </span>\n              <div class="clear"></div>\n            </div>\n            <div id="HTML4" class="widget HTML">\n              <h2 class="title">Facebook</h2>\n              <div class="widget-content">\n                <div id="fb-root"></div>\n                <script>\n                  (function(d, s, id) {\n  var js, fjs = d.getElementsByTagName(s)[0];\n  if (d.getElementById(id)) {return;}\n  js = d.createElement(s); js.id = id;\n  js.src = &quot;//connect.facebook.net/en_GB/all.js#xfbml=1&quot;;\n  fjs.parentNode.insertBefore(js, fjs);\n}(document, \'script\', \'facebook-jssdk\'));\n                </script>\n                <div data-header="true" data-stream="true" data-show-faces="true" data-width="292" data-href="http://www.facebook.com/1opinionatedwoman" class="fb-like-box"></div>\n              </div>\n              <div class="clear"></div>\n              <span class="widget-item-control">\n                <span class="item-control blog-admin">\n                  <a \n                  title="Edit" target="configHTML4" onclick="return _WidgetManager._PopupConfig(document.getElementById(&quot;HTML4&quot;));" href="//www.blogger.com/rearrange?blogID=4953674377944291047&amp;widgetType=HTML&amp;widgetId=HTML4&amp;action=editWidget&amp;sectionId=sidebar-right-1" class="quickedit" shape="rect">\n                    <img width="18" src="http://img1.blogblog.com/img/icon18_wrench_allbkg.png" height="18" alt=""></img>\n</a>\n                </span>\n              </span>\n              <div class="clear"></div>\n            </div>\n            <div id="Subscribe1" class="widget Subscribe">\n              <div style="white-space:nowrap">\n                <h2 class="title">Subscribe To</h2>\n                <div class="widget-content">\n                  <div class="subscribe-wrapper subscribe-type-POST">\n                    <div style="display:none;" id="SW_READER_LIST_Subscribe1POST" class="subscribe expanded subscribe-type-POST">\n                      <div class="top">\n                        <span onclick="return(_SW_toggleReaderList(event, &quot;Subscribe1POST&quot;));" class="inner">\n                          <img src="http://img2.blogblog.com/img/widgets/arrow_dropdown.gif" class="subscribe-dropdown-arrow"></img>\n                          <img src="http://img1.blogblog.com/img/icon_feed12.png" border="0" alt="" class="feed-icon" align="absmiddle"></img>\n                          Posts\n                        </span>\n                        <div class="feed-reader-links">\n                          <a target="_blank" href="http://www.google.com/ig/add?source=bstp&amp;feedurl=http%3A%2F%2F1opinionatedwoman.blogspot.com%2Ffeeds%2Fposts%2Fdefault" class="feed-reader-link" shape="rect">\n                            <img src="http://img1.blogblog.com/img/widgets/subscribe-google.png"></img>\n                          </a>\n                          <a target="_blank" href="http://www.netvibes.com/subscribe.php?url=http%3A%2F%2F1opinionatedwoman.blogspot.com%2Ffeeds%2Fposts%2Fdefault" class="feed-reader-link" shape="rect">\n                            <img src="http://img1.blogblog.com/img/widgets/subscribe-netvibes.png"></img>\n                          </a>\n                          <a target="_blank" href="http://www.newsgator.com/ngs/subscriber/subext.aspx?url=http%3A%2F%2F1opinionatedwoman.blogspot.com%2Ffeeds%2Fposts%2Fdefault" class="feed-reader-link" shape="rect">\n                            <img src="http://img1.blogblog.com/img/widgets/subscribe-newsgator.png"></img>\n                          </a>\n                          <a target="_blank" href="http://add.my.yahoo.com/content?url=http%3A%2F%2F1opinionatedwoman.blogspot.com%2Ffeeds%2Fposts%2Fdefault" class="feed-reader-link" shape="rect">\n                            <img src="http://img1.blogblog.com/img/widgets/subscribe-yahoo.png"></img>\n                          </a>\n                          <a target="_blank" href="http://1opinionatedwoman.blogspot.com/feeds/posts/default" class="feed-reader-link" shape="rect">\n                            <img src="http://img1.blogblog.com/img/icon_feed12.png" class="feed-icon" align="absmiddle"></img>\n                            Atom\n                          </a>\n                        </div>\n                      </div>\n                      <div class="bottom"></div>\n                    </div>\n                    <div onclick="return(_SW_toggleReaderList(event, &quot;Subscribe1POST&quot;));" id="SW_READER_LIST_CLOSED_Subscribe1POST" class="subscribe">\n                      <div class="top">\n                        <span class="inner">\n                          <img src="http://img2.blogblog.com/img/widgets/arrow_dropdown.gif" class="subscribe-dropdown-arrow"></img>\n                          <span onclick="return(_SW_toggleReaderList(event, &quot;Subscribe1POST&quot;));">\n                            <img src="http://img1.blogblog.com/img/icon_feed12.png" border="0" alt="" class="feed-icon" align="absmiddle"></img>\n                            Posts\n                          </span>\n                        </span>\n                      </div>\n                      <div class="bottom"></div>\n                    </div>\n                  </div>\n                  <div class="subscribe-wrapper subscribe-type-PER_POST">\n                    <div style="display:none;" id="SW_READER_LIST_Subscribe1PER_POST" class="subscribe expanded subscribe-type-PER_POST">\n                      <div class="top">\n                        <span onclick="return(_SW_toggleReaderList(event, &quot;Subscribe1PER_POST&quot;));" class="inner">\n                          <img src="http://img2.blogblog.com/img/widgets/arrow_dropdown.gif" class="subscribe-dropdown-arrow"></img>\n                          <img src="http://img1.blogblog.com/img/icon_feed12.png" border="0" alt="" class="feed-icon" align="absmiddle"></img>\n                          Comments\n                        </span>\n                        <div class="feed-reader-links">\n                          <a target="_blank" href="http://www.google.com/ig/add?source=bstp&amp;feedurl=http%3A%2F%2F1opinionatedwoman.blogspot.com%2Ffeeds%2F77241029842138081%2Fcomments%2Fdefault" class="feed-reader-link" shape="rect">\n                            <img src="http://img1.blogblog.com/img/widgets/subscribe-google.png"></img>\n                          </a>\n                          <a target="_blank" href="http://www.netvibes.com/subscribe.php?url=http%3A%2F%2F1opinionatedwoman.blogspot.com%2Ffeeds%2F77241029842138081%2Fcomments%2Fdefault" class="feed-reader-link" shape="rect">\n                            <img src="http://img1.blogblog.com/img/widgets/subscribe-netvibes.png"></img>\n                          </a>\n                          <a target="_blank" href="http://www.newsgator.com/ngs/subscriber/subext.aspx?url=http%3A%2F%2F1opinionatedwoman.blogspot.com%2Ffeeds%2F77241029842138081%2Fcomments%2Fdefault" class="feed-reader-link" shape="rect">\n                            <img src="http://img1.blogblog.com/img/widgets/subscribe-newsgator.png"></img>\n                          </a>\n                          <a target="_blank" href="http://add.my.yahoo.com/content?url=http%3A%2F%2F1opinionatedwoman.blogspot.com%2Ffeeds%2F77241029842138081%2Fcomments%2Fdefault" class="feed-reader-link" shape="rect">\n                            <img src="http://img1.blogblog.com/img/widgets/subscribe-yahoo.png"></img>\n                          </a>\n                          <a target="_blank" href="http://1opinionatedwoman.blogspot.com/feeds/77241029842138081/comments/default" class="feed-reader-link" shape="rect">\n                            <img src="http://img1.blogblog.com/img/icon_feed12.png" class="feed-icon" align="absmiddle"></img>\n                            Atom\n                          </a>\n                        </div>\n                      </div>\n                      <div class="bottom"></div>\n                    </div>\n                    <div onclick="return(_SW_toggleReaderList(event, &quot;Subscribe1PER_POST&quot;));" id="SW_READER_LIST_CLOSED_Subscribe1PER_POST" class="subscribe">\n                      <div class="top">\n                        <span class="inner">\n                          <img src="http://img2.blogblog.com/img/widgets/arrow_dropdown.gif" class="subscribe-dropdown-arrow"></img>\n                          <span onclick="return(_SW_toggleReaderList(event, &quot;Subscribe1PER_POST&quot;));">\n                            <img src="http://img1.blogblog.com/img/icon_feed12.png" border="0" alt="" class="feed-icon" align="absmiddle"></img>\n                            Comments\n                          </span>\n                        </span>\n                      </div>\n                      <div class="bottom"></div>\n                    </div>\n                  </div>\n                  <div style="clear:both"></div>\n                </div>\n              </div>\n              <div class="clear"></div>\n              <span class="widget-item-control">\n                <span class="item-control blog-admin">\n                  <a \n                  title="Edit" target="configSubscribe1" onclick="return _WidgetManager._PopupConfig(document.getElementById(&quot;Subscribe1&quot;));" href="//www.blogger.com/rearrange?blogID=4953674377944291047&amp;widgetType=Subscribe&amp;widgetId=Subscribe1&amp;action=editWidget&amp;sectionId=sidebar-right-1" class="quickedit" shape="rect">\n                    <img width="18" src="http://img1.blogblog.com/img/icon18_wrench_allbkg.png" height="18" alt=""></img>\n</a>\n                </span>\n              </span>\n              <div class="clear"></div>\n            </div>\n            <div id="FollowByEmail1" class="widget FollowByEmail">\n              <h2 class="title">Follow by Email</h2>\n              <div class="widget-content">\n                <div class="follow-by-email-inner">\n                  <form \n                  target="popupwindow" onsubmit="window.open(&quot;http://feedburner.google.com/fb/a/mailverify?uri=OneOpinionatedWoman&quot;, &quot;popupwindow&quot;, &quot;scrollbars=yes,width=550,height=520&quot;); return true" action="http://feedburner.google.com/fb/a/mailverify" method="post" enctype="application/x-www-form-urlencoded">\n                    <table width="100%">\n                      <tr>\n                        <td rowspan="1" colspan="1">\n                          <input placeholder="Email address..." name="email" class="follow-by-email-address" type="text"></input>\n                        </td>\n                        <td width="64px" rowspan="1" colspan="1">\n                          <input value="Submit" class="follow-by-email-submit" type="submit"></input>\n                        </td>\n                      </tr>\n                    </table>\n                    <input value="OneOpinionatedWoman" name="uri" type="hidden"></input>\n                    <input value="en_US" name="loc" type="hidden"></input>\n</form>\n                </div>\n              </div>\n              <span class="item-control blog-admin"> </span>\n              <div class="clear"></div>\n              <span class="widget-item-control">\n                <span class="item-control blog-admin">\n                  <a \n                  title="Edit" target="configFollowByEmail1" onclick="return _WidgetManager._PopupConfig(document.getElementById(&quot;FollowByEmail1&quot;));" href="//www.blogger.com/rearrange?blogID=4953674377944291047&amp;widgetType=FollowByEmail&amp;widgetId=FollowByEmail1&amp;action=editWidget&amp;sectionId=sidebar-right-1" class="quickedit" shape="rect">\n                    <img width="18" src="http://img1.blogblog.com/img/icon18_wrench_allbkg.png" height="18" alt=""></img>\n</a>\n                </span>\n              </span>\n              <div class="clear"></div>\n            </div>\n            <div id="HTML2" class="widget HTML">\n              <h2 class="title">Penny for your thoughts</h2>\n              <div class="widget-content">\n                <div id="fb-root"></div>\n                <script>\n                  (function(d, s, id) {\n  var js, fjs = d.getElementsByTagName(s)[0];\n  if (d.getElementById(id)) {return;}\n  js = d.createElement(s); js.id = id;\n  js.src = &quot;//connect.facebook.net/en_GB/all.js#xfbml=1&quot;;\n  fjs.parentNode.insertBefore(js, fjs);\n}(document, \'script\', \'facebook-jssdk\'));\n                </script>\n                <div data-width="292" data-num-posts="2" data-href="http://1opinionatedwoman.blogspot.com/" class="fb-comments"></div>\n              </div>\n              <div class="clear"></div>\n              <span class="widget-item-control">\n                <span class="item-control blog-admin">\n                  <a \n                  title="Edit" target="configHTML2" onclick="return _WidgetManager._PopupConfig(document.getElementById(&quot;HTML2&quot;));" href="//www.blogger.com/rearrange?blogID=4953674377944291047&amp;widgetType=HTML&amp;widgetId=HTML2&amp;action=editWidget&amp;sectionId=sidebar-right-1" class="quickedit" shape="rect">\n                    <img width="18" src="http://img1.blogblog.com/img/icon18_wrench_allbkg.png" height="18" alt=""></img>\n</a>\n                </span>\n              </span>\n              <div class="clear"></div>\n            </div>\n            <div id="HTML1" class="widget HTML">\n              <h2 class="title">FitFluential</h2>\n              <div class="widget-content">\n                <a href=" http://bit.ly/OL4TWt " shape="rect">\n                  <img alt="FitFluential Is Fitness Found" height="200" width="200" src=" http://farm9.staticflickr.com/8433/7741598662_67644320ba_m.jpg"></img>\n                </a>\n              </div>\n              <div class="clear"></div>\n              <span class="widget-item-control">\n                <span class="item-control blog-admin">\n                  <a \n                  title="Edit" target="configHTML1" onclick="return _WidgetManager._PopupConfig(document.getElementById(&quot;HTML1&quot;));" href="//www.blogger.com/rearrange?blogID=4953674377944291047&amp;widgetType=HTML&amp;widgetId=HTML1&amp;action=editWidget&amp;sectionId=sidebar-right-1" class="quickedit" shape="rect">\n                    <img width="18" src="http://img1.blogblog.com/img/icon18_wrench_allbkg.png" height="18" alt=""></img>\n</a>\n                </span>\n              </span>\n              <div class="clear"></div>\n            </div>\n            <div id="HTML5" class="widget HTML">\n              <h2 class="title">Networked Blogs</h2>\n              <div class="widget-content">\n                <div style="height:150px;padding-top:10px;" id="networkedblogs_nwidget_container">\n                  <div id="networkedblogs_nwidget_above"></div>\n                  <div style="border:1px solid #D1D7DF;background-color:#F5F6F9;margin:0px auto;" id="networkedblogs_nwidget_widget">\n                    <div style="padding:1px;margin:0px;background-color:#edeff4;text-align:center;height:21px;" id="networkedblogs_nwidget_logo">\n                      <a title="NetworkedBlogs" target="_blank" href="http://www.networkedblogs.com/" shape="rect">\n                        <img title="NetworkedBlogs" src="http://static.networkedblogs.com/static/images/logo_small.png" style="border: none;"></img>\n                      </a>\n                    </div>\n                    <div style="text-align: center;" id="networkedblogs_nwidget_body"></div>\n                    <div style="padding:5px;" id="networkedblogs_nwidget_follow">\n                      <a \n                      href="http://www.networkedblogs.com/blog/one-opinionated-woman?ahash=69e64e51d1daa29203fb29ed326e1156" style="display:block;line-height:100%;width:90px;margin:0px auto;padding:4px 8px;text-align:center;background-color:#3b5998;border:1pxsolid #D9DFEA;border-bottom-color:#0e1f5b;border-right-color:#0e1f5b;color:#FFFFFF;font-family:\'lucida grande\',tahoma,verdana,arial,sans-serif;font-size:11px;text-decoration:none;" shape="rect">\n                        Follow this blog\n</a>\n                    </div>\n                  </div>\n                  <div id="networkedblogs_nwidget_below"></div>\n                </div>\n                <script type="text/javascript"> if(typeof(networkedblogs)==&quot;undefined&quot;){networkedblogs = {};networkedblogs.blogId=989186;networkedblogs.shortName=&quot;one-opinionated-woman&quot;;} </script>\n                <script type="text/javascript" src="http://nwidget.networkedblogs.com/getnetworkwidget?bid=989186"></script>\n              </div>\n              <div class="clear"></div>\n              <span class="widget-item-control">\n                <span class="item-control blog-admin">\n                  <a \n                  title="Edit" target="configHTML5" onclick="return _WidgetManager._PopupConfig(document.getElementById(&quot;HTML5&quot;));" href="//www.blogger.com/rearrange?blogID=4953674377944291047&amp;widgetType=HTML&amp;widgetId=HTML5&amp;action=editWidget&amp;sectionId=sidebar-right-1" class="quickedit" shape="rect">\n                    <img width="18" src="http://img1.blogblog.com/img/icon18_wrench_allbkg.png" height="18" alt=""></img>\n</a>\n                </span>\n              </span>\n              <div class="clear"></div>\n            </div>\n            <div id="HTML7" class="widget HTML">\n              <h2 class="title">Studio 30+</h2>\n              <div class="widget-content">\n                <a target="_blank" href="http://studio30plus.com/" shape="rect">\n                  <img border="0" height="130" width="180" src="http://api.ning.com/files/D8W76et1CicHYCUzNCEVHCi8Rt-53DmDY*upEr0sUiHrYiID4wADk20lLNLygj1OflEkxnFY87BWH0tR241Slx9MceCxUaXi/S30PBadge.jpg"></img>\n                </a>\n              </div>\n              <div class="clear"></div>\n              <span class="widget-item-control">\n                <span class="item-control blog-admin">\n                  <a \n                  title="Edit" target="configHTML7" onclick="return _WidgetManager._PopupConfig(document.getElementById(&quot;HTML7&quot;));" href="//www.blogger.com/rearrange?blogID=4953674377944291047&amp;widgetType=HTML&amp;widgetId=HTML7&amp;action=editWidget&amp;sectionId=sidebar-right-1" class="quickedit" shape="rect">\n                    <img width="18" src="http://img1.blogblog.com/img/icon18_wrench_allbkg.png" height="18" alt=""></img>\n</a>\n                </span>\n              </span>\n              <div class="clear"></div>\n            </div>\n          </div>\n          <table cellspacing="0" cellpadding="0" border="0" class="section-columns columns-2">\n            <tbody>\n              <tr>\n                <td class="first columns-cell" rowspan="1" colspan="1">\n                  <div id="sidebar-right-2-1" class="sidebar section">\n                    <div id="HTML3" class="widget HTML">\n                      <h2 class="title">Bloggers.com</h2>\n                      <div class="widget-content">\n                        <a rel="dofollow" href="http://bloggers.com/b/44130" shape="rect">\n                          <img alt="Review this blog on Bloggers.com" title="Review this blog on Bloggers.com" src="http://bloggers.com/b/44130/img_01.png"></img>\n                        </a>\n                      </div>\n                      <div class="clear"></div>\n                      <span class="widget-item-control">\n                        <span class="item-control blog-admin">\n                          <a \n                          title="Edit" target="configHTML3" onclick="return _WidgetManager._PopupConfig(document.getElementById(&quot;HTML3&quot;));" href="//www.blogger.com/rearrange?blogID=4953674377944291047&amp;widgetType=HTML&amp;widgetId=HTML3&amp;action=editWidget&amp;sectionId=sidebar-right-2-1" class="quickedit" shape="rect">\n                            <img width="18" src="http://img1.blogblog.com/img/icon18_wrench_allbkg.png" height="18" alt=""></img>\n</a>\n                        </span>\n                      </span>\n                      <div class="clear"></div>\n                    </div>\n                  </div>\n                </td>\n                <td class="columns-cell" rowspan="1" colspan="1">\n                  <div id="sidebar-right-2-2" class="sidebar section">\n                    <div id="Followers1" class="widget Followers">\n                      <h2 class="title">Followers</h2>\n                      <div class="widget-content">\n                        <div id="Followers1-wrapper">\n                          <div style="margin-right:2px;">\n                            <script type="text/javascript"> if (!window.google || !google.friendconnect) { document.write(\'&lt;script type=&quot;text/javascript&quot;\' + \'src=&quot;http://www.google.com/friendconnect/script/friendconnect.js&quot;&gt;\' + \'&lt;/scr\'+\'ipt&gt;\'); } </script>\n                            <script type="text/javascript">\n                              if (!window.registeredBloggerCallbacks) {\n        window.registeredBloggerCallbacks = true;\n\n        \n\n        \n        gadgets.rpc.register(\'requestReload\', function() {\n          document.location.reload();\n        });\n\n        \n        gadgets.rpc.register(\'requestSignOut\', function(siteId) {\n          \n          google.friendconnect.container.openSocialSiteId = siteId;\n          google.friendconnect.requestSignOut();\n        });\n      }\n                            </script>\n                            <script type="text/javascript">\n                              function registerGetBlogUrls() {\n      gadgets.rpc.register(\'getBlogUrls\', function() {\n        var holder = {};\n        \n          \n            \n            \n              holder.currentPost = &quot;http://www.blogger.com/feeds/4953674377944291047/posts/default/77241029842138081&quot;;\n            \n            \n            \n              holder.currentComments = &quot;http://www.blogger.com/feeds/4953674377944291047/77241029842138081/comments/default&quot;;\n            \n            holder.currentPostUrl = &quot;&quot;;\n            holder.currentPostId = 77241029842138081\n          \n          \n          \n            holder.postFeed = &quot;http://www.blogger.com/feeds/4953674377944291047/posts/default&quot;;\n          \n          \n          \n            holder.commentFeed = &quot;http://www.blogger.com/feeds/4953674377944291047/comments/default&quot;;\n          \n          holder.currentBlogUrl = &quot;http://1opinionatedwoman.blogspot.com/&quot;;\n          holder.currentBlogId = &quot;4953674377944291047&quot;;\n        \n        return holder;\n      });\n    }\n                            </script>\n                            <script type="text/javascript">\n                              if (!window.registeredCommonBloggerCallbacks) {\n    window.registeredCommonBloggerCallbacks = true;\n\n    gadgets.rpc.register(\'resize_iframe\', function(height) {\n      var el = document.getElementById(this[\'f\']);\n      if (el) {\n        el.style.height = height + \'px\';\n      }\n    });\n\n    \n    gadgets.rpc.register(\'set_pref\', function() {});\n\n    registerGetBlogUrls();\n  }\n                            </script>\n                            <div style="width: 100%; " id="div-7jpkrr7r97ll"></div>\n                            <script type="text/javascript">\n                              var skin = {};\n    skin[\'FACE_SIZE\'] = \'32\';\n    skin[\'HEIGHT\'] = &quot;260&quot;;\n    skin[\'TITLE\'] = &quot;Followers&quot;;\n    skin[\'BORDER_COLOR\'] = &quot;transparent&quot;;\n    skin[\'ENDCAP_BG_COLOR\'] = &quot;transparent&quot;;\n    skin[\'ENDCAP_TEXT_COLOR\'] = &quot;#333333&quot;;\n    skin[\'ENDCAP_LINK_COLOR\'] = &quot;#992211&quot;;\n    skin[\'ALTERNATE_BG_COLOR\'] = &quot;transparent&quot;;\n    \n    skin[\'CONTENT_BG_COLOR\'] = &quot;transparent&quot;;\n    skin[\'CONTENT_LINK_COLOR\'] = &quot;#992211&quot;;\n    skin[\'CONTENT_TEXT_COLOR\'] = &quot;#333333&quot;;\n    skin[\'CONTENT_SECONDARY_LINK_COLOR\'] = &quot;#992211&quot;;\n    skin[\'CONTENT_SECONDARY_TEXT_COLOR\'] = &quot;#000000&quot;;\n    skin[\'CONTENT_HEADLINE_COLOR\'] = &quot;#666666&quot;;\n    skin[\'FONT_FACE\'] = &quot;normal normal 15px Arial, Tahoma, Helvetica, FreeSans, sans-serif&quot;;\n    google.friendconnect.container.setParentUrl(&quot;/&quot;);\n    google.friendconnect.container[&quot;renderMembersGadget&quot;](\n    {id: &quot;div-7jpkrr7r97ll&quot;,\n     height: 260,\n     \n     \n     \n     site: &quot;00773528781023118891&quot;,\n     \n     locale: \'en\' },\n     skin);\n                            </script>\n                          </div>\n                        </div>\n                        <div class="clear"></div>\n                        <span class="widget-item-control">\n                          <span class="item-control blog-admin">\n                            <a \n                            title="Edit" target="configFollowers1" onclick="return _WidgetManager._PopupConfig(document.getElementById(&quot;Followers1&quot;));" href="//www.blogger.com/rearrange?blogID=4953674377944291047&amp;widgetType=Followers&amp;widgetId=Followers1&amp;action=editWidget&amp;sectionId=sidebar-right-2-2" class="quickedit" shape="rect">\n                              <img width="18" src="http://img1.blogblog.com/img/icon18_wrench_allbkg.png" height="18" alt=""></img>\n</a>\n                          </span>\n                        </span>\n                        <div class="clear"></div>\n                      </div>\n                    </div>\n                  </div>\n                </td>\n              </tr>\n            </tbody>\n          </table>\n          <div id="sidebar-right-3" class="sidebar section"></div>\n        </aside>\n      </div>\n    </div>\n    <div style="clear: both"></div>\n    <div class="main-cap-bottom cap-bottom">\n      <div class="cap-left"></div>\n      <div class="cap-right"></div>\n    </div>\n    <footer>\n      <div class="footer-outer">\n        <div class="footer-cap-top cap-top">\n          <div class="cap-left"></div>\n          <div class="cap-right"></div>\n        </div>\n        <div class="fauxborder-left footer-fauxborder-left">\n          <div class="fauxborder-right footer-fauxborder-right"></div>\n          <div class="region-inner footer-inner">\n            <div id="footer-1" class="foot section">\n              <div id="HTML16" class="widget HTML">\n                <div class="widget-content">\n                  <script type="text/javascript">\n                    var _gaq = _gaq || [];\n  _gaq.push([\'_setAccount\', \'UA-28284212-1\']);\n  _gaq.push([\'_trackPageview\']);\n\n  (function() {\n    var ga = document.createElement(\'script\'); ga.type = \'text/javascript\'; ga.async = true;\n    ga.src = (\'https:\' == document.location.protocol ? \'https://ssl\' : \'http://www\') + \'.google-analytics.com/ga.js\';\n    var s = document.getElementsByTagName(\'script\')[0]; s.parentNode.insertBefore(ga, s);\n  })();\n                  </script>\n                </div>\n                <div class="clear"></div>\n                <span class="widget-item-control">\n                  <span class="item-control blog-admin">\n                    <a \n                    title="Edit" target="configHTML16" onclick="return _WidgetManager._PopupConfig(document.getElementById(&quot;HTML16&quot;));" href="//www.blogger.com/rearrange?blogID=4953674377944291047&amp;widgetType=HTML&amp;widgetId=HTML16&amp;action=editWidget&amp;sectionId=footer-1" class="quickedit" shape="rect">\n                      <img width="18" src="http://img1.blogblog.com/img/icon18_wrench_allbkg.png" height="18" alt=""></img>\n</a>\n                  </span>\n                </span>\n                <div class="clear"></div>\n              </div>\n            </div>\n            <table cellspacing="0" cellpadding="0" border="0" class="section-columns columns-3">\n              <tbody>\n                <tr>\n                  <td class="first columns-cell" rowspan="1" colspan="1">\n                    <div id="footer-2-1" class="foot section"></div>\n                  </td>\n                  <td class="columns-cell" rowspan="1" colspan="1">\n                    <div id="footer-2-2" class="foot section"></div>\n                  </td>\n                  <td class="columns-cell" rowspan="1" colspan="1">\n                    <div id="footer-2-3" class="foot section"></div>\n                  </td>\n                </tr>\n              </tbody>\n            </table>\n            <div id="footer-3" class="foot section">\n              <div id="Attribution1" class="widget Attribution">\n                <div style="text-align: center;" class="widget-content">\n                  Picture Window template. Powered by\n                  <a target="_blank" href="http://www.blogger.com" shape="rect">Blogger</a>\n                  .\n                </div>\n                <div class="clear"></div>\n                <span class="widget-item-control">\n                  <span class="item-control blog-admin">\n                    <a \n                    title="Edit" target="configAttribution1" onclick="return _WidgetManager._PopupConfig(document.getElementById(&quot;Attribution1&quot;));" href="//www.blogger.com/rearrange?blogID=4953674377944291047&amp;widgetType=Attribution&amp;widgetId=Attribution1&amp;action=editWidget&amp;sectionId=footer-3" class="quickedit" shape="rect">\n                      <img width="18" src="http://img1.blogblog.com/img/icon18_wrench_allbkg.png" height="18" alt=""></img>\n</a>\n                  </span>\n                </span>\n                <div class="clear"></div>\n              </div>\n            </div>\n          </div>\n        </div>\n        <div class="footer-cap-bottom cap-bottom">\n          <div class="cap-left"></div>\n          <div class="cap-right"></div>\n        </div>\n      </div>\n    </footer>\n    <div class="content-cap-bottom cap-bottom">\n      <div class="cap-left"></div>\n      <div class="cap-right"></div>\n    </div>\n    <script type="text/javascript"> window.setTimeout(function() { document.body.className = document.body.className.replace(\'loading\', \'\'); }, 10); </script>\n    <script type="text/javascript"> if (window.jstiming) window.jstiming.load.tick(\'widgetJsBefore\'); </script>\n    <script src="//www.blogger.com/static/v1/widgets/1040267425-widgets.js" type="text/javascript"></script>\n    <script type="text/javascript">\n      if (typeof(BLOG_attachCsiOnload) != \'undefined\' &amp;&amp; BLOG_attachCsiOnload != null) { window[\'blogger_templates_experiment_id\'] = &quot;templatesV2&quot;;window[\'blogger_blog_id\'] = \'4953674377944291047\';BLOG_attachCsiOnload(\'item_\'); }_WidgetManager._Init(\'//www.blogger.com/rearrange?blogID\\x3d4953674377944291047\',\'//1opinionatedwoman.blogspot.com/2012/07/velocity-by-discovery-is-great-tv-for.html\',\'4953674377944291047\');\n_WidgetManager._SetDataContext([{\'name\': \'blog\', \'data\': {\'blogId\': \'4953674377944291047\', \'bloggerUrl\': \'http://www.blogger.com\', \'title\': \'One Opinionated Woman\', \'pageType\': \'item\', \'url\': \'http://1opinionatedwoman.blogspot.com/2012/07/velocity-by-discovery-is-great-tv-for.html\', \'canonicalUrl\': \'http://1opinionatedwoman.blogspot.com/2012/07/velocity-by-discovery-is-great-tv-for.html\', \'canonicalHomepageUrl\': \'http://1opinionatedwoman.blogspot.com/\', \'homepageUrl\': \'http://1opinionatedwoman.blogspot.com/\', \'blogspotFaviconUrl\': \'http://1opinionatedwoman.blogspot.com/favicon.ico\', \'enabledCommentProfileImages\': true, \'adultContent\': false, \'disableAdSenseWidget\': false, \'analyticsAccountNumber\': \'\', \'searchLabel\': \'\', \'searchQuery\': \'\', \'pageName\': \'Velocity by Discovery is great TV for automobile enthusiasts\', \'pageTitle\': \'One Opinionated Woman: Velocity by Discovery is great TV for automobile enthusiasts\', \'encoding\': \'UTF-8\', \'locale\': \'en\', \'isPrivate\': false, \'isMobile\': false, \'isMobileRequest\': false, \'mobileClass\': \'\', \'isPrivateBlog\': false, \'languageDirection\': \'ltr\', \'feedLinks\': \'\\74link rel\\75\\42alternate\\42 type\\75\\42application/atom+xml\\42 title\\75\\42One Opinionated Woman - Atom\\42 href\\75\\42http://1opinionatedwoman.blogspot.com/feeds/posts/default\\42 /\\76\\n\\74link rel\\75\\42alternate\\42 type\\75\\42application/rss+xml\\42 title\\75\\42One Opinionated Woman - RSS\\42 href\\75\\42http://1opinionatedwoman.blogspot.com/feeds/posts/default?alt\\75rss\\42 /\\76\\n\\74link rel\\75\\42service.post\\42 type\\75\\42application/atom+xml\\42 title\\75\\42One Opinionated Woman - Atom\\42 href\\75\\42http://www.blogger.com/feeds/4953674377944291047/posts/default\\42 /\\76\\n\\74link rel\\75\\42EditURI\\42 type\\75\\42application/rsd+xml\\42 title\\75\\42RSD\\42 href\\75\\42http://www.blogger.com/rsd.g?blogID\\0754953674377944291047\\42 /\\76\\n\\74link rel\\75\\42alternate\\42 type\\75\\42application/atom+xml\\42 title\\75\\42One Opinionated Woman - Atom\\42 href\\75\\42http://1opinionatedwoman.blogspot.com/feeds/77241029842138081/comments/default\\42 /\\76\\n\', \'meTag\': \'\', \'openIdOpTag\': \'\', \'postImageThumbnailUrl\': \'http://4.bp.blogspot.com/-kBLxT0xTpgI/UBC5h2dn5KI/AAAAAAAABWw/AnrqDM4kS5M/s72-c/Velocity_Logo_ID.jpg\', \'imageSrcTag\': \'\\74link rel\\75\\42image_src\\42 href\\75\\42http://4.bp.blogspot.com/-kBLxT0xTpgI/UBC5h2dn5KI/AAAAAAAABWw/AnrqDM4kS5M/s72-c/Velocity_Logo_ID.jpg\\42 /\\76\\n\', \'latencyHeadScript\': \'\\74script type\\75\\42text/javascript\\42\\76(function() { var a\\75window,b\\75\\42jstiming\\42,d\\75\\42tick\\42;var e\\75function(c){this.t\\75{};this.tick\\75function(c,p,h){h\\75void 0!\\75h?h:(new Date).getTime();this.t[c]\\75[h,p]};this[d](\\42start\\42,null,c)},f\\75new e;a.jstiming\\75{Timer:e,load:f};if(a.performance\\46\\46a.performance.timing){var g\\75a.performance.timing,j\\75a[b].load,k\\75g.navigationStart,l\\75g.responseStart;0\\74k\\46\\46l\\76\\75k\\46\\46(j[d](\\42_wtsrt\\42,void 0,k),j[d](\\42wtsrt_\\42,\\42_wtsrt\\42,l),j[d](\\42tbsd_\\42,\\42wtsrt_\\42))}\\ntry{var m\\75null;a.chrome\\46\\46a.chrome.csi\\46\\46(m\\75Math.floor(a.chrome.csi().pageT),j\\46\\0460\\74k\\46\\46(j[d](\\42_tbnd\\42,void 0,a.chrome.csi().startE),j[d](\\42tbnd_\\42,\\42_tbnd\\42,k)));null\\75\\75m\\46\\46a.gtbExternal\\46\\46(m\\75a.gtbExternal.pageT());null\\75\\75m\\46\\46a.external\\46\\46(m\\75a.external.pageT,j\\46\\0460\\74k\\46\\46(j[d](\\42_tbnd\\42,void 0,a.external.startE),j[d](\\42tbnd_\\42,\\42_tbnd\\42,k)));m\\46\\46(a[b].pt\\75m)}catch(n){};a.tickAboveFold\\75function(c){var i\\0750;if(c.offsetParent){do i+\\75c.offsetTop;while(c\\75c.offsetParent)}c\\75i;750\\76\\75c\\46\\46a[b].load[d](\\42aft\\42)};var q\\75!1;function r(){q||(q\\75!0,a[b].load[d](\\42firstScrollTime\\42))}a.addEventListener?a.addEventListener(\\42scroll\\42,r,!1):a.attachEvent(\\42onscroll\\42,r);\\n })();\\74/script\\076\', \'mobileHeadScript\': \'\', \'ieCssRetrofitLinks\': \'\\74!--[if IE]\\76\\74script type\\75\\42text/javascript\\42 src\\75\\42//www.blogger.com/static/v1/jsbin/3651483553-ieretrofit.js\\42\\76\\74/script\\76\\n\\74![endif]--\\076\', \'view\': \'\', \'dynamicViewsCommentsSrc\': \'//www.blogblog.com/dynamicviews/4224c15c4e7c9321/js/comments.js\', \'dynamicViewsScriptSrc\': \'//www.blogblog.com/dynamicviews/04452fcc9c8aa994\'}}, {\'name\': \'skin\', \'data\': {\'vars\': {\'content_padding\': \'15px\', \'tabs_selected_background_color\': \'#ffffff\', \'region_shadow_spread\': \'0\', \'header_padding\': \'30px\', \'tab_selected_background_gradient\': \'url(http://www.blogblog.com/1kt/transparent/tabs_gradient_shade.png)\', \'link_visited_color\': \'#771000\', \'tabs_margin_sides\': \'0\', \'post_title_font\': \'italic bold 28px Arial, Tahoma, Helvetica, FreeSans, sans-serif\', \'tabs_separator_color\': \'#cccccc\', \'tabs_text_color\': \'#992211\', \'header_background_gradient\': \'url(http://www.blogblog.com/1kt/transparent/header_gradient_shade.png)\', \'widget_title_font\': \'bold normal 13px Arial, Tahoma, Helvetica, FreeSans, sans-serif\', \'tab_first_border_radius\': \'10px\', \'tabs_border_radius\': \'10px\', \'keycolor\': \'#992211\', \'content_shadow_spread\': \'3px\', \'main_background\': \'transparent none repeat scroll top center\', \'header_font\': \'normal bold 50px Calligraffitti\', \'footer_background\': \'transparent url(//www.blogblog.com/1kt/transparent/black50.png) repeat scroll top left\', \'header_background_color\': \'#992211\', \'widget_title_text_transform\': \'uppercase\', \'footer_link_visited_color\': \'#cccc99\', \'footer_link_hover_color\': \'#ffffff\', \'footer_border_radius_bottom\': \'10px\', \'tabs_background_gradient\': \'url(http://www.blogblog.com/1kt/transparent/tabs_gradient_shade.png)\', \'tab_background\': \'transparent none no-repeat scroll top left\', \'mobile_background_overlay\': \'transparent none repeat scroll top left\', \'tabs_background_color\': \'#f5f5f5\', \'header_border_radius\': \'10px\', \'post_margin_sides\': \'-20px\', \'link_hover_color\': \'#cc4411\', \'footer_link_color\': \'#ffffdd\', \'content_background\': \'transparent url(http://www.blogblog.com/1kt/transparent/white80.png) repeat scroll top left\', \'tabs_margin_bottom\': \'0\', \'body_text_color\': \'#333333\', \'main_padding_sides\': \'5px\', \'post_border_color\': \'#dddddd\', \'footer_text_color\': \'#eeeeee\', \'footer_border_radius_top\': \'10px\', \'post_background_color\': \'#ffffff\', \'content_border_radius\': \'15px\', \'endSide\': \'right\', \'post_footer_text_color\': \'#999999\', \'startSide\': \'left\', \'date_header_color\': \'#333333\', \'tabs_font\': \'normal bold 14px Calligraffitti\', \'body_font\': \'normal normal 15px Arial, Tahoma, Helvetica, FreeSans, sans-serif\', \'post_border_radius\': \'10px\', \'widget_title_text_color\': \'#666666\', \'content_margin\': \'30px\', \'link_color\': \'#992211\', \'footer_widget_title_text_color\': \'#bbbbbb\', \'header_text_color\': \'#ffffff\', \'main_border_radius_top\': \'0\', \'region_shadow_offset\': \'0\', \'tab_border_radius\': \'0\', \'tabs_selected_text_color\': \'#000000\', \'body_background_color\': \'#dddddd\', \'tabs_spacing\': \'0\'}, \'override\': \'\'}}, {\'name\': \'view\', \'data\': {\'classic\': {\'name\': \'classic\', \'url\': \'/?view\\75classic\'}, \'flipcard\': {\'name\': \'flipcard\', \'url\': \'/?view\\75flipcard\'}, \'magazine\': {\'name\': \'magazine\', \'url\': \'/?view\\75magazine\'}, \'mosaic\': {\'name\': \'mosaic\', \'url\': \'/?view\\75mosaic\'}, \'sidebar\': {\'name\': \'sidebar\', \'url\': \'/?view\\75sidebar\'}, \'snapshot\': {\'name\': \'snapshot\', \'url\': \'/?view\\75snapshot\'}, \'timeslide\': {\'name\': \'timeslide\', \'url\': \'/?view\\75timeslide\'}}}]);\n_WidgetManager._RegisterWidget(\'_PageListView\', new _WidgetInfo(\'PageList1\', \'crosscol\', null, document.getElementById(\'PageList1\'), {\'title\': \'Pages\', \'links\': [{\'href\': \'http://1opinionatedwoman.blogspot.com/\', \'title\': \'The Latest\', \'isCurrentPage\': false}, {\'href\': \'http://1opinionatedwoman.blogspot.com/p/my-fitness-revolution.html\', \'title\': \'My Fitness Revolution\', \'isCurrentPage\': false}, {\'href\': \'http://1opinionatedwoman.blogspot.com/p/from-spain-with-love.html\', \'title\': \'From Spain With Love\', \'isCurrentPage\': false}, {\'href\': \'http://1opinionatedwoman.blogspot.com/p/top-gear-on-history.html\', \'title\': \'Top Gear on History\', \'isCurrentPage\': false}, {\'href\': \'http://1opinionatedwoman.blogspot.com/p/whos-this-woman.html\', \'title\': \'Who\\47s this woman?\', \'isCurrentPage\': false}], \'mobile\': false}, \'displayModeFull\'));\n_WidgetManager._RegisterWidget(\'_AttributionView\', new _WidgetInfo(\'Attribution1\', \'footer-3\', null, document.getElementById(\'Attribution1\'), {\'attribution\': \'Picture Window template. Powered by \\74a href\\75\\47http://www.blogger.com\\47 target\\75\\47_blank\\47\\76Blogger\\74/a\\76.\'}, \'displayModeFull\'));\n_WidgetManager._RegisterWidget(\'_HeaderView\', new _WidgetInfo(\'Header1\', \'header\', null, document.getElementById(\'Header1\'), {}, \'displayModeFull\'));\n_WidgetManager._RegisterWidget(\'_BlogView\', new _WidgetInfo(\'Blog1\', \'main\', null, document.getElementById(\'Blog1\'), {\'cmtInteractionsEnabled\': false, \'showBacklinks\': true, \'postId\': \'77241029842138081\', \'lightboxEnabled\': true, \'lightboxModuleUrl\': \'//www.blogger.com/static/v1/jsbin/1664432155-lbx.js\', \'lightboxCssUrl\': \'//www.blogger.com/static/v1/v-css/228702327-lightbox_bundle.css\'}, \'displayModeFull\'));\n_WidgetManager._RegisterWidget(\'_HTMLView\', new _WidgetInfo(\'HTML10\', \'main\', null, document.getElementById(\'HTML10\'), {}, \'displayModeFull\'));\n_WidgetManager._RegisterWidget(\'_HTMLView\', new _WidgetInfo(\'HTML9\', \'main\', null, document.getElementById(\'HTML9\'), {}, \'displayModeFull\'));\n_WidgetManager._RegisterWidget(\'_HTMLView\', new _WidgetInfo(\'HTML8\', \'sidebar-right-1\', null, document.getElementById(\'HTML8\'), {}, \'displayModeFull\'));\n_WidgetManager._RegisterWidget(\'_PlusBadgeView\', new _WidgetInfo(\'PlusBadge1\', \'sidebar-right-1\', null, document.getElementById(\'PlusBadge1\'), {}, \'displayModeFull\'));\n_WidgetManager._RegisterWidget(\'_HTMLView\', new _WidgetInfo(\'HTML13\', \'sidebar-right-1\', null, document.getElementById(\'HTML13\'), {}, \'displayModeFull\'));\n_WidgetManager._RegisterWidget(\'_HTMLView\', new _WidgetInfo(\'HTML6\', \'sidebar-right-1\', null, document.getElementById(\'HTML6\'), {}, \'displayModeFull\'));\n_WidgetManager._RegisterWidget(\'_HTMLView\', new _WidgetInfo(\'HTML4\', \'sidebar-right-1\', null, document.getElementById(\'HTML4\'), {}, \'displayModeFull\'));\n_WidgetManager._RegisterWidget(\'_SubscribeView\', new _WidgetInfo(\'Subscribe1\', \'sidebar-right-1\', null, document.getElementById(\'Subscribe1\'), {}, \'displayModeFull\'));\n_WidgetManager._RegisterWidget(\'_FollowByEmailView\', new _WidgetInfo(\'FollowByEmail1\', \'sidebar-right-1\', null, document.getElementById(\'FollowByEmail1\'), {}, \'displayModeFull\'));\n_WidgetManager._RegisterWidget(\'_HTMLView\', new _WidgetInfo(\'HTML2\', \'sidebar-right-1\', null, document.getElementById(\'HTML2\'), {}, \'displayModeFull\'));\n_WidgetManager._RegisterWidget(\'_HTMLView\', new _WidgetInfo(\'HTML1\', \'sidebar-right-1\', null, document.getElementById(\'HTML1\'), {}, \'displayModeFull\'));\n_WidgetManager._RegisterWidget(\'_HTMLView\', new _WidgetInfo(\'HTML5\', \'sidebar-right-1\', null, document.getElementById(\'HTML5\'), {}, \'displayModeFull\'));\n_WidgetManager._RegisterWidget(\'_HTMLView\', new _WidgetInfo(\'HTML7\', \'sidebar-right-1\', null, document.getElementById(\'HTML7\'), {}, \'displayModeFull\'));\n_WidgetManager._RegisterWidget(\'_FollowersView\', new _WidgetInfo(\'Followers1\', \'sidebar-right-2-2\', null, document.getElementById(\'Followers1\'), {\'title\': \'Followers\', \'codeSnippet\': \'\\74script type\\75\\42text/javascript\\42\\76\\n        if (!window.google || !google.friendconnect) {\\n          document.write(\\47\\74script type\\75\\42text/javascript\\42\\47 +\\n              \\47src\\75\\42http://www.google.com/friendconnect/script/friendconnect.js\\42\\76\\47 +\\n              \\47\\74/scr\\47 + \\47ipt\\76\\47);\\n        }\\n      \\74/script\\76\\n\\74script type\\75\\42text/javascript\\42\\76\\n      if (!window.registeredBloggerCallbacks) {\\n        window.registeredBloggerCallbacks \\75 true;\\n\\n        \\n\\n        \\n        gadgets.rpc.register(\\47requestReload\\47, function() {\\n          document.location.reload();\\n        });\\n\\n        \\n        gadgets.rpc.register(\\47requestSignOut\\47, function(siteId) {\\n          \\n          google.friendconnect.container.openSocialSiteId \\75 siteId;\\n          google.friendconnect.requestSignOut();\\n        });\\n      }\\n    \\74/script\\76\\n\\74script type\\75\\42text/javascript\\42\\76\\n    \\n    function registerGetBlogUrls() {\\n      gadgets.rpc.register(\\47getBlogUrls\\47, function() {\\n        var holder \\75 {};\\n        \\n          \\n            \\n            \\n              holder.currentPost \\75 \\42http://www.blogger.com/feeds/4953674377944291047/posts/default/77241029842138081\\42;\\n            \\n            \\n            \\n              holder.currentComments \\75 \\42http://www.blogger.com/feeds/4953674377944291047/77241029842138081/comments/default\\42;\\n            \\n            holder.currentPostUrl \\75 \\42\\42;\\n            holder.currentPostId \\75 77241029842138081\\n          \\n          \\n          \\n            holder.postFeed \\75 \\42http://www.blogger.com/feeds/4953674377944291047/posts/default\\42;\\n          \\n          \\n          \\n            holder.commentFeed \\75 \\42http://www.blogger.com/feeds/4953674377944291047/comments/default\\42;\\n          \\n          holder.currentBlogUrl \\75 \\42http://1opinionatedwoman.blogspot.com/\\42;\\n          holder.currentBlogId \\75 \\0424953674377944291047\\42;\\n        \\n        return holder;\\n      });\\n    }\\n  \\74/script\\76\\n\\74script type\\75\\42text/javascript\\42\\76\\n  if (!window.registeredCommonBloggerCallbacks) {\\n    window.registeredCommonBloggerCallbacks \\75 true;\\n\\n    gadgets.rpc.register(\\47resize_iframe\\47, function(height) {\\n      var el \\75 document.getElementById(this[\\47f\\47]);\\n      if (el) {\\n        el.style.height \\75 height + \\47px\\47;\\n      }\\n    });\\n\\n    \\n    gadgets.rpc.register(\\47set_pref\\47, function() {});\\n\\n    registerGetBlogUrls();\\n  }\\n  \\74/script\\76\\n\\74div id\\75\\42div-1iyjgfwi0lsqs\\42 style\\75\\42width: 100%; \\42\\76\\74/div\\76\\n\\74script type\\75\\42text/javascript\\42\\76\\n    var skin \\75 {};\\n    skin[\\47FACE_SIZE\\47] \\75 \\04732\\47;\\n    skin[\\47HEIGHT\\47] \\75 \\042260\\42;\\n    skin[\\47TITLE\\47] \\75 \\42Followers\\42;\\n    skin[\\47BORDER_COLOR\\47] \\75 \\42transparent\\42;\\n    skin[\\47ENDCAP_BG_COLOR\\47] \\75 \\42transparent\\42;\\n    skin[\\47ENDCAP_TEXT_COLOR\\47] \\75 \\42#333333\\42;\\n    skin[\\47ENDCAP_LINK_COLOR\\47] \\75 \\42#992211\\42;\\n    skin[\\47ALTERNATE_BG_COLOR\\47] \\75 \\42transparent\\42;\\n    \\n    skin[\\47CONTENT_BG_COLOR\\47] \\75 \\42transparent\\42;\\n    skin[\\47CONTENT_LINK_COLOR\\47] \\75 \\42#992211\\42;\\n    skin[\\47CONTENT_TEXT_COLOR\\47] \\75 \\42#333333\\42;\\n    skin[\\47CONTENT_SECONDARY_LINK_COLOR\\47] \\75 \\42#992211\\42;\\n    skin[\\47CONTENT_SECONDARY_TEXT_COLOR\\47] \\75 \\42#000000\\42;\\n    skin[\\47CONTENT_HEADLINE_COLOR\\47] \\75 \\42#666666\\42;\\n    skin[\\47FONT_FACE\\47] \\75 \\42normal normal 15px Arial, Tahoma, Helvetica, FreeSans, sans-serif\\42;\\n    google.friendconnect.container.setParentUrl(\\42/\\42);\\n    google.friendconnect.container[\\42renderMembersGadget\\42](\\n    {id: \\42div-1iyjgfwi0lsqs\\42,\\n     height: 260,\\n     \\n     \\n     \\n     site: \\04200773528781023118891\\42,\\n     \\n     locale: \\47en\\47 },\\n     skin);\\n  \\74/script\\076\'}, \'displayModeFull\'));\n_WidgetManager._RegisterWidget(\'_HTMLView\', new _WidgetInfo(\'HTML3\', \'sidebar-right-2-1\', null, document.getElementById(\'HTML3\'), {}, \'displayModeFull\'));\n_WidgetManager._RegisterWidget(\'_NavbarView\', new _WidgetInfo(\'Navbar1\', \'navbar\', null, document.getElementById(\'Navbar1\'), {}, \'displayModeFull\'));\n_WidgetManager._RegisterWidget(\'_HTMLView\', new _WidgetInfo(\'HTML16\', \'footer-1\', null, document.getElementById(\'HTML16\'), {}, \'displayModeFull\'));\n    </script>\n  </body>\n</html>'
p11
sbsS'mentions'
p12
(lp13
(iedu.umass.cs.iesl.wikilink.expanded.data.ttypes
Mention
p14
(dp15
S'anchor_text'
p16
S'Rides'
p17
sS'context'
p18
(iedu.umass.cs.iesl.wikilink.expanded.data.ttypes
Context
p19
(dp20
S'middle'
p21
S'Rides'
p22
sS'right'
p23
S'.\xc2\xa0 Now Velocity has a slew of shows including these two that should satiate any car lover\xe2\x80\x99s appetite, except for World Poker Tour Season 8'
p24
sS'left'
p25
S'mid-2000\xe2\x80\x99s two shows captured the attention of those who claim to have petrol in their veins.\xc2\xa0 It was the Tuesday night combination of Overhaulin\xe2\x80\x99 and'
p26
sbsS'freebase_id'
p27
S'9202a8c04000641f800000000877210d'
p28
sS'raw_text_offset'
p29
I32227
sS'wiki_url'
p30
S'http://en.wikipedia.org/wiki/Rides_(American_TV_series)'
p31
sba(iedu.umass.cs.iesl.wikilink.expanded.data.ttypes
Mention
p32
(dp33
g16
S'World Poker Tour Season 8'
p34
sg18
(iedu.umass.cs.iesl.wikilink.expanded.data.ttypes
Context
p35
(dp36
g21
S'World Poker Tour Season 8'
p37
sg23
S'.\xc2\xa0 I\xe2\x80\x99m not too sure what that\xe2\x80\x99s doing there but whatever.\xc2\xa0 Here are some of the shows that I\xe2\x80\x99ve seen, enjoyed and encourage you to'
p38
sg25
S'combination of Overhaulin\xe2\x80\x99 and Rides .\xc2\xa0 Now Velocity has a slew of shows including these two that should satiate any car lover\xe2\x80\x99s appetite, except for'
p39
sbsg27
S'9202a8c04000641f800000000024b6b2'
p40
sg29
I32416
sg30
S'http://en.wikipedia.org/wiki/World_Poker_Tour'
p41
sbasS'doc_id'
p42
I2267
sS'rare_words'
p43
(lp44
(iedu.umass.cs.iesl.wikilink.expanded.data.ttypes
RareWord
p45
(dp46
S'word'
p47
S'previous'
p48
sS'offset'
p49
I34247
sba(iedu.umass.cs.iesl.wikilink.expanded.data.ttypes
RareWord
p50
(dp51
g47
S'wheel'
p52
sg49
I36574
sba(iedu.umass.cs.iesl.wikilink.expanded.data.ttypes
RareWord
p53
(dp54
g47
S'Ride'
p55
sg49
I33707
sba(iedu.umass.cs.iesl.wikilink.expanded.data.ttypes
RareWord
p56
(dp57
g47
S'Future'
p58
sg49
I41684
sba(iedu.umass.cs.iesl.wikilink.expanded.data.ttypes
RareWord
p59
(dp60
g47
S'document'
p61
sg49
I41370
sba(iedu.umass.cs.iesl.wikilink.expanded.data.ttypes
RareWord
p62
(dp63
g47
S'Nothing'
p64
sg49
I34525
sba(iedu.umass.cs.iesl.wikilink.expanded.data.ttypes
RareWord
p65
(dp66
g47
S'caricature'
p67
sg49
I38027
sba(iedu.umass.cs.iesl.wikilink.expanded.data.ttypes
RareWord
p68
(dp69
g47
S'fun'
p70
sg49
I38485
sba(iedu.umass.cs.iesl.wikilink.expanded.data.ttypes
RareWord
p71
(dp72
g47
S'Poker'
p73
sg49
I32422
sba(iedu.umass.cs.iesl.wikilink.expanded.data.ttypes
RareWord
p74
(dp75
g47
S'Virgin'
p76
sg49
I34074
sbasb.