(iedu.umass.cs.iesl.wikilink.expanded.data.ttypes
WikiLinkItem
p0
(dp1
S'url'
p2
S'http://armchairealm.com/battle-of-film-industry-against-piracy/'
p3
sS'content'
p4
(iedu.umass.cs.iesl.wikilink.expanded.data.ttypes
PageContentItem
p5
(dp6
S'articleText'
p7
NsS'raw'
p8
NsS'fullText'
p9
NsS'dom'
p10
S'<html lang="en-US" dir="ltr">\n  <head>\n    <meta charset="UTF-8"></meta>\n    <meta content="width=device-width" name="viewport"></meta>\n    <title>Battle Of Film Industry Against Piracyarmchairealm.com</title>\n    <link href="http://gmpg.org/xfn/11" rel="profile"></link>\n    <link href="http://armchairealm.com/xmlrpc.php" rel="pingback"></link>\n    <meta content="Currently, no matter what the particular Top court claims about copyright, as the movie industries technologies becomes the ultimate state in the issue. As" name="description"></meta>\n    <link href="http://armchairealm.com/battle-of-film-industry-against-piracy/" rel="canonical"></link>\n    <link href="http://armchairealm.com/feed/" title="armchairealm.com \xc2\xbb Feed" type="application/rss+xml" rel="alternate"></link>\n    <link href="http://armchairealm.com/comments/feed/" title="armchairealm.com \xc2\xbb Comments Feed" type="application/rss+xml" rel="alternate"></link>\n    <link media="all" type="text/css" href="http://armchairealm.com/wp-content/themes/patchwork/style.css?ver=3.4.2" rel="stylesheet" id="style-css"></link>\n    <link media="all" type="text/css" href="http://fonts.googleapis.com/css?family=Sail%7CCabin&amp;ver=3.4.2" rel="stylesheet" id="googleFonts-css"></link>\n    <link media="all" type="text/css" href="http://armchairealm.com/wp-content/plugins/sem-external-links/sem-external-links.css?ver=20090903" rel="stylesheet" id="external-links-css"></link>\n    <script src="http://armchairealm.com/wp-includes/js/jquery/jquery.js?ver=1.7.2" type="text/javascript"></script>\n    <link href="http://armchairealm.com/?p=19" rel="shortlink"></link>\n    <style type="text/css" id="custom-background-css"> body.custom-background { background-image: url(\'http://armchairealm.com/wp-content/themes/patchwork/images/texture.png\'); background-repeat: repeat; background-position: top left; background-attachment: scroll; } </style>\n  </head>\n  <body class="single single-post postid-19 single-format-standard custom-background style-babycakes">\n    <div id="page" class="hfeed site">\n      <header role="banner" class="site-header" id="masthead">\n        <hgroup>\n          <h1 class="site-title">\n            <a rel="home" title="armchairealm.com" href="http://armchairealm.com/" shape="rect">armchairealm.com</a>\n          </h1>\n          <h2 class="site-description"></h2>\n        </hgroup>\n      </header>\n      <nav class="site-navigation main-navigation" role="navigation">\n        <h1 class="assistive-text">Menu</h1>\n        <div class="assistive-text skip-link">\n          <a title="Skip to content" href="#content" shape="rect">Skip to content</a>\n        </div>\n        <div class="menu">\n          <ul>\n            <li>\n              <a title="Home" href="http://armchairealm.com/" shape="rect">Home</a>\n            </li>\n          </ul>\n        </div>\n      </nav>\n      <div id="main">\n        <div id="primary" class="site-content">\n          <div role="main" id="content">\n            <article class="post-19 post type-post status-publish format-standard hentry category-uncategorized tag-arts tag-film" id="post-19">\n              <header class="entry-header">\n                <h1 class="entry-title">Battle Of Film Industry Against Piracy</h1>\n                <div class="entry-meta">\n                  Posted on\n                  <a rel="bookmark" title="9:13 pm" href="http://armchairealm.com/battle-of-film-industry-against-piracy/" shape="rect">\n                    <time pubdate="pubdate" datetime="2012-06-03T21:13:18+00:00" class="entry-date">June 3, 2012</time>\n                  </a>\n                  <span class="byline">\n                    by\n                    <span class="author vcard">\n                      <a rel="author" title="View all posts by tati" href="http://armchairealm.com/author/chimu25/" class="url fn n" shape="rect">tati</a>\n                    </span>\n                  </span>\n                </div>\n              </header>\n              <div class="entry-content">\n                <p>\n                  Currently, no matter what the particular Top court claims about copyright, as the movie industries technologies becomes the ultimate state in the issue. As to the booming film industry throughout Of asia, known as \xe2\x80\x9c\n                  <a target="_blank" rel="wikipedia nofollow" href="http://en.wikipedia.org/wiki/Bollywood" title="Bollywood" class="zem_slink external external_icon" shape="rect">Bollywood</a>\n                  \xe2\x80\x9c, each Mr. Pfeiffer and Milliseconds Velupe notice being a positive indication regarding ethnic range, as opposed to like a danger so that you can motion picture market sectors throughout China and Hong Kong. In reality, the true issue harmful the actual motion picture sectors in the Hong Kong as well as Cina may be the difficulty associated with piracy, not competition coming via some various different Japan, based on the loudaudio system. It is the start of person technology (those who came after the conflict had extra variety of youngsters as well as began gathering the particular society) and the reputation regarding a lot of children started influencing the background music and film market sectors. As the Creative Commons (CC) and the Electronic Wilderness Basis (EFF) are going to do a hell of the congrats withinside trying to make up for the restrictive activities enforced and introduced forwards by the audio and motion picture sectors, hardly any young people tend to be subsequent or even are even aware of the main problems concerning property, content discussing, submission and also copyright laws.\n                </p>\n                <p>\n                  The lording it over is another shock since the People technologies field generates a lot more cash than the songs and motion picture industries and several commentators anticipated this particular to hold pounds using the Top court. Although the songs and also movie industries tend to be combating the particular sites to stop piracy, it really is broadly thought that some sort of file-sharing method will eventually be the best means for fans to have your hands on the content they want to take in. It is likely though a locked-down system in which limitations discussing, for example\n                  <a target="_blank" rel="homepage nofollow" href="http://www.apple.com/itunes" title="ITunes" class="zem_slink external external_icon" shape="rect">iTunes</a>\n                  and all the rivals, will be the songs as well as motion picture sectors\xe2\x80\x99 favored route for this downloading. Since the innovation of movement photos, motion picture market sectors around the world have got relied on the supply associated with scientific advancements to maximize production techniques, boost earnings, as well as lure audiences. One more, much a lot far additional powerful basis for the family member constancy of motion photo technology continues to be disinclination by motion picture industries\xe2\x80\x93and specially the eight minor and major companies associated with classical Hollywood\xe2\x80\x93to produce wide spread modifications needing pricey, comprehensive modernizes of the industry. The majority of the the southern area of declares have got their particular movie industries [which are really active]. , the promotion as well as marketing and advertising organization creating a reputation for themselves in the posting and film Sectors, is determined to elevate to the stars. When referring to the submitting and also film sectors the actual appeal swells regarding die hard representation.\n                </p>\n                <p>\n                  Withon this pleased land, there\xe2\x80\x99s no fundamental risk for the audio or perhaps movie sectors, or even, to check more a field, to the output of pharmaceutical drugs or perhaps computer software package, and no opportunity that individuals is going to be without the benefit of their imagination. Both the record and film market sectors insist upon quite possibly just about the foremost curbing electronic digital camera rights management techniques plus it seems one of their own strategies would be to have their lawful teams parse every mundane action in a individual set of permit authorizations.\n                </p>\n                <h6 style="font-size: 1em;" class="zemanta-related-title">Related articles</h6>\n                <ul style="margin-left: 0; display: inline-block; list-style-type: none;" class="zemanta-article-ul zemanta-article-ul-image">\n                  <li style="display: inline-block; vertical-align: top; text-align: left; font-size: 12px; width: 80px; height: 240px; margin: 10px 40px 20px 0px; zoom: 1; *display: inline;" class="zemanta-article-ul-li-image zemanta-article-ul-li">\n                    <a rel="nofollow" target="_blank" href="http://www.rawstory.com/rs/2012/04/02/french-film-music-industries-shrink-despite-harsh-anti-piracy-law/" class="external" shape="rect">\n                      <img title="Battle Of Film Industry Against Piracy" alt="noimg 16 80 80 Battle Of Film Industry Against Piracy" src="http://i.zemanta.com/noimg_16_80_80.jpg" style="padding: 0; margin: 0 10px 10px 0; border: 0; display: block; box-shadow: 1px 1px 3px #999;"></img>\n                    </a>\n                    <a \n                    rel="nofollow" target="_blank" href="http://www.rawstory.com/rs/2012/04/02/french-film-music-industries-shrink-despite-harsh-anti-piracy-law/" style="display: block; width: 80px; height: 90px; overflow: hidden; text-decoration: none; line-height: 14pt;" class="external external_icon" shape="rect">\n                      French film, music industries shrink despite harsh anti-piracy law\n</a>\n                    <div style="clear: both; margin: 10px 0 10px 0;">\n                      <hr style="margin: 0;"></hr>\n                    </div>\n                  </li>\n                </ul>\n                <div style="margin-top: 10px; height: 15px;" class="zemanta-pixie">\n                  <img title="Battle Of Film Industry Against Piracy" alt=" Battle Of Film Industry Against Piracy" src="http://img.zemanta.com/pixy.gif?x-id=8fa20214-cfd2-47d0-9e60-0e99a78ac4c9" style="border: none; float: right;" class="zemanta-pixie-img"></img>\n                </div>\n                <h3 class="related_post_title">Related Posts:</h3>\n                <ul class="related_post">\n                  <li>\n                    <a title="Trends And Fashion" href="http://armchairealm.com/trends-and-fashion/" shape="rect">Trends And Fashion</a>\n                  </li>\n                </ul>\n              </div>\n              <footer class="entry-meta">\n                This entry was tagged\n                <a rel="tag" href="http://armchairealm.com/tag/arts/" shape="rect">Arts</a>\n                ,\n                <a rel="tag" href="http://armchairealm.com/tag/film/" shape="rect">Film</a>\n                .\n              </footer>\n            </article>\n            <nav class="site-navigation post-navigation" id="nav-below" role="navigation">\n              <h1 class="assistive-text">Post navigation</h1>\n              <div class="nav-previous">\n                <a rel="prev" href="http://armchairealm.com/how-to-become-a-gifted-industrial-designer/" shape="rect">\n                  <span class="meta-nav">\xc2\xab</span>\n                  How to Become a Gifted Industrial Designer\n                </a>\n              </div>\n              <div class="nav-next">\n                <a rel="next" href="http://armchairealm.com/how-to-achieve-the-goals/" shape="rect">\n                  How to achieve the goals\n                  <span class="meta-nav">\xc2\xbb</span>\n                </a>\n              </div>\n            </nav>\n          </div>\n        </div>\n        <div role="complementary" id="secondary" class="widget-area">\n          <aside class="widget widget_archive" id="archives-2">\n            <h2 class="widget-title">Archives</h2>\n            <ul>\n              <li>\n                <a title="July 2012" href="http://armchairealm.com/2012/07/" shape="rect">July 2012</a>\n              </li>\n              <li>\n                <a title="June 2012" href="http://armchairealm.com/2012/06/" shape="rect">June 2012</a>\n              </li>\n              <li>\n                <a title="May 2012" href="http://armchairealm.com/2012/05/" shape="rect">May 2012</a>\n              </li>\n            </ul>\n          </aside>\n        </div>\n      </div>\n      <footer role="contentinfo" class="site-footer" id="colophon">\n        <div class="site-info">\n          <a rel="generator nofollow" title="A Semantic Personal Publishing Platform" href="http://wordpress.org/" class="external external_icon" shape="rect">Proudly powered by WordPress</a>\n          <span class="sep"> | </span>\n          Patchwork Theme by\n          <a rel="designer nofollow" href="http://carolinemoore.net/" class="external external_icon" shape="rect">Caroline Moore</a>\n          .\n        </div>\n      </footer>\n      <div class="footer-bottom"></div>\n    </div>\n    <script src="http://armchairealm.com/wp-content/themes/patchwork/js/small-menu.js?ver=20120206" type="text/javascript"></script>\n  </body>\n</html>'
p11
sbsS'mentions'
p12
(lp13
(iedu.umass.cs.iesl.wikilink.expanded.data.ttypes
Mention
p14
(dp15
S'anchor_text'
p16
S'Bollywood'
p17
sS'context'
p18
(iedu.umass.cs.iesl.wikilink.expanded.data.ttypes
Context
p19
(dp20
S'middle'
p21
S'Bollywood'
p22
sS'right'
p23
S'\xe2\x80\x9c, each Mr. Pfeiffer and Milliseconds Velupe notice being a positive indication regarding ethnic range, as opposed to like a danger so that you can'
p24
sS'left'
p25
S'copyright, as the movie industries technologies becomes the ultimate state in the issue. As to the booming film industry throughout Of asia, known as \xe2\x80\x9c'
p26
sbsS'freebase_id'
p27
S'9202a8c04000641f800000000000adee'
p28
sS'raw_text_offset'
p29
I4105
sS'wiki_url'
p30
S'http://en.wikipedia.org/wiki/Bollywood'
p31
sbasS'doc_id'
p32
I3300114
sS'rare_words'
p33
(lp34
(iedu.umass.cs.iesl.wikilink.expanded.data.ttypes
RareWord
p35
(dp36
S'word'
p37
S'curbing'
p38
sS'offset'
p39
I7513
sba(iedu.umass.cs.iesl.wikilink.expanded.data.ttypes
RareWord
p40
(dp41
g37
S'Withon'
p42
sg39
I7121
sba(iedu.umass.cs.iesl.wikilink.expanded.data.ttypes
RareWord
p43
(dp44
g37
S'package'
p45
sg39
I7320
sba(iedu.umass.cs.iesl.wikilink.expanded.data.ttypes
RareWord
p46
(dp47
g37
S'seems'
p48
sg39
I7584
sba(iedu.umass.cs.iesl.wikilink.expanded.data.ttypes
RareWord
p49
(dp50
g37
S'thought'
p51
sg39
I5613
sba(iedu.umass.cs.iesl.wikilink.expanded.data.ttypes
RareWord
p52
(dp53
g37
S'die'
p54
sg39
I7089
sba(iedu.umass.cs.iesl.wikilink.expanded.data.ttypes
RareWord
p55
(dp56
g37
S'generates'
p57
sg39
I5329
sba(iedu.umass.cs.iesl.wikilink.expanded.data.ttypes
RareWord
p58
(dp59
g37
S'submission'
p60
sg39
I5213
sba(iedu.umass.cs.iesl.wikilink.expanded.data.ttypes
RareWord
p61
(dp62
g37
S'supply'
p63
sg39
I6216
sba(iedu.umass.cs.iesl.wikilink.expanded.data.ttypes
RareWord
p64
(dp65
g37
S'One'
p66
sg39
I6341
sbasb.