(iedu.umass.cs.iesl.wikilink.expanded.data.ttypes
WikiLinkItem
p0
(dp1
S'url'
p2
S'http://chinadailymail.com/2012/08/26/j-15-aircraft-seen-on-chinas-not-quite-ready-aircraft-carrier/'
p3
sS'content'
p4
(iedu.umass.cs.iesl.wikilink.expanded.data.ttypes
PageContentItem
p5
(dp6
S'articleText'
p7
NsS'raw'
p8
NsS'fullText'
p9
NsS'dom'
p10
S'<html lang="en" dir="ltr">\n  <head>\n    <meta charset="UTF-8"></meta>\n    <title>J-15 aircraft seen on China\xc3\xa2\xe2\x82\xac\xe2\x84\xa2s \xe2\x80\x9cnot-quite-ready\xe2\x80\x9d aircraft carrier \xc2\xab China Daily Mail</title>\n    <link href="http://gmpg.org/xfn/11" rel="profile"></link>\n    <link media="screen" type="text/css" href="http://s2.wp.com/wp-content/themes/pub/themorningafter/style.css?m=1339795534g" rel="stylesheet"></link>\n    <link href="http://chinadailymail.com/xmlrpc.php" rel="pingback"></link>\n    <script type="text/javascript" src="http://r-login.wordpress.com/remote-login.php?action=js&amp;host=chinadailymail.com&amp;id=33215671&amp;t=1349306690&amp;back=chinadailymail.com%2F2012%2F08%2F26%2Fj-15-aircraft-seen-on-chinas-not-quite-ready-aircraft-carrier%2F"></script>\n    <script type="text/javascript"> /* &lt;![CDATA[ */ if ( \'function\' === typeof WPRemoteLogin ) { document.cookie = &quot;wordpress_test_cookie=test; path=/&quot;; if ( document.cookie.match( /(;|^)\\s*wordpress_test_cookie\\=/ ) ) { WPRemoteLogin(); } } /* ]]&gt; */ </script>\n    <link href="http://chinadailymail.com/feed/" title="China Daily Mail \xc2\xbb Feed" type="application/rss+xml" rel="alternate"></link>\n    <link href="http://chinadailymail.com/comments/feed/" title="China Daily Mail \xc2\xbb Comments Feed" type="application/rss+xml" rel="alternate"></link>\n    <link href="http://chinadailymail.com/2012/08/26/j-15-aircraft-seen-on-chinas-not-quite-ready-aircraft-carrier/feed/" title="China Daily Mail \xc2\xbb J-15 aircraft seen on China\xc3\xa2\xe2\x82\xac\xe2\x84\xa2s \xe2\x80\x9cnot-quite-ready\xe2\x80\x9d aircraft\xc2\xa0carrier Comments Feed" type="application/rss+xml" rel="alternate"></link>\n    <script type="text/javascript"> /* &lt;![CDATA[ */ function addLoadEvent(func){var oldonload=window.onload;if(typeof window.onload!=\'function\'){window.onload=func;}else{window.onload=function(){oldonload();func();}}} /* ]]&gt; */ </script>\n    <link \n    media="all" type="text/css" href="http://s1.wp.com/_static/??/wp-content/blog-plugins/loggedout-follow/widget.css,/wp-content/mu-plugins/post-flair/style.css,/wp-content/mu-plugins/post-flair/sharing/sharing.css,/wp-content/themes/h4/global.css,/wp-content/mu-plugins/widgets/css/widget-grid-and-list.css?m=1349103886j" rel="stylesheet" id="all-css-0">\n</link>\n    <link media="print" type="text/css" href="http://s0.wp.com/wp-content/mu-plugins/global-print/global-print.css?m=1335386953g" rel="stylesheet" id="print-css-0"></link>\n    <script type="text/javascript"> /* &lt;![CDATA[ */ var LoggedOutFollow = {&quot;invalid_email&quot;:&quot;Your subscription did not succeed, please try again with a valid email address.&quot;}; /* ]]&gt; */ </script>\n    <script src="http://s0.wp.com/_static/??/wp-includes/js/jquery/jquery.js,/wp-content/blog-plugins/loggedout-follow/widget.js,/wp-includes/js/comment-reply.js,/wp-content/mu-plugins/widgets/js/widget-bump-view.js?m=1342269540j" type="text/javascript"></script>\n    <link media="all" type="text/css" href="http://s1.wp.com/wp-content/mu-plugins/highlander-comments/style.css?m=1343991657g" rel="stylesheet" id="all-css-0"></link>\n    <link href="http://chinadailymail.wordpress.com/xmlrpc.php?rsd" title="RSD" type="application/rsd+xml" rel="EditURI"></link>\n    <link href="http://chinadailymail.wordpress.com/wp-includes/wlwmanifest.xml" type="application/wlwmanifest+xml" rel="wlwmanifest"></link>\n    <link href="http://chinadailymail.com/2012/08/25/china-hopes-to-dominate-at-paralympics/" title="China hopes to dominate at\xc2\xa0Paralympics" rel="prev"></link>\n    <link href="http://chinadailymail.com/2012/08/27/china-bo-xilai-to-be-expelled-from-party/" title="China: Bo Xilai to be expelled from\xc2\xa0party" rel="next"></link>\n    <meta content="WordPress.com" name="generator"></meta>\n    <link href="http://chinadailymail.com/2012/08/26/j-15-aircraft-seen-on-chinas-not-quite-ready-aircraft-carrier/" rel="canonical"></link>\n    <link href="http://wp.me/p2fmUD-4w2" rel="shortlink"></link>\n    <link href="http://public-api.wordpress.com/oembed/1.0/?format=json&amp;url=http%3A%2F%2Fchinadailymail.com%2F2012%2F08%2F26%2Fj-15-aircraft-seen-on-chinas-not-quite-ready-aircraft-carrier%2F&amp;for=wpcom-auto-discovery" type="application/json+oembed" rel="alternate"></link>\n    <link href="http://public-api.wordpress.com/oembed/1.0/?format=xml&amp;url=http%3A%2F%2Fchinadailymail.com%2F2012%2F08%2F26%2Fj-15-aircraft-seen-on-chinas-not-quite-ready-aircraft-carrier%2F&amp;for=wpcom-auto-discovery" type="application/xml+oembed" rel="alternate"></link>\n    <meta content="article" property="og:type"></meta>\n    <meta content="J-15 aircraft seen on China\xc3\xa2\xe2\x82\xac\xe2\x84\xa2s \xe2\x80\x9cnot-quite-ready\xe2\x80\x9d aircraft\xc2\xa0carrier" property="og:title"></meta>\n    <meta content="http://chinadailymail.com/2012/08/26/j-15-aircraft-seen-on-chinas-not-quite-ready-aircraft-carrier/" property="og:url"></meta>\n    <meta content="According to Ming Pao\xc3\xa2\xe2\x82\xac\xe2\x84\xa2s exclusive report on August 22, in one of the newest pictures of China\xc3\xa2\xe2\x82\xac\xe2\x84\xa2s first aircraft carrier, a prototype of China\xc3\xa2\xe2\x82\xac\xe2\x84\xa2s new carrier-based aircraft J-15 is seen in a lifting t..." property="og:description"></meta>\n    <meta content="China Daily Mail" property="og:site_name"></meta>\n    <meta content="http://chinadailymail.files.wordpress.com/2012/08/26-j15-fighter.jpg?w=200" property="og:image"></meta>\n    <meta content="http://chinadailymail.files.wordpress.com/2012/08/26-j15-fighter.jpg" name="twitter:image"></meta>\n    <meta content="photo" name="twitter:card"></meta>\n    <meta content="278526411" name="twitter:creator:id"></meta>\n    <link sizes="16x16" href="http://0.gravatar.com/blavatar/0adb30bd15dda04c702153c4a0c2af15?s=16" type="image/x-icon" rel="shortcut icon"></link>\n    <link sizes="16x16" href="http://0.gravatar.com/blavatar/0adb30bd15dda04c702153c4a0c2af15?s=16" type="image/x-icon" rel="icon"></link>\n    <link href="http://1.gravatar.com/blavatar/ba1db56b31b0ac63b54b81d9f5f2140b?s=114" rel="apple-touch-icon-precomposed"></link>\n    <link href="http://chinadailymail.wordpress.com/?openidserver=1" rel="openid.server"></link>\n    <link href="http://chinadailymail.wordpress.com/" rel="openid.delegate"></link>\n    <link title="China Daily Mail" href="http://chinadailymail.com/osd.xml" type="application/opensearchdescription+xml" rel="search"></link>\n    <link title="WordPress.com" href="http://wordpress.com/opensearch.xml" type="application/opensearchdescription+xml" rel="search"></link>\n    <style>\n      /* &lt;![CDATA[ */\n\t\t/* Block: reblog */\n\t\t\n\t\t.reblog-from img                   { margin: 0 10px 0 0; vertical-align: middle; padding: 0; border: 0; }\n\t\t.reblogger-note img.avatar         { float: left; padding: 0; border: 0; }\n\t\t.reblogger-note-content            { margin: 0 0 20px; }\n\t\t.reblog-post .wpcom-enhanced-excerpt-content { border-left: 3px solid #eee; padding-left: 15px; }\n\t\t.reblog-post ul.thumb-list         { display: block; list-style: none; margin: 2px 0; padding: 0; clear: both; }\n\t\t.reblog-post ul.thumb-list li      { display: inline; margin: 0; padding: 0 1px; border: 0; }\n\t\t.reblog-post ul.thumb-list li a    { margin: 0; padding: 0; border: 0; }\n\t\t.reblog-post ul.thumb-list li img  { margin: 0; padding: 0; border: 0; }\n\t\t\n\t\t.reblog-post .wpcom-enhanced-excerpt { clear: both; }\n\t\t\n\t\t.reblog-post .wpcom-enhanced-excerpt address,\n\t\t.reblog-post .wpcom-enhanced-excerpt li,\n\t\t.reblog-post .wpcom-enhanced-excerpt h1,\n\t\t.reblog-post .wpcom-enhanced-excerpt h2,\n\t\t.reblog-post .wpcom-enhanced-excerpt h3,\n\t\t.reblog-post .wpcom-enhanced-excerpt h4,\n\t\t.reblog-post .wpcom-enhanced-excerpt h5,\n\t\t.reblog-post .wpcom-enhanced-excerpt h6,\n\t\t.reblog-post .wpcom-enhanced-excerpt p { font-size: 100% !important; }\n\t\t\n\t\t.reblog-post .wpcom-enhanced-excerpt blockquote,\n\t\t.reblog-post .wpcom-enhanced-excerpt pre,\n\t\t.reblog-post .wpcom-enhanced-excerpt code,\n\t\t.reblog-post .wpcom-enhanced-excerpt q { font-size: 98% !important; }\n\t\t\n\n\t\t/* ]]&gt; */\n    </style>\n    <meta content="China Daily Mail" name="application-name"></meta>\n    <meta content="width=device-width;height=device-height" name="msapplication-window"></meta>\n    <meta content="China Trade and General News" name="msapplication-tooltip"></meta>\n    <meta content="name=Subscribe;action-uri=http://chinadailymail.com/feed/;icon-uri=http://0.gravatar.com/blavatar/0adb30bd15dda04c702153c4a0c2af15?s=16" name="msapplication-task"></meta>\n    <meta content="name=Sign up for a free blog;action-uri=http://wordpress.com/signup/;icon-uri=http://s2.wp.com/i/favicon.ico" name="msapplication-task"></meta>\n    <meta content="name=WordPress.com Support;action-uri=http://support.wordpress.com/;icon-uri=http://s2.wp.com/i/favicon.ico" name="msapplication-task"></meta>\n    <meta content="name=WordPress.com Forums;action-uri=http://forums.wordpress.com/;icon-uri=http://s2.wp.com/i/favicon.ico" name="msapplication-task"></meta>\n    <meta content="J-15 aircraft seen on China\xc3\xa2\xe2\x82\xac\xe2\x84\xa2s \xe2\x80\x9cnot-quite-ready\xe2\x80\x9d aircraft\xc2\xa0carrier | China Daily Mail on WordPress.com" name="title"></meta>\n    <meta \n    content="According to Ming Pao\xc3\xa2\xe2\x82\xac\xe2\x84\xa2s exclusive report on August 22, in one of the newest pictures of China\xc3\xa2\xe2\x82\xac\xe2\x84\xa2s first aircraft carrier, a prototype of China\xc3\xa2\xe2\x82\xac\xe2\x84\xa2s new carrier-based aircraft J-15 is seen in a lifting test at Elevator No.1 on the starboard of China\xc3\xa2\xe2\x82\xac\xe2\x84\xa2s first aircraft carrier. Previously, in Phoenix Satellite TV\xc3\xa2\xe2\x82\xac\xe2\x84\xa2s Observation Post of Military Situation,\xe2\x80\xa6" name="description">\n</meta>\n    <script src="http://partner.googleadservices.com/gampad/google_service.js" type="text/javascript"> </script>\n    <script type="text/javascript"> GS_googleAddAdSenseService(&quot;ca-pub-3443918307802676&quot;); GS_googleEnableAllServices(); </script>\n    <script type="text/javascript"> GA_googleAddSlot(&quot;ca-pub-3443918307802676&quot;, &quot;Wordads_MIS_Mrec_adsafe&quot;); </script>\n    <script type="text/javascript"> GA_googleFetchAds(); </script>\n    <script type="text/javascript"> window.google_analytics_uacct = &quot;UA-52447-2&quot;; </script>\n    <script type="text/javascript">\n      var _gaq = _gaq || [];\n\t_gaq.push([\'_setAccount\', \'UA-52447-2\']);\n\t_gaq.push([\'_setDomainName\', \'none\']);\n\t_gaq.push([\'_setAllowLinker\', true]);\n\t_gaq.push([\'_initData\']);\n\t_gaq.push([\'_trackPageview\']);\n\n\t(function() {\n\t\tvar ga = document.createElement(\'script\'); ga.type = \'text/javascript\'; ga.async = true;\n\t\tga.src = (\'https:\' == document.location.protocol ? \'https://ssl\' : \'http://www\') + \'.google-analytics.com/ga.js\';\n\t\t(document.getElementsByTagName(\'head\')[0] || document.getElementsByTagName(\'body\')[0]).appendChild(ga);\n\t})();\n    </script>\n  </head>\n  <body class="single single-post postid-17362 single-format-standard highlander-enabled highlander-light">\n    <div class="container">\n      <div id="header" class="column full-width clear-fix">\n        <div id="logo" class="column first">\n          <div class="title">\n            <h3 class="site-title">\n              <a href="http://chinadailymail.com/" shape="rect">China Daily Mail</a>\n            </h3>\n            <div class="site-description desc">China Trade and General News</div>\n          </div>\n        </div>\n        <div id="search_menu" class="column border_left last">\n          <div id="search" class="column first">\n            <h3 class="mast4">Search</h3>\n            <div id="search-form">\n              <form action="http://chinadailymail.com//" id="searchform" method="get" enctype="application/x-www-form-urlencoded">\n                <div class="clear-fix">\n                  <label class="none" for="s">Search for:</label>\n                  <input value="" name="s" id="s" class="search_input" type="text"></input>\n                  <label class="none" for="searchsubmit">Go</label>\n                  <input value="Search" id="searchsubmit" class="submit_input" type="submit"></input>\n                </div>\n              </form>\n            </div>\n          </div>\n          <ul id="menu" class="clear-fix">\n            <li>\n              <span class="home">\n                <a href="http://chinadailymail.com/" shape="rect">Home</a>\n              </span>\n            </li>\n            <li>\n              <span class="subscribe">\n                <a href="http://chinadailymail.com/feed/rss/" shape="rect">Subscribe</a>\n              </span>\n            </li>\n          </ul>\n        </div>\n      </div>\n      <div id="navigation" class="clear-fix">\n        <div class="menu-main-menu-container">\n          <ul id="menu-main-menu" class="nav fl">\n            <li id="menu-item-13356" class="menu-item menu-item-type-custom menu-item-object-custom menu-item-home menu-item-13356">\n              <a href="http://chinadailymail.com/" shape="rect">Home</a>\n            </li>\n            <li id="menu-item-13357" class="menu-item menu-item-type-post_type menu-item-object-page menu-item-13357">\n              <a href="http://chinadailymail.com/about/" shape="rect">About</a>\n            </li>\n            <li id="menu-item-13358" class="menu-item menu-item-type-post_type menu-item-object-page menu-item-13358">\n              <a href="http://chinadailymail.com/contact/" shape="rect">Contact</a>\n            </li>\n            <li id="menu-item-13359" class="menu-item menu-item-type-post_type menu-item-object-page menu-item-13359">\n              <a href="http://chinadailymail.com/contributor-guidelines/" shape="rect">Contributor Guidelines</a>\n            </li>\n            <li id="menu-item-14662" class="menu-item menu-item-type-taxonomy menu-item-object-category menu-item-14662">\n              <a href="http://chinadailymail.com/category/finance-economy/" shape="rect">Finance &amp; Economy</a>\n            </li>\n            <li id="menu-item-14664" class="menu-item menu-item-type-taxonomy menu-item-object-category menu-item-14664">\n              <a href="http://chinadailymail.com/category/trade-investment/" shape="rect">Trade &amp; Investment</a>\n            </li>\n            <li id="menu-item-14669" class="menu-item menu-item-type-taxonomy menu-item-object-category menu-item-14669">\n              <a href="http://chinadailymail.com/category/mining-energy/" shape="rect">Mining &amp; Energy</a>\n            </li>\n            <li id="menu-item-17960" class="menu-item menu-item-type-taxonomy menu-item-object-category menu-item-17960">\n              <a href="http://chinadailymail.com/category/manufacturing-industry/" shape="rect">Manufacturing &amp; Industry</a>\n            </li>\n            <li id="menu-item-17958" class="menu-item menu-item-type-taxonomy menu-item-object-category current-post-ancestor current-menu-parent current-post-parent menu-item-17958">\n              <a href="http://chinadailymail.com/category/defence-aerospace/" shape="rect">Defence &amp; Aerospace</a>\n            </li>\n            <li id="menu-item-14661" class="menu-item menu-item-type-taxonomy menu-item-object-category menu-item-14661">\n              <a href="http://chinadailymail.com/category/politics-law/" shape="rect">Politics &amp; Law</a>\n            </li>\n            <li id="menu-item-14665" class="menu-item menu-item-type-taxonomy menu-item-object-category menu-item-14665">\n              <a href="http://chinadailymail.com/category/crime-corruption/" shape="rect">Crime &amp; Corruption</a>\n            </li>\n            <li id="menu-item-14663" class="menu-item menu-item-type-taxonomy menu-item-object-category menu-item-14663">\n              <a href="http://chinadailymail.com/category/human-rights-social-issues/" shape="rect">Human Rights &amp; Social Issues</a>\n            </li>\n            <li id="menu-item-14668" class="menu-item menu-item-type-taxonomy menu-item-object-category menu-item-14668">\n              <a href="http://chinadailymail.com/category/health-environment/" shape="rect">Health &amp; Environment</a>\n            </li>\n            <li id="menu-item-14667" class="menu-item menu-item-type-taxonomy menu-item-object-category menu-item-14667">\n              <a href="http://chinadailymail.com/category/communication-technology/" shape="rect">Communication &amp; Technology</a>\n            </li>\n            <li id="menu-item-13363" class="menu-item menu-item-type-taxonomy menu-item-object-category menu-item-13363">\n              <a href="http://chinadailymail.com/category/travel-china/" shape="rect">Travel \xe2\x80\x93 China</a>\n            </li>\n            <li id="menu-item-13364" class="menu-item menu-item-type-taxonomy menu-item-object-category menu-item-13364">\n              <a href="http://chinadailymail.com/category/travel-world/" shape="rect">Travel \xe2\x80\x93 World</a>\n            </li>\n          </ul>\n        </div>\n      </div>\n      <div style="background-image:url(http://chinadailymail.files.wordpress.com/2012/05/china-daily-mail-banner.jpg)" id="topbanner" class="column full-width">\n        <div class="pagetitle_prefix">//</div>\n        <div class="pagetitle">you\'re reading...</div>\n      </div>\n      <div id="post_content" class="column full-width">\n        <div class="column primary-content first">\n          <div class="post_cat">\n            <a rel="category tag" title="View all posts in Defence &amp; Aerospace" href="http://chinadailymail.com/category/defence-aerospace/" shape="rect">Defence &amp; Aerospace</a>\n          </div>\n          <h1 id="post-17362" class="post_name">J-15 aircraft seen on China\xc3\xa2\xe2\x82\xac\xe2\x84\xa2s \xe2\x80\x9cnot-quite-ready\xe2\x80\x9d aircraft\xc2\xa0carrier</h1>\n          <div class="post_meta">\n            <span class="byline">\n              Posted by\n              <a rel="author" title="View all posts by chankaiyee2" href="http://chinadailymail.com/author/chankaiyee2/" class="url fn n" shape="rect">chankaiyee2</a>\n            </span>\n            <span class="entry-date">\n              <span class="dot">\xe2\x8b\x85</span>\n              <time pubdate="pubdate" datetime="2012-08-26T20:00:06+00:00" class="entry-date">August 26, 2012</time>\n            </span>\n            <span class="comment-link">\n              <span class="dot">\xe2\x8b\x85</span>\n              <a title="Comment on J-15 aircraft seen on China\xc3\xa2\xe2\x82\xac\xe2\x84\xa2s \xe2\x80\x9cnot-quite-ready\xe2\x80\x9d aircraft\xc2\xa0carrier" href="http://chinadailymail.com/2012/08/26/j-15-aircraft-seen-on-chinas-not-quite-ready-aircraft-carrier/#comments" shape="rect">1 Comment</a>\n            </span>\n          </div>\n          <div class="post_meta">\n            <span class="filedunder">\n              <strong>Filed Under</strong>\n            </span>\n            \xc2\xa0\n            <a rel="tag" href="http://chinadailymail.com/tag/aircraft-carrier/" shape="rect">aircraft carrier</a>\n            ,\n            <a rel="tag" href="http://chinadailymail.com/tag/china/" shape="rect">China</a>\n            ,\n            <a rel="tag" href="http://chinadailymail.com/tag/chinese-aircraft-carrier/" shape="rect">Chinese aircraft carrier</a>\n            ,\n            <a rel="tag" href="http://chinadailymail.com/tag/j-15-fighter-aircraft/" shape="rect">J-15 fighter aircraft</a>\n            ,\n            <a rel="tag" href="http://chinadailymail.com/tag/ma-dingsheng/" shape="rect">Ma Dingsheng</a>\n            ,\n            <a rel="tag" href="http://chinadailymail.com/tag/ni-lexiong/" shape="rect">Ni Lexiong</a>\n            ,\n            <a rel="tag" href="http://chinadailymail.com/tag/peoples-liberation-army/" shape="rect">People\'s Liberation Army</a>\n            ,\n            <a rel="tag" href="http://chinadailymail.com/tag/sukhoi-su-33/" shape="rect">Sukhoi Su-33</a>\n          </div>\n          <div class="post_text">\n            <div id="pd_rating_holder_5840981_post_17362" class="pd-rating"></div>\n            <br clear="none"></br>\n            <div style="width: 460px" id="attachment_17392" class="wp-caption alignleft">\n              <a href="http://chinadailymail.files.wordpress.com/2012/08/26-j15-fighter.jpg" shape="rect">\n                <img alt="" src="http://chinadailymail.files.wordpress.com/2012/08/26-j15-fighter.jpg?w=750" title="J-15 Fighter" class="size-full wp-image-17392"></img>\n              </a>\n              <p class="wp-caption-text">J-15 Fighter</p>\n            </div>\n            <p>\n              According to\n              <a target="_blank" rel="wikipedia" href="http://en.wikipedia.org/wiki/Ming_Pao" title="Ming Pao" class="zem_slink" shape="rect">Ming Pao</a>\n              \xc3\xa2\xe2\x82\xac\xe2\x84\xa2s exclusive report on August 22, in one of the newest pictures of\n              <a target="_blank" rel="wikipedia" href="http://en.wikipedia.org/wiki/China" title="China" class="zem_slink" shape="rect">China</a>\n              \xc3\xa2\xe2\x82\xac\xe2\x84\xa2s first aircraft carrier, a prototype of China\xc3\xa2\xe2\x82\xac\xe2\x84\xa2s new\n              <a target="_blank" rel="wikipedia" href="http://en.wikipedia.org/wiki/Carrier-based_aircraft" title="Carrier-based aircraft" class="zem_slink" shape="rect">carrier-based aircraft</a>\n              <a target="_blank" rel="wikipedia" href="http://en.wikipedia.org/wiki/J15" title="J15" class="zem_slink" shape="rect">J-15</a>\n              is seen in a lifting test at Elevator No.1 on the starboard of China\xc3\xa2\xe2\x82\xac\xe2\x84\xa2s first aircraft carrier.\n            </p>\n            <p>\n              Previously, in Phoenix\n              <a target="_blank" rel="wikipedia" href="http://en.wikipedia.org/wiki/Satellite_television" title="Satellite television" class="zem_slink" shape="rect">Satellite TV</a>\n              \xc3\xa2\xe2\x82\xac\xe2\x84\xa2s Observation Post of Military Situation,\n              <a target="_blank" rel="wikipedia" href="http://en.wikipedia.org/wiki/People%27s_Liberation_Army" title="People\'s Liberation Army" class="zem_slink" shape="rect">Chinese military</a>\n              expert Ma Dingsheng said that China had yet to develop its carrier-based aircraft before making a decision on construction of its\n              <a target="_blank" rel="wikipedia" href="http://en.wikipedia.org/wiki/Aircraft_carrier" title="Aircraft carrier" class="zem_slink" shape="rect">aircraft carriers</a>\n              , when he commented on the speculation that China was going to build 6-8 nuclear aircraft carriers.\n            </p>\n            <p>In fact, neither the carrier nor J-15 can be commissioned at this time. According to US estimates, the J-15 will not be commissioned until 2016.</p>\n            <p>\n              Since there is still a long way to go for commissioning of China\xc3\xa2\xe2\x82\xac\xe2\x84\xa2s first aircraft carrier due to lack of carrier-based aircraft, why has China published so much news about it, and so many pictures of the carrier? Ming Pao says, \xc3\xa2\xe2\x82\xac\xc5\x93According to some Chinese military academics, they are acts in coordination with China\xc3\xa2\xe2\x82\xac\xe2\x84\xa2s aggressive diplomatic manoeuvre with \xc3\xa2\xe2\x82\xac\xcb\x9clow-cost deterrent effects\xc3\xa2\xe2\x82\xac\xe2\x84\xa2 against military provocation.\xc3\xa2\xe2\x82\xac\xef\xbf\xbd\n            </p>\n            <p>\n              According to Ming Pao, Ni Lexiong, Director of China\xc3\xa2\xe2\x82\xac\xe2\x84\xa2s Sea Power Strategic and Defence Policy Institute, says that Chinese military is testing its aircraft carrier step by step until it is formally commissioned. The picture shows for certain that the carrier will be equipped with J-15 carrier-based aircraft for the time being. There has always been rumour that both the carrier and J-15 will hopefully be commissioned after 2013.\n            </p>\n            <p>\n              J-15 is being developed by China based on the Russian\n              <a target="_blank" rel="wikipedia" href="http://en.wikipedia.org/wiki/Sukhoi_Su-33" title="Sukhoi Su-33" class="zem_slink" shape="rect">Sukhoi Su-33</a>\n              and China\xc3\xa2\xe2\x82\xac\xe2\x84\xa2s mature experience in developing China-made J-11B and J-11BS. It is capable of long-distance attack and comparable in technology and performance to US\n              <a target="_blank" rel="wikipedia" href="http://en.wikipedia.org/wiki/Boeing_F/A-18E/F_Super_Hornet" title="Boeing F/A-18E/F Super Hornet" class="zem_slink" shape="rect">F 18 Super Hornet</a>\n              . However, Ni Lexiong believes that a few years from now, another new carrier-based aircraft may emerge in China.\n            </p>\n            <p>\n              <strong>\n                Academic: Frequent Report, Low-cost Deterrent\n                <br clear="none"></br>\n              </strong>\n            </p>\n            <p>In addition, Ni pointed out that perhaps the test this time concerns the speed in lifting a fighter plane from hangar to the deck, performance of the elevator, carrying damaged planes down to clear the runway on the deck and installing bombs while lifting.</p>\n            <p>\n              Regarding China\xc3\xa2\xe2\x82\xac\xe2\x84\xa2s frequent reports on its carrier, Ni points out that in coordination with China\xc3\xa2\xe2\x82\xac\xe2\x84\xa2s diplomatic manoeuvre, the reports play a deterrent role against foreign provocation. \xc3\xa2\xe2\x82\xac\xc5\x93In the past, huge funds were spent in conducting deterrent military drills. Now, deterrence is achieved by gradual disclosure of information about the\n              <a target="_blank" rel="wikipedia" href="http://en.wikipedia.org/wiki/Chinese_aircraft_carrier_ex-Varyag" title="Chinese aircraft carrier ex-Varyag" class="zem_slink" shape="rect">Chinese aircraft carrier</a>\n              . It is a more cost-effective way to achieve a low-cost deterrent effect.\xc3\xa2\xe2\x82\xac\xef\xbf\xbd\n            </p>\n            <h6 style="font-size:1em;" class="zemanta-related-title">Related Articles</h6>\n            <ul class="zemanta-article-ul">\n              <li class="zemanta-article-ul-li">\n                <a target="_blank" href="http://chinabystander.wordpress.com/2012/08/22/chinas-first-aircraft-carrier-not-expected-to-be-in-service-until-2017/" shape="rect">China\xe2\x80\x99s First Aircraft Carrier Not Expected To Be In Service Until 2017</a>\n                (chinabystander.wordpress.com)\n              </li>\n              <li class="zemanta-article-ul-li">\n                <a target="_blank" href="http://www.wantchinatimes.com/news-subclass-cnt.aspx?id=20120813000028&amp;cid=1101&amp;MainCatID=0" shape="rect">China\xe2\x80\x99s 1st aircraft carrier more symbolic than substantive: lawmaker</a>\n                (wantchinatimes.com)\n              </li>\n              <li class="zemanta-article-ul-li">\n                <a target="_blank" href="http://chinadailymail.com/2012/08/17/chinas-female-j-10-fighter-pilots/" title="China\xc3\xa2\xe2\x82\xac\xe2\x84\xa2s female J-10 fighter\xc3\x82\xc2\xa0pilots" shape="rect">China\xc3\xa2\xe2\x82\xac\xe2\x84\xa2s female J-10 fighter\xc3\x82\xc2\xa0pilots</a>\n                (chinadailymail.com)\n              </li>\n            </ul>\n            <div style="text-align: center; padding: 5px; padding: 5px; margin: 10px auto;" class="wpadvert">\n              <script type="text/javascript">\n                GA_googleAddAttr(&quot;LangId&quot;, &quot;1&quot;);\nGA_googleAddAttr(&quot;WordAds&quot;, &quot;1&quot;);\nGA_googleAddAttr(&quot;WordAds-MI&quot;, &quot;1&quot;);\nGA_googleAddAttr(&quot;BlogId&quot;, &quot;33215671&quot;);\nGA_googleAddAttr(&quot;Domain&quot;, &quot;chinadailymail.com&quot;);\nGA_googleAddAttr(&quot;AdSafe&quot;, &quot;1&quot;);\nGA_googleAddAttr(&quot;Autotag&quot;, &quot;sports&quot;);\nGA_googleAddAttr(&quot;Autotag&quot;, &quot;technology&quot;);\nGA_googleAddAttr(&quot;Tag&quot;, &quot;defence-aerospace&quot;);\nGA_googleAddAttr(&quot;Tag&quot;, &quot;aircraft-carrier&quot;);\nGA_googleAddAttr(&quot;Tag&quot;, &quot;china&quot;);\nGA_googleAddAttr(&quot;Tag&quot;, &quot;chinese-aircraft-carrier&quot;);\nGA_googleAddAttr(&quot;Tag&quot;, &quot;j-15-fighter-aircraft&quot;);\nGA_googleAddAttr(&quot;Tag&quot;, &quot;ma-dingsheng&quot;);\nGA_googleAddAttr(&quot;Tag&quot;, &quot;ni-lexiong&quot;);\nGA_googleAddAttr(&quot;Tag&quot;, &quot;peoples-liberation-army&quot;);\nGA_googleAddAttr(&quot;Tag&quot;, &quot;sukhoi-su-33&quot;);\nGA_googleAddAttr(&quot;theme_bg&quot;, &quot;ffffff&quot;);\nGA_googleAddAttr(&quot;theme_border&quot;, &quot;ebeff2&quot;);\nGA_googleAddAttr(&quot;theme_text&quot;, &quot;333333&quot;);\nGA_googleAddAttr(&quot;theme_link&quot;, &quot;3a6999&quot;);\nGA_googleAddAttr(&quot;theme_url&quot;, &quot;a11b1b&quot;);\n\nGA_googleFillSlot(&quot;Wordads_MIS_Mrec_adsafe&quot;);\n              </script>\n            </div>\n            <div id="jp-post-flair" class="sharedaddy sd-rating-enabled sd-like-enabled sd-sharing-enabled">\n              <div class="sharedaddy sd-sharing-enabled">\n                <div class="robots-nocontent sd-block sd-social sd-social-icon-text sd-sharing">\n                  <h3 class="sd-title">Share this:</h3>\n                  <div class="sd-content">\n                    <ul>\n                      <li class="share-print">\n                        <a title="Click to print" href="http://chinadailymail.com/2012/08/26/j-15-aircraft-seen-on-chinas-not-quite-ready-aircraft-carrier/#print" rel="nofollow" class="share-print sd-button share-icon" shape="rect">\n                          <span>Print</span>\n                        </a>\n                      </li>\n                      <li class="share-email">\n                        <a title="Click to email this to a friend" href="http://chinadailymail.com/2012/08/26/j-15-aircraft-seen-on-chinas-not-quite-ready-aircraft-carrier/?share=email" rel="nofollow" class="share-email sd-button share-icon" shape="rect">\n                          <span>Email</span>\n                        </a>\n                      </li>\n                      <li class="share-twitter">\n                        <a title="Click to share on Twitter" href="http://chinadailymail.com/2012/08/26/j-15-aircraft-seen-on-chinas-not-quite-ready-aircraft-carrier/?share=twitter" rel="nofollow" id="sharing-twitter-17362" class="share-twitter sd-button share-icon" shape="rect">\n                          <span>Twitter</span>\n                        </a>\n                      </li>\n                      <li class="share-facebook">\n                        <a title="Share on Facebook" href="http://chinadailymail.com/2012/08/26/j-15-aircraft-seen-on-chinas-not-quite-ready-aircraft-carrier/?share=facebook" rel="nofollow" id="sharing-facebook-17362" class="share-facebook sd-button share-icon" shape="rect">\n                          <span>Facebook</span>\n                        </a>\n                      </li>\n                      <li class="share-pinterest">\n                        <a title="Click to share on Pinterest" href="http://chinadailymail.com/2012/08/26/j-15-aircraft-seen-on-chinas-not-quite-ready-aircraft-carrier/?share=pinterest" rel="nofollow" class="share-pinterest sd-button share-icon" shape="rect">\n                          <span>Pinterest</span>\n                        </a>\n                      </li>\n                      <li class="share-linkedin">\n                        <a title="Click to share on LinkedIn" href="http://chinadailymail.com/2012/08/26/j-15-aircraft-seen-on-chinas-not-quite-ready-aircraft-carrier/?share=linkedin" rel="nofollow" id="sharing-linkedin-17362" class="share-linkedin sd-button share-icon" shape="rect">\n                          <span>LinkedIn</span>\n                        </a>\n                      </li>\n                      <li class="share-end"></li>\n                    </ul>\n                    <div class="sharing-clear"></div>\n                  </div>\n                </div>\n              </div>\n              <div class="wpl-likebox sd-block sd-like">\n                <h3 class="sd-title">Like this:</h3>\n                <div class="sd-content">\n                  <div id="like-17362" class="wpl-button">\n                    <a rel="nofollow" title="I like this." href="http://chinadailymail.com/2012/08/26/j-15-aircraft-seen-on-chinas-not-quite-ready-aircraft-carrier/?like=1&amp;_wpnonce=c9a121d596" class="like needs-login sd-button" shape="rect">\n                      <span>Like</span>\n                    </a>\n                  </div>\n                  <div class="wpl-count sd-like-count">\n                    <span class="wpl-count-number">3</span>\n                    bloggers like this.\n                  </div>\n                  <ul class="wpl-avatars sd-like-gravatars">\n                    <li>\n                      <a rel="nofollow" title="charliecountryboy" href="http://gravatar.com/charliecountryboy" class="wpl-liker" shape="rect">\n                        <img height="30" width="30" alt="charliecountryboy" src="http://1.gravatar.com/avatar/7ab0e807b6bcb94f8dd801b13a0d4e6e?s=30&amp;d=identicon&amp;r=G" class="avatar avatar-30"></img>\n                      </a>\n                    </li>\n                    <li>\n                      <a rel="nofollow" title="Galicia Futura" href="http://gravatar.com/futuragalicia" class="wpl-liker" shape="rect">\n                        <img height="30" width="30" alt="Galicia Futura" src="http://0.gravatar.com/avatar/301c4be21f1bbbd961e524ba535d0167?s=30&amp;d=identicon&amp;r=G" class="avatar avatar-30"></img>\n                      </a>\n                    </li>\n                    <li>\n                      <a rel="nofollow" title="--Rick" href="http://gravatar.com/imager31" class="wpl-liker" shape="rect">\n                        <img height="30" width="30" alt="--Rick" src="http://2.gravatar.com/avatar/e904fe2701de34660bf2008f9668e471?s=30&amp;d=identicon&amp;r=G" class="avatar avatar-30"></img>\n                      </a>\n                    </li>\n                  </ul>\n                </div>\n              </div>\n            </div>\n            <div class="clear"></div>\n          </div>\n          <div id="entry-author-info">\n            <div id="author-avatar">\n              <img width="60" height="60" src="http://0.gravatar.com/avatar/6585efa75955d4ec66a4c0ab513955c7?s=60&amp;d=identicon&amp;r=G" alt="" class="avatar avatar-60"></img>\n            </div>\n            <div id="author-description">\n              <h2 id="entry-author-info-heading">About chankaiyee2</h2>\n              Author of the book &quot;Tiananmen\'s Tremendous Achievements&quot; about how talented scholars with moral integrity seized power in the Party and state and brought prosperity to China.\n\nDoing Justice to Tiananmen Protests\nWhile America has had justice done by killing Osama bin Laden, justice has not yet been done to Tiananmen Protests in China.\n\nIn order to do justice to that great event in Chinese history, the author wrote this book to reveal Tiananmen\'s great achievments. \n\nA Revealing Book on Intellectuals\' Coup that Has Brought China Prosperity\nWith the help of the pervasive fear given rise by Tiananmen Protests throughout the Party, talented Chinese intellectuals have accomplished a coup to take control of the Party and state and are thus able to bring prosperity to China.\n\nBeing ignorant of that coup, people outside China are puzzled how a communist autocracy is able to make such tremendous achievements.\n\nA Book that Refutes Tiananmen Butcher\'s Justification of the Massacre \nAs even people inside China are not aware of that silent peaceful coup, Li Peng, the notorious Tiananmen butcher, tries to argue that China\'s prosperity years after Tiananmen justifies the massacre.\n\nThe author points out that before Tiananmen the Party had a track record of bringing disasters to China for two decades and though Deng Xiaoping\'s reform began to bring prosperity, there were insurmountable obstacles to the reform.\n\nA Book on Tiananmen\'s Contribution in Overcoming Insurmountable Obstacles to the Reform\nChina\' prosperity now has been brought about by the reform capitalist in nature, which Li Peng and the vast number of conservatives from top to the bottom in the Party fiercely opposed. They had brought down Hu Yaobang and were trying hard and almost succeeded in bringing down Zhao Ziyang before Tiananmen Protests in order to put an end to the reform.\n\nIt was Tiananmen that enabled Jiang Zemin who was able to carry on the reform to rise to the top and it was the pervasive fear of collapse given rise by Tiananmen that helped Jiang and his Shanghai faction of talented intellectuals to succeed in their coup to substitute intellectuals\' dominance for workers\' and peasants\' dominance and thus overcome the insurmountable obstacles.\n\nA Book on How Intellectuals Wanted to Fight Back during the Cultural Revolution\n   Emergence of a new generation of talented intellectuals with moral integrity;\n   Their secret meeting in preparation for seizing power;\n    Renaissance of Confucianism;\n    Intellectuals having been persecuted were hardened and united and anxious to fight back.\n                                                                                                                                          \nA Book with Lots of Interesting True Stories on China\' History, Especially its Darkest Era \nThe author tells interesting stories on the following, which, though interesting, are what have really happened as he wants it to be a book of history instead of a fiction: \n    Illicit prostitution and rampant crimes due to serious unemployment;\n    Rusticated youth\'s successful hunger strike for going home 1978-79;\n    Secret society of peddlers;\n    Youngsters becoming thieves, robbers, gangsters;\n    A scholarly gangster leader;\n    Scholars\' revenge by whipping a king\'s corpse and assassinating an emperor, etc.\n\nA Book on China\'s Route to Democracy \nQuite a few people are disappointed that there has been no campaign for democracy of a substantial scale in China since the massacre. The author, however, points out China\'s traditional Mencius democracy is being established and may absorb the advanced factors in Western democracy.\n              <div id="author-link">\n                <a href="http://chinadailymail.com/author/chankaiyee2/" shape="rect">\n                  View all posts by chankaiyee2\n                  <span class="meta-nav">\xc2\xbb</span>\n                </a>\n              </div>\n            </div>\n          </div>\n          <div id="nav-below" class="post-navigation clear-fix">\n            <div class="nav-previous">\n              <a rel="prev" href="http://chinadailymail.com/2012/08/25/china-hopes-to-dominate-at-paralympics/" shape="rect">\n                <span class="meta-nav">\xc2\xab</span>\n                China hopes to dominate at\xc2\xa0Paralympics\n              </a>\n            </div>\n            <div class="nav-next">\n              <a rel="next" href="http://chinadailymail.com/2012/08/27/china-bo-xilai-to-be-expelled-from-party/" shape="rect">\n                China: Bo Xilai to be expelled from\xc2\xa0party\n                <span class="meta-nav">\xc2\xbb</span>\n              </a>\n            </div>\n          </div>\n          <div id="comments">\n            <div id="commenthead">\n              <h2 class="post_comm">Discussion</h2>\n            </div>\n            <h3 id="pings">Trackbacks/Pingbacks</h3>\n            <ol id="pinglist">\n              <li id="comment-9132" class="post pingback">\n                <p>\n                  Pingback:\n                  <span class="author">\n                    <a rel="external nofollow" href="http://chinadailymail.com/2012/09/25/chinese-navy-gets-first-aircraft-carrier/" class="url" shape="rect">Chinese navy gets first aircraft carrier \xc2\xab China Daily Mail</a>\n                  </span>\n                  -\n                  <span class="date">September 25, 2012</span>\n                  <span class="edit"></span>\n                </p>\n              </li>\n            </ol>\n          </div>\n          <div id="respond">\n            <h3 id="reply-title">\n              Leave a Reply\n              <small>\n                <a style="display:none;" href="/2012/08/26/j-15-aircraft-seen-on-chinas-not-quite-ready-aircraft-carrier/#respond" rel="nofollow" id="cancel-comment-reply-link" shape="rect">Cancel reply</a>\n              </small>\n            </h3>\n            <form action="http://chinadailymail.com/wp-comments-post.php" id="commentform" method="post" enctype="application/x-www-form-urlencoded">\n              <input value="guest" name="hc_post_as" id="hc_post_as" type="hidden"></input>\n              <div class="comment-form-field comment-textarea">\n                <label for="comment">Enter your comment here...</label>\n                <div id="comment-form-comment">\n                  <textarea name="comment" id="comment"></textarea>\n                </div>\n              </div>\n              <div id="comment-form-identity">\n                <div id="comment-form-nascar">\n                  <p>Fill in your details below or click an icon to log in:</p>\n                  <ul>\n                    <li style="display:none;" class="selected">\n                      <a title="Guest" href="#comment-form-guest" id="postas-guest" shape="rect">\n                        <span></span>\n                      </a>\n                    </li>\n                    <li>\n                      <a title="WordPress.com" href="#comment-form-load-service:WordPress.com" id="postas-wordpress" shape="rect">\n                        <span></span>\n                      </a>\n                    </li>\n                    <li>\n                      <a title="Twitter" href="#comment-form-load-service:Twitter" id="postas-twitter" shape="rect">\n                        <span></span>\n                      </a>\n                    </li>\n                    <li>\n                      <a title="Facebook" href="#comment-form-load-service:Facebook" id="postas-facebook" shape="rect">\n                        <span></span>\n                      </a>\n                    </li>\n                  </ul>\n                </div>\n                <div id="comment-form-guest" class="comment-form-service selected">\n                  <div class="comment-form-padder">\n                    <div class="comment-form-avatar">\n                      <a target="_blank" href="https://gravatar.com/site/signup/" shape="rect">\n                        <img width="25" alt="Gravatar" src="http://1.gravatar.com/avatar/ad516503a11cd5ca435acc9bb6523536?s=25&amp;d=identicon&amp;forcedefault=y&amp;r=G" class="no-grav"></img>\n                      </a>\n                    </div>\n                    <div class="comment-form-fields">\n                      <div class="comment-form-field comment-form-email">\n                        <label for="email">\n                          Email\n                          <span class="required">(required)</span>\n                          <span class="nopublish">(Address never made public)</span>\n                        </label>\n                        <div class="comment-form-input">\n                          <input value="" name="email" id="email" type="email"></input>\n                        </div>\n                      </div>\n                      <div class="comment-form-field comment-form-author">\n                        <label for="author">\n                          Name\n                          <span class="required">(required)</span>\n                        </label>\n                        <div class="comment-form-input">\n                          <input value="" name="author" id="author" type="text"></input>\n                        </div>\n                      </div>\n                      <div class="comment-form-field comment-form-url">\n                        <label for="url">Website</label>\n                        <div class="comment-form-input">\n                          <input value="" name="url" id="url" type="text"></input>\n                        </div>\n                      </div>\n                    </div>\n                  </div>\n                </div>\n                <div id="comment-form-wordpress" class="comment-form-service">\n                  <div class="comment-form-padder">\n                    <div class="comment-form-avatar">\n                      <img width="25" alt="WordPress.com Logo" src="http://s2.wp.com/wp-content/mu-plugins/highlander-comments/images/wplogo.png?m=1289230950g" class="no-grav"></img>\n                    </div>\n                    <div class="comment-form-fields">\n                      <input value="" name="wp_avatar" id="wordpress-avatar" class="comment-meta-wordpress" type="hidden"></input>\n                      <input value="" name="wp_user_id" id="wordpress-user_id" class="comment-meta-wordpress" type="hidden"></input>\n                      <input value="" name="wp_access_token" id="wordpress-access_token" class="comment-meta-wordpress" type="hidden"></input>\n                      <p class="comment-form-posting-as pa-wordpress">\n                        <strong></strong>\n                        You are commenting using your WordPress.com account.\n                        <span class="comment-form-log-out">\n                          (\xc2\xa0\n                          <a href="javascript:HighlanderComments.doExternalLogout( \'wordpress\' );" shape="rect">Log\xc2\xa0Out</a>\n                          \xc2\xa0/\xc2\xa0\n                          <a onclick="javascript:HighlanderComments.switchAccount();return false;" href="#" shape="rect">Change</a>\n                          \xc2\xa0)\n                        </span>\n                      </p>\n                    </div>\n                  </div>\n                </div>\n                <div id="comment-form-twitter" class="comment-form-service">\n                  <div class="comment-form-padder">\n                    <div class="comment-form-avatar">\n                      <img width="25" alt="Twitter picture" src="http://1.gravatar.com/avatar/ad516503a11cd5ca435acc9bb6523536?s=25&amp;d=identicon&amp;forcedefault=y&amp;r=G" class="no-grav"></img>\n                    </div>\n                    <div class="comment-form-fields">\n                      <input value="" name="twitter_avatar" id="twitter-avatar" class="comment-meta-twitter" type="hidden"></input>\n                      <input value="" name="twitter_user_id" id="twitter-user_id" class="comment-meta-twitter" type="hidden"></input>\n                      <input value="" name="twitter_access_token" id="twitter-access_token" class="comment-meta-twitter" type="hidden"></input>\n                      <p class="comment-form-posting-as pa-twitter">\n                        <strong></strong>\n                        You are commenting using your Twitter account.\n                        <span class="comment-form-log-out">\n                          (\xc2\xa0\n                          <a href="javascript:HighlanderComments.doExternalLogout( \'twitter\' );" shape="rect">Log\xc2\xa0Out</a>\n                          \xc2\xa0/\xc2\xa0\n                          <a onclick="javascript:HighlanderComments.switchAccount();return false;" href="#" shape="rect">Change</a>\n                          \xc2\xa0)\n                        </span>\n                      </p>\n                    </div>\n                  </div>\n                </div>\n                <div id="comment-form-facebook" class="comment-form-service">\n                  <div class="comment-form-padder">\n                    <div class="comment-form-avatar">\n                      <img width="25" alt="Facebook photo" src="http://1.gravatar.com/avatar/ad516503a11cd5ca435acc9bb6523536?s=25&amp;d=identicon&amp;forcedefault=y&amp;r=G" class="no-grav"></img>\n                    </div>\n                    <div class="comment-form-fields">\n                      <input value="" name="fb_avatar" id="facebook-avatar" class="comment-meta-facebook" type="hidden"></input>\n                      <input value="" name="fb_user_id" id="facebook-user_id" class="comment-meta-facebook" type="hidden"></input>\n                      <input value="" name="fb_access_token" id="facebook-access_token" class="comment-meta-facebook" type="hidden"></input>\n                      <p class="comment-form-posting-as pa-facebook">\n                        <strong></strong>\n                        You are commenting using your Facebook account.\n                        <span class="comment-form-log-out">\n                          (\xc2\xa0\n                          <a href="javascript:HighlanderComments.doExternalLogout( \'facebook\' );" shape="rect">Log\xc2\xa0Out</a>\n                          \xc2\xa0/\xc2\xa0\n                          <a onclick="javascript:HighlanderComments.switchAccount();return false;" href="#" shape="rect">Change</a>\n                          \xc2\xa0)\n                        </span>\n                      </p>\n                    </div>\n                  </div>\n                </div>\n                <div id="comment-form-load-service" class="comment-form-service">\n                  <div class="comment-form-posting-as-cancel">\n                    <a href="javascript:HighlanderComments.cancelExternalWindow();" shape="rect">Cancel</a>\n                  </div>\n                  <p>Connecting to %s</p>\n                </div>\n              </div>\n              <script type="text/javascript">\n                jQuery(document).ready(function(){\n\tvar input = document.createElement( \'input\' ),\n\t    comment = jQuery( \'#comment\' );\n\n\tif ( \'placeholder\' in input ) {\n\t\tcomment.attr( \'placeholder\', jQuery( \'.comment-textarea label\' ).remove().text() );\n\t}\n\n\t// Expando Mode: start small, then auto-resize on first click + text length\n\tjQuery( \'#comment-form-identity\' ).hide();\n\tjQuery( \'#comment-form-subscribe\' ).hide();\n\tjQuery( \'#commentform .form-submit\' ).hide();\n\n\tcomment.css( { \'height\':\'10px\' } ).one( \'focus\', function() {\n\t\tvar timer = setInterval( HighlanderComments.resizeCallback, 10 )\n\t\tjQuery( this ).animate( { \'height\': HighlanderComments.initialHeight } ).delay( 100 ).queue( function(n) { clearInterval( timer ); HighlanderComments.resizeCallback(); n(); } );\n\t\tjQuery( \'#comment-form-identity\' ).slideDown();\n\t\tjQuery( \'#comment-form-subscribe\' ).slideDown();\n\t\tjQuery( \'#commentform .form-submit\' ).slideDown();\n\t});\n});\n              </script>\n              <div id="comment-form-subscribe">\n                <p class="comment-subscription-form">\n                  <input style="width: auto;" value="subscribe" name="subscribe" id="subscribe" type="checkbox" tabindex="6"></input>\n                  <label id="subscribe-label" class="subscribe-label" for="subscribe">Notify me of follow-up comments via email.</label>\n                </p>\n              </div>\n              <p class="form-submit">\n                <input value="Post Comment" name="submit" id="comment-submit" type="submit"></input>\n                <input value="17362" name="comment_post_ID" id="comment_post_ID" type="hidden"></input>\n                <input value="0" name="comment_parent" id="comment_parent" type="hidden"></input>\n              </p>\n              <input value="1349306691" name="genseq" type="hidden"></input>\n              <p style="display: none;">\n                <input value="e3e8cd75d1" name="akismet_comment_nonce" id="akismet_comment_nonce" type="hidden"></input>\n              </p>\n              <script src="http://s2.wp.com/wp-content/mu-plugins/akismet-2.5/form.js?m=1308783962g" type="text/javascript"></script>\n              <p style="display: none;">\n                <input value="204" name="ak_js" id="ak_js" type="hidden"></input>\n              </p>\n            </form>\n          </div>\n          <div style="clear: both"></div>\n        </div>\n        <div class="column primary-sidebar last">\n          <div id="text-4" class="widget widget_text">\n            <h3 class="mast">Want to write for China Daily Mail?</h3>\n            <div class="textwidget">\n              <p>Click and read &quot;Contributor Guidelines&quot; above if you want to join our team. Write news or have your say about issues in China.</p>\n            </div>\n          </div>\n          <div id="blog_subscription-3" class="widget widget_blog_subscription">\n            <h3 class="mast">\n              <label for="subscribe-field">Like What You Just Read?</label>\n            </h3>\n            <form accept-charset="utf-8" action="https://subscribe.wordpress.com" id="subscribe-blog" method="post" enctype="application/x-www-form-urlencoded">\n              <p>Enter your email address to follow this site, and receive notifications of all articles by email.</p>\n              <p>\n                <input value="" style="width: 95%; padding: 1px 2px" name="email" id="subscribe-field" type="text"></input>\n              </p>\n              <p>\n                <input value="subscribe" name="action" type="hidden"></input>\n                <input value="33215671" name="blog_id" type="hidden"></input>\n                <input value="http://chinadailymail.com/2012/08/26/j-15-aircraft-seen-on-chinas-not-quite-ready-aircraft-carrier/" name="source" type="hidden"></input>\n                <input value="widget" name="sub-type" type="hidden"></input>\n                <input value="blog_subscription-3" name="redirect_fragment" type="hidden"></input>\n                <input value="af166afdac" name="_wpnonce" id="_wpnonce" type="hidden"></input>\n                <input value="Subscribe" type="submit"></input>\n              </p>\n            </form>\n          </div>\n          <div id="rss_links-2" class="widget widget_rss_links">\n            <p class="size-small">\n              <a title="Subscribe to Posts" href="http://chinadailymail.com/feed/" class="feed-image-link" shape="rect">\n                <img alt="RSS Feed" src="http://chinadailymail.com/i/rss/red-small.png"></img>\n              </a>\n              \xc2\xa0\n              <a title="Subscribe to Posts" href="http://chinadailymail.com/feed/" shape="rect">RSS - Posts</a>\n            </p>\n          </div>\n          <div id="twitter-3" class="widget widget_twitter">\n            <h3 class="mast">\n              <a href="http://twitter.com/ChinaDailyMail" shape="rect">Twitter</a>\n            </h3>\n            <ul class="tweets"></ul>\n            <a data-text-color="#333333" data-link-color="#3a6999" data-show-count="false" href="http://twitter.com/ChinaDailyMail" class="twitter-follow-button" shape="rect">Follow @ChinaDailyMail</a>\n          </div>\n          <div id="facebook-likebox-2" class="widget widget_facebook_likebox">\n            <h3 class="mast">\n              <a href="http://www.facebook.com/chinadailymail" shape="rect">Facebook</a>\n            </h3>\n            <iframe \n            style="border: none; overflow: hidden; width: 200px;  height: 110px; background: #fff" src="http://www.facebook.com/plugins/likebox.php?href=http%3A%2F%2Fwww.facebook.com%2Fchinadailymail&amp;width=200&amp;height=110&amp;colorscheme=light&amp;show_faces=false&amp;stream=false&amp;header=false&amp;force_wall=false" scrolling="no" frameborder="0">\n</iframe>\n          </div>\n          <div id="recent-posts-2" class="widget widget_recent_entries">\n            <h3 class="mast">Recent Posts</h3>\n            <ul>\n              <li>\n                <a title="Chinese netizen speaks out: \xc3\xa2\xe2\x82\xac\xc5\x93China spending as much on calming civil unrest as US on war\xc2\xa0effort\xc3\xa2\xe2\x82\xac\xef\xbf\xbd" href="http://chinadailymail.com/2012/10/03/chinese-netizen-speaks-out-china-spending-as-much-on-calming-civil-unrest-as-us-on-war-effort/" shape="rect">\n                  Chinese netizen speaks out: \xc3\xa2\xe2\x82\xac\xc5\x93China spending as much on calming civil unrest as US on war\xc2\xa0effort\xc3\xa2\xe2\x82\xac\xef\xbf\xbd\n                </a>\n              </li>\n              <li>\n                <a title="The mystery of China\xc3\xa2\xe2\x82\xac\xe2\x84\xa2s homegrown aircraft\xc2\xa0carriers" href="http://chinadailymail.com/2012/10/03/the-mystery-of-chinas-homegrown-aircraft-carriers/" shape="rect">The mystery of China\xc3\xa2\xe2\x82\xac\xe2\x84\xa2s homegrown aircraft\xc2\xa0carriers</a>\n              </li>\n              <li>\n                <a title="Chinese and Taiwanese ships patrol disputed sea area\xc2\xa0regularly" href="http://chinadailymail.com/2012/10/02/chinese-and-taiwan-ships-patrol-disputed-sea-area-regularly/" shape="rect">Chinese and Taiwanese ships patrol disputed sea area\xc2\xa0regularly</a>\n              </li>\n              <li>\n                <a title="China: Day care teacher caught on video throwing child to the\xc2\xa0floor" href="http://chinadailymail.com/2012/10/02/china-day-care-teacher-caught-on-video-throwing-child-to-the-floor/" shape="rect">China: Day care teacher caught on video throwing child to the\xc2\xa0floor</a>\n              </li>\n              <li>\n                <a title="China: Internal circular on Bo Xilai\xc3\xa2\xe2\x82\xac\xe2\x84\xa2s crimes signals imminent\xc2\xa0trial" href="http://chinadailymail.com/2012/10/02/china-internal-circular-on-bo-xilais-crimes-signals-imminent-trial/" shape="rect">China: Internal circular on Bo Xilai\xc3\xa2\xe2\x82\xac\xe2\x84\xa2s crimes signals imminent\xc2\xa0trial</a>\n              </li>\n              <li>\n                <a title="Murder, sex and lies: the biggest scandal in the history of China\xe2\x80\x99s communist\xc2\xa0party" href="http://chinadailymail.com/2012/10/01/murder-sex-and-lies-the-biggest-scandal-in-the-history-of-chinas-communist-party/" shape="rect">\n                  Murder, sex and lies: the biggest scandal in the history of China\xe2\x80\x99s communist\xc2\xa0party\n                </a>\n              </li>\n              <li>\n                <a title="October 1 1949 Mao Zedong proclaims People\'s Republic of China" href="http://chinadailymail.com/2012/10/01/18322/" shape="rect">October 1 1949 Mao Zedong proclaims People\'s Republic of China</a>\n              </li>\n              <li>\n                <a title="The mystery of China\xc3\xa2\xe2\x82\xac\xe2\x84\xa2s carrier-based\xc2\xa0aircraft" href="http://chinadailymail.com/2012/09/30/the-mystery-of-chinas-carrier-based-aircraft/" shape="rect">The mystery of China\xc3\xa2\xe2\x82\xac\xe2\x84\xa2s carrier-based\xc2\xa0aircraft</a>\n              </li>\n              <li>\n                <a title="China speeds up construction of Sansha City on island claimed by\xc2\xa0Philippines" href="http://chinadailymail.com/2012/09/30/china-speeds-up-construction-of-sansha-city-on-island-claimed-by-philippines/" shape="rect">\n                  China speeds up construction of Sansha City on island claimed by\xc2\xa0Philippines\n                </a>\n              </li>\n              <li>\n                <a title="BRIC hallucination: China won\xc3\xa2\xe2\x82\xac\xe2\x84\xa2t be engine of new world order, nor Russia, nor\xc2\xa0India" href="http://chinadailymail.com/2012/09/30/bric-hallucination-china-wont-be-engine-of-new-world-order-nor-russia-nor-india/" shape="rect">\n                  BRIC hallucination: China won\xc3\xa2\xe2\x82\xac\xe2\x84\xa2t be engine of new world order, nor Russia, nor\xc2\xa0India\n                </a>\n              </li>\n              <li>\n                <a title="French architect in China scandal back in\xc2\xa0Cambodia" href="http://chinadailymail.com/2012/09/30/french-architect-in-china-scandal-back-in-cambodia/" shape="rect">French architect in China scandal back in\xc2\xa0Cambodia</a>\n              </li>\n              <li>\n                <a title="China-made aircraft carrier will be launched next\xc2\xa0year" href="http://chinadailymail.com/2012/09/29/china-made-aircraft-carrier-will-be-launched-next-year/" shape="rect">China-made aircraft carrier will be launched next\xc2\xa0year</a>\n              </li>\n              <li>\n                <a title="A Chinese megacity is on the verge of\xc2\xa0bankruptcy" href="http://chinadailymail.com/2012/09/29/a-chinese-megacity-is-on-the-verge-of-bankruptcy/" shape="rect">A Chinese megacity is on the verge of\xc2\xa0bankruptcy</a>\n              </li>\n              <li>\n                <a title="China: Conservatives\xc3\xa2\xe2\x82\xac\xe2\x84\xa2 Waterloo in Bo Xilai\xc2\xa0saga" href="http://chinadailymail.com/2012/09/29/china-conservatives-waterloo-in-bo-xilai-saga/" shape="rect">China: Conservatives\xc3\xa2\xe2\x82\xac\xe2\x84\xa2 Waterloo in Bo Xilai\xc2\xa0saga</a>\n              </li>\n              <li>\n                <a title="China to sell 20 billion yuan ($3.2 billion) in treasury\xc2\xa0bonds" href="http://chinadailymail.com/2012/09/29/china-to-sell-20-billion-yuan-3-2-billion-in-treasury-bonds/" shape="rect">China to sell 20 billion yuan ($3.2 billion) in treasury\xc2\xa0bonds</a>\n              </li>\n              <li>\n                <a title="Two Chinese warships sighted at disputed Senkaku\xc2\xa0Islands" href="http://chinadailymail.com/2012/09/28/two-chinese-warships-sighted-at-disputed-sea-area/" shape="rect">Two Chinese warships sighted at disputed Senkaku\xc2\xa0Islands</a>\n              </li>\n              <li>\n                <a title="Philippines will respond to China\xc2\xa0ships" href="http://chinadailymail.com/2012/09/27/philippines-will-respond-to-china-ships/" shape="rect">Philippines will respond to China\xc2\xa0ships</a>\n              </li>\n              <li>\n                <a title="China\xc3\xa2\xe2\x82\xac\xe2\x84\xa2s reserve of talented leaders: Sun\xc2\xa0Zhengcai" href="http://chinadailymail.com/2012/09/27/chinas-reserve-of-talented-leaders-sun-zhengcai/" shape="rect">China\xc3\xa2\xe2\x82\xac\xe2\x84\xa2s reserve of talented leaders: Sun\xc2\xa0Zhengcai</a>\n              </li>\n              <li>\n                <a title="China is not a functioning\xc2\xa0meritocracy" href="http://chinadailymail.com/2012/09/27/china-is-not-a-functioning-meritocracy/" shape="rect">China is not a functioning\xc2\xa0meritocracy</a>\n              </li>\n              <li>\n                <a title="China carrier a show of force as Japan tension\xc2\xa0festers" href="http://chinadailymail.com/2012/09/26/china-carrier-a-show-of-force-as-japan-tension-festers/" shape="rect">China carrier a show of force as Japan tension\xc2\xa0festers</a>\n              </li>\n              <li>\n                <a title="PBOC injects biggest daily amount of funds via repos to raise\xc2\xa0liquidity" href="http://chinadailymail.com/2012/09/26/pboc-injects-biggest-daily-amount-of-funds-via-repos-to-raise-liquidity/" shape="rect">PBOC injects biggest daily amount of funds via repos to raise\xc2\xa0liquidity</a>\n              </li>\n              <li>\n                <a title="North Korea plans agriculture reforms, seeks Chinese\xc2\xa0investment" href="http://chinadailymail.com/2012/09/26/north-korea-plans-agriculture-reforms-seeks-chinese-investment/" shape="rect">North Korea plans agriculture reforms, seeks Chinese\xc2\xa0investment</a>\n              </li>\n              <li>\n                <a title="China: Foxconn security guards beat workers resulting in\xc2\xa0riot" href="http://chinadailymail.com/2012/09/26/china-foxconn-security-guards-beat-workers-resulting-in-riot/" shape="rect">China: Foxconn security guards beat workers resulting in\xc2\xa0riot</a>\n              </li>\n              <li>\n                <a title="Chinese navy gets first aircraft\xc2\xa0carrier" href="http://chinadailymail.com/2012/09/25/chinese-navy-gets-first-aircraft-carrier/" shape="rect">Chinese navy gets first aircraft\xc2\xa0carrier</a>\n              </li>\n              <li>\n                <a title="China\xe2\x80\x99s super-rich get\xc2\xa0poorer" href="http://chinadailymail.com/2012/09/25/chinas-super-rich-get-poorer/" shape="rect">China\xe2\x80\x99s super-rich get\xc2\xa0poorer</a>\n              </li>\n              <li>\n                <a title="China: Wen Jiabao will strive for political reform after\xc2\xa0retirement" href="http://chinadailymail.com/2012/09/25/china-wen-jiabao-will-strive-for-political-reform-after-retirement/" shape="rect">China: Wen Jiabao will strive for political reform after\xc2\xa0retirement</a>\n              </li>\n              <li>\n                <a title="South Korea signs deal to become NATO\xc2\xa0partner" href="http://chinadailymail.com/2012/09/25/south-korea-signs-deal-to-become-nato-partner/" shape="rect">South Korea signs deal to become NATO\xc2\xa0partner</a>\n              </li>\n              <li>\n                <a title="Fish flee after China claims Bay of Bengal\xc2\xa0(humour)" href="http://chinadailymail.com/2012/09/24/fish-flee-after-china-claims-bay-of-bengal-humour/" shape="rect">Fish flee after China claims Bay of Bengal\xc2\xa0(humour)</a>\n              </li>\n              <li>\n                <a title="Protesters stage anti-China rally in Tokyo over Senkaku\xc2\xa0Islands" href="http://chinadailymail.com/2012/09/24/protesters-stage-anti-china-rally-in-tokyo-over-senkaku-islands/" shape="rect">Protesters stage anti-China rally in Tokyo over Senkaku\xc2\xa0Islands</a>\n              </li>\n              <li>\n                <a title="China-Japan ceremony\xc2\xa0postponed" href="http://chinadailymail.com/2012/09/24/china-japan-ceremony-postponed/" shape="rect">China-Japan ceremony\xc2\xa0postponed</a>\n              </li>\n              <li>\n                <a title="Zhu jia jiao: A watertown in\xc2\xa0Shanghai" href="http://chinadailymail.com/2012/09/24/zhu-jia-jiao-a-watertown-in-shanghai/" shape="rect">Zhu jia jiao: A watertown in\xc2\xa0Shanghai</a>\n              </li>\n              <li>\n                <a title="Japan, U.S. joint drill to defend remote islands opens to\xc2\xa0media" href="http://chinadailymail.com/2012/09/23/japan-u-s-joint-drill-to-defend-remote-islands-opens-to-media/" shape="rect">Japan, U.S. joint drill to defend remote islands opens to\xc2\xa0media</a>\n              </li>\n              <li>\n                <a title="China: Zhou Qiang set for Politburo despite Li Wangyang\xc2\xa0scandal" href="http://chinadailymail.com/2012/09/23/china-zhou-qiang-set-for-politburo-despite-li-wangyang-scandal/" shape="rect">China: Zhou Qiang set for Politburo despite Li Wangyang\xc2\xa0scandal</a>\n              </li>\n              <li>\n                <a title="China\xe2\x80\x99s Xi Jinping: sea dispute hardliner or peace\xc2\xa0seeker?" href="http://chinadailymail.com/2012/09/23/chinas-xi-jinping-sea-dispute-hardliner-or-peace-seeker/" shape="rect">China\xe2\x80\x99s Xi Jinping: sea dispute hardliner or peace\xc2\xa0seeker?</a>\n              </li>\n              <li>\n                <a title="China at crossroad: risk of\xc2\xa0disintegration" href="http://chinadailymail.com/2012/09/22/china-at-crossroad-risk-of-disintegration/" shape="rect">China at crossroad: risk of\xc2\xa0disintegration</a>\n              </li>\n              <li>\n                <a title="China: Bo Xilai doomed for his Role in Wang Lijun\xc3\xa2\xe2\x82\xac\xe2\x84\xa2s and Gu Kailai\xc3\xa2\xe2\x82\xac\xe2\x84\xa2s\xc2\xa0cases" href="http://chinadailymail.com/2012/09/22/china-bo-xilai-doomed-for-his-role-in-wang-lijuns-and-gu-kailais-cases/" shape="rect">China: Bo Xilai doomed for his Role in Wang Lijun\xc3\xa2\xe2\x82\xac\xe2\x84\xa2s and Gu Kailai\xc3\xa2\xe2\x82\xac\xe2\x84\xa2s\xc2\xa0cases</a>\n              </li>\n              <li>\n                <a title="China launched two satellites for its GPS\xc2\xa0system" href="http://chinadailymail.com/2012/09/21/china-launched-2-satellites-for-its-gps-system/" shape="rect">China launched two satellites for its GPS\xc2\xa0system</a>\n              </li>\n              <li>\n                <a title="Bond wars: Chinese advisor calls for Japanese bond\xc2\xa0dump" href="http://chinadailymail.com/2012/09/21/bond-wars-chinese-advisor-calls-for-japanese-bond-dump/" shape="rect">Bond wars: Chinese advisor calls for Japanese bond\xc2\xa0dump</a>\n              </li>\n              <li>\n                <a title="September 21 1949 Mao Zedong outlines the new Chinese government" href="http://chinadailymail.com/2012/09/21/18009/" shape="rect">September 21 1949 Mao Zedong outlines the new Chinese government</a>\n              </li>\n              <li>\n                <a title="Bo Xilai involved in Wang Lijun\xc3\xa2\xe2\x82\xac\xe2\x84\xa2s case but cannot be\xc2\xa0prosecuted" href="http://chinadailymail.com/2012/09/20/bo-xilai-involved-in-wang-lijuns-case-but-cannot-be-prosecuted/" shape="rect">Bo Xilai involved in Wang Lijun\xc3\xa2\xe2\x82\xac\xe2\x84\xa2s case but cannot be\xc2\xa0prosecuted</a>\n              </li>\n              <li>\n                <a title="How much gold does China\xc2\xa0have?" href="http://chinadailymail.com/2012/09/20/how-much-gold-does-china-have/" shape="rect">How much gold does China\xc2\xa0have?</a>\n              </li>\n              <li>\n                <a title="Modern Chinese ethical\xc2\xa0dilemmas" href="http://chinadailymail.com/2012/09/20/modern-chinese-ethical-dilemmas/" shape="rect">Modern Chinese ethical\xc2\xa0dilemmas</a>\n              </li>\n              <li>\n                <a title="China and Russia quit\xc2\xa0dollar" href="http://chinadailymail.com/2012/09/20/china-and-russia-quit-dollar/" shape="rect">China and Russia quit\xc2\xa0dollar</a>\n              </li>\n              <li>\n                <a title="Japan\xc3\xa2\xe2\x82\xac\xe2\x84\xa2s restraint makes war with China less\xc2\xa0likely" href="http://chinadailymail.com/2012/09/19/japans-restraint-makes-war-with-china-less-likely/" shape="rect">Japan\xc3\xa2\xe2\x82\xac\xe2\x84\xa2s restraint makes war with China less\xc2\xa0likely</a>\n              </li>\n              <li>\n                <a title="Hollywood should bet on India over\xc2\xa0China" href="http://chinadailymail.com/2012/09/19/hollywood-should-bet-on-india-over-china/" shape="rect">Hollywood should bet on India over\xc2\xa0China</a>\n              </li>\n              <li>\n                <a title="Will clash begin by boldness on both Chinese and Japanese\xc2\xa0sides?" href="http://chinadailymail.com/2012/09/19/will-clash-begin-by-boldness-on-both-chinese-and-japanese-sides/" shape="rect">Will clash begin by boldness on both Chinese and Japanese\xc2\xa0sides?</a>\n              </li>\n              <li>\n                <a title="China hints at lenient sentence against\xc2\xa0ex-cop" href="http://chinadailymail.com/2012/09/18/china-hints-at-lenient-sentence-against-ex-cop/" shape="rect">China hints at lenient sentence against\xc2\xa0ex-cop</a>\n              </li>\n              <li>\n                <a title="In Africa\xe2\x80\x99s warm heart, a cold welcome for\xc2\xa0Chinese" href="http://chinadailymail.com/2012/09/18/in-africas-warm-heart-a-cold-welcome-for-chinese/" shape="rect">In Africa\xe2\x80\x99s warm heart, a cold welcome for\xc2\xa0Chinese</a>\n              </li>\n              <li>\n                <a title="Over 1,000 Chinese fishing boats to fish in disputed waters near\xc2\xa0Senkakus" href="http://chinadailymail.com/2012/09/17/over-1000-chinese-fishing-boats-to-fish-in-disputed-waters-near-senkakus/" shape="rect">Over 1,000 Chinese fishing boats to fish in disputed waters near\xc2\xa0Senkakus</a>\n              </li>\n            </ul>\n          </div>\n          <div id="meta-2" class="widget widget_meta">\n            <h3 class="mast">Meta</h3>\n            <ul>\n              <li>\n                <a href="http://chinadailymail.wordpress.com/wp-login.php?action=register" shape="rect">Register</a>\n              </li>\n              <li>\n                <a href="http://chinadailymail.wordpress.com/wp-login.php" shape="rect">Log in</a>\n              </li>\n              <li>\n                <a title="Syndicate this site using RSS 2.0" href="http://chinadailymail.com/feed/" shape="rect">\n                  Entries\n                  <abbr title="Really Simple Syndication">RSS</abbr>\n                </a>\n              </li>\n              <li>\n                <a title="The latest comments to all posts in RSS" href="http://chinadailymail.com/comments/feed/" shape="rect">\n                  Comments\n                  <abbr title="Really Simple Syndication">RSS</abbr>\n                </a>\n              </li>\n              <li>\n                <a title="Powered by WordPress, state-of-the-art semantic personal publishing platform." href="http://wordpress.com/" shape="rect">WordPress.com</a>\n              </li>\n            </ul>\n          </div>\n          <div id="nav_menu-6" class="widget widget_nav_menu">\n            <h3 class="mast">Meta 2</h3>\n            <div class="menu-email-log-in-container">\n              <ul id="menu-email-log-in" class="menu">\n                <li id="menu-item-8986" class="menu-item menu-item-type-custom menu-item-object-custom menu-item-8986">\n                  <a href="https://login.secureserver.net/index.php?app=wbe" target="_blank" shape="rect">Email Log In</a>\n                </li>\n              </ul>\n            </div>\n          </div>\n        </div>\n      </div>\n      <div id="footer" class="column full-width">\n        <div id="copyright" class="column first">\n          <p>\n            <a rel="home" title="China Daily Mail" href="http://chinadailymail.com/" shape="rect"> China Daily Mail </a>\n          </p>\n        </div>\n        <div id="credit" class="column last">\n          <p>\n            <a rel="generator" href="http://wordpress.com/?ref=footer" shape="rect">Blog at WordPress.com</a>\n            . Theme:\n            <a title="Learn more about this theme" href="http://theme.wordpress.com/themes/themorningafter/" shape="rect">The Morning After</a>\n            by\n            <a rel="designer" href="http://www.woothemes.com/" shape="rect">WooThemes</a>\n            .\n          </p>\n        </div>\n      </div>\n    </div>\n    <script type="text/javascript">\n      var _qevents = _qevents || [], wpcomQuantcastData = {&quot;qacct&quot;:&quot;p-18-mFEk4J448M&quot;,&quot;labels&quot;:&quot;,language.en,type.wpcom,posttag.aircraft-carrier,posttag.china,posttag.chinese-aircraft-carrier,posttag.j-15-fighter-aircraft,posttag.ma-dingsheng,posttag.ni-lexiong,posttag.peoples-liberation-army,posttag.sukhoi-su-33,wa.as.a8c,wa.pv.ads.chinadailymail&quot;};\nfunction wpcomQuantcastPixel( labels, options ) {\n\tvar i, defaults = wpcomQuantcastData, data = { event: \'ajax\' };\n\n\tlabels  = labels  || \'\';\n\toptions = options || {};\n\n\tif ( typeof labels != \'string\' )\n\t\toptions = labels;\n\n\tfor ( i in defaults ) {\n\t\tdata[i] = defaults[i];\n\t}\n\n\tfor ( i in options ) {\n\t\tdata[i] = options[i];\n\t}\n\n\tif ( data.labels ) {\n\t\tdata.labels += \',\' + labels;\n\t} else {\n\t\tdata.labels = labels;\n\t}\n\n\t_qevents.push( data );\n};\n(function() {var elem = document.createElement(\'script\');elem.src = (document.location.protocol == &quot;https:&quot; ? &quot;https://secure&quot; : &quot;http://edge&quot;) + &quot;.quantserve.com/quant.js&quot;;elem.async = true;elem.type = &quot;text/javascript&quot;;var scpt = document.getElementsByTagName(\'script\')[0];scpt.parentNode.insertBefore(elem, scpt);  })();\n_qevents.push( wpcomQuantcastData );\n    </script>\n    <noscript>\n      <div style="display: none;">\n        <img \n        alt="" width="1" height="1" src="//pixel.quantserve.com/pixel/p-18-mFEk4J448M.gif?labels=%2Clanguage.en%2Ctype.wpcom%2Cposttag.aircraft-carrier%2Cposttag.china%2Cposttag.chinese-aircraft-carrier%2Cposttag.j-15-fighter-aircraft%2Cposttag.ma-dingsheng%2Cposttag.ni-lexiong%2Cposttag.peoples-liberation-army%2Cposttag.sukhoi-su-33%2Cwa.as.a8c%2Cwa.pv.ads.chinadailymail">\n</img>\n      </div>\n    </noscript>\n    <script type="text/javascript">\n      /* &lt;![CDATA[ */\n\t(function($){\n\t\t$(document).on( \'ready post-load\', function() {\n\n\t\t\t// Remove the login box when clicking the page\n\t\t\t$( document ).mousedown( function( e ) {\n\t\t\t\tif ( null == $( e.target ).closest( \'#wpl-mustlogin\' ).get( 0 ) ) {\n\t\t\t\t\t$( \'#wpl-mustlogin\' ).remove();\n\t\t\t\t}\n\t\t\t});\n\n\t\t\t// Handle clicking the like button itself\n\t\t\t$(\'.wpl-button &gt; a.like\').click( function(e) {\n\t\t\t\te.preventDefault();\n\n\t\t\t\tvar postid = $(this).parent().attr(\'id\').split(\'like-\')[1];\n\t\t\t\t$.post( \'http://chinadailymail.com/wp-admin/admin-ajax.php\', {\n\t\t\t\t\t\'action\': \'wpl_record_stat\',\n\t\t\t\t\t\'stat_name\': \'loggedout_like_click\'\n\t\t\t\t} );\n\n\t\t\t\tvar tenMins = new Date();\n\t\t\t\ttenMins.setTime( tenMins.getTime() + 600000 );\n\t\t\t\tdocument.cookie = \'wpl_rand=0b6c5701ce; expires=\' + tenMins.toGMTString() + \'; domain=wordpress.com; path=/;\';\n\n\t\t\t\t$(this).parent().siblings(\'.wpl-count\').after( \'\\\n\t\t\t\t\t&lt;div id=&quot;wpl-mustlogin&quot;&gt; \\\n\t\t\t\t\t\t&lt;form action=&quot;https://chinadailymail.wordpress.com/wp-login.php&quot; method=&quot;post&quot;&gt; \\\n\t\t\t\t\t\t\t&lt;p&gt;Just one more step to like this:&lt;/p&gt; \\\n\t\t\t\t\t\t\t&lt;label&gt;&lt;span&gt;Username&lt;/span&gt; &lt;input type=&quot;text&quot; name=&quot;log&quot; id=&quot;user_login&quot; class=&quot;input&quot; value=&quot;&quot; size=&quot;20&quot; tabindex=&quot;80&quot; /&gt;&lt;/label&gt; \\\n\t\t\t\t\t\t\t&lt;label&gt;&lt;span&gt;Password&lt;/span&gt; &lt;input type=&quot;password&quot; name=&quot;pwd&quot; id=&quot;user_pass&quot; class=&quot;input&quot; value=&quot;&quot; size=&quot;20&quot; tabindex=&quot;81&quot; /&gt;&lt;/label&gt; \\\n\t\t\t\t\t\t\t&lt;input type=&quot;submit&quot; name=&quot;wp-submit&quot; id=&quot;wp-submit&quot; class=&quot;button-primary&quot; value=&quot;Log In&quot; tabindex=&quot;82&quot; /&gt; \\\n\t\t\t\t\t\t\t&lt;input type=&quot;hidden&quot; name=&quot;postid&quot; value=&quot;\' + postid + \'&quot; /&gt; \\\n\t\t\t\t\t\t\t&lt;input type=&quot;hidden&quot; name=&quot;redirect_to&quot; value=&quot;http://chinadailymail.com/2012/08/26/j-15-aircraft-seen-on-chinas-not-quite-ready-aircraft-carrier?year=2012&amp;#038;monthnum=08&amp;#038;day=26&amp;#038;name=j-15-aircraft-seen-on-chinas-not-quite-ready-aircraft-carrier&amp;#038;like=1&quot; /&gt; \\\n\t\t\t\t\t\t\t&lt;input type=&quot;hidden&quot; name=&quot;wpl_rand&quot; value=&quot;0b6c5701ce&quot; /&gt; \\\n\t\t\t\t\t\t\t&lt;p&gt;Not a member yet? &lt;a href=&quot;http://wordpress.com/signup/?ref=likebox&quot; id=&quot;wpl-signup-link&quot;&gt;Sign up with WordPress.com&lt;/a&gt;&lt;/p&gt; \\\n\t\t\t\t\t\t&lt;/form&gt; \\\n\t\t\t\t\t&lt;/div&gt; \\\n\t\t\t\t\');\n\n\t\t\t\t$(\'#wpl-mustlogin\').hide().slideDown(\'fast\');\n\t\t\t} );\n\n\t\t\t$(\'#wpl-mustlogin input.input\').live( \'focus\', function() {\n\t\t\t\t$(this).prev().hide();\n\t\t\t}).live( \'blur\', function() {\n\t\t\t\tif ( $(this).val() == \'\' ) {\n\t\t\t\t\t$(this).prev().show();\n\t\t\t\t}\n\t\t\t});\n\n\t\t\t$(\'#wpl-mustlogin input#wp-submit\').live( \'click\', function(e) {\n\t\t\t\te.preventDefault();\n\n\t\t\t\t$.post( \'http://chinadailymail.com/wp-admin/admin-ajax.php\', {\n\t\t\t\t\t\'action\': \'wpl_record_stat\',\n\t\t\t\t\t\'stat_name\': \'loggedout_login_submit\'\n\t\t\t\t}, function() {\n\t\t\t\t\t$(\'#wpl-mustlogin form\').submit();\n\t\t\t\t} );\n\t\t\t});\n\n\t\t\t$(\'#wpl-mustlogin a#wpl-signup-link\').live( \'click\', function(e) {\n\t\t\t\te.preventDefault();\n\n\t\t\t\tvar link = $(this).attr(\'href\');\n\n\t\t\t\t$.post( \'http://chinadailymail.com/wp-admin/admin-ajax.php\', {\n\t\t\t\t\t\'action\': \'wpl_record_stat\',\n\t\t\t\t\t\'stat_name\': \'loggedout_signup_click\'\n\t\t\t\t}, function() {\n\t\t\t\t\tlocation.href = link;\n\t\t\t\t} );\n\t\t\t});\n\t\t})\n\t})(jQuery);\n\t/* ]]&gt; */\n    </script>\n    <script src="http://s.gravatar.com/js/gprofiles.js?ver=201240ab" type="text/javascript"></script>\n    <script type="text/javascript"> /* &lt;![CDATA[ */ var WPGroHo = {&quot;my_hash&quot;:&quot;&quot;}; /* ]]&gt; */ </script>\n    <script src="http://s1.wp.com/wp-content/mu-plugins/gravatar-hovercards/wpgroho.js?m=1318621548g" type="text/javascript"></script>\n    <script>jQuery(document).ready(function($){ Gravatar.profile_cb = function( h, d ) { WPGroHo.syncProfileData( h, d ); }; Gravatar.my_hash = WPGroHo.my_hash; Gravatar.init( \'body\', \'#wp-admin-bar-my-account\' ); });</script>\n    <div style="display:none">\n      <div class="grofile-hash-map-6585efa75955d4ec66a4c0ab513955c7"> </div>\n    </div>\n    <script type="text/javascript">\n      /* &lt;![CDATA[ */\nvar HighlanderComments = {&quot;loggingInText&quot;:&quot;Logging In\\u2026&quot;,&quot;submittingText&quot;:&quot;Posting Comment\\u2026&quot;,&quot;postCommentText&quot;:&quot;Post Comment&quot;,&quot;connectingToText&quot;:&quot;Connecting to %s&quot;,&quot;commentingAsText&quot;:&quot;%1$s: You are commenting using your %2$s account.&quot;,&quot;logoutText&quot;:&quot;Log Out&quot;,&quot;loginText&quot;:&quot;Log In&quot;,&quot;connectURL&quot;:&quot;http:\\/\\/chinadailymail.wordpress.com\\/public.api\\/connect\\/?action=request&quot;,&quot;logoutURL&quot;:&quot;http:\\/\\/chinadailymail.wordpress.com\\/wp-login.php?action=logout&amp;_wpnonce=bc897eac24&quot;,&quot;homeURL&quot;:&quot;http:\\/\\/chinadailymail.com\\/&quot;,&quot;postID&quot;:&quot;17362&quot;,&quot;gravDefault&quot;:&quot;identicon&quot;,&quot;enterACommentError&quot;:&quot;Please enter a comment&quot;,&quot;enterEmailError&quot;:&quot;Please enter your email address here&quot;,&quot;invalidEmailError&quot;:&quot;Invalid email address&quot;,&quot;enterAuthorError&quot;:&quot;Please enter your name here&quot;,&quot;gravatarFromEmail&quot;:&quot;This picture will show whenever you leave a comment. Click to customize it.&quot;,&quot;logInToExternalAccount&quot;:&quot;Log in to use details from one of these accounts.&quot;,&quot;change&quot;:&quot;Change&quot;,&quot;changeAccount&quot;:&quot;Change Account&quot;,&quot;comment_registration&quot;:&quot;0&quot;,&quot;userIsLoggedIn&quot;:&quot;&quot;,&quot;isJetpack&quot;:&quot;0&quot;};\n/* ]]&gt; */\n    </script>\n    <script src="http://s0.wp.com/wp-content/mu-plugins/highlander-comments/script.js?m=1342824083g" type="text/javascript"></script>\n    <div id="bit" class="loggedout-follow-normal">\n      <a href="javascript:void(0)" class="bsub" shape="rect">\n        <span id="bsub-text">Follow</span>\n      </a>\n      <div id="bitsubscribe">\n        <h3>\n          <label for="loggedout-follow-field">Follow \xe2\x80\x9cChina Daily Mail\xe2\x80\x9d</label>\n        </h3>\n        <form accept-charset="utf-8" action="https://subscribe.wordpress.com" id="loggedout-follow" method="post" enctype="application/x-www-form-urlencoded">\n          <p>Get every new post delivered to your Inbox.</p>\n          <p style="display: none;" id="loggedout-follow-error"></p>\n          <p class="bit-follow-count">Join 681 other followers</p>\n          <p>\n            <input \n            onblur="this.value=(this.value==&quot;&quot;) ? &quot;Enter email address&quot; : this.value;" onfocus="this.value=(this.value==&quot;Enter your email address&quot;) ? &quot;&quot; : this.value;" value="Enter your email address" style="width: 95%; padding: 1px 2px" name="email" id="loggedout-follow-field" type="email">\n</input>\n          </p>\n          <input value="subscribe" name="action" type="hidden"></input>\n          <input value="33215671" name="blog_id" type="hidden"></input>\n          <input value="http://chinadailymail.com/2012/08/26/j-15-aircraft-seen-on-chinas-not-quite-ready-aircraft-carrier/" name="source" type="hidden"></input>\n          <input value="loggedout-follow" name="sub-type" type="hidden"></input>\n          <input value="af166afdac" name="_wpnonce" id="_wpnonce" type="hidden"></input>\n          <input value="/2012/08/26/j-15-aircraft-seen-on-chinas-not-quite-ready-aircraft-carrier/" name="_wp_http_referer" type="hidden"></input>\n          <p id="bsub-subscribe-button">\n            <input value="Sign me up" type="submit"></input>\n          </p>\n        </form>\n        <div id="bsub-credit">\n          <a href="http://wordpress.com/signup/?ref=lof" shape="rect">Powered by WordPress.com</a>\n        </div>\n      </div>\n    </div>\n    <script charset="UTF-8" type="text/javascript" id="polldaddyRatings">\n      &lt;!--//--&gt;&lt;![CDATA[//&gt;&lt;!--\nPDRTJS_settings_5840981_post_17362={&quot;id&quot;:5840981,&quot;unique_id&quot;:&quot;wp-post-17362&quot;,&quot;title&quot;:&quot;J-15%20aircraft%20seen%20on%20China%E2%80%99s%20%26%238220%3Bnot-quite-ready%26%238221%3B%20aircraft%26nbsp%3Bcarrier&quot;,&quot;permalink&quot;:&quot;http:\\/\\/chinadailymail.com\\/2012\\/08\\/26\\/j-15-aircraft-seen-on-chinas-not-quite-ready-aircraft-carrier\\/&quot;,&quot;item_id&quot;:&quot;_post_17362&quot;}; if ( typeof PDRTJS_RATING !== \'undefined\' ){if ( typeof PDRTJS_5840981_post_17362 == \'undefined\' ){PDRTJS_5840981_post_17362 = new PDRTJS_RATING( PDRTJS_settings_5840981_post_17362 );}}\n//--&gt;&lt;!]]&gt;\n    </script>\n    <script src="http://i.polldaddy.com/ratings/rating.js" charset="UTF-8" type="text/javascript"></script>\n    <script type="text/javascript"> WPCOM_sharing_counts = {&quot;http:\\/\\/chinadailymail.com\\/2012\\/08\\/26\\/j-15-aircraft-seen-on-chinas-not-quite-ready-aircraft-carrier\\/&quot;:17362} </script>\n    <script src="http://s0.wp.com/wp-content/mu-plugins/post-flair/sharing/sharing.js?m=1345189394g" type="text/javascript"></script>\n    <div style="display: none;" id="sharing_email">\n      <form action="" method="post" enctype="application/x-www-form-urlencoded">\n        <label for="target_email">Send to Email Address</label>\n        <input value="" name="target_email" id="target_email" type="text"></input>\n        <label for="source_name">Your Name</label>\n        <input value="" name="source_name" id="source_name" type="text"></input>\n        <label for="source_email">Your Email Address</label>\n        <input value="" name="source_email" id="source_email" type="text"></input>\n        <div id="sharing_recaptcha" class="recaptcha"></div>\n        <input value="6LcYW8MSAAAAADBAuEH9yaPcF7lWh11Iq62ZKtoo" name="recaptcha_public_key" id="recaptcha_public_key" type="hidden"></input>\n        <img height="16" width="16" alt="loading" src="http://s2.wp.com/wp-content/mu-plugins/post-flair/sharing/images/loading.gif?m=1315610318g" style="float: right; display: none" class="loading"></img>\n        <input value="Send Email" class="sharing_send" type="submit"></input>\n        <a href="#cancel" class="sharing_cancel" shape="rect">Cancel</a>\n        <div style="display: none;" class="errors errors-1"> Post was not sent - check your email addresses! </div>\n        <div style="display: none;" class="errors errors-2"> Email check failed, please try again </div>\n        <div style="display: none;" class="errors errors-3"> Sorry, your blog cannot share posts by email. </div>\n      </form>\n    </div>\n    <script charset="utf-8" type="text/javascript"> jQuery(document).ready(function(){ jQuery( \'.share-twitter\' ).click(function(){ window.open( jQuery(this).attr( \'href\' ), \'wpcomtwitter\', \'menubar=1,resizable=1,width=600,height=350\' ); return false; }); }); </script>\n    <script charset="utf-8" type="text/javascript"> jQuery(document).ready(function(){ jQuery( \'.share-facebook\' ).click(function(){ window.open( jQuery(this).attr( \'href\' ), \'wpcomfacebook\', \'menubar=1,resizable=1,width=600,height=400\' ); return false; }); }); </script>\n    <script charset="utf-8" type="text/javascript"> jQuery(document).ready(function(){ jQuery( \'.share-pinterest\' ).click(function(){ window.open( jQuery(this).attr( \'href\' ), \'wpcompinterest\', \'menubar=1,resizable=1,width=650,height=280\' ); return false; }); }); </script>\n    <script charset="utf-8" type="text/javascript"> jQuery(document).ready(function(){ jQuery( \'.share-linkedin\' ).click(function(){ window.open( jQuery(this).attr( \'href\' ), \'wpcomlinkedin\', \'menubar=1,resizable=1,width=580,height=450\' ); return false; }); }); </script>\n    <script src="http://platform.twitter.com/widgets.js?ver=20111117" type="text/javascript"></script>\n    <script src="http://s1.wp.com/wp-content/js/devicepx.js?m=1349105731g" type="text/javascript"></script>\n    <script type="text/javascript">\n      // &lt;![CDATA[\n(function() {\ntry{\n  if ( window.external &amp;&amp;\'msIsSiteMode\' in window.external) {\n    if (window.external.msIsSiteMode()) {\n      var jl = document.createElement(\'script\');\n      jl.type=\'text/javascript\';\n      jl.async=true;\n      jl.src=\'/wp-content/plugins/ie-sitemode/custom-jumplist.php\';\n      var s = document.getElementsByTagName(\'script\')[0];\n      s.parentNode.insertBefore(jl, s);\n    }\n  }\n}catch(e){}\n})();\n// ]]&gt;\n    </script>\n    <script type="text/javascript" src="http://s.stats.wordpress.com/w.js?21"></script>\n    <script type="text/javascript">\n      st_go({\'blog\':\'33215671\',\'v\':\'wpcom\',\'user_id\':\'0\',\'post\':\'17362\',\'subd\':\'chinadailymail\'});\nex_go({\'crypt\':\'UE5VTUIlVktzQT1yeWw/VmhvWEhMQWpBbFVYcF0/SWdbNlhzP2I4bmRreFZmV0VzWjQvem9JJX5Ic2tXLkpfNld3SkkwcFhwMytJJUtKcGVkUUFSdEh1aUsvZU1udlNyNjZiUC1kP3AyU2dwcFRiWHRWLEpTYyZVL05fK2YtJWJpTUd+Vk9dYl1mRi1vb0REU05kTnVPQz9maHAzc0NmdW5ZK2pMdytmazRvQVJubj0xdGxqZStLeWFtVi9wRGZMLXJhdmklUVA9QlVTaG8xcl8/VDBbbi9HTzFSWlAvaVdpb2J1YysyUiZBSU5ReFBBQmpKdmFucEdOcXYuS0lxTExfbE1tSiZpWVZLOVp1TVBZUG1BYVssVStjUHFwJlJnYj9pJmhzd2g3d3Ilbj10PWpzdA==\'});\naddLoadEvent(function(){linktracker_init(\'33215671\',17362);});\n    </script>\n    <noscript>\n      <img alt="" style="height:0px;width:0px;overflow:hidden" src="http://stats.wordpress.com/b.gif?v=noscript"></img>\n    </noscript>\n  </body>\n</html>'
p11
sbsS'mentions'
p12
(lp13
(iedu.umass.cs.iesl.wikilink.expanded.data.ttypes
Mention
p14
(dp15
S'anchor_text'
p16
S'Ming Pao'
p17
sS'context'
p18
(iedu.umass.cs.iesl.wikilink.expanded.data.ttypes
Context
p19
(dp20
S'middle'
p21
S'Ming Pao'
p22
sS'right'
p23
S'\xc3\xa2\xe2\x82\xac\xe2\x84\xa2s exclusive report on August 22, in one of the newest pictures of China \xc3\xa2\xe2\x82\xac\xe2\x84\xa2s first aircraft carrier, a prototype of China\xc3\xa2\xe2\x82\xac\xe2\x84\xa2s new carrier-based aircraft'
p24
sS'left'
p25
S", Chinese aircraft carrier , J-15 fighter aircraft , Ma Dingsheng , Ni Lexiong , People's Liberation Army , Sukhoi Su-33 J-15 Fighter According to"
p26
sbsS'freebase_id'
p27
S'9202a8c04000641f80000000001a50a6'
p28
sS'raw_text_offset'
p29
I16584
sS'wiki_url'
p30
S'http://en.wikipedia.org/wiki/Ming_Pao'
p31
sba(iedu.umass.cs.iesl.wikilink.expanded.data.ttypes
Mention
p32
(dp33
g16
S'China'
p34
sg18
(iedu.umass.cs.iesl.wikilink.expanded.data.ttypes
Context
p35
(dp36
g21
S'China'
p37
sg23
S'\xc3\xa2\xe2\x82\xac\xe2\x84\xa2s first aircraft carrier, a prototype of China\xc3\xa2\xe2\x82\xac\xe2\x84\xa2s new carrier-based aircraft J-15 is seen in a lifting test at Elevator No.1 on the starboard of'
p38
sg25
S"People's Liberation Army , Sukhoi Su-33 J-15 Fighter According to Ming Pao \xc3\xa2\xe2\x82\xac\xe2\x84\xa2s exclusive report on August 22, in one of the newest pictures of"
p39
sbsg27
S'9202a8c04000641f8000000000c01763'
p40
sg29
I16774
sg30
S'http://en.wikipedia.org/wiki/China'
p41
sba(iedu.umass.cs.iesl.wikilink.expanded.data.ttypes
Mention
p42
(dp43
g16
S'carrier-based aircraft'
p44
sg18
(iedu.umass.cs.iesl.wikilink.expanded.data.ttypes
Context
p45
(dp46
g21
S'carrier-based aircraft'
p47
sg23
S'J-15 is seen in a lifting test at Elevator No.1 on the starboard of China\xc3\xa2\xe2\x82\xac\xe2\x84\xa2s first aircraft carrier. Previously, in Phoenix Satellite TV \xc3\xa2\xe2\x82\xac\xe2\x84\xa2s Observation'
p48
sg25
S'Ming Pao \xc3\xa2\xe2\x82\xac\xe2\x84\xa2s exclusive report on August 22, in one of the newest pictures of China \xc3\xa2\xe2\x82\xac\xe2\x84\xa2s first aircraft carrier, a prototype of China\xc3\xa2\xe2\x82\xac\xe2\x84\xa2s new'
p49
sbsg27
S'9202a8c04000641f800000000bed8c11'
p50
sg29
I16984
sg30
S'http://en.wikipedia.org/wiki/Carrier-based_aircraft'
p51
sba(iedu.umass.cs.iesl.wikilink.expanded.data.ttypes
Mention
p52
(dp53
g16
S'Satellite TV'
p54
sg18
(iedu.umass.cs.iesl.wikilink.expanded.data.ttypes
Context
p55
(dp56
g21
S'Satellite TV'
p57
sg23
S'\xc3\xa2\xe2\x82\xac\xe2\x84\xa2s Observation Post of Military Situation, Chinese military expert Ma Dingsheng said that China had yet to develop its carrier-based aircraft before making a decision'
p58
sg25
S'China\xc3\xa2\xe2\x82\xac\xe2\x84\xa2s new carrier-based aircraft J-15 is seen in a lifting test at Elevator No.1 on the starboard of China\xc3\xa2\xe2\x82\xac\xe2\x84\xa2s first aircraft carrier. Previously, in Phoenix'
p59
sbsg27
S'9202a8c04000641f800000000009194b'
p60
sg29
I17391
sg30
S'http://en.wikipedia.org/wiki/Satellite_television'
p61
sba(iedu.umass.cs.iesl.wikilink.expanded.data.ttypes
Mention
p62
(dp63
g16
S'aircraft carriers'
p64
sg18
(iedu.umass.cs.iesl.wikilink.expanded.data.ttypes
Context
p65
(dp66
g21
S'aircraft carriers'
p67
sg23
S', when he commented on the speculation that China was going to build 6-8 nuclear aircraft carriers. In fact, neither the carrier nor J-15 can'
p68
sg25
S'Military Situation, Chinese military expert Ma Dingsheng said that China had yet to develop its carrier-based aircraft before making a decision on construction of its'
p69
sbsg27
S'9202a8c04000641f800000000000730b'
p70
sg29
I17883
sg30
S'http://en.wikipedia.org/wiki/Aircraft_carrier'
p71
sba(iedu.umass.cs.iesl.wikilink.expanded.data.ttypes
Mention
p72
(dp73
g16
S'Sukhoi Su-33'
p74
sg18
(iedu.umass.cs.iesl.wikilink.expanded.data.ttypes
Context
p75
(dp76
g21
S'Sukhoi Su-33'
p77
sg23
S'and China\xc3\xa2\xe2\x82\xac\xe2\x84\xa2s mature experience in developing China-made J-11B and J-11BS. It is capable of long-distance attack and comparable in technology and performance to US F'
p78
sg25
S'always been rumour that both the carrier and J-15 will hopefully be commissioned after 2013. J-15 is being developed by China based on the Russian'
p79
sbsg27
S'9202a8c04000641f80000000002a9ecb'
p80
sg29
I19215
sg30
S'http://en.wikipedia.org/wiki/Sukhoi_Su-33'
p81
sba(iedu.umass.cs.iesl.wikilink.expanded.data.ttypes
Mention
p82
(dp83
g16
S'F 18 Super Hornet'
p84
sg18
(iedu.umass.cs.iesl.wikilink.expanded.data.ttypes
Context
p85
(dp86
g21
S'F 18 Super Hornet'
p87
sg23
S'. However, Ni Lexiong believes that a few years from now, another new carrier-based aircraft may emerge in China. Academic: Frequent Report, Low-cost Deterrent In'
p88
sg25
S'Su-33 and China\xc3\xa2\xe2\x82\xac\xe2\x84\xa2s mature experience in developing China-made J-11B and J-11BS. It is capable of long-distance attack and comparable in technology and performance to US'
p89
sbsg27
Nsg29
I19553
sg30
S'http://en.wikipedia.org/wiki/Boeing_F/A-18E/F_Super_Hornet'
p90
sba(iedu.umass.cs.iesl.wikilink.expanded.data.ttypes
Mention
p91
(dp92
g16
S'Chinese aircraft carrier'
p93
sg18
(iedu.umass.cs.iesl.wikilink.expanded.data.ttypes
Context
p94
(dp95
g21
S'Chinese aircraft carrier'
p96
sg23
S'. It is a more cost-effective way to achieve a low-cost deterrent effect.\xc3\xa2\xe2\x82\xac\xef\xbf\xbd Related Articles China\xe2\x80\x99s First Aircraft Carrier Not Expected To Be In Service'
p97
sg25
S'foreign provocation. \xc3\xa2\xe2\x82\xac\xc5\x93In the past, huge funds were spent in conducting deterrent military drills. Now, deterrence is achieved by gradual disclosure of information about the'
p98
sbsg27
S'9202a8c04000641f800000001e3e3a8c'
p99
sg29
I20545
sg30
S'http://en.wikipedia.org/wiki/Chinese_aircraft_carrier_ex-Varyag'
p100
sbasS'doc_id'
p101
I3383619
sS'rare_words'
p102
(lp103
(iedu.umass.cs.iesl.wikilink.expanded.data.ttypes
RareWord
p104
(dp105
S'word'
p106
S'ready'
p107
sS'offset'
p108
I14431
sba(iedu.umass.cs.iesl.wikilink.expanded.data.ttypes
RareWord
p109
(dp110
g106
S'report'
p111
sg108
I16611
sba(iedu.umass.cs.iesl.wikilink.expanded.data.ttypes
RareWord
p112
(dp113
g106
S'had'
p114
sg108
I17658
sba(iedu.umass.cs.iesl.wikilink.expanded.data.ttypes
RareWord
p115
(dp116
g106
S'effect'
p117
sg108
I20639
sba(iedu.umass.cs.iesl.wikilink.expanded.data.ttypes
RareWord
p118
(dp119
g106
S'Previously'
p120
sg108
I17229
sba(iedu.umass.cs.iesl.wikilink.expanded.data.ttypes
RareWord
p121
(dp122
g106
S'testing'
p123
sg108
I18734
sba(iedu.umass.cs.iesl.wikilink.expanded.data.ttypes
RareWord
p124
(dp125
g106
S'he'
p126
sg108
I17911
sba(iedu.umass.cs.iesl.wikilink.expanded.data.ttypes
RareWord
p127
(dp128
g106
S'neither'
p129
sg108
I18020
sba(iedu.umass.cs.iesl.wikilink.expanded.data.ttypes
RareWord
p130
(dp131
g106
S'hangar'
p132
sg108
I19883
sba(iedu.umass.cs.iesl.wikilink.expanded.data.ttypes
RareWord
p133
(dp134
g106
S'developing'
p135
sg108
I19267
sbasb.