(iedu.umass.cs.iesl.wikilink.expanded.data.ttypes
WikiLinkItem
p0
(dp1
S'url'
p2
S'http://en.wikinews.org/wiki/Jason-2_satellite_launched_to_measure_sea_levels'
p3
sS'content'
p4
(iedu.umass.cs.iesl.wikilink.expanded.data.ttypes
PageContentItem
p5
(dp6
S'articleText'
p7
NsS'raw'
p8
NsS'fullText'
p9
NsS'dom'
p10
S'<html lang="en" dir="ltr" class="client-nojs">\n  <head>\n    <title>Jason-2 satellite launched to measure sea levels - Wikinews, the free news source</title>\n    <meta charset="UTF-8"></meta>\n    <meta content="MediaWiki 1.20wmf12" name="generator"></meta>\n    <link href="//upload.wikimedia.org/wikipedia/commons/4/43/Apple-touch-icon.png" rel="apple-touch-icon"></link>\n    <link href="/favicon.ico" rel="shortcut icon"></link>\n    <link title="Wikinews (en)" href="/w/opensearch_desc.php" type="application/opensearchdescription+xml" rel="search"></link>\n    <link href="//en.wikinews.org/w/api.php?action=rsd" type="application/rsd+xml" rel="EditURI"></link>\n    <link href="//creativecommons.org/licenses/by/2.5/" rel="copyright"></link>\n    <link \n    href="http://en.wikinews.org/w/index.php?title=Special:NewsFeed&amp;feed=atom&amp;categories=Published&amp;notcategories=No%20publish%7CArchived%7CAutoArchived%7Cdisputed&amp;namespace=0&amp;count=30&amp;hourcount=124&amp;ordermethod=categoryadd&amp;stablepages=only" title="Wikinews Atom feed" type="application/atom+xml" rel="alternate">\n</link>\n    <link href="//bits.wikimedia.org/en.wikinews.org/load.php?debug=false&amp;lang=en&amp;modules=ext.flaggedRevs.basic%7Cext.wikihiero%7Cmediawiki.legacy.commonPrint%2Cshared%7Cskins.vector&amp;only=styles&amp;skin=vector&amp;*" rel="stylesheet"></link>\n    <link href="//bits.wikimedia.org/static-1.20wmf12/extensions/ReaderFeedback/readerfeedback.css?1" rel="stylesheet"></link>\n    <meta content="" name="ResourceLoaderDynamicStyles"></meta>\n    <link href="//bits.wikimedia.org/en.wikinews.org/load.php?debug=false&amp;lang=en&amp;modules=site&amp;only=styles&amp;skin=vector&amp;*" rel="stylesheet"></link>\n    <style>a:lang(ar),a:lang(ckb),a:lang(fa),a:lang(kk-arab),a:lang(mzn),a:lang(ps),a:lang(ur){text-decoration:none} /* cache key: enwikinews:resourceloader:filter:minify-css:7:85ca90cd879175242070c1342677cd6b */ </style>\n    <script src="//bits.wikimedia.org/en.wikinews.org/load.php?debug=false&amp;lang=en&amp;modules=startup&amp;only=scripts&amp;skin=vector&amp;*"></script>\n    <script>\n      if(window.mw){\nmw.config.set({&quot;wgCanonicalNamespace&quot;:&quot;&quot;,&quot;wgCanonicalSpecialPageName&quot;:false,&quot;wgNamespaceNumber&quot;:0,&quot;wgPageName&quot;:&quot;Jason-2_satellite_launched_to_measure_sea_levels&quot;,&quot;wgTitle&quot;:&quot;Jason-2 satellite launched to measure sea levels&quot;,&quot;wgCurRevisionId&quot;:676739,&quot;wgArticleId&quot;:108382,&quot;wgIsArticle&quot;:true,&quot;wgAction&quot;:&quot;view&quot;,&quot;wgUserName&quot;:null,&quot;wgUserGroups&quot;:[&quot;*&quot;],&quot;wgCategories&quot;:[&quot;June 20, 2008&quot;,&quot;Archived&quot;,&quot;Published&quot;,&quot;France&quot;,&quot;United States&quot;,&quot;California&quot;,&quot;Space&quot;,&quot;Science and technology&quot;],&quot;wgBreakFrames&quot;:false,&quot;wgPageContentLanguage&quot;:&quot;en&quot;,&quot;wgSeparatorTransformTable&quot;:[&quot;&quot;,&quot;&quot;],&quot;wgDigitTransformTable&quot;:[&quot;&quot;,&quot;&quot;],&quot;wgDefaultDateFormat&quot;:&quot;dmy&quot;,&quot;wgMonthNames&quot;:[&quot;&quot;,&quot;January&quot;,&quot;February&quot;,&quot;March&quot;,&quot;April&quot;,&quot;May&quot;,&quot;June&quot;,&quot;July&quot;,&quot;August&quot;,&quot;September&quot;,&quot;October&quot;,&quot;November&quot;,&quot;December&quot;],&quot;wgMonthNamesShort&quot;:[&quot;&quot;,&quot;Jan&quot;,&quot;Feb&quot;,&quot;Mar&quot;,&quot;Apr&quot;,&quot;May&quot;,&quot;Jun&quot;,&quot;Jul&quot;,&quot;Aug&quot;,&quot;Sep&quot;,&quot;Oct&quot;,&quot;Nov&quot;,&quot;Dec&quot;],&quot;wgRelevantPageName&quot;:&quot;Jason-2_satellite_launched_to_measure_sea_levels&quot;,&quot;wgRestrictionEdit&quot;:[&quot;sysop&quot;],&quot;wgRestrictionMove&quot;:[&quot;sysop&quot;],&quot;wgSearchNamespaces&quot;:[0,100],&quot;wgVectorEnabledModules&quot;:{&quot;collapsiblenav&quot;:true,&quot;collapsibletabs&quot;:true,&quot;editwarning&quot;:true,&quot;expandablesearch&quot;:false,&quot;footercleanup&quot;:false,&quot;sectioneditlinks&quot;:false,&quot;simplesearch&quot;:true,&quot;experiments&quot;:true},&quot;wgWikiEditorEnabledModules&quot;:{&quot;toolbar&quot;:true,&quot;dialogs&quot;:true,&quot;hidesig&quot;:true,&quot;templateEditor&quot;:false,&quot;templates&quot;:false,&quot;preview&quot;:false,&quot;previewDialog&quot;:false,&quot;publish&quot;:false,&quot;toc&quot;:false},&quot;wgFeedbackParams&quot;:{&quot;tags&quot;:{&quot;reliability&quot;:3,&quot;completeness&quot;:2,&quot;npov&quot;:2,&quot;presentation&quot;:1}},&quot;wgAjaxFeedback&quot;:{&quot;sendingMsg&quot;:&quot;Submitting \xc3\xa2\xe2\x82\xac\xc5\xa0&quot;,&quot;sentMsg&quot;:&quot;Thank you!&quot;},&quot;wgFlaggedRevsParams&quot;:{&quot;tags&quot;:{&quot;accuracy&quot;:{&quot;levels&quot;:2,&quot;quality&quot;:2,&quot;pristine&quot;:4}}},&quot;wgStableRevisionId&quot;:676739,&quot;wgCategoryTreePageCategoryOptions&quot;:&quot;{\\&quot;mode\\&quot;:0,\\&quot;hideprefix\\&quot;:20,\\&quot;showcount\\&quot;:true,\\&quot;namespaces\\&quot;:false}&quot;,&quot;Geo&quot;:{&quot;city&quot;:&quot;&quot;,&quot;country&quot;:&quot;&quot;},&quot;wgNoticeProject&quot;:&quot;wikinews&quot;});\n}\n    </script>\n    <script>\n      if(window.mw){\nmw.loader.implement(&quot;user.options&quot;,function(){mw.user.options.set({&quot;ccmeonemails&quot;:0,&quot;cols&quot;:80,&quot;date&quot;:&quot;default&quot;,&quot;diffonly&quot;:0,&quot;disablemail&quot;:0,&quot;disablesuggest&quot;:0,&quot;editfont&quot;:&quot;default&quot;,&quot;editondblclick&quot;:0,&quot;editsection&quot;:1,&quot;editsectiononrightclick&quot;:0,&quot;enotifminoredits&quot;:0,&quot;enotifrevealaddr&quot;:0,&quot;enotifusertalkpages&quot;:1,&quot;enotifwatchlistpages&quot;:0,&quot;extendwatchlist&quot;:0,&quot;externaldiff&quot;:0,&quot;externaleditor&quot;:0,&quot;fancysig&quot;:0,&quot;forceeditsummary&quot;:0,&quot;gender&quot;:&quot;unknown&quot;,&quot;hideminor&quot;:0,&quot;hidepatrolled&quot;:0,&quot;imagesize&quot;:2,&quot;justify&quot;:0,&quot;math&quot;:0,&quot;minordefault&quot;:0,&quot;newpageshidepatrolled&quot;:0,&quot;nocache&quot;:0,&quot;noconvertlink&quot;:0,&quot;norollbackdiff&quot;:0,&quot;numberheadings&quot;:0,&quot;previewonfirst&quot;:0,&quot;previewontop&quot;:1,&quot;quickbar&quot;:5,&quot;rcdays&quot;:7,&quot;rclimit&quot;:50,&quot;rememberpassword&quot;:0,&quot;rows&quot;:25,&quot;searchlimit&quot;:20,&quot;showhiddencats&quot;:false,&quot;showjumplinks&quot;:1,&quot;shownumberswatching&quot;:1,&quot;showtoc&quot;:1,&quot;showtoolbar&quot;:1,&quot;skin&quot;:&quot;vector&quot;,&quot;stubthreshold&quot;:0,&quot;thumbsize&quot;:4,&quot;underline&quot;:2,&quot;uselivepreview&quot;:0,&quot;usenewrc&quot;:0,&quot;watchcreations&quot;:1,&quot;watchdefault&quot;:0,&quot;watchdeletion&quot;:0,&quot;watchlistdays&quot;:3\n,&quot;watchlisthideanons&quot;:0,&quot;watchlisthidebots&quot;:0,&quot;watchlisthideliu&quot;:0,&quot;watchlisthideminor&quot;:0,&quot;watchlisthideown&quot;:0,&quot;watchlisthidepatrolled&quot;:0,&quot;watchmoves&quot;:0,&quot;wllimit&quot;:250,&quot;flaggedrevssimpleui&quot;:1,&quot;flaggedrevsstable&quot;:0,&quot;flaggedrevseditdiffs&quot;:true,&quot;flaggedrevsviewdiffs&quot;:false,&quot;vector-simplesearch&quot;:1,&quot;useeditwarning&quot;:1,&quot;vector-collapsiblenav&quot;:1,&quot;usebetatoolbar&quot;:1,&quot;usebetatoolbar-cgd&quot;:1,&quot;lqtnotifytalk&quot;:false,&quot;lqtdisplaydepth&quot;:5,&quot;lqtdisplaycount&quot;:25,&quot;lqtcustomsignatures&quot;:true,&quot;lqt-watch-threads&quot;:true,&quot;variant&quot;:&quot;en&quot;,&quot;language&quot;:&quot;en&quot;,&quot;searchNs0&quot;:true,&quot;searchNs1&quot;:false,&quot;searchNs2&quot;:false,&quot;searchNs3&quot;:false,&quot;searchNs4&quot;:false,&quot;searchNs5&quot;:false,&quot;searchNs6&quot;:false,&quot;searchNs7&quot;:false,&quot;searchNs8&quot;:false,&quot;searchNs9&quot;:false,&quot;searchNs10&quot;:false,&quot;searchNs11&quot;:false,&quot;searchNs12&quot;:false,&quot;searchNs13&quot;:false,&quot;searchNs14&quot;:false,&quot;searchNs15&quot;:false,&quot;searchNs90&quot;:false,&quot;searchNs91&quot;:false,&quot;searchNs92&quot;:false,&quot;searchNs93&quot;:false,&quot;searchNs100&quot;:true,&quot;searchNs101&quot;:false,&quot;searchNs102&quot;:false,&quot;searchNs103&quot;:false});;},{},{});mw.loader.\nimplement(&quot;user.tokens&quot;,function(){mw.user.tokens.set({&quot;editToken&quot;:&quot;+\\\\&quot;,&quot;watchToken&quot;:false});;},{},{});\n\n/* cache key: enwikinews:resourceloader:filter:minify-js:7:54a1bc2225c985a67d82d78e2a0fafd4 */\n}\n    </script>\n    <script>if(window.mw){ mw.loader.load([&quot;mediawiki.page.startup&quot;,&quot;mediawiki.legacy.wikibits&quot;,&quot;mediawiki.legacy.ajax&quot;,&quot;ext.centralNotice.bannerController&quot;]); }</script>\n    <script src="//bits.wikimedia.org/geoiplookup"></script>\n  </head>\n  <body class="mediawiki ltr sitedir-ltr ns-0 ns-subject page-Jason-2_satellite_launched_to_measure_sea_levels skin-vector action-view vector-animateLayout">\n    <div id="mw-page-base" class="noprint"></div>\n    <div id="mw-head-base" class="noprint"></div>\n    <div id="content" class="mw-body">\n      <a id="top" shape="rect"></a>\n      <div style="display:none;" id="mw-js-message"></div>\n      <div id="siteNotice">\n        <script>mw.centralNotice.initialize();</script>\n        <script type="text/javascript">\n          /* &lt;![CDATA[ */\ndocument.writeln(&quot;\\x3cdiv id=\\&quot;localNotice\\&quot; lang=\\&quot;en\\&quot; dir=\\&quot;ltr\\&quot;\\x3e\\x3ccenter\\x3e\\x3ci\\x3eWikinews\\x3c/i\\x3e is written by people like \\x3cb\\x3eyou\\x3c/b\\x3e.\\x3cbr/\\x3eFind a current topic you\\\'d like to see \\x3ci\\x3eWikinews\\x3c/i\\x3e cover, \\x3ca href=\\&quot;/wiki/Special:CreateAccount\\&quot; title=\\&quot;Special:CreateAccount\\&quot;\\x3ecreate an account\\x3c/a\\x3e and \\x3ca href=\\&quot;/wiki/Wikinews:Writing_an_article\\&quot; title=\\&quot;Wikinews:Writing an article\\&quot;\\x3ewrite an article\\x3c/a\\x3e on it!\\x3c/center\\x3e\\n\\x3c/div\\x3e&quot;);\n/* ]]&gt; */\n        </script>\n      </div>\n      <h1 id="firstHeading" class="firstHeading">\n        <span dir="auto">Jason-2 satellite launched to measure sea levels</span>\n      </h1>\n      <div id="bodyContent">\n        <div id="siteSub">From Wikinews, the free news source you can write!</div>\n        <div id="contentSub"></div>\n        <div id="jump-to-nav" class="mw-jump">\n          Jump to:\n          <a href="#mw-head" shape="rect">navigation</a>\n          ,\n          <a href="#p-search" shape="rect">search</a>\n        </div>\n        <div lang="en" id="mw-content-text" dir="ltr" class="mw-content-ltr">\n          <p>\n            <strong class="published">\n              <span title="2008-06-20" id="publishDate" class="value-title"></span>\n              Friday, June 20, 2008\n            </strong>\n            <span \n            title="ctx_ver=Z39.88-2004&amp;rft_val_fmt=info%3Aofi%2Ffmt%3Akev%3Amtx%3Ajournal&amp;rfr_id=rfr_id=info:sid/en.wikinews.org:User%3ADendodge&amp;rft_id=info:sid/en.wikinews.org:Jason-2_satellite_launched_to_measure_sea_levels&amp;rft.atitle=Jason-2+satellite+launched+to+measure+sea+levels&amp;rft.jtitle=Wikinews&amp;rft.date=2008-06-20&amp;rft.aucorp=Wikinews+contributors&amp;rft.genre=article&amp;rft.rights=CC-BY+2.5&amp;rft.identifier=%2F%2Fen.wikinews.org%2Fwiki%2FJason-2_satellite_launched_to_measure_sea_levels&amp;rft.artnum=676739" style="display:none" class="Z3988">\n              \xc2\xa0\n</span>\n          </p>\n          <div class="thumb tright">\n            <div style="width:212px;" class="thumbinner">\n              <a href="/w/index.php?title=File:OSTM_launch.jpg&amp;filetimestamp=20080620082855" class="image" shape="rect">\n                <img height="162" width="210" src="//upload.wikimedia.org/wikipedia/commons/thumb/8/84/OSTM_launch.jpg/210px-OSTM_launch.jpg" alt="" class="thumbimage"></img>\n              </a>\n              <div class="thumbcaption">\n                <div class="magnify">\n                  <a title="Enlarge" href="/w/index.php?title=File:OSTM_launch.jpg&amp;filetimestamp=20080620082855" class="internal" shape="rect">\n                    <img alt="" height="11" width="15" src="//bits.wikimedia.org/static-1.20wmf9/skins/common/images/magnify-clip.png"></img>\n                  </a>\n                </div>\n                The launch of OSTM\n                <small>(NASA)</small>\n              </div>\n            </div>\n          </div>\n          <p>\n            The\n            <a title="w:Ocean Surface Topography Mission" href="//en.wikipedia.org/wiki/Ocean_Surface_Topography_Mission" class="extiw" shape="rect">Ocean Surface Topography Mission</a>\n            (OSTM), or Jason-2, satellite, has been launched into\n            <a title="w:low Earth orbit" href="//en.wikipedia.org/wiki/low_Earth_orbit" class="extiw" shape="rect">low Earth orbit</a>\n            . A\n            <a title="w:Delta II" href="//en.wikipedia.org/wiki/Delta_II" class="extiw" shape="rect">Delta II</a>\n            rocket carrying the satellite lifted off from\n            <a title="w:Vandenberg AFB Space Launch Complex 2" href="//en.wikipedia.org/wiki/Vandenberg_AFB_Space_Launch_Complex_2" class="extiw" shape="rect">Space Launch Complex 2W</a>\n            at the\n            <a title="w:Vandenberg Air Force Base" href="//en.wikipedia.org/wiki/Vandenberg_Air_Force_Base" class="extiw" shape="rect">Vandenberg Air Force Base</a>\n            in\n            <a title="California" href="/wiki/California" class="mw-redirect" shape="rect">California</a>\n            ,\n            <a title="United States" href="/wiki/United_States" class="mw-redirect" shape="rect">United States</a>\n            , at 07:46\n            <a title="w:GMT" href="//en.wikipedia.org/wiki/GMT" class="extiw" shape="rect">GMT</a>\n            this morning. Spacecraft separation occurred around an hour later, and the solar panels on the satellite have deployed.\n          </p>\n          <div class="thumb tleft">\n            <div style="width:162px;" class="thumbinner">\n              <a href="/w/index.php?title=File:OSTM_sep.jpg&amp;filetimestamp=20080620084503" class="image" shape="rect">\n                <img height="123" width="160" src="//upload.wikimedia.org/wikipedia/commons/thumb/6/61/OSTM_sep.jpg/160px-OSTM_sep.jpg" alt="" class="thumbimage"></img>\n              </a>\n              <div class="thumbcaption">\n                <div class="magnify">\n                  <a title="Enlarge" href="/w/index.php?title=File:OSTM_sep.jpg&amp;filetimestamp=20080620084503" class="internal" shape="rect">\n                    <img alt="" height="11" width="15" src="//bits.wikimedia.org/static-1.20wmf9/skins/common/images/magnify-clip.png"></img>\n                  </a>\n                </div>\n                OSTM separates from its carrier rocket\n              </div>\n            </div>\n          </div>\n          <p>\n            OSTM is a collaboration between the American space agency,\n            <a title="w:NASA" href="//en.wikipedia.org/wiki/NASA" class="extiw" shape="rect">NASA</a>\n            , and the\n            <a title="France" href="/wiki/France" class="mw-redirect" shape="rect">French</a>\n            space agency,\n            <a title="w:CNES" href="//en.wikipedia.org/wiki/CNES" class="extiw" shape="rect">CNES</a>\n            . It will study and map the surface of the oceans from space. The Delta II rocket flew in the 7320 configuration, the lowest capacity variant, with three\n            <a title="w:solid rocket motor" href="//en.wikipedia.org/wiki/solid_rocket_motor" class="extiw" shape="rect">solid rocket motors</a>\n            , and no third stage. The exact launch time was 07:46:25.192 GMT.\n          </p>\n          <p>\n            This is the third launch of a Delta II carrier rocket to be conducted so far this year, and the 137\n            <sup>th</sup>\n            overall. The next Delta II is scheduled to launch in mid-late August, with the\n            <a title="w:GeoEye-1" href="//en.wikipedia.org/wiki/GeoEye-1" class="extiw" shape="rect">GeoEye-1</a>\n            civilian imagery satellite, however A GPS satellite launch which was delayed from mid July to an unconfirmed date could potentially occur before this. This is the 32\n            <sup>nd</sup>\n            orbital launch of\n            <a title="w:2008 in spaceflight" href="//en.wikipedia.org/wiki/2008_in_spaceflight" class="extiw" shape="rect">2008</a>\n            .\n          </p>\n          <p>\n            <br style="clear:none;" clear="none"></br>\n          </p>\n          <center>\n            <div style="background-color:#FFFFFF; border:1px solid #CCCCCC; padding:2px;width:50%; text-size:smallest;" id="commentrequest" class="noprint messagebox boilerplate plainlinks" align="center">\n              <p>\n                Have an opinion on this story?\n                <a title="Comments:Jason-2 satellite launched to measure sea levels (page does not exist)" href="/w/index.php?title=Comments:Jason-2_satellite_launched_to_measure_sea_levels&amp;action=edit&amp;redlink=1" class="new" shape="rect">Post it!</a>\n              </p>\n            </div>\n          </center>\n          <h2>\n            <span class="editsection">\n              [\n              <a title="Edit section: Sources" href="/w/index.php?title=Jason-2_satellite_launched_to_measure_sea_levels&amp;action=edit&amp;section=1" shape="rect">edit</a>\n              ]\n            </span>\n            <span id="Sources" class="mw-headline">Sources</span>\n          </h2>\n          <ul>\n            <li>\n              &quot;\n              <a href="http://countdown.ksc.nasa.gov/elv/index-vafb.html" rel="nofollow" class="external text" shape="rect">ELV Countdown Portal</a>\n              &quot; \xc3\xa2\xe2\x82\xac\xe2\x80\x9d\xc2\xa0\n              <i>\n                <span class="interwiki-link-foreign">\n                  <a title="w:National Aeronautics and Space Administration" href="//en.wikipedia.org/wiki/National_Aeronautics_and_Space_Administration" class="extiw" shape="rect">National Aeronautics and Space Administration</a>\n                </span>\n              </i>\n              , June 20, 2008\n            </li>\n            <li>\n              NASA TV Public Channel. &quot;\n              <a href="http://www.nasa.gov/multimedia/nasatv/index.html" rel="nofollow" class="external text" shape="rect">Live Webcast</a>\n              &quot; \xc3\xa2\xe2\x82\xac\xe2\x80\x9d\xc2\xa0\n              <i>\n                <span class="interwiki-link-foreign">\n                  <a title="w:National Aeronautics and Space Administration" href="//en.wikipedia.org/wiki/National_Aeronautics_and_Space_Administration" class="extiw" shape="rect">National Aeronautics and Space Administration</a>\n                </span>\n              </i>\n              , June 20, 2008\n            </li>\n            <li>\n              Chris Bergin. &quot;\n              <a href="http://www.nasaspaceflight.com/content/?cid=5455" rel="nofollow" class="external text" shape="rect">ULA Delta II launches with Jason-2 for Europe/US</a>\n              &quot; \xc3\xa2\xe2\x82\xac\xe2\x80\x9d\xc2\xa0\n              <i>\n                <span class="interwiki-link-foreign">\n                  <a title="w:NASASpaceflight.com" href="//en.wikipedia.org/wiki/NASASpaceflight.com" class="extiw" shape="rect">NASASpaceflight.com</a>\n                </span>\n              </i>\n              , June 20, 2008\n            </li>\n            <li>\n              &quot;\n              <a href="http://www.nasa.gov/mission_pages/ostm/launch/index.html" rel="nofollow" class="external text" shape="rect">OSTM/Jason-2 Launch</a>\n              &quot; \xc3\xa2\xe2\x82\xac\xe2\x80\x9d\xc2\xa0\n              <i>\n                <span class="interwiki-link-foreign">\n                  <a title="w:National Aeronautics and Space Administration" href="//en.wikipedia.org/wiki/National_Aeronautics_and_Space_Administration" class="extiw" shape="rect">National Aeronautics and Space Administration</a>\n                </span>\n              </i>\n              , June 20, 2008\n            </li>\n            <li>\n              Justin Ray. &quot;\n              <a href="http://www.spaceflightnow.com/delta/d334/status.html" rel="nofollow" class="external text" shape="rect">Mission Status Center</a>\n              &quot; \xc3\xa2\xe2\x82\xac\xe2\x80\x9d\xc2\xa0\n              <i>\n                <span class="interwiki-link-foreign">\n                  <a title="w:Spaceflight Now" href="//en.wikipedia.org/wiki/Spaceflight_Now" class="extiw" shape="rect">Spaceflight Now</a>\n                </span>\n              </i>\n              , June 20, 2008\n            </li>\n          </ul>\n          <p>\n            <br style="clear:both;" clear="none"></br>\n          </p>\n          <table class="metadata noprint plainlinks ambox ambox-notice">\n            <tr>\n              <td class="ambox-image" rowspan="1" colspan="1">\n                <a href="/wiki/File:Padlock-silver-medium.svg" class="image" shape="rect">\n                  <img height="40" width="40" src="//upload.wikimedia.org/wikipedia/commons/thumb/f/fa/Padlock-silver-medium.svg/40px-Padlock-silver-medium.svg.png" alt="Padlock-silver-medium.svg"></img>\n                </a>\n              </td>\n              <td rowspan="1" colspan="1">\n                <b>\n                  This page is\n                  <a title="Wikinews:Archive conventions" href="/wiki/Wikinews:Archive_conventions" shape="rect">archived</a>\n                  , and is no longer publicly editable.\n                </b>\n                <div style="padding: 5px 40px 0px 40px; font-size:90%;">Articles presented on Wikinews reflect the specific time at which they were written and published, and do not attempt to encompass events or knowledge which occur or become known after their publication.</div>\n                <p>\n                  Got a correction? Add the template {{\n                  <a title="Template:Editprotected" href="/wiki/Template:Editprotected" shape="rect">editprotected</a>\n                  }} to the\n                  <a title="Talk:Jason-2 satellite launched to measure sea levels (page does not exist)" href="/w/index.php?title=Talk:Jason-2_satellite_launched_to_measure_sea_levels&amp;action=edit&amp;redlink=1" class="new" shape="rect">talk page</a>\n                  along with your corrections, and it will be\n                  <a title="Wikinews:Admin action alerts" href="/wiki/Wikinews:Admin_action_alerts#Edits_to_protected_pages" shape="rect">brought to the attention of</a>\n                  the\n                  <a title="Wikinews:Administrators" href="/wiki/Wikinews:Administrators" shape="rect">administrators</a>\n                  .\n                </p>\n                <p>\n                  <small>\n                    Please note that due to our\n                    <a title="Wikinews:ARCHIVE" href="/wiki/Wikinews:ARCHIVE" class="mw-redirect" shape="rect">archival policy</a>\n                    , we will not alter or update the content of articles that are archived, but will only accept requests to make grammatical and formatting corrections.\n                  </small>\n                </p>\n                <small>Note that some listed sources or external links may no longer be available online due to age.</small>\n              </td>\n            </tr>\n          </table>\n          <p>\n            <br style="clear:both" clear="none"></br>\n          </p>\n          <table style="width:45%; background-color:#FFFFFF; border:1px solid #a7d7f9; -moz-border-radius: 9px;-webkit-border-radius: 9px; border-radius: 9px; padding:1px;" id="social_bookmarks" class="noprint" align="center">\n            <tr>\n              <td rowspan="1" colspan="1">\n                <div class="floatleft">\n                  <a href="http://en.wikinews.org/wiki/Wikinews:Social_bookmarks" shape="rect">\n                    <img height="25" width="25" src="//upload.wikimedia.org/wikipedia/commons/thumb/f/fb/Bookmark-new.svg/25px-Bookmark-new.svg.png" alt="Bookmark-new.svg"></img>\n                  </a>\n                </div>\n                <div class="plainlinks" align="center">\n                  <p>\n                    <b>Share this:</b>\n                    \xc2\xa0\n                    <span title="Share via e-mail" class="plainlinks">\n                      <a \n                      title="E-mail this story" href="mailto:?subject=Jason-2_satellite_launched_to_measure_sea_levels%20\xc3\xa2\xe2\x82\xac\xe2\x80\x9c%20Wikinews&amp;body=Jason-2_satellite_launched_to_measure_sea_levels:%0Ahttps://en.wikinews.org/wiki/Jason-2_satellite_launched_to_measure_sea_levels%0A%0AFrom%20Wikinews,%20the%20free%20news%20source%20you%20can%20write!" shape="rect">\n                        <img height="16" width="16" src="//upload.wikimedia.org/wikipedia/commons/5/5c/Email.png" alt="E-mail this story"></img>\n</a>\n                    </span>\n                    <span title="Share on Facebook">\n                      <a title="Share on Facebook" href="http://www.facebook.com/sharer.php?u=https://en.wikinews.org/wiki/Jason-2_satellite_launched_to_measure_sea_levels&amp;t=Jason-2+satellite+launched+to+measure+sea+levels+-+Wikinews" shape="rect">\n                        <img height="16" width="16" src="//upload.wikimedia.org/wikinews/en/5/55/Facebook.png" alt="Share on Facebook"></img>\n                      </a>\n                    </span>\n                    <span title="Share on Digg">\n                      <a title="Share on Digg.com" href="http://digg.com/submit?url=https://en.wikinews.org/wiki/Jason-2_satellite_launched_to_measure_sea_levels&amp;title=Jason-2+satellite+launched+to+measure+sea+levels+-+Wikinews" shape="rect">\n                        <img height="14" width="16" src="//upload.wikimedia.org/wikinews/en/9/95/Digg-icon.png" alt="Share on Digg.com"></img>\n                      </a>\n                    </span>\n                    <span title="Share on delicious">\n                      <a title="Share on delicious" href="http://delicious.com/post?url=https://en.wikinews.org/wiki/Jason-2_satellite_launched_to_measure_sea_levels&amp;title=Jason-2+satellite+launched+to+measure+sea+levels+-+Wikinews" shape="rect">\n                        <img height="16" width="16" src="//upload.wikimedia.org/wikipedia/commons/thumb/1/11/Delicious.svg/16px-Delicious.svg.png" alt="Share on delicious"></img>\n                      </a>\n                    </span>\n                    <span title="Share on reddit">\n                      <a title="Share on reddit.com" href="http://reddit.com/submit?url=https://en.wikinews.org/wiki/Jason-2_satellite_launched_to_measure_sea_levels&amp;title=Jason-2+satellite+launched+to+measure+sea+levels+-+Wikinews" shape="rect">\n                        <img height="18" width="18" src="//upload.wikimedia.org/wikinews/en/1/10/Reddit.png" alt="Share on reddit.com"></img>\n                      </a>\n                    </span>\n                    <span title="Share on StumbleUpon">\n                      <a title="Share on stumbleupon.com" href="http://stumbleupon.com/submit?url=https://en.wikinews.org/wiki/Jason-2_satellite_launched_to_measure_sea_levels&amp;title=Jason-2+satellite+launched+to+measure+sea+levels+-+Wikinews" shape="rect">\n                        <img height="16" width="16" src="//upload.wikimedia.org/wikipedia/commons/thumb/3/34/StumbleUpon_logo.png/16px-StumbleUpon_logo.png" alt="Share on stumbleupon.com"></img>\n                      </a>\n                    </span>\n                    <span title="Share on LinkedIn">\n                      <a title="Share on LinkedIn.com" href="http://www.linkedin.com/shareArticle?mini=true&amp;url=https://en.wikinews.org/wiki/Jason-2_satellite_launched_to_measure_sea_levels&amp;title=Jason-2+satellite+launched+to+measure+sea+levels+-+Wikinews" shape="rect">\n                        <img height="16" width="16" src="//upload.wikimedia.org/wikipedia/commons/thumb/c/c9/Linkedin.svg/16px-Linkedin.svg.png" alt="Share on LinkedIn.com"></img>\n                      </a>\n                    </span>\n                    <span title="Share on Google+">\n                      <a title="Share on Google+" href="https://plus.google.com/share?url=http://en.wikinews.org/wiki/Jason-2_satellite_launched_to_measure_sea_levels" shape="rect">\n                        <img height="16" width="16" src="//upload.wikimedia.org/wikipedia/commons/4/42/Google%2B_icon_red.png" alt="Share on Google+"></img>\n                      </a>\n                    </span>\n                    <span title="Share on identi.ca">\n                      <a href="http://identi.ca/index.php?action=newnotice&amp;status_textarea=Look%20what%20I%20found%20on%20Wikinews:%20https://en.wikinews.org/wiki/Jason-2_satellite_launched_to_measure_sea_levels" shape="rect">\n                        <img height="16" width="16" src="//upload.wikimedia.org/wikipedia/commons/thumb/f/f1/Identica_Icon.png/16px-Identica_Icon.png" alt="Share on identi.ca"></img>\n                      </a>\n                    </span>\n                    <span title="Share on Twitter">\n                      <a title="Share on twitter.com" href="http://twitter.com/?status=Look%20what%20I%20found%20on%20Wikinews:%20https://en.wikinews.org/wiki/Jason-2_satellite_launched_to_measure_sea_levels" shape="rect">\n                        <img height="18" width="18" src="//upload.wikimedia.org/wikinews/en/f/f7/Twitter.png" alt="Share on twitter.com"></img>\n                      </a>\n                    </span>\n                    <span title="Seed on Newsvine">\n                      <a title="Seed on Newsvine" href="http://www.newsvine.com/_wine/save?popoff=1&amp;u=https://en.wikinews.org/wiki/Jason-2_satellite_launched_to_measure_sea_levels" shape="rect">\n                        <img height="16" width="16" src="//upload.wikimedia.org/wikipedia/commons/thumb/1/1a/Newsvine.svg/16px-Newsvine.svg.png" alt="Seed on Newsvine"></img>\n                      </a>\n                    </span>\n                  </p>\n                </div>\n              </td>\n            </tr>\n          </table>\n        </div>\n        <div class="printfooter">\n          Retrieved from &quot;\n          <a href="http://en.wikinews.org/w/index.php?title=Jason-2_satellite_launched_to_measure_sea_levels&amp;oldid=676739" shape="rect">http://en.wikinews.org/w/index.php?title=Jason-2_satellite_launched_to_measure_sea_levels&amp;oldid=676739</a>\n          &quot;\n        </div>\n        <div id="catlinks" class="catlinks">\n          <div id="mw-normal-catlinks" class="mw-normal-catlinks">\n            <a title="Special:Categories" href="/wiki/Special:Categories" shape="rect">Categories</a>\n            :\n            <ul>\n              <li>\n                <a title="Category:June 20, 2008" href="/wiki/Category:June_20,_2008" shape="rect">June 20, 2008</a>\n              </li>\n              <li>\n                <a title="Category:Archived" href="/wiki/Category:Archived" shape="rect">Archived</a>\n              </li>\n              <li>\n                <a title="Category:Published" href="/wiki/Category:Published" shape="rect">Published</a>\n              </li>\n              <li>\n                <a title="Category:France" href="/wiki/Category:France" shape="rect">France</a>\n              </li>\n              <li>\n                <a title="Category:United States" href="/wiki/Category:United_States" shape="rect">United States</a>\n              </li>\n              <li>\n                <a title="Category:California" href="/wiki/Category:California" shape="rect">California</a>\n              </li>\n              <li>\n                <a title="Category:Space" href="/wiki/Category:Space" shape="rect">Space</a>\n              </li>\n              <li>\n                <a title="Category:Science and technology" href="/wiki/Category:Science_and_technology" shape="rect">Science and technology</a>\n              </li>\n            </ul>\n          </div>\n        </div>\n        <div id="mw-data-after-content">\n          <form action="/w/index.php?title=Special:ReaderFeedback&amp;action=submit" id="mw-feedbackform" method="post" enctype="application/x-www-form-urlencoded">\n            <fieldset class="feedback_reviewform noprint">\n              <legend>\n                <strong>What do you think of this page?</strong>\n              </legend>\n              <p>\n                <i>Please take a moment to rate this page below. Your feedback is valuable and helps us improve our website.</i>\n              </p>\n              <span id="mw-feedbackselects">\n                <b>\n                  <label for="wpreliability">Reliability</label>\n                  :\n                </b>\n                \xc2\xa0\n                <select onchange="updateFeedbackForm()" name="wpreliability" id="wpreliability">\n                  <option value="4" class="rfb-rating-option-4">Excellent</option>\n                  <option value="3" class="rfb-rating-option-3">High</option>\n                  <option value="2" class="rfb-rating-option-2">Fair</option>\n                  <option value="1" class="rfb-rating-option-1">Low</option>\n                  <option value="0" class="rfb-rating-option-0">Poor</option>\n                  <option value="-1" selected="">(unsure)</option>\n                </select>\n                <b>\n                  <label for="wpcompleteness">Completeness</label>\n                  :\n                </b>\n                \xc2\xa0\n                <select onchange="updateFeedbackForm()" name="wpcompleteness" id="wpcompleteness">\n                  <option value="4" class="rfb-rating-option-4">Excellent</option>\n                  <option value="3" class="rfb-rating-option-3">High</option>\n                  <option value="2" class="rfb-rating-option-2">Fair</option>\n                  <option value="1" class="rfb-rating-option-1">Low</option>\n                  <option value="0" class="rfb-rating-option-0">Poor</option>\n                  <option value="-1" selected="">(unsure)</option>\n                </select>\n                <b>\n                  <label for="wpnpov">Neutrality</label>\n                  :\n                </b>\n                \xc2\xa0\n                <select onchange="updateFeedbackForm()" name="wpnpov" id="wpnpov">\n                  <option value="4" class="rfb-rating-option-4">Excellent</option>\n                  <option value="3" class="rfb-rating-option-3">High</option>\n                  <option value="2" class="rfb-rating-option-2">Fair</option>\n                  <option value="1" class="rfb-rating-option-1">Low</option>\n                  <option value="0" class="rfb-rating-option-0">Poor</option>\n                  <option value="-1" selected="">(unsure)</option>\n                </select>\n                <b>\n                  <label for="wppresentation">Presentation</label>\n                  :\n                </b>\n                \xc2\xa0\n                <select onchange="updateFeedbackForm()" name="wppresentation" id="wppresentation">\n                  <option value="4" class="rfb-rating-option-4">Excellent</option>\n                  <option value="3" class="rfb-rating-option-3">High</option>\n                  <option value="2" class="rfb-rating-option-2">Fair</option>\n                  <option value="1" class="rfb-rating-option-1">Low</option>\n                  <option value="0" class="rfb-rating-option-0">Poor</option>\n                  <option value="-1" selected="">(unsure)</option>\n                </select>\n              </span>\n              <input title="Submit feedback. [b]" accesskey="b" value="Submit" id="submitfeedback" type="submit"></input>\n              <input name="title" value="Special:ReaderFeedback" type="hidden"></input>\n              <input name="target" value="Jason-2_satellite_launched_to_measure_sea_levels" type="hidden"></input>\n              <input name="oldid" value="676739" type="hidden"></input>\n              <input name="validatedParams" value="5a2f4ebd22972b2a8b57d6800f6b2391" type="hidden"></input>\n              <input name="action" value="submit" type="hidden"></input>\n              <input name="wpEditToken" value="+\\" type="hidden"></input>\n              <input style="display:none;" value="" size="12" name="commentary" type="text"></input>\n            </fieldset>\n          </form>\n        </div>\n        <div class="visualClear"></div>\n      </div>\n    </div>\n    <div id="mw-head" class="noprint">\n      <div id="p-personal" class="">\n        <h5>Personal tools</h5>\n        <ul>\n          <li id="pt-createaccount">\n            <a href="/w/index.php?title=Special:UserLogin&amp;returnto=Jason-2+satellite+launched+to+measure+sea+levels&amp;type=signup" shape="rect">Create account</a>\n          </li>\n          <li id="pt-login">\n            <a accesskey="o" title="You are encouraged to log in; however, it is not mandatory [o]" href="/w/index.php?title=Special:UserLogin&amp;returnto=Jason-2+satellite+launched+to+measure+sea+levels" shape="rect">Log in</a>\n          </li>\n        </ul>\n      </div>\n      <div id="left-navigation">\n        <div id="p-namespaces" class="vectorTabs">\n          <h5>Namespaces</h5>\n          <ul>\n            <li id="ca-nstab-main" class="selected">\n              <span>\n                <a accesskey="c" title="View the content page [c]" href="/wiki/Jason-2_satellite_launched_to_measure_sea_levels" shape="rect">Article</a>\n              </span>\n            </li>\n            <li id="ca-talk" class="new">\n              <span>\n                <a accesskey="t" title="Discussion about the content page [t]" href="/w/index.php?title=Talk:Jason-2_satellite_launched_to_measure_sea_levels&amp;action=edit&amp;redlink=1" shape="rect">Collaboration</a>\n              </span>\n            </li>\n          </ul>\n        </div>\n        <div id="p-variants" class="vectorMenu emptyPortlet">\n          <h4> </h4>\n          <h5>\n            <span>Variants</span>\n            <a href="#" shape="rect"></a>\n          </h5>\n          <div class="menu">\n            <ul></ul>\n          </div>\n        </div>\n      </div>\n      <div id="right-navigation">\n        <div id="p-views" class="vectorTabs">\n          <h5>Views</h5>\n          <ul>\n            <li id="ca-view" class="selected">\n              <span>\n                <a href="/wiki/Jason-2_satellite_launched_to_measure_sea_levels" shape="rect">Read</a>\n              </span>\n            </li>\n            <li id="ca-viewsource">\n              <span>\n                <a accesskey="e" title="This page is protected. You can view its source [e]" href="/w/index.php?title=Jason-2_satellite_launched_to_measure_sea_levels&amp;action=edit" shape="rect">View source</a>\n              </span>\n            </li>\n            <li id="ca-history" class="collapsible">\n              <span>\n                <a accesskey="h" title="Past revisions of this page [h]" href="/w/index.php?title=Jason-2_satellite_launched_to_measure_sea_levels&amp;action=history" shape="rect">View history</a>\n              </span>\n            </li>\n          </ul>\n        </div>\n        <div id="p-cactions" class="vectorMenu emptyPortlet">\n          <h5>\n            <span>Actions</span>\n            <a href="#" shape="rect"></a>\n          </h5>\n          <div class="menu">\n            <ul></ul>\n          </div>\n        </div>\n        <div id="p-search">\n          <h5>\n            <label for="searchInput">Search</label>\n          </h5>\n          <form action="/w/index.php" id="searchform" method="get" enctype="application/x-www-form-urlencoded">\n            <div id="simpleSearch">\n              <input accesskey="f" title="Search Wikinews [f]" name="search" id="searchInput" type="text"></input>\n              <button height="13" width="12" title="Search the pages for this text" name="button" id="searchButton" type="submit">\n                <img alt="Search" src="//bits.wikimedia.org/static-1.20wmf12/skins/vector/images/search-ltr.png?303-4"></img>\n              </button>\n              <input value="Special:Search" name="title" type="hidden"></input>\n            </div>\n          </form>\n        </div>\n      </div>\n    </div>\n    <div id="mw-panel" class="noprint">\n      <div id="p-logo">\n        <a title="Visit the main page" href="/wiki/Main_Page" style="background-image: url(//upload.wikimedia.org/wikinews/en/b/bc/Wiki.png);" shape="rect"></a>\n      </div>\n      <div id="p-navigation" class="portal">\n        <h5>Navigation</h5>\n        <div class="body">\n          <ul>\n            <li id="n-mainpage">\n              <a accesskey="z" title="Visit the main page [z]" href="/wiki/Main_Page" shape="rect">Main Page</a>\n            </li>\n            <li id="n-newsroom">\n              <a href="/wiki/Wikinews:Newsroom" shape="rect">Newsroom</a>\n            </li>\n            <li id="n-recentchanges">\n              <a accesskey="r" title="A list of recent changes in the wiki [r]" href="/wiki/Special:RecentChanges" shape="rect">Recent changes</a>\n            </li>\n            <li id="n-randompage">\n              <a accesskey="x" title="Load a random page [x]" href="/wiki/Special:Random" shape="rect">Random article</a>\n            </li>\n            <li id="n-Archives">\n              <a href="/wiki/Wikinews:Archives" shape="rect">Archives</a>\n            </li>\n            <li id="n-Free-use-media-upload">\n              <a href="//commons.wikimedia.org/wiki/Commons:Upload" shape="rect">Free use media upload</a>\n            </li>\n          </ul>\n        </div>\n      </div>\n      <div id="p-Wikinews" class="portal">\n        <h5>Wikinews</h5>\n        <div class="body">\n          <ul>\n            <li id="n-help">\n              <a title="The place to find out" href="/wiki/Wikinews:Introduction" shape="rect">Help</a>\n            </li>\n            <li id="n-Write-an-article">\n              <a href="/wiki/Wikinews:Writing_an_article" shape="rect">Write an article</a>\n            </li>\n            <li id="n-Watercooler">\n              <a href="/wiki/Wikinews:Water_cooler" shape="rect">Water cooler</a>\n            </li>\n            <li id="n-Styleguide">\n              <a href="/wiki/Wikinews:Style_guide" shape="rect">Style guide</a>\n            </li>\n            <li id="n-livechat">\n              <a title="Talk with other Wikinewsies via Internet Relay Chat." href="/wiki/Wikinews:IRC" shape="rect">Live chat</a>\n            </li>\n            <li id="n-Donate">\n              <a href="//donate.wikimedia.org/wiki/Special:FundraiserRedirector?utm_source=donate&amp;utm_medium=sidebar&amp;utm_campaign=C12_en.wikinews.org&amp;uselang=en" shape="rect">Donate</a>\n            </li>\n            <li id="n-contact">\n              <a href="/wiki/Wikinews:Contact_us" shape="rect">Contact us</a>\n            </li>\n          </ul>\n        </div>\n      </div>\n      <div id="p-Regions" class="portal">\n        <h5>Regions</h5>\n        <div class="body">\n          <ul>\n            <li id="n-Africa">\n              <a href="/wiki/Portal:Africa" shape="rect">Africa</a>\n            </li>\n            <li id="n-Asia">\n              <a href="/wiki/Portal:Asia" shape="rect">Asia</a>\n            </li>\n            <li id="n-CentralAmerica">\n              <a href="/wiki/Portal:Central_America" shape="rect">Central America</a>\n            </li>\n            <li id="n-Europe">\n              <a href="/wiki/Portal:Europe" shape="rect">Europe</a>\n            </li>\n            <li id="n-MiddleEast">\n              <a href="/wiki/Portal:Middle_East" shape="rect">Middle East</a>\n            </li>\n            <li id="n-NorthAmerica">\n              <a href="/wiki/Portal:North_America" shape="rect">North America</a>\n            </li>\n            <li id="n-Oceania">\n              <a href="/wiki/Portal:Oceania" shape="rect">Oceania</a>\n            </li>\n            <li id="n-SouthAmerica">\n              <a href="/wiki/Portal:South_America" shape="rect">South America</a>\n            </li>\n          </ul>\n        </div>\n      </div>\n      <div id="p-coll-print_export" class="portal">\n        <h5>Print/export</h5>\n        <div class="body">\n          <ul id="collectionPortletList">\n            <li id="coll-create_a_book">\n              <a rel="nofollow" title="Create a book or page collection" href="/w/index.php?title=Special:Book&amp;bookcmd=book_creator&amp;referer=Jason-2+satellite+launched+to+measure+sea+levels" shape="rect">Create a book</a>\n            </li>\n            <li id="coll-download-as-rl">\n              <a rel="nofollow" title="Download a PDF version of this wiki page" href="/w/index.php?title=Special:Book&amp;bookcmd=render_article&amp;arttitle=Jason-2+satellite+launched+to+measure+sea+levels&amp;oldid=676739&amp;writer=rl" shape="rect">Download as PDF</a>\n            </li>\n            <li id="t-print">\n              <a accesskey="p" title="Printable version of this page [p]" href="/w/index.php?title=Jason-2_satellite_launched_to_measure_sea_levels&amp;printable=yes" shape="rect">Printable version</a>\n            </li>\n          </ul>\n        </div>\n      </div>\n      <div id="p-tb" class="portal">\n        <h5>Toolbox</h5>\n        <div class="body">\n          <ul>\n            <li id="t-whatlinkshere">\n              <a accesskey="j" title="A list of all wiki pages that link here [j]" href="/wiki/Special:WhatLinksHere/Jason-2_satellite_launched_to_measure_sea_levels" shape="rect">What links here</a>\n            </li>\n            <li id="t-recentchangeslinked">\n              <a accesskey="k" title="Recent changes in pages linked from this page [k]" href="/wiki/Special:RecentChangesLinked/Jason-2_satellite_launched_to_measure_sea_levels" shape="rect">Related changes</a>\n            </li>\n            <li id="t-specialpages">\n              <a accesskey="q" title="A list of all special pages [q]" href="/wiki/Special:SpecialPages" shape="rect">Special pages</a>\n            </li>\n            <li id="t-permalink">\n              <a title="Permanent link to this revision of the page" href="/w/index.php?title=Jason-2_satellite_launched_to_measure_sea_levels&amp;oldid=676739" shape="rect">Permanent link</a>\n            </li>\n            <li id="t-cite">\n              <a title="Information on how to cite this page" href="/w/index.php?title=Special:Cite&amp;page=Jason-2_satellite_launched_to_measure_sea_levels&amp;id=676739" shape="rect">Cite this page</a>\n            </li>\n            <li id="t-rating">\n              <a href="/w/index.php?title=Special:RatingHistory&amp;target=Jason-2_satellite_launched_to_measure_sea_levels" shape="rect">Page rating</a>\n            </li>\n          </ul>\n        </div>\n      </div>\n    </div>\n    <div id="footer">\n      <ul id="footer-info">\n        <li id="footer-info-lastmod"> This page was last modified on 10 August 2008, at 20:04.</li>\n        <li id="footer-info-copyright">\n          <div class="floatright">\n            <a href="//creativecommons.org/licenses/by/2.5/" rel="license" shape="rect">\n              <img src="//upload.wikimedia.org/wikipedia/commons/d/d3/CCBY_yellow.png" border="0" alt="Creative Commons License" id="license-logo"></img>\n            </a>\n          </div>\n          <div align="center">\n            All text created after September 25, 2005 available under the terms of the\n            <a href="//creativecommons.org/licenses/by/2.5/" class="external" shape="rect">Creative Commons Attribution 2.5</a>\n            License, unless otherwise specified.\n            <br clear="none"></br>\n            Contributions must be attributed to\n            <em>Wikinews</em>\n            ; see\n            <a href="//wikimediafoundation.org/wiki/Terms_of_use" shape="rect">Terms of use</a>\n            for details.\n            <br clear="none"></br>\n            Copyright on images may vary, please check individual image pages prior to duplication.\n            <br clear="none"></br>\n            <em>Wikinews</em>\n            \xc2\xae, and the\n            <em>Wikinews</em>\n            logo are registered trademarks of the\n            <a href="//wikimediafoundation.org/" shape="rect">Wikimedia Foundation, Inc.</a>\n            <br clear="none"></br>\n            <br clear="none"></br>\n            <em>Wikinews</em>\n            is not responsible for the content of external sites.\n          </div>\n        </li>\n      </ul>\n      <ul id="footer-places">\n        <li id="footer-places-privacy">\n          <a title="wikimedia:Privacy policy" href="//wikimediafoundation.org/wiki/Privacy_policy" shape="rect">Privacy policy</a>\n        </li>\n        <li id="footer-places-about">\n          <a title="Wikinews:About" href="/wiki/Wikinews:About" shape="rect">About Wikinews</a>\n        </li>\n        <li id="footer-places-disclaimer">\n          <a title="Wikinews:General disclaimer" href="/wiki/Wikinews:General_disclaimer" shape="rect">Disclaimers</a>\n        </li>\n        <li id="footer-places-mobileview">\n          <a href="http://en.m.wikinews.org/w/index.php?title=Jason-2_satellite_launched_to_measure_sea_levels&amp;mobileaction=toggle_view_mobile" class="noprint stopMobileRedirectToggle" shape="rect">Mobile view</a>\n        </li>\n      </ul>\n      <ul id="footer-icons" class="noprint">\n        <li id="footer-copyrightico">\n          <a href="//wikimediafoundation.org/" shape="rect">\n            <img alt="Wikimedia Foundation" height="31" width="88" src="//bits.wikimedia.org/images/wikimedia-button.png"></img>\n          </a>\n        </li>\n        <li id="footer-poweredbyico">\n          <a href="//www.mediawiki.org/" shape="rect">\n            <img height="31" width="88" alt="Powered by MediaWiki" src="//bits.wikimedia.org/static-1.20wmf12/skins/common/images/poweredby_mediawiki_88x31.png"></img>\n          </a>\n        </li>\n      </ul>\n      <div style="clear:both"></div>\n    </div>\n    <script>if(window.mw){ mw.loader.state({&quot;site&quot;:&quot;loading&quot;,&quot;user&quot;:&quot;ready&quot;,&quot;user.groups&quot;:&quot;ready&quot;}); }</script>\n    <script src="//bits.wikimedia.org/en.wikinews.org/load.php?debug=false&amp;lang=en&amp;modules=skins.vector&amp;only=scripts&amp;skin=vector&amp;*"></script>\n    <script>\n      if(window.mw){\nmw.loader.load([&quot;mediawiki.user&quot;,&quot;mediawiki.page.ready&quot;,&quot;mediawiki.legacy.mwsuggest&quot;,&quot;ext.vector.collapsibleNav&quot;,&quot;ext.vector.collapsibleTabs&quot;,&quot;ext.vector.editWarning&quot;,&quot;ext.vector.simpleSearch&quot;,&quot;ext.flaggedRevs.advanced&quot;], null, true);\n}\n    </script>\n    <script src="//bits.wikimedia.org/static-1.20wmf12/extensions/ReaderFeedback/readerfeedback.js?1&amp;303-4"></script>\n    <script src="//bits.wikimedia.org/en.wikinews.org/load.php?debug=false&amp;lang=en&amp;modules=site&amp;only=scripts&amp;skin=vector&amp;*"></script>\n  </body>\n</html>'
p11
sbsS'mentions'
p12
(lp13
(iedu.umass.cs.iesl.wikilink.expanded.data.ttypes
Mention
p14
(dp15
S'anchor_text'
p16
S'Ocean Surface Topography Mission'
p17
sS'context'
p18
(iedu.umass.cs.iesl.wikilink.expanded.data.ttypes
Context
p19
(dp20
S'middle'
p21
S'Ocean Surface Topography Mission'
p22
sS'right'
p23
S'(OSTM), or Jason-2, satellite, has been launched into low Earth orbit . A Delta II rocket carrying the satellite lifted off from Space Launch Complex'
p24
sS'left'
p25
S'From Wikinews, the free news source you can write! Jump to: navigation , search Friday, June 20, 2008 \xc2\xa0 The launch of OSTM (NASA) The'
p26
sbsS'freebase_id'
p27
S'9202a8c04000641f8000000005ac8370'
p28
sS'raw_text_offset'
p29
I10229
sS'wiki_url'
p30
S'http://en.wikipedia.org/wiki/Ocean_Surface_Topography_Mission'
p31
sba(iedu.umass.cs.iesl.wikilink.expanded.data.ttypes
Mention
p32
(dp33
g16
S'low Earth orbit'
p34
sg18
(iedu.umass.cs.iesl.wikilink.expanded.data.ttypes
Context
p35
(dp36
g21
S'low Earth orbit'
p37
sg23
S'. A Delta II rocket carrying the satellite lifted off from Space Launch Complex 2W at the Vandenberg Air Force Base in California , United'
p38
sg25
S', search Friday, June 20, 2008 \xc2\xa0 The launch of OSTM (NASA) The Ocean Surface Topography Mission (OSTM), or Jason-2, satellite, has been launched into'
p39
sbsg27
S'9202a8c04000641f800000000005e2ac'
p40
sg29
I10410
sg30
S'http://en.wikipedia.org/wiki/low_Earth_orbit'
p41
sba(iedu.umass.cs.iesl.wikilink.expanded.data.ttypes
Mention
p42
(dp43
g16
S'Delta II'
p44
sg18
(iedu.umass.cs.iesl.wikilink.expanded.data.ttypes
Context
p45
(dp46
g21
S'Delta II'
p47
sg23
S'rocket carrying the satellite lifted off from Space Launch Complex 2W at the Vandenberg Air Force Base in California , United States , at 07:46'
p48
sg25
S'2008 \xc2\xa0 The launch of OSTM (NASA) The Ocean Surface Topography Mission (OSTM), or Jason-2, satellite, has been launched into low Earth orbit . A'
p49
sbsg27
S'9202a8c04000641f80000000002340b6'
p50
sg29
I10509
sg30
S'http://en.wikipedia.org/wiki/Delta_II'
p51
sba(iedu.umass.cs.iesl.wikilink.expanded.data.ttypes
Mention
p52
(dp53
g16
S'Space Launch Complex 2W'
p54
sg18
(iedu.umass.cs.iesl.wikilink.expanded.data.ttypes
Context
p55
(dp56
g21
S'Space Launch Complex 2W'
p57
sg23
S'at the Vandenberg Air Force Base in California , United States , at 07:46 GMT this morning. Spacecraft separation occurred around an hour later, and'
p58
sg25
S'Surface Topography Mission (OSTM), or Jason-2, satellite, has been launched into low Earth orbit . A Delta II rocket carrying the satellite lifted off from'
p59
sbsg27
S'9202a8c04000641f8000000006c3ad76'
p60
sg29
I10702
sg30
S'http://en.wikipedia.org/wiki/Vandenberg_AFB_Space_Launch_Complex_2'
p61
sba(iedu.umass.cs.iesl.wikilink.expanded.data.ttypes
Mention
p62
(dp63
g16
S'Vandenberg Air Force Base'
p64
sg18
(iedu.umass.cs.iesl.wikilink.expanded.data.ttypes
Context
p65
(dp66
g21
S'Vandenberg Air Force Base'
p67
sg23
S'in California , United States , at 07:46 GMT this morning. Spacecraft separation occurred around an hour later, and the solar panels on the satellite'
p68
sg25
S'satellite, has been launched into low Earth orbit . A Delta II rocket carrying the satellite lifted off from Space Launch Complex 2W at the'
p69
sbsg27
S'9202a8c04000641f80000000000b98a3'
p70
sg29
I10847
sg30
S'http://en.wikipedia.org/wiki/Vandenberg_Air_Force_Base'
p71
sba(iedu.umass.cs.iesl.wikilink.expanded.data.ttypes
Mention
p72
(dp73
g16
S'GMT'
p74
sg18
(iedu.umass.cs.iesl.wikilink.expanded.data.ttypes
Context
p75
(dp76
g21
S'GMT'
p77
sg23
S'this morning. Spacecraft separation occurred around an hour later, and the solar panels on the satellite have deployed. OSTM separates from its carrier rocket OSTM'
p78
sg25
S'rocket carrying the satellite lifted off from Space Launch Complex 2W at the Vandenberg Air Force Base in California , United States , at 07:46'
p79
sbsg27
S'9202a8c04000641f800000000001a99a'
p80
sg29
I11128
sg30
S'http://en.wikipedia.org/wiki/GMT'
p81
sba(iedu.umass.cs.iesl.wikilink.expanded.data.ttypes
Mention
p82
(dp83
g16
S'NASA'
p84
sg18
(iedu.umass.cs.iesl.wikilink.expanded.data.ttypes
Context
p85
(dp86
g21
S'NASA'
p87
sg23
S', and the French space agency, CNES . It will study and map the surface of the oceans from space. The Delta II rocket flew'
p88
sg25
S'later, and the solar panels on the satellite have deployed. OSTM separates from its carrier rocket OSTM is a collaboration between the American space agency,'
p89
sbsg27
S'9202a8c04000641f800000000002b495'
p90
sg29
I12056
sg30
S'http://en.wikipedia.org/wiki/NASA'
p91
sba(iedu.umass.cs.iesl.wikilink.expanded.data.ttypes
Mention
p92
(dp93
g16
S'CNES'
p94
sg18
(iedu.umass.cs.iesl.wikilink.expanded.data.ttypes
Context
p95
(dp96
g21
S'CNES'
p97
sg23
S'. It will study and map the surface of the oceans from space. The Delta II rocket flew in the 7320 configuration, the lowest capacity'
p98
sg25
S'satellite have deployed. OSTM separates from its carrier rocket OSTM is a collaboration between the American space agency, NASA , and the French space agency,'
p99
sbsg27
S'9202a8c04000641f80000000002237a1'
p100
sg29
I12225
sg30
S'http://en.wikipedia.org/wiki/CNES'
p101
sba(iedu.umass.cs.iesl.wikilink.expanded.data.ttypes
Mention
p102
(dp103
g16
S'solid rocket motors'
p104
sg18
(iedu.umass.cs.iesl.wikilink.expanded.data.ttypes
Context
p105
(dp106
g21
S'solid rocket motors'
p107
sg23
S', and no third stage. The exact launch time was 07:46:25.192 GMT. This is the third launch of a Delta II carrier rocket to be'
p108
sg25
S'study and map the surface of the oceans from space. The Delta II rocket flew in the 7320 configuration, the lowest capacity variant, with three'
p109
sbsg27
S'9202a8c04000641f80000000002b9ca0'
p110
sg29
I12483
sg30
S'http://en.wikipedia.org/wiki/solid_rocket_motor'
p111
sba(iedu.umass.cs.iesl.wikilink.expanded.data.ttypes
Mention
p112
(dp113
g16
S'GeoEye-1'
p114
sg18
(iedu.umass.cs.iesl.wikilink.expanded.data.ttypes
Context
p115
(dp116
g21
S'GeoEye-1'
p117
sg23
S'civilian imagery satellite, however A GPS satellite launch which was delayed from mid July to an unconfirmed date could potentially occur before this. This is'
p118
sg25
S'to be conducted so far this year, and the 137 th overall. The next Delta II is scheduled to launch in mid-late August, with the'
p119
sbsg27
S'9202a8c04000641f8000000009d2bd18'
p120
sg29
I12847
sg30
S'http://en.wikipedia.org/wiki/GeoEye-1'
p121
sba(iedu.umass.cs.iesl.wikilink.expanded.data.ttypes
Mention
p122
(dp123
g16
S'2008'
p124
sg18
(iedu.umass.cs.iesl.wikilink.expanded.data.ttypes
Context
p125
(dp126
g21
S'2008'
p127
sg23
S'. Have an opinion on this story? Post it! [ edit ] Sources " ELV Countdown Portal " \xc3\xa2\xe2\x82\xac\xe2\x80\x9d\xc2\xa0 National Aeronautics and Space Administration ,'
p128
sg25
S'satellite launch which was delayed from mid July to an unconfirmed date could potentially occur before this. This is the 32 nd orbital launch of'
p129
sbsg27
Nsg29
I13155
sg30
S'http://en.wikipedia.org/wiki/2008_in_spaceflight'
p130
sbasS'doc_id'
p131
I212132
sS'rare_words'
p132
(lp133
(iedu.umass.cs.iesl.wikilink.expanded.data.ttypes
RareWord
p134
(dp135
S'word'
p136
S'civilian'
p137
sS'offset'
p138
I12860
sba(iedu.umass.cs.iesl.wikilink.expanded.data.ttypes
RareWord
p139
(dp140
g136
S'separation'
p141
sg138
I11161
sba(iedu.umass.cs.iesl.wikilink.expanded.data.ttypes
RareWord
p142
(dp143
g136
S'Spacecraft'
p144
sg138
I11150
sba(iedu.umass.cs.iesl.wikilink.expanded.data.ttypes
RareWord
p145
(dp146
g136
S'Complex'
p147
sg138
I10715
sba(iedu.umass.cs.iesl.wikilink.expanded.data.ttypes
RareWord
p148
(dp149
g136
S'exact'
p150
sg138
I12532
sba(iedu.umass.cs.iesl.wikilink.expanded.data.ttypes
RareWord
p151
(dp152
g136
S'morning'
p153
sg138
I11141
sba(iedu.umass.cs.iesl.wikilink.expanded.data.ttypes
RareWord
p154
(dp155
g136
S'year'
p156
sg138
I12661
sba(iedu.umass.cs.iesl.wikilink.expanded.data.ttypes
RareWord
p157
(dp158
g136
S'next'
p159
sg138
I12705
sba(iedu.umass.cs.iesl.wikilink.expanded.data.ttypes
RareWord
p160
(dp161
g136
S'sea'
p162
sg138
I8086
sba(iedu.umass.cs.iesl.wikilink.expanded.data.ttypes
RareWord
p163
(dp164
g136
S'surface'
p165
sg138
I12261
sbasb.