(iedu.umass.cs.iesl.wikilink.expanded.data.ttypes
WikiLinkItem
p0
(dp1
S'url'
p2
S'http://1957timecapsule.wordpress.com/2012/05/04/may-4-1957-bill-shoemakers-derby-boo-boo/'
p3
sS'content'
p4
(iedu.umass.cs.iesl.wikilink.expanded.data.ttypes
PageContentItem
p5
(dp6
S'articleText'
p7
NsS'raw'
p8
NsS'fullText'
p9
NsS'dom'
p10
S'<html lang="en" dir="ltr">\n  <head profile="http://gmpg.org/xfn/11">\n    <meta content="text/html; charset=UTF-8" http-equiv="Content-Type"></meta>\n    <title>May 4, 1957 \xe2\x80\x93 Bill Shoemaker\xe2\x80\x99s Derby Boo-Boo \xc2\xab 1957 Time Capsule</title>\n    <link media="screen" href="http://s0.wp.com/wp-content/themes/pub/bueno/style.css?m=1332170615g" type="text/css" rel="stylesheet"></link>\n    <link href="http://1957timecapsule.wordpress.com/xmlrpc.php" rel="pingback"></link>\n    <link type="text/css" rel="stylesheet" href="http://s0.wp.com/wp-content/themes/pub/bueno/styles/red.css?m=1349041266g"></link>\n    <link href="http://1957timecapsule.wordpress.com/feed/" title="1957 Time Capsule \xc2\xbb Feed" type="application/rss+xml" rel="alternate"></link>\n    <link href="http://1957timecapsule.wordpress.com/comments/feed/" title="1957 Time Capsule \xc2\xbb Comments Feed" type="application/rss+xml" rel="alternate"></link>\n    <link href="http://1957timecapsule.wordpress.com/2012/05/04/may-4-1957-bill-shoemakers-derby-boo-boo/feed/" title="1957 Time Capsule \xc2\xbb May 4, 1957 \xe2\x80\x93 Bill Shoemaker\xe2\x80\x99s Derby\xc2\xa0Boo-Boo Comments Feed" type="application/rss+xml" rel="alternate"></link>\n    <script type="text/javascript"> /* &lt;![CDATA[ */ function addLoadEvent(func){var oldonload=window.onload;if(typeof window.onload!=\'function\'){window.onload=func;}else{window.onload=function(){oldonload();func();}}} /* ]]&gt; */ </script>\n    <link media="all" type="text/css" href="http://s1.wp.com/_static/??/wp-content/blog-plugins/loggedout-follow/widget.css,/wp-content/mu-plugins/infinity/themes/pub/bueno.css,/wp-content/mu-plugins/post-flair/style.css,/wp-content/themes/h4/global.css?m=1345177132j" rel="stylesheet" id="all-css-0">\n    </link>\n    <link media="print" type="text/css" href="http://s0.wp.com/wp-content/mu-plugins/global-print/global-print.css?m=1335386953g" rel="stylesheet" id="print-css-0"></link>\n    <script type="text/javascript"> /* &lt;![CDATA[ */ var LoggedOutFollow = {&quot;invalid_email&quot;:&quot;Your subscription did not succeed, please try again with a valid email address.&quot;}; /* ]]&gt; */ </script>\n    <script \n    src="http://s2.wp.com/_static/??/wp-includes/js/jquery/jquery.js,/wp-content/blog-plugins/loggedout-follow/widget.js,/wp-includes/js/comment-reply.js,/wp-content/themes/pub/bueno/includes/js/general.js,/wp-content/themes/pub/bueno/includes/js/superfish.js?m=1333391137j" type="text/javascript">\n</script>\n    <link media="all" type="text/css" href="http://s1.wp.com/wp-content/mu-plugins/highlander-comments/style.css?m=1343991657g" rel="stylesheet" id="all-css-0"></link>\n    <link href="http://1957timecapsule.wordpress.com/xmlrpc.php?rsd" title="RSD" type="application/rsd+xml" rel="EditURI"></link>\n    <link href="http://1957timecapsule.wordpress.com/wp-includes/wlwmanifest.xml" type="application/wlwmanifest+xml" rel="wlwmanifest"></link>\n    <link href="http://1957timecapsule.wordpress.com/2012/05/03/may-3-1957-william-clay-ford-jr-rolls-off-the-assembly-line/" title="May 3, 1957 \xe2\x80\x93 William Clay Ford, Jr. Rolls Off the Assembly\xc2\xa0Line" rel="prev"></link>\n    <link href="http://1957timecapsule.wordpress.com/2012/05/05/may-5-1957-poor-visibility-and-vision-in-cleveland/" title="May 5, 1957 \xe2\x80\x93 Poor Visibility and Vision in\xc2\xa0Cleveland" rel="next"></link>\n    <meta content="WordPress.com" name="generator"></meta>\n    <link href="http://1957timecapsule.wordpress.com/2012/05/04/may-4-1957-bill-shoemakers-derby-boo-boo/" rel="canonical"></link>\n    <link href="http://wp.me/pUYiL-Jj" rel="shortlink"></link>\n    <link href="http://public-api.wordpress.com/oembed/1.0/?format=json&amp;url=http%3A%2F%2F1957timecapsule.wordpress.com%2F2012%2F05%2F04%2Fmay-4-1957-bill-shoemakers-derby-boo-boo%2F&amp;for=wpcom-auto-discovery" type="application/json+oembed" rel="alternate"></link>\n    <link href="http://public-api.wordpress.com/oembed/1.0/?format=xml&amp;url=http%3A%2F%2F1957timecapsule.wordpress.com%2F2012%2F05%2F04%2Fmay-4-1957-bill-shoemakers-derby-boo-boo%2F&amp;for=wpcom-auto-discovery" type="application/xml+oembed" rel="alternate"></link>\n    <meta content="article" property="og:type"></meta>\n    <meta content="May 4, 1957 \xe2\x80\x93 Bill Shoemaker\xe2\x80\x99s Derby\xc2\xa0Boo-Boo" property="og:title"></meta>\n    <meta content="http://1957timecapsule.wordpress.com/2012/05/04/may-4-1957-bill-shoemakers-derby-boo-boo/" property="og:url"></meta>\n    <meta content="On May 4, 1957, tiny Bill Shoemaker made a galloping gaffe." property="og:description"></meta>\n    <meta content="1957 Time Capsule" property="og:site_name"></meta>\n    <meta content="http://1957timecapsule.files.wordpress.com/2011/04/gallant-man-derby.jpg?w=200" property="og:image"></meta>\n    <meta content="http://1957timecapsule.files.wordpress.com/2011/04/gallant-man-derby.jpg" name="twitter:image"></meta>\n    <meta content="photo" name="twitter:card"></meta>\n    <meta content="249643311490" property="fb:app_id"></meta>\n    <link sizes="16x16 24x24 32x32 48x48" href="http://s2.wp.com/i/favicon.ico?m=1311976024g" type="image/x-icon" rel="shortcut icon"></link>\n    <link sizes="16x16 24x24 32x32 48x48" href="http://s2.wp.com/i/favicon.ico?m=1311976024g" type="image/x-icon" rel="icon"></link>\n    <link href="http://s0.wp.com/i/webclip.png?m=1311618091g" rel="apple-touch-icon-precomposed"></link>\n    <link href="http://1957timecapsule.wordpress.com/?openidserver=1" rel="openid.server"></link>\n    <link href="http://1957timecapsule.wordpress.com/" rel="openid.delegate"></link>\n    <link title="1957 Time Capsule" href="http://1957timecapsule.wordpress.com/osd.xml" type="application/opensearchdescription+xml" rel="search"></link>\n    <link title="WordPress.com" href="http://wordpress.com/opensearch.xml" type="application/opensearchdescription+xml" rel="search"></link>\n    <style>\n      /* &lt;![CDATA[ */\n\t\t/* Block: reblog */\n\t\t\n\t\t.reblog-from img                   { margin: 0 10px 0 0; vertical-align: middle; padding: 0; border: 0; }\n\t\t.reblogger-note img.avatar         { float: left; padding: 0; border: 0; }\n\t\t.reblogger-note-content            { margin: 0 0 20px; }\n\t\t.reblog-post .wpcom-enhanced-excerpt-content { border-left: 3px solid #eee; padding-left: 15px; }\n\t\t.reblog-post ul.thumb-list         { display: block; list-style: none; margin: 2px 0; padding: 0; clear: both; }\n\t\t.reblog-post ul.thumb-list li      { display: inline; margin: 0; padding: 0 1px; border: 0; }\n\t\t.reblog-post ul.thumb-list li a    { margin: 0; padding: 0; border: 0; }\n\t\t.reblog-post ul.thumb-list li img  { margin: 0; padding: 0; border: 0; }\n\t\t\n\t\t.reblog-post .wpcom-enhanced-excerpt { clear: both; }\n\t\t\n\t\t.reblog-post .wpcom-enhanced-excerpt address,\n\t\t.reblog-post .wpcom-enhanced-excerpt li,\n\t\t.reblog-post .wpcom-enhanced-excerpt h1,\n\t\t.reblog-post .wpcom-enhanced-excerpt h2,\n\t\t.reblog-post .wpcom-enhanced-excerpt h3,\n\t\t.reblog-post .wpcom-enhanced-excerpt h4,\n\t\t.reblog-post .wpcom-enhanced-excerpt h5,\n\t\t.reblog-post .wpcom-enhanced-excerpt h6,\n\t\t.reblog-post .wpcom-enhanced-excerpt p { font-size: 100% !important; }\n\t\t\n\t\t.reblog-post .wpcom-enhanced-excerpt blockquote,\n\t\t.reblog-post .wpcom-enhanced-excerpt pre,\n\t\t.reblog-post .wpcom-enhanced-excerpt code,\n\t\t.reblog-post .wpcom-enhanced-excerpt q { font-size: 98% !important; }\n\t\t\n\n\t\t/* ]]&gt; */\n    </style>\n    <meta content="1957 Time Capsule" name="application-name"></meta>\n    <meta content="width=device-width;height=device-height" name="msapplication-window"></meta>\n    <meta content="- a year in our life -" name="msapplication-tooltip"></meta>\n    <meta content="name=Subscribe;action-uri=http://1957timecapsule.wordpress.com/feed/;icon-uri=http://s2.wp.com/i/favicon.ico" name="msapplication-task"></meta>\n    <meta content="name=Sign up for a free blog;action-uri=http://wordpress.com/signup/;icon-uri=http://s2.wp.com/i/favicon.ico" name="msapplication-task"></meta>\n    <meta content="name=WordPress.com Support;action-uri=http://support.wordpress.com/;icon-uri=http://s2.wp.com/i/favicon.ico" name="msapplication-task"></meta>\n    <meta content="name=WordPress.com Forums;action-uri=http://forums.wordpress.com/;icon-uri=http://s2.wp.com/i/favicon.ico" name="msapplication-task"></meta>\n    <meta content="May 4, 1957 \xe2\x80\x93 Bill Shoemaker\xe2\x80\x99s Derby\xc2\xa0Boo-Boo | 1957 Time Capsule on WordPress.com" name="title"></meta>\n    <meta content="On May 4, 1957, tiny Bill Shoemaker made a galloping gaffe." name="description"></meta>\n    <style type="text/css" id="custom-background-css"> body.custom-background { background-image: url(\'http://s0.wp.com/wp-content/themes/pub/bueno/styles/red/bodytile.jpg?m=1341019392g\'); background-repeat: repeat; background-position: top left; background-attachment: scroll; } </style>\n  </head>\n  <body class="single single-post postid-2809 single-format-standard custom-background highlander-enabled highlander-light">\n    <div id="container">\n      <div id="navigation">\n        <div class="col-full">\n          <div id="description" class="fl">- a year in our life -</div>\n          <div id="topsearch" class="fr">\n            <div id="search_main" class="widget">\n              <h3>Search</h3>\n              <form action="http://1957timecapsule.wordpress.com" id="searchform" method="get" enctype="application/x-www-form-urlencoded">\n                <input onblur="if (this.value == \'\') {this.value = \'Search...\';}" onfocus="if (this.value == \'Search...\') {this.value = \'\';}" value="Search..." name="s" id="s" class="field" type="text"></input>\n                <input value="Search" name="submit" class="submit" type="submit"></input>\n              </form>\n              <div class="fix"></div>\n            </div>\n          </div>\n        </div>\n      </div>\n      <div id="header" class="col-full">\n        <div id="logo" class="fl">\n          <span class="site-title">\n            <a href="http://1957timecapsule.wordpress.com" shape="rect">1957 Time Capsule</a>\n          </span>\n        </div>\n        <div id="pagenav" class="nav fr">\n          <ul>\n            <li class="page_item page-item-2">\n              <a href="http://1957timecapsule.wordpress.com/about/" shape="rect">About</a>\n            </li>\n          </ul>\n        </div>\n      </div>\n      <div id="content" class="col-full">\n        <div id="main" class="col-left">\n          <div id="post-2809" class="post-2809 post type-post status-publish format-standard hentry category-books category-pastimes category-sports tag-1957 tag-horse-racing tag-kentucky">\n            <h1 class="title">May 4, 1957 \xe2\x80\x93 Bill Shoemaker\xe2\x80\x99s Derby\xc2\xa0Boo-Boo</h1>\n            <a href="http://1957timecapsule.wordpress.com/2012/05/04/may-4-1957-bill-shoemakers-derby-boo-boo/" class="date" shape="rect">\n              <span class="day">4</span>\n              <span class="month">May</span>\n            </a>\n            <div class="entry">\n              <div style="width: 310px" id="attachment_2811" class="wp-caption alignleft">\n                <a href="http://1957timecapsule.files.wordpress.com/2011/04/gallant-man-derby.jpg" shape="rect">\n                  <img height="242" width="300" alt="" src="http://1957timecapsule.files.wordpress.com/2011/04/gallant-man-derby.jpg?w=300&amp;h=242" title="Iron Liege, Gallant Man" class="size-medium wp-image-2811"></img>\n                </a>\n                <p class="wp-caption-text">Iron Liege, right, edges Gallant Man by a nose to win the 1957 Kentucky Derby</p>\n              </div>\n              <p>\n                On May 4, 1957, one of the world\xe2\x80\x99s greatest jockeys made a colossal blunder at the 83rd running of the venerable\n                <a target="_blank" href="http://en.wikipedia.org/wiki/Kentucky_Derby" shape="rect">Kentucky Derby</a>\n                .\xc3\x82\xc2\xa0 All Churchill Downs joined owner Ralph Lowe and trainer John Nerud in gasping surprise as Shoemaker, aboard three-year-old thoroughbred Gallant Man,\n                <a target="_blank" href="http://www.seattlepi.com/sports/article/Time-stood-still-as-historic-lapse-gripped-1957-1236370.php" shape="rect">lost track of the finish line</a>\n                .\xc3\x82\xc2\xa0 In his 1988 autobiography, Bill wrote, \xe2\x80\x9cThe finish line at Churchill Downs was a sixteenth of a mile farther toward the first turn than it was at other tracks in the country.\xc3\x82\xc2\xa0 And I hadn\xe2\x80\x99t had a ride over a track like that in a year.\xe2\x80\x9d\xc3\x82\xc2\xa0 \xe2\x80\x9cI knew,\xe2\x80\x9d Bill continued, \xe2\x80\x9cI had made a big boo-boo.\xe2\x80\x9d\n              </p>\n              <p>\n                Shoemaker and Gallant Man were battling Bill Hartack\xc3\x82\xc2\xa0on Iron Liege on the final stretch of the one and a quarter mile\xc3\x82\xc2\xa0race and Gallant Man was giving every impression that he could win the equine duel.\xc3\x82\xc2\xa0 Lowe and Nerud were about to head to the winner\xe2\x80\x99s circle when the unthinkable happened.\xc3\x82\xc2\xa0 Shoemaker stood up in his stirrups, signaling his mount to ease off.\xc3\x82\xc2\xa0 The 4\xe2\x80\xb2 11\xe2\x80\xb3 tall, 95-pound Texas 26-year-old quickly recovered, bouncing back into the saddle and urging Gallant Man on, but it was too late.\xc3\x82\xc2\xa0 Iron Liege maintained momentum and won \xe2\x80\x9cThe Run for the Roses\xe2\x80\x9d and first stage of the Triple Crown of American thoroughbred racing by a nose.\n              </p>\n              <p>\n                Shoemaker didn\xe2\x80\x99t let his mishap slow him down for long.\xc3\x82\xc2\xa0 He came back with partner Gallant Man in five weeks to win the Belmont Stakes, the third leg of the Triple Crown.\xc3\x82\xc2\xa0 Over his\xc3\x82\xc2\xa041-year career as a jockey,\n                <a target="_blank" href="http://en.wikipedia.org/wiki/Bill_Shoemaker" shape="rect">Bill Shoemaker</a>\n                \xc3\x82\xc2\xa0won\xc3\x82\xc2\xa08,833 races,\xc3\x82\xc2\xa0including 11 Triple Crown titles.\xc3\x82\xc2\xa0 He won his last Triple Crown title at age 54, riding an 18-1 outsider named Ferdinand.\n              </p>\n              <p>\n                Gallant Man owner Ralph Lowe may have paid more attention to his dreams \xe2\x80\x93 and nightmares \xe2\x80\x93 after this year\xe2\x80\x99s Derby debacle.\xc3\x82\xc2\xa0 Lowe told Shoemaker the night before the race that he had dreamed that a jockey on one of his\xc3\x82\xc2\xa0horses\xc3\x82\xc2\xa0lost a race by misjudging the finish line.\xc3\x82\xc2\xa0 Confident Bill quickly quipped, \xe2\x80\x9cNot me.\xe2\x80\x9d\xc3\x82\xc2\xa0 Famous last words.\n              </p>\n              <div id="jp-post-flair" class="sharedaddy sd-like-enabled">\n                <div class="wpl-likebox sd-block sd-like">\n                  <h3 class="sd-title">Like this:</h3>\n                  <div class="sd-content">\n                    <div id="like-2809" class="wpl-button">\n                      <a rel="nofollow" title="I like this." href="http://1957timecapsule.wordpress.com/2012/05/04/may-4-1957-bill-shoemakers-derby-boo-boo/?like=1&amp;_wpnonce=d5d394453a" class="like needs-login sd-button" shape="rect">\n                        <span>Like</span>\n                      </a>\n                    </div>\n                    <div class="wpl-count sd-like-count">Be the first to like this.</div>\n                  </div>\n                </div>\n              </div>\n              <p>\n                Tags:\n                <a rel="tag" href="http://1957timecapsule.wordpress.com/tag/1957/" shape="rect">1957</a>\n                ,\n                <a rel="tag" href="http://1957timecapsule.wordpress.com/tag/horse-racing/" shape="rect">horse racing</a>\n                ,\n                <a rel="tag" href="http://1957timecapsule.wordpress.com/tag/kentucky/" shape="rect">Kentucky</a>\n              </p>\n            </div>\n            <div class="post-meta">\n              <ul class="single-author-meta">\n                <li class="comments">\n                  <span class="head">Comments</span>\n                  <span class="body">\n                    <a title="Comment on May 4, 1957 \xe2\x80\x93 Bill Shoemaker\xe2\x80\x99s Derby\xc2\xa0Boo-Boo" href="http://1957timecapsule.wordpress.com/2012/05/04/may-4-1957-bill-shoemakers-derby-boo-boo/#respond" shape="rect">Leave a Comment</a>\n                  </span>\n                </li>\n                <li class="categories">\n                  <span class="head">Categories</span>\n                  <span class="body">\n                    <a rel="category tag" title="View all posts in Books" href="http://1957timecapsule.wordpress.com/category/books/" shape="rect">Books</a>\n                    ,\n                    <a rel="category tag" title="View all posts in Pastimes" href="http://1957timecapsule.wordpress.com/category/pastimes/" shape="rect">Pastimes</a>\n                    ,\n                    <a rel="category tag" title="View all posts in Sports" href="http://1957timecapsule.wordpress.com/category/sports/" shape="rect">Sports</a>\n                  </span>\n                </li>\n              </ul>\n              <div class="fix"></div>\n            </div>\n            <div id="nav-below" class="navigation">\n              <div class="nav-previous">\n                <a rel="prev" href="http://1957timecapsule.wordpress.com/2012/05/03/may-3-1957-william-clay-ford-jr-rolls-off-the-assembly-line/" shape="rect">\n                  <span class="meta-nav">\xe2\x86\x90</span>\n                  May 3, 1957 \xe2\x80\x93 William Clay Ford, Jr. Rolls Off the Assembly\xc2\xa0Line\n                </a>\n              </div>\n              <div class="nav-next">\n                <a rel="next" href="http://1957timecapsule.wordpress.com/2012/05/05/may-5-1957-poor-visibility-and-vision-in-cleveland/" shape="rect">\n                  May 5, 1957 \xe2\x80\x93 Poor Visibility and Vision in\xc2\xa0Cleveland\n                  <span class="meta-nav">\xe2\x86\x92</span>\n                </a>\n              </div>\n            </div>\n          </div>\n          <div id="respond">\n            <h3 id="reply-title">\n              Leave a Reply\n              <small>\n                <a style="display:none;" href="/2012/05/04/may-4-1957-bill-shoemakers-derby-boo-boo/#respond" rel="nofollow" id="cancel-comment-reply-link" shape="rect">Cancel reply</a>\n              </small>\n            </h3>\n            <form action="http://1957timecapsule.wordpress.com/wp-comments-post.php" id="commentform" method="post" enctype="application/x-www-form-urlencoded">\n              <input value="guest" name="hc_post_as" id="hc_post_as" type="hidden"></input>\n              <div class="comment-form-field comment-textarea">\n                <label for="comment">Enter your comment here...</label>\n                <div id="comment-form-comment">\n                  <textarea name="comment" id="comment"></textarea>\n                </div>\n              </div>\n              <div id="comment-form-identity">\n                <div id="comment-form-nascar">\n                  <p>Fill in your details below or click an icon to log in:</p>\n                  <ul>\n                    <li style="display:none;" class="selected">\n                      <a title="Guest" href="#comment-form-guest" id="postas-guest" shape="rect">\n                        <span></span>\n                      </a>\n                    </li>\n                    <li>\n                      <a title="WordPress.com" href="#comment-form-load-service:WordPress.com" id="postas-wordpress" shape="rect">\n                        <span></span>\n                      </a>\n                    </li>\n                    <li>\n                      <a title="Twitter" href="#comment-form-load-service:Twitter" id="postas-twitter" shape="rect">\n                        <span></span>\n                      </a>\n                    </li>\n                    <li>\n                      <a title="Facebook" href="#comment-form-load-service:Facebook" id="postas-facebook" shape="rect">\n                        <span></span>\n                      </a>\n                    </li>\n                  </ul>\n                </div>\n                <div id="comment-form-guest" class="comment-form-service selected">\n                  <div class="comment-form-padder">\n                    <div class="comment-form-avatar">\n                      <a target="_blank" href="https://gravatar.com/site/signup/" shape="rect">\n                        <img width="25" alt="Gravatar" src="http://1.gravatar.com/avatar/ad516503a11cd5ca435acc9bb6523536?s=25&amp;d=identicon&amp;forcedefault=y&amp;r=G" class="no-grav"></img>\n                      </a>\n                    </div>\n                    <div class="comment-form-fields">\n                      <div class="comment-form-field comment-form-email">\n                        <label for="email">\n                          Email\n                          <span class="required">(required)</span>\n                          <span class="nopublish">(Address never made public)</span>\n                        </label>\n                        <div class="comment-form-input">\n                          <input value="" name="email" id="email" type="email"></input>\n                        </div>\n                      </div>\n                      <div class="comment-form-field comment-form-author">\n                        <label for="author">\n                          Name\n                          <span class="required">(required)</span>\n                        </label>\n                        <div class="comment-form-input">\n                          <input value="" name="author" id="author" type="text"></input>\n                        </div>\n                      </div>\n                      <div class="comment-form-field comment-form-url">\n                        <label for="url">Website</label>\n                        <div class="comment-form-input">\n                          <input value="" name="url" id="url" type="text"></input>\n                        </div>\n                      </div>\n                    </div>\n                  </div>\n                </div>\n                <div id="comment-form-wordpress" class="comment-form-service">\n                  <div class="comment-form-padder">\n                    <div class="comment-form-avatar">\n                      <img width="25" alt="WordPress.com Logo" src="http://s2.wp.com/wp-content/mu-plugins/highlander-comments/images/wplogo.png?m=1289230950g" class="no-grav"></img>\n                    </div>\n                    <div class="comment-form-fields">\n                      <input value="" name="wp_avatar" id="wordpress-avatar" class="comment-meta-wordpress" type="hidden"></input>\n                      <input value="" name="wp_user_id" id="wordpress-user_id" class="comment-meta-wordpress" type="hidden"></input>\n                      <input value="" name="wp_access_token" id="wordpress-access_token" class="comment-meta-wordpress" type="hidden"></input>\n                      <p class="comment-form-posting-as pa-wordpress">\n                        <strong></strong>\n                        You are commenting using your WordPress.com account.\n                        <span class="comment-form-log-out">\n                          (\xc2\xa0\n                          <a href="javascript:HighlanderComments.doExternalLogout( \'wordpress\' );" shape="rect">Log\xc2\xa0Out</a>\n                          \xc2\xa0/\xc2\xa0\n                          <a onclick="javascript:HighlanderComments.switchAccount();return false;" href="#" shape="rect">Change</a>\n                          \xc2\xa0)\n                        </span>\n                      </p>\n                    </div>\n                  </div>\n                </div>\n                <div id="comment-form-twitter" class="comment-form-service">\n                  <div class="comment-form-padder">\n                    <div class="comment-form-avatar">\n                      <img width="25" alt="Twitter picture" src="http://1.gravatar.com/avatar/ad516503a11cd5ca435acc9bb6523536?s=25&amp;d=identicon&amp;forcedefault=y&amp;r=G" class="no-grav"></img>\n                    </div>\n                    <div class="comment-form-fields">\n                      <input value="" name="twitter_avatar" id="twitter-avatar" class="comment-meta-twitter" type="hidden"></input>\n                      <input value="" name="twitter_user_id" id="twitter-user_id" class="comment-meta-twitter" type="hidden"></input>\n                      <input value="" name="twitter_access_token" id="twitter-access_token" class="comment-meta-twitter" type="hidden"></input>\n                      <p class="comment-form-posting-as pa-twitter">\n                        <strong></strong>\n                        You are commenting using your Twitter account.\n                        <span class="comment-form-log-out">\n                          (\xc2\xa0\n                          <a href="javascript:HighlanderComments.doExternalLogout( \'twitter\' );" shape="rect">Log\xc2\xa0Out</a>\n                          \xc2\xa0/\xc2\xa0\n                          <a onclick="javascript:HighlanderComments.switchAccount();return false;" href="#" shape="rect">Change</a>\n                          \xc2\xa0)\n                        </span>\n                      </p>\n                    </div>\n                  </div>\n                </div>\n                <div id="comment-form-facebook" class="comment-form-service">\n                  <div class="comment-form-padder">\n                    <div class="comment-form-avatar">\n                      <img width="25" alt="Facebook photo" src="http://1.gravatar.com/avatar/ad516503a11cd5ca435acc9bb6523536?s=25&amp;d=identicon&amp;forcedefault=y&amp;r=G" class="no-grav"></img>\n                    </div>\n                    <div class="comment-form-fields">\n                      <input value="" name="fb_avatar" id="facebook-avatar" class="comment-meta-facebook" type="hidden"></input>\n                      <input value="" name="fb_user_id" id="facebook-user_id" class="comment-meta-facebook" type="hidden"></input>\n                      <input value="" name="fb_access_token" id="facebook-access_token" class="comment-meta-facebook" type="hidden"></input>\n                      <p class="comment-form-posting-as pa-facebook">\n                        <strong></strong>\n                        You are commenting using your Facebook account.\n                        <span class="comment-form-log-out">\n                          (\xc2\xa0\n                          <a href="javascript:HighlanderComments.doExternalLogout( \'facebook\' );" shape="rect">Log\xc2\xa0Out</a>\n                          \xc2\xa0/\xc2\xa0\n                          <a onclick="javascript:HighlanderComments.switchAccount();return false;" href="#" shape="rect">Change</a>\n                          \xc2\xa0)\n                        </span>\n                      </p>\n                    </div>\n                  </div>\n                </div>\n                <div id="comment-form-load-service" class="comment-form-service">\n                  <div class="comment-form-posting-as-cancel">\n                    <a href="javascript:HighlanderComments.cancelExternalWindow();" shape="rect">Cancel</a>\n                  </div>\n                  <p>Connecting to %s</p>\n                </div>\n              </div>\n              <script type="text/javascript">\n                jQuery(document).ready(function(){\n\tvar input = document.createElement( \'input\' ),\n\t    comment = jQuery( \'#comment\' );\n\n\tif ( \'placeholder\' in input ) {\n\t\tcomment.attr( \'placeholder\', jQuery( \'.comment-textarea label\' ).remove().text() );\n\t}\n\n\t// Expando Mode: start small, then auto-resize on first click + text length\n\tjQuery( \'#comment-form-identity\' ).hide();\n\tjQuery( \'#comment-form-subscribe\' ).hide();\n\tjQuery( \'#commentform .form-submit\' ).hide();\n\n\tcomment.css( { \'height\':\'10px\' } ).one( \'focus\', function() {\n\t\tvar timer = setInterval( HighlanderComments.resizeCallback, 10 )\n\t\tjQuery( this ).animate( { \'height\': HighlanderComments.initialHeight } ).delay( 100 ).queue( function(n) { clearInterval( timer ); HighlanderComments.resizeCallback(); n(); } );\n\t\tjQuery( \'#comment-form-identity\' ).slideDown();\n\t\tjQuery( \'#comment-form-subscribe\' ).slideDown();\n\t\tjQuery( \'#commentform .form-submit\' ).slideDown();\n\t});\n});\n              </script>\n              <div id="comment-form-subscribe">\n                <p class="comment-subscription-form">\n                  <input style="width: auto;" value="subscribe" name="subscribe" id="subscribe" type="checkbox" tabindex="6"></input>\n                  <label id="subscribe-label" class="subscribe-label" for="subscribe">Notify me of follow-up comments via email.</label>\n                </p>\n              </div>\n              <p class="form-submit">\n                <input value="Post Comment" name="submit" id="comment-submit" type="submit"></input>\n                <input value="2809" name="comment_post_ID" id="comment_post_ID" type="hidden"></input>\n                <input value="0" name="comment_parent" id="comment_parent" type="hidden"></input>\n              </p>\n              <input value="1349202668" name="genseq" type="hidden"></input>\n              <p style="display: none;">\n                <input value="e8bed7bcb6" name="akismet_comment_nonce" id="akismet_comment_nonce" type="hidden"></input>\n              </p>\n              <script src="http://s2.wp.com/wp-content/mu-plugins/akismet-2.5/form.js?m=1308783962g" type="text/javascript"></script>\n              <p style="display: none;">\n                <input value="15" name="ak_js" id="ak_js" type="hidden"></input>\n              </p>\n            </form>\n          </div>\n          <div style="clear: both"></div>\n        </div>\n        <div id="sidebar" class="col-right">\n          <div id="blog_subscription-3" class="widget widget_blog_subscription">\n            <h3>\n              <label for="subscribe-field">Email Subscription</label>\n            </h3>\n            <form accept-charset="utf-8" action="https://subscribe.wordpress.com" id="subscribe-blog" method="post" enctype="application/x-www-form-urlencoded">\n              <p>Enter your email address to subscribe to this blog and receive notifications of new posts by email.</p>\n              <p>Join 53 other followers</p>\n              <p>\n                <input value="" style="width: 95%; padding: 1px 2px" name="email" id="subscribe-field" type="text"></input>\n              </p>\n              <p>\n                <input value="subscribe" name="action" type="hidden"></input>\n                <input value="13578171" name="blog_id" type="hidden"></input>\n                <input value="http://1957timecapsule.wordpress.com/2012/05/04/may-4-1957-bill-shoemakers-derby-boo-boo/" name="source" type="hidden"></input>\n                <input value="widget" name="sub-type" type="hidden"></input>\n                <input value="blog_subscription-3" name="redirect_fragment" type="hidden"></input>\n                <input value="2bd22d08ff" name="_wpnonce" id="_wpnonce" type="hidden"></input>\n                <input value="Sign me up!" type="submit"></input>\n              </p>\n            </form>\n          </div>\n          <div id="categories-3" class="widget widget_categories">\n            <h3>Categories</h3>\n            <ul>\n              <li class="cat-item cat-item-178">\n                <a title="View all posts filed under Books" href="http://1957timecapsule.wordpress.com/category/books/" shape="rect">Books</a>\n                (19)\n              </li>\n              <li class="cat-item cat-item-929">\n                <a title="View all posts filed under Cars" href="http://1957timecapsule.wordpress.com/category/cars/" shape="rect">Cars</a>\n                (13)\n              </li>\n              <li class="cat-item cat-item-22794">\n                <a title="View all posts filed under Clothing" href="http://1957timecapsule.wordpress.com/category/clothing/" shape="rect">Clothing</a>\n                (13)\n              </li>\n              <li class="cat-item cat-item-29212348">\n                <a title="View all posts filed under Comics and Humor" href="http://1957timecapsule.wordpress.com/category/comics-and-humor/" shape="rect">Comics and Humor</a>\n                (21)\n              </li>\n              <li class="cat-item cat-item-586">\n                <a title="View all posts filed under Food" href="http://1957timecapsule.wordpress.com/category/food/" shape="rect">Food</a>\n                (22)\n              </li>\n              <li class="cat-item cat-item-4325">\n                <a title="View all posts filed under Holidays" href="http://1957timecapsule.wordpress.com/category/holidays/" shape="rect">Holidays</a>\n                (20)\n              </li>\n              <li class="cat-item cat-item-76014">\n                <a title="View all posts filed under Homes" href="http://1957timecapsule.wordpress.com/category/homes/" shape="rect">Homes</a>\n                (12)\n              </li>\n              <li class="cat-item cat-item-190">\n                <a title="View all posts filed under Movies" href="http://1957timecapsule.wordpress.com/category/movies/" shape="rect">Movies</a>\n                (49)\n              </li>\n              <li class="cat-item cat-item-10819384">\n                <a title="View all posts filed under Museums and Exhibits" href="http://1957timecapsule.wordpress.com/category/museums-and-exhibits/" shape="rect">Museums and Exhibits</a>\n                (8)\n              </li>\n              <li class="cat-item cat-item-18">\n                <a title="View all posts filed under Music" href="http://1957timecapsule.wordpress.com/category/music/" shape="rect">Music</a>\n                (50)\n              </li>\n              <li class="cat-item cat-item-342129">\n                <a title="View all posts filed under Newspapers &amp; Magazines" href="http://1957timecapsule.wordpress.com/category/newspapers-magazines/" shape="rect">Newspapers &amp; Magazines</a>\n                (53)\n              </li>\n              <li class="cat-item cat-item-6580">\n                <a title="View all posts filed under Oddities" href="http://1957timecapsule.wordpress.com/category/oddities/" shape="rect">Oddities</a>\n                (14)\n              </li>\n              <li class="cat-item cat-item-65588">\n                <a title="View all posts filed under Pastimes" href="http://1957timecapsule.wordpress.com/category/pastimes/" shape="rect">Pastimes</a>\n                (27)\n              </li>\n              <li class="cat-item cat-item-43050">\n                <a title="View all posts filed under Plays" href="http://1957timecapsule.wordpress.com/category/plays/" shape="rect">Plays</a>\n                (12)\n              </li>\n              <li class="cat-item cat-item-4681">\n                <a title="View all posts filed under Quiz" href="http://1957timecapsule.wordpress.com/category/quiz/" shape="rect">Quiz</a>\n                (9)\n              </li>\n              <li class="cat-item cat-item-275">\n                <a title="View all posts filed under Radio" href="http://1957timecapsule.wordpress.com/category/radio/" shape="rect">Radio</a>\n                (10)\n              </li>\n              <li class="cat-item cat-item-71628">\n                <a title="View all posts filed under Religion &amp; Faith" href="http://1957timecapsule.wordpress.com/category/religion-faith/" shape="rect">Religion &amp; Faith</a>\n                (23)\n              </li>\n              <li class="cat-item cat-item-4271763">\n                <a title="View all posts filed under Rich Or Famous" href="http://1957timecapsule.wordpress.com/category/rich-or-famous/" shape="rect">Rich Or Famous</a>\n                (67)\n              </li>\n              <li class="cat-item cat-item-1749">\n                <a title="View all posts filed under Science &amp; Technology" href="http://1957timecapsule.wordpress.com/category/science-technology/" shape="rect">Science &amp; Technology</a>\n                (69)\n              </li>\n              <li class="cat-item cat-item-67">\n                <a title="View all posts filed under Sports" href="http://1957timecapsule.wordpress.com/category/sports/" shape="rect">Sports</a>\n                (32)\n              </li>\n              <li class="cat-item cat-item-459">\n                <a title="View all posts filed under Television" href="http://1957timecapsule.wordpress.com/category/television/" shape="rect">Television</a>\n                (50)\n              </li>\n              <li class="cat-item cat-item-200">\n                <a title="View all posts filed under Travel" href="http://1957timecapsule.wordpress.com/category/travel/" shape="rect">Travel</a>\n                (7)\n              </li>\n              <li class="cat-item cat-item-52001">\n                <a title="View all posts filed under USA Government" href="http://1957timecapsule.wordpress.com/category/usa-government/" shape="rect">USA Government</a>\n                (84)\n              </li>\n              <li class="cat-item cat-item-4494">\n                <a title="View all posts filed under Weather" href="http://1957timecapsule.wordpress.com/category/weather/" shape="rect">Weather</a>\n                (11)\n              </li>\n              <li class="cat-item cat-item-11863">\n                <a title="View all posts filed under World Events" href="http://1957timecapsule.wordpress.com/category/world-events/" shape="rect">World Events</a>\n                (58)\n              </li>\n              <li class="cat-item cat-item-272869">\n                <a title="View all posts filed under World Leaders" href="http://1957timecapsule.wordpress.com/category/world-leaders/" shape="rect">World Leaders</a>\n                (41)\n              </li>\n            </ul>\n          </div>\n          <div id="archives-3" class="widget widget_archive">\n            <h3>Archives</h3>\n            <ul>\n              <li>\n                <a title="October 2012" href="http://1957timecapsule.wordpress.com/2012/10/" shape="rect">October 2012</a>\n                \xc2\xa0(2)\n              </li>\n              <li>\n                <a title="September 2012" href="http://1957timecapsule.wordpress.com/2012/09/" shape="rect">September 2012</a>\n                \xc2\xa0(30)\n              </li>\n              <li>\n                <a title="August 2012" href="http://1957timecapsule.wordpress.com/2012/08/" shape="rect">August 2012</a>\n                \xc2\xa0(31)\n              </li>\n              <li>\n                <a title="July 2012" href="http://1957timecapsule.wordpress.com/2012/07/" shape="rect">July 2012</a>\n                \xc2\xa0(32)\n              </li>\n              <li>\n                <a title="June 2012" href="http://1957timecapsule.wordpress.com/2012/06/" shape="rect">June 2012</a>\n                \xc2\xa0(30)\n              </li>\n              <li>\n                <a title="May 2012" href="http://1957timecapsule.wordpress.com/2012/05/" shape="rect">May 2012</a>\n                \xc2\xa0(31)\n              </li>\n              <li>\n                <a title="April 2012" href="http://1957timecapsule.wordpress.com/2012/04/" shape="rect">April 2012</a>\n                \xc2\xa0(30)\n              </li>\n              <li>\n                <a title="March 2012" href="http://1957timecapsule.wordpress.com/2012/03/" shape="rect">March 2012</a>\n                \xc2\xa0(31)\n              </li>\n              <li>\n                <a title="February 2012" href="http://1957timecapsule.wordpress.com/2012/02/" shape="rect">February 2012</a>\n                \xc2\xa0(28)\n              </li>\n              <li>\n                <a title="January 2012" href="http://1957timecapsule.wordpress.com/2012/01/" shape="rect">January 2012</a>\n                \xc2\xa0(31)\n              </li>\n              <li>\n                <a title="December 2011" href="http://1957timecapsule.wordpress.com/2011/12/" shape="rect">December 2011</a>\n                \xc2\xa0(31)\n              </li>\n              <li>\n                <a title="November 2011" href="http://1957timecapsule.wordpress.com/2011/11/" shape="rect">November 2011</a>\n                \xc2\xa0(30)\n              </li>\n              <li>\n                <a title="October 2011" href="http://1957timecapsule.wordpress.com/2011/10/" shape="rect">October 2011</a>\n                \xc2\xa0(8)\n              </li>\n              <li>\n                <a title="November 2010" href="http://1957timecapsule.wordpress.com/2010/11/" shape="rect">November 2010</a>\n                \xc2\xa0(2)\n              </li>\n              <li>\n                <a title="October 2010" href="http://1957timecapsule.wordpress.com/2010/10/" shape="rect">October 2010</a>\n                \xc2\xa0(8)\n              </li>\n              <li>\n                <a title="May 2010" href="http://1957timecapsule.wordpress.com/2010/05/" shape="rect">May 2010</a>\n                \xc2\xa0(1)\n              </li>\n            </ul>\n          </div>\n        </div>\n      </div>\n      <div id="footer">\n        <div class="col-full">\n          <div id="copyright" class="col-left">\n            <a rel="generator" href="http://wordpress.com/?ref=footer" shape="rect">Blog at WordPress.com</a>\n            .\n          </div>\n          <div id="credit" class="col-right">\n            Theme:\n            <a title="Learn more about this theme" href="http://theme.wordpress.com/themes/bueno/" shape="rect">Bueno</a>\n            by\n            <a rel="designer" href="http://www.woothemes.com/" shape="rect">WooThemes</a>\n            .\n          </div>\n        </div>\n      </div>\n    </div>\n    <script type="text/javascript">\n      var _qevents = _qevents || [], wpcomQuantcastData = {&quot;qacct&quot;:&quot;p-18-mFEk4J448M&quot;,&quot;labels&quot;:&quot;,language.en,type.wpcom,posttag.1957,posttag.horse-racing,posttag.kentucky&quot;};\nfunction wpcomQuantcastPixel( labels, options ) {\n\tvar i, defaults = wpcomQuantcastData, data = { event: \'ajax\' };\n\n\tlabels  = labels  || \'\';\n\toptions = options || {};\n\n\tif ( typeof labels != \'string\' )\n\t\toptions = labels;\n\n\tfor ( i in defaults ) {\n\t\tdata[i] = defaults[i];\n\t}\n\n\tfor ( i in options ) {\n\t\tdata[i] = options[i];\n\t}\n\n\tif ( data.labels ) {\n\t\tdata.labels += \',\' + labels;\n\t} else {\n\t\tdata.labels = labels;\n\t}\n\n\t_qevents.push( data );\n};\n(function() {var elem = document.createElement(\'script\');elem.src = (document.location.protocol == &quot;https:&quot; ? &quot;https://secure&quot; : &quot;http://edge&quot;) + &quot;.quantserve.com/quant.js&quot;;elem.async = true;elem.type = &quot;text/javascript&quot;;var scpt = document.getElementsByTagName(\'script\')[0];scpt.parentNode.insertBefore(elem, scpt);  })();\n_qevents.push( wpcomQuantcastData );\n    </script>\n    <noscript>\n      <div style="display: none;">\n        <img alt="" width="1" height="1" src="//pixel.quantserve.com/pixel/p-18-mFEk4J448M.gif?labels=%2Clanguage.en%2Ctype.wpcom%2Cposttag.1957%2Cposttag.horse-racing%2Cposttag.kentucky"></img>\n      </div>\n    </noscript>\n    <script type="text/javascript">\n      /* &lt;![CDATA[ */\n\t(function($){\n\t\t$(document).on( \'ready post-load\', function() {\n\n\t\t\t// Remove the login box when clicking the page\n\t\t\t$( document ).mousedown( function( e ) {\n\t\t\t\tif ( null == $( e.target ).closest( \'#wpl-mustlogin\' ).get( 0 ) ) {\n\t\t\t\t\t$( \'#wpl-mustlogin\' ).remove();\n\t\t\t\t}\n\t\t\t});\n\n\t\t\t// Handle clicking the like button itself\n\t\t\t$(\'.wpl-button &gt; a.like\').click( function(e) {\n\t\t\t\te.preventDefault();\n\n\t\t\t\tvar postid = $(this).parent().attr(\'id\').split(\'like-\')[1];\n\t\t\t\t$.post( \'http://1957timecapsule.wordpress.com/wp-admin/admin-ajax.php\', {\n\t\t\t\t\t\'action\': \'wpl_record_stat\',\n\t\t\t\t\t\'stat_name\': \'loggedout_like_click\'\n\t\t\t\t} );\n\n\t\t\t\tvar tenMins = new Date();\n\t\t\t\ttenMins.setTime( tenMins.getTime() + 600000 );\n\t\t\t\tdocument.cookie = \'wpl_rand=0b48e7b532; expires=\' + tenMins.toGMTString() + \'; domain=wordpress.com; path=/;\';\n\n\t\t\t\t$(this).parent().siblings(\'.wpl-count\').after( \'\\\n\t\t\t\t\t&lt;div id=&quot;wpl-mustlogin&quot;&gt; \\\n\t\t\t\t\t\t&lt;form action=&quot;https://1957timecapsule.wordpress.com/wp-login.php&quot; method=&quot;post&quot;&gt; \\\n\t\t\t\t\t\t\t&lt;p&gt;Just one more step to like this:&lt;/p&gt; \\\n\t\t\t\t\t\t\t&lt;label&gt;&lt;span&gt;Username&lt;/span&gt; &lt;input type=&quot;text&quot; name=&quot;log&quot; id=&quot;user_login&quot; class=&quot;input&quot; value=&quot;&quot; size=&quot;20&quot; tabindex=&quot;80&quot; /&gt;&lt;/label&gt; \\\n\t\t\t\t\t\t\t&lt;label&gt;&lt;span&gt;Password&lt;/span&gt; &lt;input type=&quot;password&quot; name=&quot;pwd&quot; id=&quot;user_pass&quot; class=&quot;input&quot; value=&quot;&quot; size=&quot;20&quot; tabindex=&quot;81&quot; /&gt;&lt;/label&gt; \\\n\t\t\t\t\t\t\t&lt;input type=&quot;submit&quot; name=&quot;wp-submit&quot; id=&quot;wp-submit&quot; class=&quot;button-primary&quot; value=&quot;Log In&quot; tabindex=&quot;82&quot; /&gt; \\\n\t\t\t\t\t\t\t&lt;input type=&quot;hidden&quot; name=&quot;postid&quot; value=&quot;\' + postid + \'&quot; /&gt; \\\n\t\t\t\t\t\t\t&lt;input type=&quot;hidden&quot; name=&quot;redirect_to&quot; value=&quot;http://1957timecapsule.wordpress.com/2012/05/04/may-4-1957-bill-shoemakers-derby-boo-boo?year=2012&amp;#038;monthnum=05&amp;#038;day=04&amp;#038;name=may-4-1957-bill-shoemakers-derby-boo-boo&amp;#038;like=1&quot; /&gt; \\\n\t\t\t\t\t\t\t&lt;input type=&quot;hidden&quot; name=&quot;wpl_rand&quot; value=&quot;0b48e7b532&quot; /&gt; \\\n\t\t\t\t\t\t\t&lt;p&gt;Not a member yet? &lt;a href=&quot;http://wordpress.com/signup/?ref=likebox&quot; id=&quot;wpl-signup-link&quot;&gt;Sign up with WordPress.com&lt;/a&gt;&lt;/p&gt; \\\n\t\t\t\t\t\t&lt;/form&gt; \\\n\t\t\t\t\t&lt;/div&gt; \\\n\t\t\t\t\');\n\n\t\t\t\t$(\'#wpl-mustlogin\').hide().slideDown(\'fast\');\n\t\t\t} );\n\n\t\t\t$(\'#wpl-mustlogin input.input\').live( \'focus\', function() {\n\t\t\t\t$(this).prev().hide();\n\t\t\t}).live( \'blur\', function() {\n\t\t\t\tif ( $(this).val() == \'\' ) {\n\t\t\t\t\t$(this).prev().show();\n\t\t\t\t}\n\t\t\t});\n\n\t\t\t$(\'#wpl-mustlogin input#wp-submit\').live( \'click\', function(e) {\n\t\t\t\te.preventDefault();\n\n\t\t\t\t$.post( \'http://1957timecapsule.wordpress.com/wp-admin/admin-ajax.php\', {\n\t\t\t\t\t\'action\': \'wpl_record_stat\',\n\t\t\t\t\t\'stat_name\': \'loggedout_login_submit\'\n\t\t\t\t}, function() {\n\t\t\t\t\t$(\'#wpl-mustlogin form\').submit();\n\t\t\t\t} );\n\t\t\t});\n\n\t\t\t$(\'#wpl-mustlogin a#wpl-signup-link\').live( \'click\', function(e) {\n\t\t\t\te.preventDefault();\n\n\t\t\t\tvar link = $(this).attr(\'href\');\n\n\t\t\t\t$.post( \'http://1957timecapsule.wordpress.com/wp-admin/admin-ajax.php\', {\n\t\t\t\t\t\'action\': \'wpl_record_stat\',\n\t\t\t\t\t\'stat_name\': \'loggedout_signup_click\'\n\t\t\t\t}, function() {\n\t\t\t\t\tlocation.href = link;\n\t\t\t\t} );\n\t\t\t});\n\t\t})\n\t})(jQuery);\n\t/* ]]&gt; */\n    </script>\n    <script src="http://s.gravatar.com/js/gprofiles.js?ver=201240ab" type="text/javascript"></script>\n    <script type="text/javascript"> /* &lt;![CDATA[ */ var WPGroHo = {&quot;my_hash&quot;:&quot;&quot;}; /* ]]&gt; */ </script>\n    <script src="http://s1.wp.com/wp-content/mu-plugins/gravatar-hovercards/wpgroho.js?m=1318621548g" type="text/javascript"></script>\n    <script>jQuery(document).ready(function($){ Gravatar.profile_cb = function( h, d ) { WPGroHo.syncProfileData( h, d ); }; Gravatar.my_hash = WPGroHo.my_hash; Gravatar.init( \'body\', \'#wp-admin-bar-my-account\' ); });</script>\n    <div style="display:none"> </div>\n    <script type="text/javascript">\n      /* &lt;![CDATA[ */\nvar HighlanderComments = {&quot;loggingInText&quot;:&quot;Logging In\\u2026&quot;,&quot;submittingText&quot;:&quot;Posting Comment\\u2026&quot;,&quot;postCommentText&quot;:&quot;Post Comment&quot;,&quot;connectingToText&quot;:&quot;Connecting to %s&quot;,&quot;commentingAsText&quot;:&quot;%1$s: You are commenting using your %2$s account.&quot;,&quot;logoutText&quot;:&quot;Log Out&quot;,&quot;loginText&quot;:&quot;Log In&quot;,&quot;connectURL&quot;:&quot;http:\\/\\/1957timecapsule.wordpress.com\\/public.api\\/connect\\/?action=request&quot;,&quot;logoutURL&quot;:&quot;http:\\/\\/1957timecapsule.wordpress.com\\/wp-login.php?action=logout&amp;_wpnonce=2e7e08429c&quot;,&quot;homeURL&quot;:&quot;http:\\/\\/1957timecapsule.wordpress.com\\/&quot;,&quot;postID&quot;:&quot;2809&quot;,&quot;gravDefault&quot;:&quot;identicon&quot;,&quot;enterACommentError&quot;:&quot;Please enter a comment&quot;,&quot;enterEmailError&quot;:&quot;Please enter your email address here&quot;,&quot;invalidEmailError&quot;:&quot;Invalid email address&quot;,&quot;enterAuthorError&quot;:&quot;Please enter your name here&quot;,&quot;gravatarFromEmail&quot;:&quot;This picture will show whenever you leave a comment. Click to customize it.&quot;,&quot;logInToExternalAccount&quot;:&quot;Log in to use details from one of these accounts.&quot;,&quot;change&quot;:&quot;Change&quot;,&quot;changeAccount&quot;:&quot;Change Account&quot;,&quot;comment_registration&quot;:&quot;0&quot;,&quot;userIsLoggedIn&quot;:&quot;&quot;,&quot;isJetpack&quot;:&quot;0&quot;};\n/* ]]&gt; */\n    </script>\n    <script src="http://s0.wp.com/wp-content/mu-plugins/highlander-comments/script.js?m=1342824083g" type="text/javascript"></script>\n    <div id="bit" class="loggedout-follow-normal">\n      <a href="javascript:void(0)" class="bsub" shape="rect">\n        <span id="bsub-text">Follow</span>\n      </a>\n      <div id="bitsubscribe">\n        <h3>\n          <label for="loggedout-follow-field">Follow \xe2\x80\x9c1957 Time Capsule\xe2\x80\x9d</label>\n        </h3>\n        <form accept-charset="utf-8" action="https://subscribe.wordpress.com" id="loggedout-follow" method="post" enctype="application/x-www-form-urlencoded">\n          <p>Get every new post delivered to your Inbox.</p>\n          <p style="display: none;" id="loggedout-follow-error"></p>\n          <p class="bit-follow-count">Join 53 other followers</p>\n          <p>\n            <input \n            onblur="this.value=(this.value==&quot;&quot;) ? &quot;Enter email address&quot; : this.value;" onfocus="this.value=(this.value==&quot;Enter your email address&quot;) ? &quot;&quot; : this.value;" value="Enter your email address" style="width: 95%; padding: 1px 2px" name="email" id="loggedout-follow-field" type="email">\n</input>\n          </p>\n          <input value="subscribe" name="action" type="hidden"></input>\n          <input value="13578171" name="blog_id" type="hidden"></input>\n          <input value="http://1957timecapsule.wordpress.com/2012/05/04/may-4-1957-bill-shoemakers-derby-boo-boo/" name="source" type="hidden"></input>\n          <input value="loggedout-follow" name="sub-type" type="hidden"></input>\n          <input value="2bd22d08ff" name="_wpnonce" id="_wpnonce" type="hidden"></input>\n          <input value="/2012/05/04/may-4-1957-bill-shoemakers-derby-boo-boo/" name="_wp_http_referer" type="hidden"></input>\n          <p id="bsub-subscribe-button">\n            <input value="Sign me up" type="submit"></input>\n          </p>\n        </form>\n        <div id="bsub-credit">\n          <a href="http://wordpress.com/signup/?ref=lof" shape="rect">Powered by WordPress.com</a>\n        </div>\n      </div>\n    </div>\n    <script src="http://b.scorecardresearch.com/beacon.js" type="text/javascript"></script>\n    <script type="text/javascript">try{COMSCORE.beacon({c1:2,c2:7518284});}catch(e){}</script>\n    <noscript>\n      <p class="robots-nocontent">\n        <img height="1" width="1" style="display:none" alt="" src="http://b.scorecardresearch.com/p?cj=1c1=2&amp;c2=7518284"></img>\n      </p>\n    </noscript>\n    <script src="http://s1.wp.com/wp-content/js/devicepx.js?m=1349105731g" type="text/javascript"></script>\n    <script type="text/javascript">\n      // &lt;![CDATA[\n(function() {\ntry{\n  if ( window.external &amp;&amp;\'msIsSiteMode\' in window.external) {\n    if (window.external.msIsSiteMode()) {\n      var jl = document.createElement(\'script\');\n      jl.type=\'text/javascript\';\n      jl.async=true;\n      jl.src=\'/wp-content/plugins/ie-sitemode/custom-jumplist.php\';\n      var s = document.getElementsByTagName(\'script\')[0];\n      s.parentNode.insertBefore(jl, s);\n    }\n  }\n}catch(e){}\n})();\n// ]]&gt;\n    </script>\n    <script type="text/javascript" src="http://s.stats.wordpress.com/w.js?21"></script>\n    <script type="text/javascript">\n      st_go({\'blog\':\'13578171\',\'v\':\'wpcom\',\'user_id\':\'0\',\'post\':\'2809\',\'subd\':\'1957timecapsule\'});\nex_go({\'crypt\':\'UE40eW5QN0p8M2Y/RE1oOHBqWkJdYy5wL35xRnR4SVtWLmluVHQrZ3JBRDNRaV9yeU4rX041RXBzU1FiayxfJjYsMDgtdFZmQnZkfkQ1amVEcnh1SWExa1ZLNS9lSHNGOE1IJk9+N2srY2F4NUlbQ0hqX2EmSFpSR1N4UGZuczV8ak0rODliL2ZrZ0VVMDR5SlNKJVpIbF1Mc3hdaUpMWFV+V0Vifk94aVlwcWMmSUZJTUIrVFVMbF02Z1FSbXQyWWFTMmNwRnI2YkJdbjV8WW5ZTklMM1hZXzhMUWVjTFNoRGxjUjI9QlFnb2NiMElIYXxLM2FuRD1UdnlIUTMmcGhkeDMmNyZfPzlbLnB+eHBzYU5BdnVqXyVwLWM2bSZ3V3hjZiZ6dnxGNkYzPVgld04zemVvUzBuVXFtZGs4W3Q0enwuYw==\'});\naddLoadEvent(function(){linktracker_init(\'13578171\',2809);});\n    </script>\n    <noscript>\n      <img alt="" style="height:0px;width:0px;overflow:hidden" src="http://stats.wordpress.com/b.gif?v=noscript"></img>\n    </noscript>\n  </body>\n</html>'
p11
sbsS'mentions'
p12
(lp13
(iedu.umass.cs.iesl.wikilink.expanded.data.ttypes
Mention
p14
(dp15
S'anchor_text'
p16
S'Kentucky Derby'
p17
sS'context'
p18
(iedu.umass.cs.iesl.wikilink.expanded.data.ttypes
Context
p19
(dp20
S'middle'
p21
S'Kentucky Derby'
p22
sS'right'
p23
S'.\xc3\x82\xc2\xa0 All Churchill Downs joined owner Ralph Lowe and trainer John Nerud in gasping surprise as Shoemaker, aboard three-year-old thoroughbred Gallant Man, lost track of'
p24
sS'left'
p25
S'the 1957 Kentucky Derby On May 4, 1957, one of the world\xe2\x80\x99s greatest jockeys made a colossal blunder at the 83rd running of the venerable'
p26
sbsS'freebase_id'
p27
S'9202a8c04000641f8000000000022e75'
p28
sS'raw_text_offset'
p29
I11727
sS'wiki_url'
p30
S'http://en.wikipedia.org/wiki/Kentucky_Derby'
p31
sba(iedu.umass.cs.iesl.wikilink.expanded.data.ttypes
Mention
p32
(dp33
g16
S'Bill Shoemaker'
p34
sg18
(iedu.umass.cs.iesl.wikilink.expanded.data.ttypes
Context
p35
(dp36
g21
S'Bill Shoemaker'
p37
sg23
S'\xc3\x82\xc2\xa0won\xc3\x82\xc2\xa08,833 races,\xc3\x82\xc2\xa0including 11 Triple Crown titles.\xc3\x82\xc2\xa0 He won his last Triple Crown title at age 54, riding an 18-1 outsider named Ferdinand. Gallant Man owner'
p38
sg25
S'with partner Gallant Man in five weeks to win the Belmont Stakes, the third leg of the Triple Crown.\xc3\x82\xc2\xa0 Over his\xc3\x82\xc2\xa041-year career as a jockey,'
p39
sbsg27
S'9202a8c04000641f80000000001e8314'
p40
sg29
I13379
sg30
S'http://en.wikipedia.org/wiki/Bill_Shoemaker'
p41
sbasS'doc_id'
p42
I2087
sS'rare_words'
p43
(lp44
(iedu.umass.cs.iesl.wikilink.expanded.data.ttypes
RareWord
p45
(dp46
S'word'
p47
S'debacle'
p48
sS'offset'
p49
I13681
sba(iedu.umass.cs.iesl.wikilink.expanded.data.ttypes
RareWord
p50
(dp51
g47
S'riding'
p52
sg49
I13500
sba(iedu.umass.cs.iesl.wikilink.expanded.data.ttypes
RareWord
p53
(dp54
g47
S'Run'
p55
sg49
I12980
sba(iedu.umass.cs.iesl.wikilink.expanded.data.ttypes
RareWord
p56
(dp57
g47
S'up'
p58
sg49
I12720
sba(iedu.umass.cs.iesl.wikilink.expanded.data.ttypes
RareWord
p59
(dp60
g47
S'gasping'
p61
sg49
I11819
sba(iedu.umass.cs.iesl.wikilink.expanded.data.ttypes
RareWord
p62
(dp63
g47
S'tracks'
p64
sg49
I12219
sba(iedu.umass.cs.iesl.wikilink.expanded.data.ttypes
RareWord
p65
(dp66
g47
S'misjudging'
p67
sg49
I13810
sba(iedu.umass.cs.iesl.wikilink.expanded.data.ttypes
RareWord
p68
(dp69
g47
S'night'
p70
sg49
I13716
sba(iedu.umass.cs.iesl.wikilink.expanded.data.ttypes
RareWord
p71
(dp72
g47
S'but'
p73
sg49
I12907
sba(iedu.umass.cs.iesl.wikilink.expanded.data.ttypes
RareWord
p74
(dp75
g47
S'words'
p76
sg49
I13908
sbasb.