(iedu.umass.cs.iesl.wikilink.expanded.data.ttypes
WikiLinkItem
p0
(dp1
S'url'
p2
S'http://2coolfishing.com/ttmbforum/showthread.php?t=114339'
p3
sS'content'
p4
(iedu.umass.cs.iesl.wikilink.expanded.data.ttypes
PageContentItem
p5
(dp6
S'articleText'
p7
NsS'raw'
p8
NsS'fullText'
p9
NsS'dom'
p10
S'<html lang="en" dir="ltr">\n  <head>\n    <link href="http://www.2coolfishing.com/favicon.ico" type="image/x-icon" rel="SHORTCUT ICON"></link>\n    <meta content="text/html; charset=UTF-8" http-equiv="Content-Type"></meta>\n    <meta content="vBulletin 3.8.4" name="generator"></meta>\n    <meta content=" Galveston Jetties on Good Friday, ttmb" name="keywords"></meta>\n    <meta content=" Galveston Jetties on Good Friday General Fishing Discussion" name="description"></meta>\n    <style type="text/css" id="vbulletin_css">\n      /**\n* vBulletin 3.8.4 CSS\n* Style: \'General\'; Style ID: 26\n*/\nbody\n{\n\tbackground: #FFffff;\n\tcolor: #000000;\n\tfont: 10pt verdana, geneva, lucida, \'lucida grande\', arial, helvetica, sans-serif;\n\tmargin: 5px 5px 10px 5px;\n}\na:link, body_alink\n{\n\tcolor: #22229C;\n}\na:visited, body_avisited\n{\n\tcolor: #22229C;\n}\na:hover, a:active, body_ahover\n{\n\tcolor: #FF4400;\n}\n.page\n{\n\tbackground: #FFFFFF;\n\tcolor: #000000;\n}\ntd, th, p, li\n{\n\tfont: 10pt verdana, geneva, lucida, \'lucida grande\', arial, helvetica, sans-serif;\n}\n.tborder\n{\n\tbackground: #D1D1E1;\n\tcolor: #000000;\n\tborder: 1px solid #0B198C;\n}\n.tcat\n{\n\tbackground: #869BBF url(images/gradients/gradient_tcat.gif) repeat-x top left;\n\tcolor: #FFFFFF;\n\tfont: bold 10pt verdana, geneva, lucida, \'lucida grande\', arial, helvetica, sans-serif;\n}\n.tcat a:link, .tcat_alink\n{\n\tcolor: #ffffff;\n\ttext-decoration: none;\n}\n.tcat a:visited, .tcat_avisited\n{\n\tcolor: #ffffff;\n\ttext-decoration: none;\n}\n.tcat a:hover, .tcat a:active, .tcat_ahover\n{\n\tcolor: #FFFF66;\n\ttext-decoration: underline;\n}\n.thead\n{\n\tbackground: #5C7099 url(images/gradients/gradient_thead.gif) repeat-x top left;\n\tcolor: #FFFFFF;\n\tfont: bold 11px tahoma, verdana, geneva, lucida, \'lucida grande\', arial, helvetica, sans-serif;\n}\n.thead a:link, .thead_alink\n{\n\tcolor: #FFFFFF;\n}\n.thead a:visited, .thead_avisited\n{\n\tcolor: #FFFFFF;\n}\n.thead a:hover, .thead a:active, .thead_ahover\n{\n\tcolor: #FFFF00;\n}\n.tfoot\n{\n\tbackground: #3E5C92;\n\tcolor: #E0E0F6;\n}\n.tfoot a:link, .tfoot_alink\n{\n\tcolor: #E0E0F6;\n}\n.tfoot a:visited, .tfoot_avisited\n{\n\tcolor: #E0E0F6;\n}\n.tfoot a:hover, .tfoot a:active, .tfoot_ahover\n{\n\tcolor: #FFFF66;\n}\n.alt1, .alt1Active\n{\n\tbackground: #F5F5FF;\n\tcolor: #000000;\n}\n.alt2, .alt2Active\n{\n\tbackground: #E1E4F2;\n\tcolor: #000000;\n}\n.inlinemod\n{\n\tbackground: #FFFFCC;\n\tcolor: #000000;\n}\n.wysiwyg\n{\n\tbackground: #F5F5FF;\n\tcolor: #000000;\n\tfont: 10pt verdana, geneva, lucida, \'lucida grande\', arial, helvetica, sans-serif;\n\tmargin: 5px 10px 10px 10px;\n\tpadding: 0px;\n}\n.wysiwyg a:link, .wysiwyg_alink\n{\n\tcolor: #22229C;\n}\n.wysiwyg a:visited, .wysiwyg_avisited\n{\n\tcolor: #22229C;\n}\n.wysiwyg a:hover, .wysiwyg a:active, .wysiwyg_ahover\n{\n\tcolor: #FF4400;\n}\ntextarea, .bginput\n{\n\tfont: 10pt verdana, geneva, lucida, \'lucida grande\', arial, helvetica, sans-serif;\n}\n.bginput option, .bginput optgroup\n{\n\tfont-size: 10pt;\n\tfont-family: verdana, geneva, lucida, \'lucida grande\', arial, helvetica, sans-serif;\n}\n.button\n{\n\tfont: 11px verdana, geneva, lucida, \'lucida grande\', arial, helvetica, sans-serif;\n}\nselect\n{\n\tfont: 11px verdana, geneva, lucida, \'lucida grande\', arial, helvetica, sans-serif;\n}\noption, optgroup\n{\n\tfont-size: 11px;\n\tfont-family: verdana, geneva, lucida, \'lucida grande\', arial, helvetica, sans-serif;\n}\n.smallfont\n{\n\tfont: 11px verdana, geneva, lucida, \'lucida grande\', arial, helvetica, sans-serif;\n}\n.time\n{\n\tcolor: #666686;\n}\n.navbar\n{\n\tfont: 11px verdana, geneva, lucida, \'lucida grande\', arial, helvetica, sans-serif;\n}\n.highlight\n{\n\tcolor: #FF0000;\n\tfont-weight: bold;\n}\n.fjsel\n{\n\tbackground: #3E5C92;\n\tcolor: #E0E0F6;\n}\n.fjdpth0\n{\n\tbackground: #F7F7F7;\n\tcolor: #000000;\n}\n.panel\n{\n\tbackground: #E4E7F5 url(images/gradients/gradient_panel.gif) repeat-x top left;\n\tcolor: #000000;\n\tpadding: 10px;\n\tborder: 2px outset;\n}\n.panelsurround\n{\n\tbackground: #D1D4E0 url(images/gradients/gradient_panelsurround.gif) repeat-x top left;\n\tcolor: #000000;\n}\nlegend\n{\n\tcolor: #22229C;\n\tfont: 11px tahoma, verdana, geneva, lucida, \'lucida grande\', arial, helvetica, sans-serif;\n}\n.vbmenu_control\n{\n\tbackground: #738FBF;\n\tcolor: #FFFFFF;\n\tfont: bold 11px tahoma, verdana, geneva, lucida, \'lucida grande\', arial, helvetica, sans-serif;\n\tpadding: 3px 6px 3px 6px;\n\twhite-space: nowrap;\n}\n.vbmenu_control a:link, .vbmenu_control_alink\n{\n\tcolor: #FFFFFF;\n\ttext-decoration: none;\n}\n.vbmenu_control a:visited, .vbmenu_control_avisited\n{\n\tcolor: #FFFFFF;\n\ttext-decoration: none;\n}\n.vbmenu_control a:hover, .vbmenu_control a:active, .vbmenu_control_ahover\n{\n\tcolor: #FFFFFF;\n\ttext-decoration: underline;\n}\n.vbmenu_popup\n{\n\tbackground: #FFFFFF;\n\tcolor: #000000;\n\tborder: 1px solid #0B198C;\n}\n.vbmenu_option\n{\n\tbackground: #BBC7CE;\n\tcolor: #000000;\n\tfont: 11px verdana, geneva, lucida, \'lucida grande\', arial, helvetica, sans-serif;\n\twhite-space: nowrap;\n\tcursor: pointer;\n}\n.vbmenu_option a:link, .vbmenu_option_alink\n{\n\tcolor: #22229C;\n\ttext-decoration: none;\n}\n.vbmenu_option a:visited, .vbmenu_option_avisited\n{\n\tcolor: #22229C;\n\ttext-decoration: none;\n}\n.vbmenu_option a:hover, .vbmenu_option a:active, .vbmenu_option_ahover\n{\n\tcolor: #FFFFFF;\n\ttext-decoration: none;\n}\n.vbmenu_hilite\n{\n\tbackground: #8A949E;\n\tcolor: #FFFFFF;\n\tfont: 11px verdana, geneva, lucida, \'lucida grande\', arial, helvetica, sans-serif;\n\twhite-space: nowrap;\n\tcursor: pointer;\n}\n.vbmenu_hilite a:link, .vbmenu_hilite_alink\n{\n\tcolor: #FFFFFF;\n\ttext-decoration: none;\n}\n.vbmenu_hilite a:visited, .vbmenu_hilite_avisited\n{\n\tcolor: #FFFFFF;\n\ttext-decoration: none;\n}\n.vbmenu_hilite a:hover, .vbmenu_hilite a:active, .vbmenu_hilite_ahover\n{\n\tcolor: #FFFFFF;\n\ttext-decoration: none;\n}\n/* ***** styling for \'big\' usernames on postbit etc. ***** */\n.bigusername { font-size: 14pt; }\n\n/* ***** small padding on \'thead\' elements ***** */\ntd.thead, th.thead, div.thead { padding: 4px; }\n\n/* ***** basic styles for multi-page nav elements */\n.pagenav a { text-decoration: none; }\n.pagenav td { padding: 2px 4px 2px 4px; }\n\n/* ***** de-emphasized text */\n.shade, a.shade:link, a.shade:visited { color: #777777; text-decoration: none; }\na.shade:active, a.shade:hover { color: #FF4400; text-decoration: underline; }\n.tcat .shade, .thead .shade, .tfoot .shade { color: #DDDDDD; }\n\n/* ***** define margin and font-size for elements inside panels ***** */\n.fieldset { margin-bottom: 6px; }\n.fieldset, .fieldset td, .fieldset p, .fieldset li { font-size: 11px; }\n    </style>\n    <link href="clientscript/vbulletin_important.css?v=384" type="text/css" rel="stylesheet"></link>\n    <script src="clientscript/yui/yahoo-dom-event/yahoo-dom-event.js?v=384" type="text/javascript"></script>\n    <script src="clientscript/yui/connection/connection-min.js?v=384" type="text/javascript"></script>\n    <script type="text/javascript"> &lt;!-- var SESSIONURL = &quot;s=3566b612221f75a9fb616030732f4e10&amp;&quot;; var SECURITYTOKEN = &quot;guest&quot;; var IMGDIR_MISC = &quot;/ttmbforum/images/misc&quot;; var vb_disable_ajax = parseInt(&quot;0&quot;, 10); // --&gt; </script>\n    <script src="clientscript/vbulletin_global.js?v=384" type="text/javascript"></script>\n    <link href="external.php?type=RSS2" title="2CoolFishing RSS Feed" type="application/rss+xml" rel="alternate"></link>\n    <link href="external.php?type=RSS2&amp;forumids=40" title="2CoolFishing - General Fishing Discussion - RSS Feed" type="application/rss+xml" rel="alternate"></link>\n    <link media="screen" type="text/css" href="http://www.2coolfishing.com/style2008.css" rel="stylesheet"></link>\n    <script type="text/javascript">\n      var googletag = googletag || {};\ngoogletag.cmd = googletag.cmd || [];\n(function() {\nvar gads = document.createElement(\'script\');\ngads.async = true;\ngads.type = \'text/javascript\';\nvar useSSL = \'https:\' == document.location.protocol;\ngads.src = (useSSL ? \'https:\' : \'http:\') +\n\'//www.googletagservices.com/tag/js/gpt.js\';\nvar node = document.getElementsByTagName(\'script\')[0];\nnode.parentNode.insertBefore(gads, node);\n})();\n    </script>\n    <script type="text/javascript">\n      googletag.cmd.push(function() {\ngoogletag.defineSlot(\'/1026022/2cool_rosATF_leaderboard\', [728, 90], \'div-gpt-ad-1323985083214-19\').addService(googletag.pubads());\ngoogletag.defineSlot(\'/1026022/2cool_discussion_Generalsponsorship\', [735, 130], \'div-gpt-ad-1324068857353-3\').addService(googletag.pubads());\ngoogletag.defineSlot(\'/1026022/2cool_rosBTF_leaderboard\', [728, 90], \'div-gpt-ad-1323985083214-21\').addService(googletag.pubads());\ngoogletag.defineSlot(\'/1026022/2cool_rosATF_skyscraper\', [160, 600], \'div-gpt-ad-1323985083214-20\').addService(googletag.pubads());\ngoogletag.defineSlot(\'/1026022/2Cool_ROS_160square\', [160, 160], \'div-gpt-ad-1323985083214-16\').addService(googletag.pubads());\ngoogletag.defineSlot(\'/1026022/2Cool_ROS_160square_2\', [160, 160], \'div-gpt-ad-1323985083214-17\').addService(googletag.pubads());\ngoogletag.defineSlot(\'/1026022/2Cool_ROS_160square_3\', [160, 160], \'div-gpt-ad-1323985083214-18\').addService(googletag.pubads());\ngoogletag.defineSlot(\'/1026022/2cool_rosBTF_skyscraper\', [160, 600], \'div-gpt-ad-1323985083214-22\').addService(googletag.pubads());\ngoogletag.pubads().enableSingleRequest();\ngoogletag.pubads().set( &quot;page_url&quot;, top.window.location.href );\ngoogletag.enableServices();\n});\n    </script>\n    <script src="mobiquo/tapatalkdetect.js" type="text/javascript"></script>\n    <script type="text/javascript">\n      var _gaq = _gaq || [];\n  _gaq.push([\'_setAccount\', \'UA-1302724-3\']);\n  _gaq.push([\'_trackPageview\']);\n\n  (function() {\n    var ga = document.createElement(\'script\'); ga.type = \'text/javascript\'; ga.async = true;\n    ga.src = (\'https:\' == document.location.protocol ? \'https://ssl\' : \'http://www\') + \'.google-analytics.com/ga.js\';\n    var s = document.getElementsByTagName(\'script\')[0]; s.parentNode.insertBefore(ga, s);\n  })();\n    </script>\n    <script src="clientscript/ame.js" type="text/javascript"></script>\n    <title> Galveston Jetties on Good Friday - 2CoolFishing</title>\n    <script src="clientscript/vbulletin_post_loader.js?v=384" type="text/javascript"></script>\n    <style type="text/css" id="vbulletin_showthread_css"> &lt;!-- #links div { white-space: nowrap; } #links img { vertical-align: middle; } --&gt; </style>\n  </head>\n  <body onload="">\n    <table cellpadding="0" cellspacing="0" width="100%" border="0" align="center">\n      <tr>\n        <td class="top1" rowspan="1" colspan="1" align="right">\n          <u>\n            <a href="http://www.2coolfishing.com/" class="toplink" shape="rect">Home</a>\n          </u>\n          \xc2\xa0 | \xc2\xa0\n          <u>\n            <a href="http://www.2coolfishing.com/contact-us.php" class="toplink" shape="rect">Contact Us</a>\n          </u>\n          \xc2\xa0 | \xc2\xa0\n          <u>\n            <a href="http://www.2coolfishing.com/advertising.php" class="toplink" shape="rect">Advertise</a>\n          </u>\n          \xc2\xa0 | \xc2\xa0 Follow:\n          <a target="_blank" href="http://www.facebook.com/2CoolFishing" shape="rect">\n            <img src="http://www.noreast.com/images/followfacebook.jpg" vspace="2" style="vertical-align:middle;" border="0"></img>\n          </a>\n        </td>\n      </tr>\n    </table>\n    <table bgcolor="#256392" cellpadding="0" cellspacing="0" width="100%" border="0" align="center">\n      <tr>\n        <td width="217" rowspan="1" colspan="1">\n          <a href="http://www.2coolfishing.com" shape="rect">\n            <img border="0" alt="" src="http://www.2coolfishing.com/topleft08_C.jpg"></img>\n          </a>\n        </td>\n        <td rowspan="1" colspan="1">\n          <div style="width:728px; height:90px;" id="div-gpt-ad-1323985083214-19">\n            <script type="text/javascript"> googletag.cmd.push(function() { googletag.display(\'div-gpt-ad-1323985083214-19\'); }); </script>\n          </div>\n        </td>\n        <td width="8" rowspan="1" colspan="1">\n          <img border="0" alt="" src="http://www.2coolfishing.com/images/topright08.gif"></img>\n        </td>\n      </tr>\n    </table>\n    <div align="center">\n      <div class="menu" align="left">\n        <strong>\n          \xc2\xa0 \xc2\xa0\n          <a href="http://2coolfishing.com/ttmbforum/" class="menulink" shape="rect">Message Board</a>\n          \xc2\xa0 | \xc2\xa0\n          <a href="http://2coolfishing.com/ttmbforum/blog.php" class="menulink" shape="rect">Blogs</a>\n          \xc2\xa0  | \xc2\xa0\n          <a href="http://2coolfishing.com/ttmbforum/videoplug.php" class="menulink" shape="rect">Videos</a>\n          \xc2\xa0 | \xc2\xa0\n          <a href="http://www.2coolfishing.com/tides.php" class="menulink" shape="rect">Tide Charts</a>\n          \xc2\xa0 | \xc2\xa0\n          <a href="http://2coolfishing.com/weather.php" class="menulink" shape="rect">Reel Time Weather (Upper Coast)</a>\n          \xc2\xa0 | \xc2\xa0\n          <a href="http://2coolfishing.com/weather2.php" class="menulink" shape="rect">Reel Time Weather (Middle Coast)</a>\n          \xc2\xa0 |  \xc2\xa0\n          <a href="http://www.2coolfishing.com/sponsors.php" class="menulink" shape="rect">Sponsors</a>\n          | \xc2\xa0\n          <a href="http://www.2coolfishing.com/contact-us.php" class="menulink" shape="rect">Contact Us</a>\n        </strong>\n      </div>\n    </div>\n    <table cellpadding="0" cellspacing="0" width="100%" border="0" align="center">\n      <tr>\n        <td bgcolor="#ffffff" class="content" valign="top" rowspan="1" colspan="1">\n          <a name="top" shape="rect"></a>\n          <div align="center">\n            <div style="width:100%; text-align:left" class="page">\n              <div style="padding:0px 25px 0px 25px" align="left">\n                <br clear="none"></br>\n                <table width="100%" border="0" cellspacing="1" cellpadding="6" class="tborder" align="center">\n                  <tr>\n                    <td width="100%" class="alt1" rowspan="1" colspan="1">\n                      <table border="0" cellspacing="0" cellpadding="0">\n                        <tr valign="bottom">\n                          <td rowspan="1" colspan="1">\n                            <a onclick="history.back(1); return false;" href="#" shape="rect">\n                              <img border="0" alt="Go Back" src="/ttmbforum/images/misc/navbits_start.gif"></img>\n                            </a>\n                          </td>\n                          <td rowspan="1" colspan="1">\xc2\xa0</td>\n                          <td width="100%" rowspan="1" colspan="1">\n                            <span class="navbar">\n                              <a accesskey="1" href="index.php?s=3566b612221f75a9fb616030732f4e10" shape="rect">2CoolFishing</a>\n                            </span>\n                            <span class="navbar">\n                              &gt;\n                              <a href="forumdisplay.php?s=3566b612221f75a9fb616030732f4e10&amp;f=46" shape="rect">Saltwater Fishing Forums</a>\n                            </span>\n                            <span class="navbar">\n                              &gt;\n                              <a href="forumdisplay.php?s=3566b612221f75a9fb616030732f4e10&amp;f=40" shape="rect">General Fishing Discussion</a>\n                            </span>\n                          </td>\n                        </tr>\n                        <tr>\n                          <td style="font-size:10pt; padding-top:1px" class="navbar" rowspan="1" colspan="3">\n                            <a href="/ttmbforum/showthread.php?t=114339" shape="rect">\n                              <img border="0" alt="Reload this Page" src="/ttmbforum/images/misc/navbits_finallink_ltr.gif" class="inlineimg"></img>\n                            </a>\n                            <strong> Galveston Jetties on Good Friday </strong>\n                          </td>\n                        </tr>\n                      </table>\n                    </td>\n                    <td style="padding:0px" class="alt2" rowspan="1" nowrap="nowrap" colspan="1">\n                      <form onsubmit="md5hash(vb_login_password, vb_login_md5password, vb_login_md5password_utf, 0)" action="login.php?do=login" method="post" enctype="application/x-www-form-urlencoded">\n                        <script src="clientscript/vbulletin_md5.js?v=384" type="text/javascript"></script>\n                        <table border="0" cellspacing="3" cellpadding="0">\n                          <tr>\n                            <td style="white-space: nowrap;" class="smallfont" rowspan="1" colspan="1">\n                              <label for="navbar_username">User Name</label>\n                            </td>\n                            <td rowspan="1" colspan="1">\n                              <input onfocus="if (this.value == \'User Name\') this.value = \'\';" value="User Name" accesskey="u" size="10" name="vb_login_username" style="font-size: 11px" id="navbar_username" class="bginput" type="text" tabindex="101"></input>\n                            </td>\n                            <td class="smallfont" rowspan="1" nowrap="nowrap" colspan="1">\n                              <label for="cb_cookieuser_navbar">\n                                <input accesskey="c" value="1" name="cookieuser" id="cb_cookieuser_navbar" type="checkbox" tabindex="103"></input>\n                                Remember Me?\n                              </label>\n                            </td>\n                          </tr>\n                          <tr>\n                            <td class="smallfont" rowspan="1" colspan="1">\n                              <label for="navbar_password">Password</label>\n                            </td>\n                            <td rowspan="1" colspan="1">\n                              <input size="10" name="vb_login_password" style="font-size: 11px" id="navbar_password" class="bginput" type="password" tabindex="102"></input>\n                            </td>\n                            <td rowspan="1" colspan="1">\n                              <input accesskey="s" title="Enter your username and password in the boxes provided to login, or click the \'register\' button to create a profile for yourself." value="Log in" class="button" type="submit" tabindex="104"></input>\n                            </td>\n                          </tr>\n                        </table>\n                        <input value="3566b612221f75a9fb616030732f4e10" name="s" type="hidden"></input>\n                        <input value="guest" name="securitytoken" type="hidden"></input>\n                        <input value="login" name="do" type="hidden"></input>\n                        <input name="vb_login_md5password" type="hidden"></input>\n                        <input name="vb_login_md5password_utf" type="hidden"></input>\n                      </form>\n                    </td>\n                  </tr>\n                </table>\n                <div style="padding:1px; border-top-width:0px" class="tborder">\n                  <table width="100%" border="0" cellspacing="0" cellpadding="0" align="center">\n                    <tr align="center">\n                      <td class="vbmenu_control" rowspan="1" colspan="1">\n                        <a rel="nofollow" href="register.php?s=3566b612221f75a9fb616030732f4e10" shape="rect">Register</a>\n                      </td>\n                      <td class="vbmenu_control" rowspan="1" colspan="1">\n                        <a accesskey="5" href="faq.php?s=3566b612221f75a9fb616030732f4e10" rel="help" shape="rect">FAQ</a>\n                      </td>\n                      <td class="vbmenu_control" rowspan="1" colspan="1">\n                        <a href="group.php?s=3566b612221f75a9fb616030732f4e10&amp;" shape="rect">Social Groups</a>\n                      </td>\n                      <td class="vbmenu_control" rowspan="1" colspan="1">\n                        <a href="calendar.php?s=3566b612221f75a9fb616030732f4e10" shape="rect">Calendar</a>\n                      </td>\n                      <td class="vbmenu_control" rowspan="1" colspan="1">\n                        <a rel="nofollow" href="forumdisplay.php?s=3566b612221f75a9fb616030732f4e10&amp;do=markread" shape="rect">Mark Forums Read</a>\n                      </td>\n                    </tr>\n                  </table>\n                </div>\n                <br clear="none"></br>\n                <div style="width:735px; height:130px;" id="div-gpt-ad-1324068857353-3">\n                  <script type="text/javascript"> googletag.cmd.push(function() { googletag.display(\'div-gpt-ad-1324068857353-3\'); }); </script>\n                </div>\n                <a name="poststop" id="poststop" shape="rect"></a>\n                <table style="margin-bottom:3px" width="100%" border="0" cellspacing="0" cellpadding="0">\n                  <tr valign="bottom">\n                    <td class="smallfont" rowspan="1" colspan="1">\n                      <a rel="nofollow" href="newreply.php?s=3566b612221f75a9fb616030732f4e10&amp;do=newreply&amp;noquote=1&amp;p=1078269" shape="rect">\n                        <img border="0" alt="Reply" src="/ttmbforum/images/buttons/reply.gif"></img>\n                      </a>\n                    </td>\n                    <td rowspan="1" colspan="1" align="right">\n                      <div class="pagenav" align="right">\n                        <table border="0" cellspacing="1" cellpadding="3" class="tborder">\n                          <tr>\n                            <td style="font-weight:normal" class="vbmenu_control" rowspan="1" colspan="1">Page 1 of 4</td>\n                            <td class="alt2" rowspan="1" colspan="1">\n                              <span title="Showing results 1 to 10 of 34" class="smallfont">\n                                <strong>1</strong>\n                              </span>\n                            </td>\n                            <td class="alt1" rowspan="1" colspan="1">\n                              <a title="Show results 11 to 20 of 34" href="showthread.php?s=3566b612221f75a9fb616030732f4e10&amp;t=114339&amp;page=2" class="smallfont" shape="rect">2</a>\n                            </td>\n                            <td class="alt1" rowspan="1" colspan="1">\n                              <a title="Show results 21 to 30 of 34" href="showthread.php?s=3566b612221f75a9fb616030732f4e10&amp;t=114339&amp;page=3" class="smallfont" shape="rect">3</a>\n                            </td>\n                            <td class="alt1" rowspan="1" colspan="1">\n                              <a title="Show results 31 to 34 of 34" href="showthread.php?s=3566b612221f75a9fb616030732f4e10&amp;t=114339&amp;page=4" class="smallfont" shape="rect">4</a>\n                            </td>\n                            <td class="alt1" rowspan="1" colspan="1">\n                              <a title="Next Page - Results 11 to 20 of 34" href="showthread.php?s=3566b612221f75a9fb616030732f4e10&amp;t=114339&amp;page=2" rel="next" class="smallfont" shape="rect">&gt;</a>\n                            </td>\n                          </tr>\n                        </table>\n                      </div>\n                    </td>\n                  </tr>\n                </table>\n                <table style="border-bottom-width:0px" width="100%" border="0" cellspacing="1" cellpadding="6" class="tborder" align="center">\n                  <tr>\n                    <td width="100%" class="tcat" rowspan="1" colspan="1">\n                      <div class="smallfont"> \xc2\xa0 </div>\n                    </td>\n                    <td id="threadtools" class="vbmenu_control" rowspan="1" nowrap="nowrap" colspan="1">\n                      <a href="#goto_threadtools" shape="rect">Thread Tools</a>\n                    </td>\n                    <td id="displaymodes" class="vbmenu_control" rowspan="1" nowrap="nowrap" colspan="1">\n                      <a href="#goto_displaymodes" shape="rect">Display Modes</a>\n                    </td>\n                  </tr>\n                </table>\n              </div>\n            </div>\n          </div>\n          <div id="posts">\n            <div align="center">\n              <div style="width:100%; text-align:left" class="page">\n                <div style="padding:0px 25px 0px 25px" align="left">\n                  <div style="padding:0px 0px 6px 0px" id="edit1078269">\n                    <table width="100%" border="0" cellspacing="1" cellpadding="6" id="post1078269" class="tborder" align="center">\n                      <tr>\n                        <td class="thead" rowspan="1" colspan="1">\n                          <div style="float:right" class="normal">\n                            \xc2\xa0\n\t\t\t#\n                            <a name="1" rel="nofollow" target="new" href="showpost.php?s=3566b612221f75a9fb616030732f4e10&amp;p=1078269&amp;postcount=1" id="postcount1078269" shape="rect">\n                              <strong>1</strong>\n                            </a>\n                            \xc2\xa0\n                          </div>\n                          <div class="normal">\n                            <a name="post1078269" shape="rect">\n                              <img border="0" alt="Old" src="/ttmbforum/images/statusicon/post_old.gif" class="inlineimg"></img>\n                            </a>\n                            04-08-2007, 04:27 PM\n                          </div>\n                        </td>\n                      </tr>\n                      <tr>\n                        <td style="padding:0px" class="alt2" rowspan="1" colspan="1">\n                          <table width="100%" border="0" cellspacing="6" cellpadding="0">\n                            <tr>\n                              <td rowspan="1" nowrap="nowrap" colspan="1">\n                                <div id="postmenu_1078269">\n                                  <a href="member.php?s=3566b612221f75a9fb616030732f4e10&amp;u=5777" class="bigusername" shape="rect">\n                                    <b>aglaw</b>\n                                  </a>\n                                  <img border="0" alt="aglaw is offline" src="/ttmbforum/images/statusicon/user_offline.gif" class="inlineimg"></img>\n                                  <script type="text/javascript"> vbmenu_register(&quot;postmenu_1078269&quot;, true); </script>\n                                </div>\n                                <div class="smallfont">Registered Users-pm+</div>\n                              </td>\n                              <td width="100%" rowspan="1" colspan="1">\xc2\xa0</td>\n                              <td valign="top" rowspan="1" nowrap="nowrap" colspan="1">\n                                <div class="smallfont">\n                                  <div>Join Date: Jul 11 2005</div>\n                                  <div>Age: 40</div>\n                                  <div> Posts: 48 </div>\n                                  Rep Power:\n                                  <span id="reppower_1078269_5777">2733</span>\n                                  <div>\n                                    <span id="repdisplay_1078269_5777">\n                                      <img border="0" alt="aglaw is a Landlubber (+10 to -10)" src="/ttmbforum/images/reputation/reputation_pos.gif" class="inlineimg"></img>\n                                      <img border="0" alt="aglaw is a Landlubber (+10 to -10)" src="/ttmbforum/images/reputation/reputation_pos.gif" class="inlineimg"></img>\n                                      <img border="0" alt="aglaw is a Landlubber (+10 to -10)" src="/ttmbforum/images/reputation/reputation_pos.gif" class="inlineimg"></img>\n                                      <img border="0" alt="aglaw is a Landlubber (+10 to -10)" src="/ttmbforum/images/reputation/reputation_pos.gif" class="inlineimg"></img>\n                                      <img border="0" alt="aglaw is a Landlubber (+10 to -10)" src="/ttmbforum/images/reputation/reputation_pos.gif" class="inlineimg"></img>\n                                      <img border="0" alt="aglaw is a Landlubber (+10 to -10)" src="/ttmbforum/images/reputation/reputation_highpos.gif" class="inlineimg"></img>\n                                      <img border="0" alt="aglaw is a Landlubber (+10 to -10)" src="/ttmbforum/images/reputation/reputation_highpos.gif" class="inlineimg"></img>\n                                      <img border="0" alt="aglaw is a Landlubber (+10 to -10)" src="/ttmbforum/images/reputation/reputation_highpos.gif" class="inlineimg"></img>\n                                      <img border="0" alt="aglaw is a Landlubber (+10 to -10)" src="/ttmbforum/images/reputation/reputation_highpos.gif" class="inlineimg"></img>\n                                      <img border="0" alt="aglaw is a Landlubber (+10 to -10)" src="/ttmbforum/images/reputation/reputation_highpos.gif" class="inlineimg"></img>\n                                      <img border="0" alt="aglaw is a Landlubber (+10 to -10)" src="/ttmbforum/images/reputation/reputation_highpos.gif" class="inlineimg"></img>\n                                    </span>\n                                  </div>\n                                  <div> </div>\n                                </div>\n                              </td>\n                            </tr>\n                          </table>\n                        </td>\n                      </tr>\n                      <tr>\n                        <td id="td_post_1078269" class="alt1" rowspan="1" colspan="1">\n                          <div class="smallfont">\n                            <img border="0" alt="sheepy2" src="/ttmbforum/images/icons/sheepy2.gif" class="inlineimg"></img>\n                            <strong>Galveston Jetties on Good Friday</strong>\n                          </div>\n                          <hr style="color:#D1D1E1; background-color:#D1D1E1" size="1"></hr>\n                          <div id="post_message_1078269">\n                            WE put in at Texas City Dike at 8am.  Headed over to the North Jetty.  Sat there for about an hour in a severe chop and caught nothing but a single gafftop. (although my one buddy did get some severe sea sickness)\n                            <br clear="none"></br>\n                            <br clear="none"></br>\n                            Cruised over to the S. Jetty, and anchored about half way down(close to one of the party boats) and about 50 yards off the jetty.  We threw out lines with live shrimp, cut shad and fresh dead crab.\n                            <br clear="none"></br>\n                            <br clear="none"></br>\n                            Nothing touched the crab all day.  The shrimp landed us 2 bull reds which were fun to pull on with light tackle.\n                            <br clear="none"></br>\n                            <br clear="none"></br>\n                            The cut shad was the food of choice that day. We pulled in 6 more bull reds with it, and also got in 2 yellow fin tuna.  I had never caught tuna before, and didnt know that they would be there at the jetty, but man were they fun to fight.  They really grabbed the line and started spooling it out. Thank goodness it was on my big pole with 50lb test and a steel leader on it. One weighed in at 27lbs and the other at 38lbs.\n                            <br clear="none"></br>\n                            <br clear="none"></br>\n                            I am trying to get the picture off my phone to post them.  They made some great fillets, afterI figured out how to clean them.\n                            <br clear="none"></br>\n                            <br clear="none"></br>\n                            tightlines all!\n                          </div>\n                          <div style="margin-top: 10px" align="right">\n                            <a rel="nofollow" href="newreply.php?s=3566b612221f75a9fb616030732f4e10&amp;do=newreply&amp;p=1078269" shape="rect">\n                              <img border="0" alt="Reply With Quote" src="/ttmbforum/images/buttons/quote.gif"></img>\n                            </a>\n                          </div>\n                        </td>\n                      </tr>\n                    </table>\n                    <div style="display:none;" id="postmenu_1078269_menu" class="vbmenu_popup">\n                      <table border="0" cellspacing="1" cellpadding="4">\n                        <tr>\n                          <td class="thead" rowspan="1" colspan="1">aglaw</td>\n                        </tr>\n                        <tr>\n                          <td class="vbmenu_option" rowspan="1" colspan="1">\n                            <a href="member.php?s=3566b612221f75a9fb616030732f4e10&amp;u=5777" shape="rect">View Public Profile</a>\n                          </td>\n                        </tr>\n                        <tr>\n                          <td class="vbmenu_option" rowspan="1" colspan="1">\n                            <a rel="nofollow" href="private.php?s=3566b612221f75a9fb616030732f4e10&amp;do=newpm&amp;u=5777" shape="rect">Send a private message to aglaw</a>\n                          </td>\n                        </tr>\n                        <tr>\n                          <td class="vbmenu_option" rowspan="1" colspan="1">\n                            <a href="http://www.Slatelaw.com" shape="rect">Visit aglaw\'s homepage!</a>\n                          </td>\n                        </tr>\n                        <tr>\n                          <td class="vbmenu_option" rowspan="1" colspan="1">\n                            <a rel="nofollow" href="search.php?s=3566b612221f75a9fb616030732f4e10&amp;do=finduser&amp;u=5777" shape="rect">Find all posts by aglaw</a>\n                          </td>\n                        </tr>\n                      </table>\n                    </div>\n                  </div>\n                </div>\n              </div>\n            </div>\n            <div align="center">\n              <div style="width:100%; text-align:left" class="page">\n                <div style="padding:0px 25px 0px 25px" align="left">\n                  <div style="padding:0px 0px 6px 0px" id="edit1078278">\n                    <table width="100%" border="0" cellspacing="1" cellpadding="6" id="post1078278" class="tborder" align="center">\n                      <tr>\n                        <td class="thead" rowspan="1" colspan="1">\n                          <div style="float:right" class="normal">\n                            \xc2\xa0\n\t\t\t#\n                            <a name="2" rel="nofollow" target="new" href="showpost.php?s=3566b612221f75a9fb616030732f4e10&amp;p=1078278&amp;postcount=2" id="postcount1078278" shape="rect">\n                              <strong>2</strong>\n                            </a>\n                            \xc2\xa0\n                          </div>\n                          <div class="normal">\n                            <a name="post1078278" shape="rect">\n                              <img border="0" alt="Old" src="/ttmbforum/images/statusicon/post_old.gif" class="inlineimg"></img>\n                            </a>\n                            04-08-2007, 04:35 PM\n                          </div>\n                        </td>\n                      </tr>\n                      <tr>\n                        <td style="padding:0px" class="alt2" rowspan="1" colspan="1">\n                          <table width="100%" border="0" cellspacing="6" cellpadding="0">\n                            <tr>\n                              <td class="alt2" rowspan="1" colspan="1">\n                                <a href="member.php?s=3566b612221f75a9fb616030732f4e10&amp;u=13454" shape="rect">\n                                  <img border="0" alt="mikeyd3\'s Avatar" src="images/avatars/fish23.gif"></img>\n                                </a>\n                              </td>\n                              <td rowspan="1" nowrap="nowrap" colspan="1">\n                                <div id="postmenu_1078278">\n                                  <a href="member.php?s=3566b612221f75a9fb616030732f4e10&amp;u=13454" class="bigusername" shape="rect">\n                                    <b>mikeyd3</b>\n                                  </a>\n                                  <img border="0" alt="mikeyd3 is offline" src="/ttmbforum/images/statusicon/user_offline.gif" class="inlineimg"></img>\n                                  <script type="text/javascript"> vbmenu_register(&quot;postmenu_1078278&quot;, true); </script>\n                                </div>\n                                <div class="smallfont">Always Chasing Tails</div>\n                              </td>\n                              <td width="100%" rowspan="1" colspan="1">\xc2\xa0</td>\n                              <td valign="top" rowspan="1" nowrap="nowrap" colspan="1">\n                                <div class="smallfont">\n                                  <div>Join Date: Mar 19 2006</div>\n                                  <div>Location: Spring, Tx</div>\n                                  <div>Age: 34</div>\n                                  <div> Posts: 203 </div>\n                                  Rep Power:\n                                  <span id="reppower_1078278_13454">2611</span>\n                                  <div>\n                                    <span id="repdisplay_1078278_13454">\n                                      <img border="0" alt="mikeyd3 is a Landlubber (+10 to -10)" src="/ttmbforum/images/reputation/reputation_pos.gif" class="inlineimg"></img>\n                                      <img border="0" alt="mikeyd3 is a Landlubber (+10 to -10)" src="/ttmbforum/images/reputation/reputation_pos.gif" class="inlineimg"></img>\n                                      <img border="0" alt="mikeyd3 is a Landlubber (+10 to -10)" src="/ttmbforum/images/reputation/reputation_pos.gif" class="inlineimg"></img>\n                                      <img border="0" alt="mikeyd3 is a Landlubber (+10 to -10)" src="/ttmbforum/images/reputation/reputation_pos.gif" class="inlineimg"></img>\n                                      <img border="0" alt="mikeyd3 is a Landlubber (+10 to -10)" src="/ttmbforum/images/reputation/reputation_pos.gif" class="inlineimg"></img>\n                                      <img border="0" alt="mikeyd3 is a Landlubber (+10 to -10)" src="/ttmbforum/images/reputation/reputation_highpos.gif" class="inlineimg"></img>\n                                      <img border="0" alt="mikeyd3 is a Landlubber (+10 to -10)" src="/ttmbforum/images/reputation/reputation_highpos.gif" class="inlineimg"></img>\n                                      <img border="0" alt="mikeyd3 is a Landlubber (+10 to -10)" src="/ttmbforum/images/reputation/reputation_highpos.gif" class="inlineimg"></img>\n                                      <img border="0" alt="mikeyd3 is a Landlubber (+10 to -10)" src="/ttmbforum/images/reputation/reputation_highpos.gif" class="inlineimg"></img>\n                                      <img border="0" alt="mikeyd3 is a Landlubber (+10 to -10)" src="/ttmbforum/images/reputation/reputation_highpos.gif" class="inlineimg"></img>\n                                      <img border="0" alt="mikeyd3 is a Landlubber (+10 to -10)" src="/ttmbforum/images/reputation/reputation_highpos.gif" class="inlineimg"></img>\n                                    </span>\n                                  </div>\n                                  <div> </div>\n                                </div>\n                              </td>\n                            </tr>\n                          </table>\n                        </td>\n                      </tr>\n                      <tr>\n                        <td id="td_post_1078278" class="alt1" rowspan="1" colspan="1">\n                          <div class="smallfont">\n                            <img border="0" alt="drum" src="/ttmbforum/images/icons/drum.gif" class="inlineimg"></img>\n                            <strong>Pictures</strong>\n                          </div>\n                          <hr style="color:#D1D1E1; background-color:#D1D1E1" size="1"></hr>\n                          <div id="post_message_1078278"> Yellowfin Tuna??? You have pictures of those Tuna? </div>\n                          <div style="margin-top: 10px" align="right">\n                            <a rel="nofollow" href="newreply.php?s=3566b612221f75a9fb616030732f4e10&amp;do=newreply&amp;p=1078278" shape="rect">\n                              <img border="0" alt="Reply With Quote" src="/ttmbforum/images/buttons/quote.gif"></img>\n                            </a>\n                          </div>\n                        </td>\n                      </tr>\n                    </table>\n                    <div style="display:none;" id="postmenu_1078278_menu" class="vbmenu_popup">\n                      <table border="0" cellspacing="1" cellpadding="4">\n                        <tr>\n                          <td class="thead" rowspan="1" colspan="1">mikeyd3</td>\n                        </tr>\n                        <tr>\n                          <td class="vbmenu_option" rowspan="1" colspan="1">\n                            <a href="member.php?s=3566b612221f75a9fb616030732f4e10&amp;u=13454" shape="rect">View Public Profile</a>\n                          </td>\n                        </tr>\n                        <tr>\n                          <td class="vbmenu_option" rowspan="1" colspan="1">\n                            <a rel="nofollow" href="private.php?s=3566b612221f75a9fb616030732f4e10&amp;do=newpm&amp;u=13454" shape="rect">Send a private message to mikeyd3</a>\n                          </td>\n                        </tr>\n                        <tr>\n                          <td class="vbmenu_option" rowspan="1" colspan="1">\n                            <a rel="nofollow" href="search.php?s=3566b612221f75a9fb616030732f4e10&amp;do=finduser&amp;u=13454" shape="rect">Find all posts by mikeyd3</a>\n                          </td>\n                        </tr>\n                      </table>\n                    </div>\n                  </div>\n                </div>\n              </div>\n            </div>\n            <div align="center">\n              <div style="width:100%; text-align:left" class="page">\n                <div style="padding:0px 25px 0px 25px" align="left">\n                  <div style="padding:0px 0px 6px 0px" id="edit1078282">\n                    <table width="100%" border="0" cellspacing="1" cellpadding="6" id="post1078282" class="tborder" align="center">\n                      <tr>\n                        <td class="thead" rowspan="1" colspan="1">\n                          <div style="float:right" class="normal">\n                            \xc2\xa0\n\t\t\t#\n                            <a name="3" rel="nofollow" target="new" href="showpost.php?s=3566b612221f75a9fb616030732f4e10&amp;p=1078282&amp;postcount=3" id="postcount1078282" shape="rect">\n                              <strong>3</strong>\n                            </a>\n                            \xc2\xa0\n                          </div>\n                          <div class="normal">\n                            <a name="post1078282" shape="rect">\n                              <img border="0" alt="Old" src="/ttmbforum/images/statusicon/post_old.gif" class="inlineimg"></img>\n                            </a>\n                            04-08-2007, 04:40 PM\n                          </div>\n                        </td>\n                      </tr>\n                      <tr>\n                        <td style="padding:0px" class="alt2" rowspan="1" colspan="1">\n                          <table width="100%" border="0" cellspacing="6" cellpadding="0">\n                            <tr>\n                              <td class="alt2" rowspan="1" colspan="1">\n                                <a href="member.php?s=3566b612221f75a9fb616030732f4e10&amp;u=18441" shape="rect">\n                                  <img border="0" alt="Dances With Fish\'s Avatar" src="image.php?s=3566b612221f75a9fb616030732f4e10&amp;u=18441&amp;dateline=1175300191"></img>\n                                </a>\n                              </td>\n                              <td rowspan="1" nowrap="nowrap" colspan="1">\n                                <div id="postmenu_1078282">\n                                  <a href="member.php?s=3566b612221f75a9fb616030732f4e10&amp;u=18441" class="bigusername" shape="rect">\n                                    <b>Dances With Fish</b>\n                                  </a>\n                                  <img border="0" alt="Dances With Fish is offline" src="/ttmbforum/images/statusicon/user_offline.gif" class="inlineimg"></img>\n                                  <script type="text/javascript"> vbmenu_register(&quot;postmenu_1078282&quot;, true); </script>\n                                </div>\n                                <div class="smallfont">let me think</div>\n                              </td>\n                              <td width="100%" rowspan="1" colspan="1">\xc2\xa0</td>\n                              <td valign="top" rowspan="1" nowrap="nowrap" colspan="1">\n                                <div class="smallfont">\n                                  <div>Join Date: Jul 24 2006</div>\n                                  <div>Location: The Toxic city of Texas</div>\n                                  <div> Posts: 1,554 </div>\n                                  Rep Power:\n                                  <span id="reppower_1078282_18441">4432</span>\n                                  <div>\n                                    <span id="repdisplay_1078282_18441">\n                                      <img border="0" alt="Dances With Fish has disabled reputation" src="/ttmbforum/images/reputation/reputation_off.gif" class="inlineimg"></img>\n                                    </span>\n                                  </div>\n                                  <div> </div>\n                                </div>\n                              </td>\n                            </tr>\n                          </table>\n                        </td>\n                      </tr>\n                      <tr>\n                        <td id="td_post_1078282" class="alt1" rowspan="1" colspan="1">\n                          <div id="post_message_1078282">\n                            Tuna at the Jetties&gt;.......\n                            <img title="troll" alt="" border="0" src="images/smilies/troll2.gif" class="inlineimg"></img>\n                          </div>\n                          <div style="margin-top: 10px" align="right">\n                            <a rel="nofollow" href="newreply.php?s=3566b612221f75a9fb616030732f4e10&amp;do=newreply&amp;p=1078282" shape="rect">\n                              <img border="0" alt="Reply With Quote" src="/ttmbforum/images/buttons/quote.gif"></img>\n                            </a>\n                          </div>\n                        </td>\n                      </tr>\n                    </table>\n                    <div style="display:none;" id="postmenu_1078282_menu" class="vbmenu_popup">\n                      <table border="0" cellspacing="1" cellpadding="4">\n                        <tr>\n                          <td class="thead" rowspan="1" colspan="1">Dances With Fish</td>\n                        </tr>\n                        <tr>\n                          <td class="vbmenu_option" rowspan="1" colspan="1">\n                            <a href="member.php?s=3566b612221f75a9fb616030732f4e10&amp;u=18441" shape="rect">View Public Profile</a>\n                          </td>\n                        </tr>\n                        <tr>\n                          <td class="vbmenu_option" rowspan="1" colspan="1">\n                            <a rel="nofollow" href="private.php?s=3566b612221f75a9fb616030732f4e10&amp;do=newpm&amp;u=18441" shape="rect">Send a private message to Dances With Fish</a>\n                          </td>\n                        </tr>\n                        <tr>\n                          <td class="vbmenu_option" rowspan="1" colspan="1">\n                            <a rel="nofollow" href="search.php?s=3566b612221f75a9fb616030732f4e10&amp;do=finduser&amp;u=18441" shape="rect">Find all posts by Dances With Fish</a>\n                          </td>\n                        </tr>\n                      </table>\n                    </div>\n                  </div>\n                </div>\n              </div>\n            </div>\n            <div align="center">\n              <div style="width:100%; text-align:left" class="page">\n                <div style="padding:0px 25px 0px 25px" align="left">\n                  <div style="padding:0px 0px 6px 0px" id="edit1078284">\n                    <table width="100%" border="0" cellspacing="1" cellpadding="6" id="post1078284" class="tborder" align="center">\n                      <tr>\n                        <td class="thead" rowspan="1" colspan="1">\n                          <div style="float:right" class="normal">\n                            \xc2\xa0\n\t\t\t#\n                            <a name="4" rel="nofollow" target="new" href="showpost.php?s=3566b612221f75a9fb616030732f4e10&amp;p=1078284&amp;postcount=4" id="postcount1078284" shape="rect">\n                              <strong>4</strong>\n                            </a>\n                            \xc2\xa0\n                          </div>\n                          <div class="normal">\n                            <a name="post1078284" shape="rect">\n                              <img border="0" alt="Old" src="/ttmbforum/images/statusicon/post_old.gif" class="inlineimg"></img>\n                            </a>\n                            04-08-2007, 04:41 PM\n                          </div>\n                        </td>\n                      </tr>\n                      <tr>\n                        <td style="padding:0px" class="alt2" rowspan="1" colspan="1">\n                          <table width="100%" border="0" cellspacing="6" cellpadding="0">\n                            <tr>\n                              <td rowspan="1" nowrap="nowrap" colspan="1">\n                                <div id="postmenu_1078284">\n                                  <a href="member.php?s=3566b612221f75a9fb616030732f4e10&amp;u=5777" class="bigusername" shape="rect">\n                                    <b>aglaw</b>\n                                  </a>\n                                  <img border="0" alt="aglaw is offline" src="/ttmbforum/images/statusicon/user_offline.gif" class="inlineimg"></img>\n                                  <script type="text/javascript"> vbmenu_register(&quot;postmenu_1078284&quot;, true); </script>\n                                </div>\n                                <div class="smallfont">Registered Users-pm+</div>\n                              </td>\n                              <td width="100%" rowspan="1" colspan="1">\xc2\xa0</td>\n                              <td valign="top" rowspan="1" nowrap="nowrap" colspan="1">\n                                <div class="smallfont">\n                                  <div>Join Date: Jul 11 2005</div>\n                                  <div>Age: 40</div>\n                                  <div> Posts: 48 </div>\n                                  Rep Power:\n                                  <span id="reppower_1078284_5777">2733</span>\n                                  <div>\n                                    <span id="repdisplay_1078284_5777">\n                                      <img border="0" alt="aglaw is a Landlubber (+10 to -10)" src="/ttmbforum/images/reputation/reputation_pos.gif" class="inlineimg"></img>\n                                      <img border="0" alt="aglaw is a Landlubber (+10 to -10)" src="/ttmbforum/images/reputation/reputation_pos.gif" class="inlineimg"></img>\n                                      <img border="0" alt="aglaw is a Landlubber (+10 to -10)" src="/ttmbforum/images/reputation/reputation_pos.gif" class="inlineimg"></img>\n                                      <img border="0" alt="aglaw is a Landlubber (+10 to -10)" src="/ttmbforum/images/reputation/reputation_pos.gif" class="inlineimg"></img>\n                                      <img border="0" alt="aglaw is a Landlubber (+10 to -10)" src="/ttmbforum/images/reputation/reputation_pos.gif" class="inlineimg"></img>\n                                      <img border="0" alt="aglaw is a Landlubber (+10 to -10)" src="/ttmbforum/images/reputation/reputation_highpos.gif" class="inlineimg"></img>\n                                      <img border="0" alt="aglaw is a Landlubber (+10 to -10)" src="/ttmbforum/images/reputation/reputation_highpos.gif" class="inlineimg"></img>\n                                      <img border="0" alt="aglaw is a Landlubber (+10 to -10)" src="/ttmbforum/images/reputation/reputation_highpos.gif" class="inlineimg"></img>\n                                      <img border="0" alt="aglaw is a Landlubber (+10 to -10)" src="/ttmbforum/images/reputation/reputation_highpos.gif" class="inlineimg"></img>\n                                      <img border="0" alt="aglaw is a Landlubber (+10 to -10)" src="/ttmbforum/images/reputation/reputation_highpos.gif" class="inlineimg"></img>\n                                      <img border="0" alt="aglaw is a Landlubber (+10 to -10)" src="/ttmbforum/images/reputation/reputation_highpos.gif" class="inlineimg"></img>\n                                    </span>\n                                  </div>\n                                  <div> </div>\n                                </div>\n                              </td>\n                            </tr>\n                          </table>\n                        </td>\n                      </tr>\n                      <tr>\n                        <td id="td_post_1078284" class="alt1" rowspan="1" colspan="1">\n                          <div id="post_message_1078284">\n                            All we had was a camera phone.  I am trying to get it off the phone and onto here, will work on that.\n                            <br clear="none"></br>\n                            <br clear="none"></br>\n                            I am a pretty new fisherman to salt water.  I had never caught this fish before so I did some research when we got home and found picture of fish that looked like what we caught and I figured it was tuna because of the yellow tail and fin on top.  You ask the question like it couldn\'t be that?  I am not positive tht is what they were but they fit the description.  and man were they tough fighters.\n                          </div>\n                          <div style="margin-top: 10px" align="right">\n                            <a rel="nofollow" href="newreply.php?s=3566b612221f75a9fb616030732f4e10&amp;do=newreply&amp;p=1078284" shape="rect">\n                              <img border="0" alt="Reply With Quote" src="/ttmbforum/images/buttons/quote.gif"></img>\n                            </a>\n                          </div>\n                        </td>\n                      </tr>\n                    </table>\n                    <div style="display:none;" id="postmenu_1078284_menu" class="vbmenu_popup">\n                      <table border="0" cellspacing="1" cellpadding="4">\n                        <tr>\n                          <td class="thead" rowspan="1" colspan="1">aglaw</td>\n                        </tr>\n                        <tr>\n                          <td class="vbmenu_option" rowspan="1" colspan="1">\n                            <a href="member.php?s=3566b612221f75a9fb616030732f4e10&amp;u=5777" shape="rect">View Public Profile</a>\n                          </td>\n                        </tr>\n                        <tr>\n                          <td class="vbmenu_option" rowspan="1" colspan="1">\n                            <a rel="nofollow" href="private.php?s=3566b612221f75a9fb616030732f4e10&amp;do=newpm&amp;u=5777" shape="rect">Send a private message to aglaw</a>\n                          </td>\n                        </tr>\n                        <tr>\n                          <td class="vbmenu_option" rowspan="1" colspan="1">\n                            <a href="http://www.Slatelaw.com" shape="rect">Visit aglaw\'s homepage!</a>\n                          </td>\n                        </tr>\n                        <tr>\n                          <td class="vbmenu_option" rowspan="1" colspan="1">\n                            <a rel="nofollow" href="search.php?s=3566b612221f75a9fb616030732f4e10&amp;do=finduser&amp;u=5777" shape="rect">Find all posts by aglaw</a>\n                          </td>\n                        </tr>\n                      </table>\n                    </div>\n                  </div>\n                </div>\n              </div>\n            </div>\n            <div align="center">\n              <div style="width:100%; text-align:left" class="page">\n                <div style="padding:0px 25px 0px 25px" align="left">\n                  <div style="padding:0px 0px 6px 0px" id="edit1078286">\n                    <table width="100%" border="0" cellspacing="1" cellpadding="6" id="post1078286" class="tborder" align="center">\n                      <tr>\n                        <td class="thead" rowspan="1" colspan="1">\n                          <div style="float:right" class="normal">\n                            \xc2\xa0\n\t\t\t#\n                            <a name="5" rel="nofollow" target="new" href="showpost.php?s=3566b612221f75a9fb616030732f4e10&amp;p=1078286&amp;postcount=5" id="postcount1078286" shape="rect">\n                              <strong>5</strong>\n                            </a>\n                            \xc2\xa0\n                          </div>\n                          <div class="normal">\n                            <a name="post1078286" shape="rect">\n                              <img border="0" alt="Old" src="/ttmbforum/images/statusicon/post_old.gif" class="inlineimg"></img>\n                            </a>\n                            04-08-2007, 04:43 PM\n                          </div>\n                        </td>\n                      </tr>\n                      <tr>\n                        <td style="padding:0px" class="alt2" rowspan="1" colspan="1">\n                          <table width="100%" border="0" cellspacing="6" cellpadding="0">\n                            <tr>\n                              <td class="alt2" rowspan="1" colspan="1">\n                                <a href="member.php?s=3566b612221f75a9fb616030732f4e10&amp;u=1749" shape="rect">\n                                  <img border="0" alt="Corey D.\'s Avatar" height="100" width="144" src="image.php?s=3566b612221f75a9fb616030732f4e10&amp;u=1749&amp;dateline=1251305459"></img>\n                                </a>\n                              </td>\n                              <td rowspan="1" nowrap="nowrap" colspan="1">\n                                <div id="postmenu_1078286">\n                                  <a href="member.php?s=3566b612221f75a9fb616030732f4e10&amp;u=1749" class="bigusername" shape="rect">\n                                    <b>Corey D.</b>\n                                  </a>\n                                  <img border="0" alt="Corey D. is offline" src="/ttmbforum/images/statusicon/user_offline.gif" class="inlineimg"></img>\n                                  <script type="text/javascript"> vbmenu_register(&quot;postmenu_1078286&quot;, true); </script>\n                                </div>\n                                <div class="smallfont">twitch, twitch ........bam!!!! FISH ON</div>\n                              </td>\n                              <td width="100%" rowspan="1" colspan="1">\xc2\xa0</td>\n                              <td valign="top" rowspan="1" nowrap="nowrap" colspan="1">\n                                <div class="smallfont">\n                                  <div>Join Date: Jul 21 2004</div>\n                                  <div>Location: La porte, TX</div>\n                                  <div>Age: 37</div>\n                                  <div> Posts: 654 </div>\n                                  Rep Power:\n                                  <span id="reppower_1078286_1749">2673855</span>\n                                  <div>\n                                    <span id="repdisplay_1078286_1749">\n                                      <img border="0" alt="Corey D. has been promoted to Pirate" src="/ttmbforum/images/reputation/reputation_pos.gif" class="inlineimg"></img>\n                                      <img border="0" alt="Corey D. has been promoted to Pirate" src="/ttmbforum/images/reputation/reputation_pos.gif" class="inlineimg"></img>\n                                      <img border="0" alt="Corey D. has been promoted to Pirate" src="/ttmbforum/images/reputation/reputation_pos.gif" class="inlineimg"></img>\n                                      <img border="0" alt="Corey D. has been promoted to Pirate" src="/ttmbforum/images/reputation/reputation_pos.gif" class="inlineimg"></img>\n                                      <img border="0" alt="Corey D. has been promoted to Pirate" src="/ttmbforum/images/reputation/reputation_pos.gif" class="inlineimg"></img>\n                                      <img border="0" alt="Corey D. has been promoted to Pirate" src="/ttmbforum/images/reputation/reputation_highpos.gif" class="inlineimg"></img>\n                                      <img border="0" alt="Corey D. has been promoted to Pirate" src="/ttmbforum/images/reputation/reputation_highpos.gif" class="inlineimg"></img>\n                                      <img border="0" alt="Corey D. has been promoted to Pirate" src="/ttmbforum/images/reputation/reputation_highpos.gif" class="inlineimg"></img>\n                                      <img border="0" alt="Corey D. has been promoted to Pirate" src="/ttmbforum/images/reputation/reputation_highpos.gif" class="inlineimg"></img>\n                                      <img border="0" alt="Corey D. has been promoted to Pirate" src="/ttmbforum/images/reputation/reputation_highpos.gif" class="inlineimg"></img>\n                                      <img border="0" alt="Corey D. has been promoted to Pirate" src="/ttmbforum/images/reputation/reputation_highpos.gif" class="inlineimg"></img>\n                                    </span>\n                                  </div>\n                                  <div> </div>\n                                </div>\n                              </td>\n                            </tr>\n                          </table>\n                        </td>\n                      </tr>\n                      <tr>\n                        <td id="td_post_1078286" class="alt1" rowspan="1" colspan="1">\n                          <div class="smallfont">\n                            <strong>bay tuna</strong>\n                          </div>\n                          <hr style="color:#D1D1E1; background-color:#D1D1E1" size="1"></hr>\n                          <div id="post_message_1078286"> wait until you try one of those yum yum! place on a 2x4 in the bbq pit and cook for 8 to 10 hours at 400degrees and then throw the fish away and eat the 2x4 </div>\n                          <div style="margin-top: 10px" align="right">\n                            <a rel="nofollow" href="newreply.php?s=3566b612221f75a9fb616030732f4e10&amp;do=newreply&amp;p=1078286" shape="rect">\n                              <img border="0" alt="Reply With Quote" src="/ttmbforum/images/buttons/quote.gif"></img>\n                            </a>\n                          </div>\n                        </td>\n                      </tr>\n                    </table>\n                    <div style="display:none;" id="postmenu_1078286_menu" class="vbmenu_popup">\n                      <table border="0" cellspacing="1" cellpadding="4">\n                        <tr>\n                          <td class="thead" rowspan="1" colspan="1">Corey D.</td>\n                        </tr>\n                        <tr>\n                          <td class="vbmenu_option" rowspan="1" colspan="1">\n                            <a href="member.php?s=3566b612221f75a9fb616030732f4e10&amp;u=1749" shape="rect">View Public Profile</a>\n                          </td>\n                        </tr>\n                        <tr>\n                          <td class="vbmenu_option" rowspan="1" colspan="1">\n                            <a rel="nofollow" href="private.php?s=3566b612221f75a9fb616030732f4e10&amp;do=newpm&amp;u=1749" shape="rect">Send a private message to Corey D.</a>\n                          </td>\n                        </tr>\n                        <tr>\n                          <td class="vbmenu_option" rowspan="1" colspan="1">\n                            <a rel="nofollow" href="search.php?s=3566b612221f75a9fb616030732f4e10&amp;do=finduser&amp;u=1749" shape="rect">Find all posts by Corey D.</a>\n                          </td>\n                        </tr>\n                      </table>\n                    </div>\n                  </div>\n                </div>\n              </div>\n            </div>\n            <div align="center">\n              <div style="width:100%; text-align:left" class="page">\n                <div style="padding:0px 25px 0px 25px" align="left">\n                  <div style="padding:0px 0px 6px 0px" id="edit1078289">\n                    <table width="100%" border="0" cellspacing="1" cellpadding="6" id="post1078289" class="tborder" align="center">\n                      <tr>\n                        <td class="thead" rowspan="1" colspan="1">\n                          <div style="float:right" class="normal">\n                            \xc2\xa0\n\t\t\t#\n                            <a name="6" rel="nofollow" target="new" href="showpost.php?s=3566b612221f75a9fb616030732f4e10&amp;p=1078289&amp;postcount=6" id="postcount1078289" shape="rect">\n                              <strong>6</strong>\n                            </a>\n                            \xc2\xa0\n                          </div>\n                          <div class="normal">\n                            <a name="post1078289" shape="rect">\n                              <img border="0" alt="Old" src="/ttmbforum/images/statusicon/post_old.gif" class="inlineimg"></img>\n                            </a>\n                            04-08-2007, 04:45 PM\n                          </div>\n                        </td>\n                      </tr>\n                      <tr>\n                        <td style="padding:0px" class="alt2" rowspan="1" colspan="1">\n                          <table width="100%" border="0" cellspacing="6" cellpadding="0">\n                            <tr>\n                              <td class="alt2" rowspan="1" colspan="1">\n                                <a href="member.php?s=3566b612221f75a9fb616030732f4e10&amp;u=13454" shape="rect">\n                                  <img border="0" alt="mikeyd3\'s Avatar" src="images/avatars/fish23.gif"></img>\n                                </a>\n                              </td>\n                              <td rowspan="1" nowrap="nowrap" colspan="1">\n                                <div id="postmenu_1078289">\n                                  <a href="member.php?s=3566b612221f75a9fb616030732f4e10&amp;u=13454" class="bigusername" shape="rect">\n                                    <b>mikeyd3</b>\n                                  </a>\n                                  <img border="0" alt="mikeyd3 is offline" src="/ttmbforum/images/statusicon/user_offline.gif" class="inlineimg"></img>\n                                  <script type="text/javascript"> vbmenu_register(&quot;postmenu_1078289&quot;, true); </script>\n                                </div>\n                                <div class="smallfont">Always Chasing Tails</div>\n                              </td>\n                              <td width="100%" rowspan="1" colspan="1">\xc2\xa0</td>\n                              <td valign="top" rowspan="1" nowrap="nowrap" colspan="1">\n                                <div class="smallfont">\n                                  <div>Join Date: Mar 19 2006</div>\n                                  <div>Location: Spring, Tx</div>\n                                  <div>Age: 34</div>\n                                  <div> Posts: 203 </div>\n                                  Rep Power:\n                                  <span id="reppower_1078289_13454">2611</span>\n                                  <div>\n                                    <span id="repdisplay_1078289_13454">\n                                      <img border="0" alt="mikeyd3 is a Landlubber (+10 to -10)" src="/ttmbforum/images/reputation/reputation_pos.gif" class="inlineimg"></img>\n                                      <img border="0" alt="mikeyd3 is a Landlubber (+10 to -10)" src="/ttmbforum/images/reputation/reputation_pos.gif" class="inlineimg"></img>\n                                      <img border="0" alt="mikeyd3 is a Landlubber (+10 to -10)" src="/ttmbforum/images/reputation/reputation_pos.gif" class="inlineimg"></img>\n                                      <img border="0" alt="mikeyd3 is a Landlubber (+10 to -10)" src="/ttmbforum/images/reputation/reputation_pos.gif" class="inlineimg"></img>\n                                      <img border="0" alt="mikeyd3 is a Landlubber (+10 to -10)" src="/ttmbforum/images/reputation/reputation_pos.gif" class="inlineimg"></img>\n                                      <img border="0" alt="mikeyd3 is a Landlubber (+10 to -10)" src="/ttmbforum/images/reputation/reputation_highpos.gif" class="inlineimg"></img>\n                                      <img border="0" alt="mikeyd3 is a Landlubber (+10 to -10)" src="/ttmbforum/images/reputation/reputation_highpos.gif" class="inlineimg"></img>\n                                      <img border="0" alt="mikeyd3 is a Landlubber (+10 to -10)" src="/ttmbforum/images/reputation/reputation_highpos.gif" class="inlineimg"></img>\n                                      <img border="0" alt="mikeyd3 is a Landlubber (+10 to -10)" src="/ttmbforum/images/reputation/reputation_highpos.gif" class="inlineimg"></img>\n                                      <img border="0" alt="mikeyd3 is a Landlubber (+10 to -10)" src="/ttmbforum/images/reputation/reputation_highpos.gif" class="inlineimg"></img>\n                                      <img border="0" alt="mikeyd3 is a Landlubber (+10 to -10)" src="/ttmbforum/images/reputation/reputation_highpos.gif" class="inlineimg"></img>\n                                    </span>\n                                  </div>\n                                  <div> </div>\n                                </div>\n                              </td>\n                            </tr>\n                          </table>\n                        </td>\n                      </tr>\n                      <tr>\n                        <td id="td_post_1078289" class="alt1" rowspan="1" colspan="1">\n                          <div class="smallfont">\n                            <img border="0" alt="drum" src="/ttmbforum/images/icons/drum.gif" class="inlineimg"></img>\n                            <strong>Tuna</strong>\n                          </div>\n                          <hr style="color:#D1D1E1; background-color:#D1D1E1" size="1"></hr>\n                          <div id="post_message_1078289"> I am pretty sure it was probably a Jack Crevalle. </div>\n                          <div style="margin-top: 10px" align="right">\n                            <a rel="nofollow" href="newreply.php?s=3566b612221f75a9fb616030732f4e10&amp;do=newreply&amp;p=1078289" shape="rect">\n                              <img border="0" alt="Reply With Quote" src="/ttmbforum/images/buttons/quote.gif"></img>\n                            </a>\n                          </div>\n                        </td>\n                      </tr>\n                    </table>\n                    <div style="display:none;" id="postmenu_1078289_menu" class="vbmenu_popup">\n                      <table border="0" cellspacing="1" cellpadding="4">\n                        <tr>\n                          <td class="thead" rowspan="1" colspan="1">mikeyd3</td>\n                        </tr>\n                        <tr>\n                          <td class="vbmenu_option" rowspan="1" colspan="1">\n                            <a href="member.php?s=3566b612221f75a9fb616030732f4e10&amp;u=13454" shape="rect">View Public Profile</a>\n                          </td>\n                        </tr>\n                        <tr>\n                          <td class="vbmenu_option" rowspan="1" colspan="1">\n                            <a rel="nofollow" href="private.php?s=3566b612221f75a9fb616030732f4e10&amp;do=newpm&amp;u=13454" shape="rect">Send a private message to mikeyd3</a>\n                          </td>\n                        </tr>\n                        <tr>\n                          <td class="vbmenu_option" rowspan="1" colspan="1">\n                            <a rel="nofollow" href="search.php?s=3566b612221f75a9fb616030732f4e10&amp;do=finduser&amp;u=13454" shape="rect">Find all posts by mikeyd3</a>\n                          </td>\n                        </tr>\n                      </table>\n                    </div>\n                  </div>\n                </div>\n              </div>\n            </div>\n            <div align="center">\n              <div style="width:100%; text-align:left" class="page">\n                <div style="padding:0px 25px 0px 25px" align="left">\n                  <div style="padding:0px 0px 6px 0px" id="edit1078290">\n                    <table width="100%" border="0" cellspacing="1" cellpadding="6" id="post1078290" class="tborder" align="center">\n                      <tr>\n                        <td class="thead" rowspan="1" colspan="1">\n                          <div style="float:right" class="normal">\n                            \xc2\xa0\n\t\t\t#\n                            <a name="7" rel="nofollow" target="new" href="showpost.php?s=3566b612221f75a9fb616030732f4e10&amp;p=1078290&amp;postcount=7" id="postcount1078290" shape="rect">\n                              <strong>7</strong>\n                            </a>\n                            \xc2\xa0\n                          </div>\n                          <div class="normal">\n                            <a name="post1078290" shape="rect">\n                              <img border="0" alt="Old" src="/ttmbforum/images/statusicon/post_old.gif" class="inlineimg"></img>\n                            </a>\n                            04-08-2007, 04:46 PM\n                          </div>\n                        </td>\n                      </tr>\n                      <tr>\n                        <td style="padding:0px" class="alt2" rowspan="1" colspan="1">\n                          <table width="100%" border="0" cellspacing="6" cellpadding="0">\n                            <tr>\n                              <td class="alt2" rowspan="1" colspan="1">\n                                <a href="member.php?s=3566b612221f75a9fb616030732f4e10&amp;u=4962" shape="rect">\n                                  <img border="0" alt="4thbreak\'s Avatar" src="image.php?s=3566b612221f75a9fb616030732f4e10&amp;u=4962&amp;dateline=1149995224"></img>\n                                </a>\n                              </td>\n                              <td rowspan="1" nowrap="nowrap" colspan="1">\n                                <div id="postmenu_1078290">\n                                  <a href="member.php?s=3566b612221f75a9fb616030732f4e10&amp;u=4962" class="bigusername" shape="rect">\n                                    <b>4thbreak</b>\n                                  </a>\n                                  <img border="0" alt="4thbreak is offline" src="/ttmbforum/images/statusicon/user_offline.gif" class="inlineimg"></img>\n                                  <script type="text/javascript"> vbmenu_register(&quot;postmenu_1078290&quot;, true); </script>\n                                </div>\n                                <div class="smallfont">In the Surf</div>\n                              </td>\n                              <td width="100%" rowspan="1" colspan="1">\xc2\xa0</td>\n                              <td valign="top" rowspan="1" nowrap="nowrap" colspan="1">\n                                <div class="smallfont">\n                                  <div>Join Date: May 20 2005</div>\n                                  <div>Location: TX</div>\n                                  <div> Posts: 454 </div>\n                                  Rep Power:\n                                  <span id="reppower_1078290_4962">218284</span>\n                                  <div>\n                                    <span id="repdisplay_1078290_4962">\n                                      <img border="0" alt="4thbreak has been promoted to the rank of Privateer" src="/ttmbforum/images/reputation/reputation_pos.gif" class="inlineimg"></img>\n                                      <img border="0" alt="4thbreak has been promoted to the rank of Privateer" src="/ttmbforum/images/reputation/reputation_pos.gif" class="inlineimg"></img>\n                                      <img border="0" alt="4thbreak has been promoted to the rank of Privateer" src="/ttmbforum/images/reputation/reputation_pos.gif" class="inlineimg"></img>\n                                      <img border="0" alt="4thbreak has been promoted to the rank of Privateer" src="/ttmbforum/images/reputation/reputation_pos.gif" class="inlineimg"></img>\n                                      <img border="0" alt="4thbreak has been promoted to the rank of Privateer" src="/ttmbforum/images/reputation/reputation_pos.gif" class="inlineimg"></img>\n                                      <img border="0" alt="4thbreak has been promoted to the rank of Privateer" src="/ttmbforum/images/reputation/reputation_highpos.gif" class="inlineimg"></img>\n                                      <img border="0" alt="4thbreak has been promoted to the rank of Privateer" src="/ttmbforum/images/reputation/reputation_highpos.gif" class="inlineimg"></img>\n                                      <img border="0" alt="4thbreak has been promoted to the rank of Privateer" src="/ttmbforum/images/reputation/reputation_highpos.gif" class="inlineimg"></img>\n                                      <img border="0" alt="4thbreak has been promoted to the rank of Privateer" src="/ttmbforum/images/reputation/reputation_highpos.gif" class="inlineimg"></img>\n                                      <img border="0" alt="4thbreak has been promoted to the rank of Privateer" src="/ttmbforum/images/reputation/reputation_highpos.gif" class="inlineimg"></img>\n                                      <img border="0" alt="4thbreak has been promoted to the rank of Privateer" src="/ttmbforum/images/reputation/reputation_highpos.gif" class="inlineimg"></img>\n                                    </span>\n                                  </div>\n                                  <div> </div>\n                                </div>\n                              </td>\n                            </tr>\n                          </table>\n                        </td>\n                      </tr>\n                      <tr>\n                        <td id="td_post_1078290" class="alt1" rowspan="1" colspan="1">\n                          <div id="post_message_1078290">\n                            <div style="margin:20px; margin-top:5px; ">\n                              <div style="margin-bottom:2px" class="smallfont">Quote:</div>\n                              <table width="100%" border="0" cellspacing="0" cellpadding="6">\n                                <tr>\n                                  <td style="border:1px inset" class="alt2" rowspan="1" colspan="1">\n                                    <div>\n                                      Originally Posted by\n                                      <strong>mikeyd3</strong>\n                                    </div>\n                                    <div style="font-style:italic">I am pretty sure it was probably a Jack Crevalle.</div>\n                                  </td>\n                                </tr>\n                              </table>\n                            </div>\n                            ditto\n                          </div>\n                          <div style="margin-top: 10px" align="right">\n                            <a rel="nofollow" href="newreply.php?s=3566b612221f75a9fb616030732f4e10&amp;do=newreply&amp;p=1078290" shape="rect">\n                              <img border="0" alt="Reply With Quote" src="/ttmbforum/images/buttons/quote.gif"></img>\n                            </a>\n                          </div>\n                        </td>\n                      </tr>\n                    </table>\n                    <div style="display:none;" id="postmenu_1078290_menu" class="vbmenu_popup">\n                      <table border="0" cellspacing="1" cellpadding="4">\n                        <tr>\n                          <td class="thead" rowspan="1" colspan="1">4thbreak</td>\n                        </tr>\n                        <tr>\n                          <td class="vbmenu_option" rowspan="1" colspan="1">\n                            <a href="member.php?s=3566b612221f75a9fb616030732f4e10&amp;u=4962" shape="rect">View Public Profile</a>\n                          </td>\n                        </tr>\n                        <tr>\n                          <td class="vbmenu_option" rowspan="1" colspan="1">\n                            <a rel="nofollow" href="private.php?s=3566b612221f75a9fb616030732f4e10&amp;do=newpm&amp;u=4962" shape="rect">Send a private message to 4thbreak</a>\n                          </td>\n                        </tr>\n                        <tr>\n                          <td class="vbmenu_option" rowspan="1" colspan="1">\n                            <a rel="nofollow" href="search.php?s=3566b612221f75a9fb616030732f4e10&amp;do=finduser&amp;u=4962" shape="rect">Find all posts by 4thbreak</a>\n                          </td>\n                        </tr>\n                      </table>\n                    </div>\n                  </div>\n                </div>\n              </div>\n            </div>\n            <div align="center">\n              <div style="width:100%; text-align:left" class="page">\n                <div style="padding:0px 25px 0px 25px" align="left">\n                  <div style="padding:0px 0px 6px 0px" id="edit1078295">\n                    <table width="100%" border="0" cellspacing="1" cellpadding="6" id="post1078295" class="tborder" align="center">\n                      <tr>\n                        <td class="thead" rowspan="1" colspan="1">\n                          <div style="float:right" class="normal">\n                            \xc2\xa0\n\t\t\t#\n                            <a name="8" rel="nofollow" target="new" href="showpost.php?s=3566b612221f75a9fb616030732f4e10&amp;p=1078295&amp;postcount=8" id="postcount1078295" shape="rect">\n                              <strong>8</strong>\n                            </a>\n                            \xc2\xa0\n                          </div>\n                          <div class="normal">\n                            <a name="post1078295" shape="rect">\n                              <img border="0" alt="Old" src="/ttmbforum/images/statusicon/post_old.gif" class="inlineimg"></img>\n                            </a>\n                            04-08-2007, 04:53 PM\n                          </div>\n                        </td>\n                      </tr>\n                      <tr>\n                        <td style="padding:0px" class="alt2" rowspan="1" colspan="1">\n                          <table width="100%" border="0" cellspacing="6" cellpadding="0">\n                            <tr>\n                              <td class="alt2" rowspan="1" colspan="1">\n                                <a href="member.php?s=3566b612221f75a9fb616030732f4e10&amp;u=19983" shape="rect">\n                                  <img border="0" alt="Mojo281\'s Avatar" height="100" width="89" src="image.php?s=3566b612221f75a9fb616030732f4e10&amp;u=19983&amp;dateline=1344274022"></img>\n                                </a>\n                              </td>\n                              <td rowspan="1" nowrap="nowrap" colspan="1">\n                                <div id="postmenu_1078295">\n                                  <a href="member.php?s=3566b612221f75a9fb616030732f4e10&amp;u=19983" class="bigusername" shape="rect">\n                                    <b>Mojo281</b>\n                                  </a>\n                                  <img border="0" alt="Mojo281 is offline" src="/ttmbforum/images/statusicon/user_offline.gif" class="inlineimg"></img>\n                                  <script type="text/javascript"> vbmenu_register(&quot;postmenu_1078295&quot;, true); </script>\n                                </div>\n                                <div class="smallfont">The Migration Stops Here</div>\n                              </td>\n                              <td width="100%" rowspan="1" colspan="1">\xc2\xa0</td>\n                              <td valign="top" rowspan="1" nowrap="nowrap" colspan="1">\n                                <div class="smallfont">\n                                  <div>Join Date: Sep 07 2006</div>\n                                  <div>Location: SE Texas</div>\n                                  <div> Posts: 1,324 </div>\n                                  Rep Power:\n                                  <span id="reppower_1078295_19983">8180317</span>\n                                  <div>\n                                    <span id="repdisplay_1078295_19983">\n                                      <img border="0" alt="Mojo281 has been promoted to Pirate" src="/ttmbforum/images/reputation/reputation_pos.gif" class="inlineimg"></img>\n                                      <img border="0" alt="Mojo281 has been promoted to Pirate" src="/ttmbforum/images/reputation/reputation_pos.gif" class="inlineimg"></img>\n                                      <img border="0" alt="Mojo281 has been promoted to Pirate" src="/ttmbforum/images/reputation/reputation_pos.gif" class="inlineimg"></img>\n                                      <img border="0" alt="Mojo281 has been promoted to Pirate" src="/ttmbforum/images/reputation/reputation_pos.gif" class="inlineimg"></img>\n                                      <img border="0" alt="Mojo281 has been promoted to Pirate" src="/ttmbforum/images/reputation/reputation_pos.gif" class="inlineimg"></img>\n                                      <img border="0" alt="Mojo281 has been promoted to Pirate" src="/ttmbforum/images/reputation/reputation_highpos.gif" class="inlineimg"></img>\n                                      <img border="0" alt="Mojo281 has been promoted to Pirate" src="/ttmbforum/images/reputation/reputation_highpos.gif" class="inlineimg"></img>\n                                      <img border="0" alt="Mojo281 has been promoted to Pirate" src="/ttmbforum/images/reputation/reputation_highpos.gif" class="inlineimg"></img>\n                                      <img border="0" alt="Mojo281 has been promoted to Pirate" src="/ttmbforum/images/reputation/reputation_highpos.gif" class="inlineimg"></img>\n                                      <img border="0" alt="Mojo281 has been promoted to Pirate" src="/ttmbforum/images/reputation/reputation_highpos.gif" class="inlineimg"></img>\n                                      <img border="0" alt="Mojo281 has been promoted to Pirate" src="/ttmbforum/images/reputation/reputation_highpos.gif" class="inlineimg"></img>\n                                    </span>\n                                  </div>\n                                  <div> </div>\n                                </div>\n                              </td>\n                            </tr>\n                          </table>\n                        </td>\n                      </tr>\n                      <tr>\n                        <td id="td_post_1078295" class="alt1" rowspan="1" colspan="1">\n                          <div id="post_message_1078295">\n                            More than likely a Jack, but maybe he\'s right.\n                            <br clear="none"></br>\n                            <br clear="none"></br>\n                            Hey Aglaw, which fish did it look like?\n                            <br clear="none"></br>\n                            <br clear="none"></br>\n                            <img alt="" border="0" src="http://abouttitusville.com/outdoors/fishing/images/crevallej.jpg"></img>\n                            <br clear="none"></br>\n                            <br clear="none"></br>\n                            <img alt="" border="0" src="http://www.hawaii.gov/dbedt/seafood/yellowfin1.gif"></img>\n                          </div>\n                          <div class="smallfont">\n                            <hr style="color:#D1D1E1; background-color:#D1D1E1" size="1"></hr>\n                            <em>\n                              Last edited by Mojo281; 04-08-2007 at\n                              <span class="time">05:14 PM</span>\n                              .\n                            </em>\n                          </div>\n                          <div style="margin-top: 10px" align="right">\n                            <a rel="nofollow" href="newreply.php?s=3566b612221f75a9fb616030732f4e10&amp;do=newreply&amp;p=1078295" shape="rect">\n                              <img border="0" alt="Reply With Quote" src="/ttmbforum/images/buttons/quote.gif"></img>\n                            </a>\n                          </div>\n                        </td>\n                      </tr>\n                    </table>\n                    <div style="display:none;" id="postmenu_1078295_menu" class="vbmenu_popup">\n                      <table border="0" cellspacing="1" cellpadding="4">\n                        <tr>\n                          <td class="thead" rowspan="1" colspan="1">Mojo281</td>\n                        </tr>\n                        <tr>\n                          <td class="vbmenu_option" rowspan="1" colspan="1">\n                            <a href="member.php?s=3566b612221f75a9fb616030732f4e10&amp;u=19983" shape="rect">View Public Profile</a>\n                          </td>\n                        </tr>\n                        <tr>\n                          <td class="vbmenu_option" rowspan="1" colspan="1">\n                            <a rel="nofollow" href="private.php?s=3566b612221f75a9fb616030732f4e10&amp;do=newpm&amp;u=19983" shape="rect">Send a private message to Mojo281</a>\n                          </td>\n                        </tr>\n                        <tr>\n                          <td class="vbmenu_option" rowspan="1" colspan="1">\n                            <a rel="nofollow" href="search.php?s=3566b612221f75a9fb616030732f4e10&amp;do=finduser&amp;u=19983" shape="rect">Find all posts by Mojo281</a>\n                          </td>\n                        </tr>\n                      </table>\n                    </div>\n                  </div>\n                </div>\n              </div>\n            </div>\n            <div align="center">\n              <div style="width:100%; text-align:left" class="page">\n                <div style="padding:0px 25px 0px 25px" align="left">\n                  <div style="padding:0px 0px 6px 0px" id="edit1078305">\n                    <table width="100%" border="0" cellspacing="1" cellpadding="6" id="post1078305" class="tborder" align="center">\n                      <tr>\n                        <td class="thead" rowspan="1" colspan="1">\n                          <div style="float:right" class="normal">\n                            \xc2\xa0\n\t\t\t#\n                            <a name="9" rel="nofollow" target="new" href="showpost.php?s=3566b612221f75a9fb616030732f4e10&amp;p=1078305&amp;postcount=9" id="postcount1078305" shape="rect">\n                              <strong>9</strong>\n                            </a>\n                            \xc2\xa0\n                          </div>\n                          <div class="normal">\n                            <a name="post1078305" shape="rect">\n                              <img border="0" alt="Old" src="/ttmbforum/images/statusicon/post_old.gif" class="inlineimg"></img>\n                            </a>\n                            04-08-2007, 05:10 PM\n                          </div>\n                        </td>\n                      </tr>\n                      <tr>\n                        <td style="padding:0px" class="alt2" rowspan="1" colspan="1">\n                          <table width="100%" border="0" cellspacing="6" cellpadding="0">\n                            <tr>\n                              <td class="alt2" rowspan="1" colspan="1">\n                                <a href="member.php?s=3566b612221f75a9fb616030732f4e10&amp;u=6570" shape="rect">\n                                  <img border="0" alt="cabolew\'s Avatar" src="image.php?s=3566b612221f75a9fb616030732f4e10&amp;u=6570&amp;dateline=1151631655"></img>\n                                </a>\n                              </td>\n                              <td rowspan="1" nowrap="nowrap" colspan="1">\n                                <div id="postmenu_1078305">\n                                  <a href="member.php?s=3566b612221f75a9fb616030732f4e10&amp;u=6570" class="bigusername" shape="rect">\n                                    <b>cabolew</b>\n                                  </a>\n                                  <img border="0" alt="cabolew is offline" src="/ttmbforum/images/statusicon/user_offline.gif" class="inlineimg"></img>\n                                  <script type="text/javascript"> vbmenu_register(&quot;postmenu_1078305&quot;, true); </script>\n                                </div>\n                                <div class="smallfont">Team Strike Pro - Team Sea Magic</div>\n                              </td>\n                              <td width="100%" rowspan="1" colspan="1">\xc2\xa0</td>\n                              <td valign="top" rowspan="1" nowrap="nowrap" colspan="1">\n                                <div class="smallfont">\n                                  <div>Join Date: Aug 12 2005</div>\n                                  <div>Location: Not close enough to the beach</div>\n                                  <div>Age: 44</div>\n                                  <div> Posts: 1,235 </div>\n                                  Rep Power:\n                                  <span id="reppower_1078305_6570">4352912</span>\n                                  <div>\n                                    <span id="repdisplay_1078305_6570">\n                                      <img border="0" alt="cabolew has been promoted to Pirate" src="/ttmbforum/images/reputation/reputation_pos.gif" class="inlineimg"></img>\n                                      <img border="0" alt="cabolew has been promoted to Pirate" src="/ttmbforum/images/reputation/reputation_pos.gif" class="inlineimg"></img>\n                                      <img border="0" alt="cabolew has been promoted to Pirate" src="/ttmbforum/images/reputation/reputation_pos.gif" class="inlineimg"></img>\n                                      <img border="0" alt="cabolew has been promoted to Pirate" src="/ttmbforum/images/reputation/reputation_pos.gif" class="inlineimg"></img>\n                                      <img border="0" alt="cabolew has been promoted to Pirate" src="/ttmbforum/images/reputation/reputation_pos.gif" class="inlineimg"></img>\n                                      <img border="0" alt="cabolew has been promoted to Pirate" src="/ttmbforum/images/reputation/reputation_highpos.gif" class="inlineimg"></img>\n                                      <img border="0" alt="cabolew has been promoted to Pirate" src="/ttmbforum/images/reputation/reputation_highpos.gif" class="inlineimg"></img>\n                                      <img border="0" alt="cabolew has been promoted to Pirate" src="/ttmbforum/images/reputation/reputation_highpos.gif" class="inlineimg"></img>\n                                      <img border="0" alt="cabolew has been promoted to Pirate" src="/ttmbforum/images/reputation/reputation_highpos.gif" class="inlineimg"></img>\n                                      <img border="0" alt="cabolew has been promoted to Pirate" src="/ttmbforum/images/reputation/reputation_highpos.gif" class="inlineimg"></img>\n                                      <img border="0" alt="cabolew has been promoted to Pirate" src="/ttmbforum/images/reputation/reputation_highpos.gif" class="inlineimg"></img>\n                                    </span>\n                                  </div>\n                                  <div> </div>\n                                </div>\n                              </td>\n                            </tr>\n                          </table>\n                        </td>\n                      </tr>\n                      <tr>\n                        <td id="td_post_1078305" class="alt1" rowspan="1" colspan="1">\n                          <div id="post_message_1078305"> aglaw... please tell everyone that your pulling their leg. lol </div>\n                          <div style="margin-top: 10px" align="right">\n                            <a rel="nofollow" href="newreply.php?s=3566b612221f75a9fb616030732f4e10&amp;do=newreply&amp;p=1078305" shape="rect">\n                              <img border="0" alt="Reply With Quote" src="/ttmbforum/images/buttons/quote.gif"></img>\n                            </a>\n                          </div>\n                        </td>\n                      </tr>\n                    </table>\n                    <div style="display:none;" id="postmenu_1078305_menu" class="vbmenu_popup">\n                      <table border="0" cellspacing="1" cellpadding="4">\n                        <tr>\n                          <td class="thead" rowspan="1" colspan="1">cabolew</td>\n                        </tr>\n                        <tr>\n                          <td class="vbmenu_option" rowspan="1" colspan="1">\n                            <a href="member.php?s=3566b612221f75a9fb616030732f4e10&amp;u=6570" shape="rect">View Public Profile</a>\n                          </td>\n                        </tr>\n                        <tr>\n                          <td class="vbmenu_option" rowspan="1" colspan="1">\n                            <a rel="nofollow" href="private.php?s=3566b612221f75a9fb616030732f4e10&amp;do=newpm&amp;u=6570" shape="rect">Send a private message to cabolew</a>\n                          </td>\n                        </tr>\n                        <tr>\n                          <td class="vbmenu_option" rowspan="1" colspan="1">\n                            <a rel="nofollow" href="search.php?s=3566b612221f75a9fb616030732f4e10&amp;do=finduser&amp;u=6570" shape="rect">Find all posts by cabolew</a>\n                          </td>\n                        </tr>\n                      </table>\n                    </div>\n                  </div>\n                </div>\n              </div>\n            </div>\n            <div align="center">\n              <div style="width:100%; text-align:left" class="page">\n                <div style="padding:0px 25px 0px 25px" align="left">\n                  <div style="padding:0px 0px 6px 0px" id="edit1078309">\n                    <table width="100%" border="0" cellspacing="1" cellpadding="6" id="post1078309" class="tborder" align="center">\n                      <tr>\n                        <td class="thead" rowspan="1" colspan="1">\n                          <div style="float:right" class="normal">\n                            \xc2\xa0\n\t\t\t#\n                            <a name="10" rel="nofollow" target="new" href="showpost.php?s=3566b612221f75a9fb616030732f4e10&amp;p=1078309&amp;postcount=10" id="postcount1078309" shape="rect">\n                              <strong>10</strong>\n                            </a>\n                            \xc2\xa0\n                          </div>\n                          <div class="normal">\n                            <a name="post1078309" shape="rect">\n                              <img border="0" alt="Old" src="/ttmbforum/images/statusicon/post_old.gif" class="inlineimg"></img>\n                            </a>\n                            04-08-2007, 05:14 PM\n                          </div>\n                        </td>\n                      </tr>\n                      <tr>\n                        <td style="padding:0px" class="alt2" rowspan="1" colspan="1">\n                          <table width="100%" border="0" cellspacing="6" cellpadding="0">\n                            <tr>\n                              <td class="alt2" rowspan="1" colspan="1">\n                                <a href="member.php?s=3566b612221f75a9fb616030732f4e10&amp;u=6570" shape="rect">\n                                  <img border="0" alt="cabolew\'s Avatar" src="image.php?s=3566b612221f75a9fb616030732f4e10&amp;u=6570&amp;dateline=1151631655"></img>\n                                </a>\n                              </td>\n                              <td rowspan="1" nowrap="nowrap" colspan="1">\n                                <div id="postmenu_1078309">\n                                  <a href="member.php?s=3566b612221f75a9fb616030732f4e10&amp;u=6570" class="bigusername" shape="rect">\n                                    <b>cabolew</b>\n                                  </a>\n                                  <img border="0" alt="cabolew is offline" src="/ttmbforum/images/statusicon/user_offline.gif" class="inlineimg"></img>\n                                  <script type="text/javascript"> vbmenu_register(&quot;postmenu_1078309&quot;, true); </script>\n                                </div>\n                                <div class="smallfont">Team Strike Pro - Team Sea Magic</div>\n                              </td>\n                              <td width="100%" rowspan="1" colspan="1">\xc2\xa0</td>\n                              <td valign="top" rowspan="1" nowrap="nowrap" colspan="1">\n                                <div class="smallfont">\n                                  <div>Join Date: Aug 12 2005</div>\n                                  <div>Location: Not close enough to the beach</div>\n                                  <div>Age: 44</div>\n                                  <div> Posts: 1,235 </div>\n                                  Rep Power:\n                                  <span id="reppower_1078309_6570">4352912</span>\n                                  <div>\n                                    <span id="repdisplay_1078309_6570">\n                                      <img border="0" alt="cabolew has been promoted to Pirate" src="/ttmbforum/images/reputation/reputation_pos.gif" class="inlineimg"></img>\n                                      <img border="0" alt="cabolew has been promoted to Pirate" src="/ttmbforum/images/reputation/reputation_pos.gif" class="inlineimg"></img>\n                                      <img border="0" alt="cabolew has been promoted to Pirate" src="/ttmbforum/images/reputation/reputation_pos.gif" class="inlineimg"></img>\n                                      <img border="0" alt="cabolew has been promoted to Pirate" src="/ttmbforum/images/reputation/reputation_pos.gif" class="inlineimg"></img>\n                                      <img border="0" alt="cabolew has been promoted to Pirate" src="/ttmbforum/images/reputation/reputation_pos.gif" class="inlineimg"></img>\n                                      <img border="0" alt="cabolew has been promoted to Pirate" src="/ttmbforum/images/reputation/reputation_highpos.gif" class="inlineimg"></img>\n                                      <img border="0" alt="cabolew has been promoted to Pirate" src="/ttmbforum/images/reputation/reputation_highpos.gif" class="inlineimg"></img>\n                                      <img border="0" alt="cabolew has been promoted to Pirate" src="/ttmbforum/images/reputation/reputation_highpos.gif" class="inlineimg"></img>\n                                      <img border="0" alt="cabolew has been promoted to Pirate" src="/ttmbforum/images/reputation/reputation_highpos.gif" class="inlineimg"></img>\n                                      <img border="0" alt="cabolew has been promoted to Pirate" src="/ttmbforum/images/reputation/reputation_highpos.gif" class="inlineimg"></img>\n                                      <img border="0" alt="cabolew has been promoted to Pirate" src="/ttmbforum/images/reputation/reputation_highpos.gif" class="inlineimg"></img>\n                                    </span>\n                                  </div>\n                                  <div> </div>\n                                </div>\n                              </td>\n                            </tr>\n                          </table>\n                        </td>\n                      </tr>\n                      <tr>\n                        <td id="td_post_1078309" class="alt1" rowspan="1" colspan="1">\n                          <div class="smallfont">\n                            <strong>Wikipedia:</strong>\n                          </div>\n                          <hr style="color:#D1D1E1; background-color:#D1D1E1" size="1"></hr>\n                          <div id="post_message_1078309">\n                            <b>Crevalle jack</b>\n                            <br clear="none"></br>\n                            <br clear="none"></br>\n                            <b>From Wikipedia, the free encyclopedia</b>\n                            <br clear="none"></br>\n                            <br clear="none"></br>\n                            <br clear="none"></br>\n                            Jump to:\n                            <a target="_blank" href="http://en.wikipedia.org/wiki/Crevalle_jack#column-one" shape="rect">\n                              <font color="#0000ff">navigation</font>\n                            </a>\n                            ,\n                            <a target="_blank" href="http://en.wikipedia.org/wiki/Crevalle_jack#searchInput" shape="rect">\n                              <font color="#0000ff">search</font>\n                            </a>\n                            <br clear="none"></br>\n                            <font color="#0000ff">\n                              <img alt="" border="0" src="http://upload.wikimedia.org/wikipedia/commons/7/75/Information-silk.png"></img>\n                            </font>\n                            <br clear="none"></br>\n                            <b>Crevalle jack</b>\n                            <a target="_blank" href="http://en.wikipedia.org/wiki/Image:Crevalle_jack.jpg" shape="rect">\n                              <img alt="" border="0" src="http://upload.wikimedia.org/wikipedia/en/thumb/c/c8/Crevalle_jack.jpg/250px-Crevalle_jack.jpg"></img>\n                            </a>\n                            <br clear="none"></br>\n                            <b>\n                              <a target="_blank" href="http://en.wikipedia.org/wiki/Scientific_classification" shape="rect">\n                                <font color="#0000ff">Scientific classification</font>\n                              </a>\n                            </b>\n                            Kingdom:\n                            <a target="_blank" href="http://en.wikipedia.org/wiki/Animal" shape="rect">\n                              <font color="#0000ff">Animalia</font>\n                            </a>\n                            <br clear="none"></br>\n                            Phylum:\n                            <a target="_blank" href="http://en.wikipedia.org/wiki/Chordata" shape="rect">\n                              <font color="#0000ff">Chordata</font>\n                            </a>\n                            <br clear="none"></br>\n                            Class:\n                            <a target="_blank" href="http://en.wikipedia.org/wiki/Actinopterygii" shape="rect">\n                              <font color="#0000ff">Actinopterygii</font>\n                            </a>\n                            <br clear="none"></br>\n                            Order:\n                            <a target="_blank" href="http://en.wikipedia.org/wiki/Perciformes" shape="rect">\n                              <font color="#0000ff">Perciformes</font>\n                            </a>\n                            <br clear="none"></br>\n                            Family:\n                            <a target="_blank" href="http://en.wikipedia.org/wiki/Carangidae" shape="rect">\n                              <font color="#0000ff">Carangidae</font>\n                            </a>\n                            <br clear="none"></br>\n                            Genus:\n                            <i>\n                              <b>\n                                <a target="_blank" href="http://en.wikipedia.org/w/index.php?title=Caranx&amp;action=edit" shape="rect">\n                                  <font color="#0000ff">Caranx</font>\n                                </a>\n                              </b>\n                            </i>\n                            <br clear="none"></br>\n                            Species:\n                            <i>\n                              <b>C. hippos</b>\n                            </i>\n                            <br clear="none"></br>\n                            <a target="_blank" href="http://en.wikipedia.org/wiki/Binomial_nomenclature" shape="rect">\n                              <font color="#0000ff">Binomial name</font>\n                            </a>\n                            <i>\n                              <b>Caranx hippos</b>\n                            </i>\n                            <br clear="none"></br>\n                            <font size="2">(</font>\n                            <a target="_blank" href="http://en.wikipedia.org/wiki/Carolus_Linnaeus" shape="rect">\n                              <font size="2">\n                                <font color="#0000ff">Linnaeus</font>\n                              </font>\n                            </a>\n                            <font size="2">, </font>\n                            <a target="_blank" href="http://en.wikipedia.org/wiki/1766" shape="rect">\n                              <font size="2">\n                                <font color="#0000ff">1766</font>\n                              </font>\n                            </a>\n                            <font size="2">)</font>\n                            <b>Crevalle jack</b>\n                            ,\n                            <i>Caranx hippos</i>\n                            , is a fast, saltwater fish that can be found in inland waters along the shoreline of the western\n                            <a target="_blank" href="http://en.wikipedia.org/wiki/Atlantic_Ocean" shape="rect">\n                              <font color="#0000ff">Atlantic Ocean</font>\n                            </a>\n                            from\n                            <a target="_blank" href="http://en.wikipedia.org/wiki/Nova_Scotia" shape="rect">\n                              <font color="#0000ff">Nova Scotia</font>\n                            </a>\n                            to\n                            <a target="_blank" href="http://en.wikipedia.org/wiki/Uruguay" shape="rect">\n                              <font color="#0000ff">Uruguay</font>\n                            </a>\n                            and the eastern Atlantic from\n                            <a target="_blank" href="http://en.wikipedia.org/wiki/Portugal" shape="rect">\n                              <font color="#0000ff">Portugal</font>\n                            </a>\n                            to\n                            <a target="_blank" href="http://en.wikipedia.org/wiki/Angola" shape="rect">\n                              <font color="#0000ff">Angola</font>\n                            </a>\n                            . It has a large rounded head with large eyes and a dark silvery body that can show hints of blue-green to green-gold. They grow to more than three feet in length, though more commonly they are between one and two and a half feet long. The fish usually weighs between three and five pounds, but a 51 pound Crevalle Jack was taken off the coast of\n                            <a target="_blank" href="http://en.wikipedia.org/wiki/Florida" shape="rect">\n                              <font color="#0000ff">Florida</font>\n                            </a>\n                            . Crevalle jacks can be poisonous to eat due to the threat of\n                            <a target="_blank" href="http://en.wikipedia.org/wiki/Ciguatera" shape="rect">\n                              <font color="#0000ff">ciguatera</font>\n                            </a>\n                            poisoning, but they are prized as a game fish.\n                            <br clear="none"></br>\n                            <br clear="none"></br>\n                            <a target="_blank" href="http://en.wikipedia.org/wiki/Image:Crevalle_jack2.jpg" shape="rect">\n                              <img alt="" border="0" src="http://upload.wikimedia.org/wikipedia/en/thumb/e/e2/Crevalle_jack2.jpg/240px-Crevalle_jack2.jpg"></img>\n                            </a>\n                            <a target="_blank" href="http://en.wikipedia.org/wiki/Image:Crevalle_jack2.jpg" shape="rect">\n                              <img alt="" border="0" src="http://en.wikipedia.org/skins-1.5/common/images/magnify-clip.png"></img>\n                            </a>\n                            <br clear="none"></br>\n                            Crevalle jacks in a reef in the Caribbean Sea.\n                            <br clear="none"></br>\n                            <br clear="none"></br>\n                            <br clear="none"></br>\n                            Crevalle jacks spawn offshore from early March to early September. When young, they run in large schools, but become solitary as they get older. They are preyed upon by many surface feeding carnivores, including\n                            <a target="_blank" href="http://en.wikipedia.org/w/index.php?title=Finfish&amp;action=edit" shape="rect">\n                              <font color="#0000ff">finfish</font>\n                            </a>\n                            , such as the\n                            <a target="_blank" href="http://en.wikipedia.org/wiki/Striped_marlin" shape="rect">\n                              <font color="#0000ff">striped marlin</font>\n                            </a>\n                            , and seabirds. Crevalle jacks feed during the day and eat a variety of fish and\n                            <a target="_blank" href="http://en.wikipedia.org/wiki/Invertebrates" shape="rect">\n                              <font color="#0000ff">invertebrates</font>\n                            </a>\n                            . Other common names for\n                            <i>Caranx hippos</i>\n                            include common jack, blacktailed trevally, cabalo, green jack, horse mackerel, horse-eye jack, kingfish, and trevally.\n                            <br clear="none"></br>\n                            <br clear="none"></br>\n                            <b>\n                              [\n                              <a target="_blank" href="http://en.wikipedia.org/w/index.php?title=Crevalle_jack&amp;action=edit&amp;section=1" shape="rect">\n                                <font color="#810081">edit</font>\n                              </a>\n                              ] References\n                            </b>\n                            <br clear="none"></br>\n                            <ul>\n                              <li>\n                                <a target="_blank" href="http://www.fishbase.org/Summary/SpeciesSummary.cfm?genusname=Caranx&amp;speciesname=hippos" shape="rect">\n                                  <font color="#0000ff">\n                                    &quot;\n                                    <i>Caranx hippos</i>\n                                    &quot;\n                                  </font>\n                                </a>\n                                .\n                                <i>\n                                  <a target="_blank" href="http://en.wikipedia.org/wiki/FishBase" shape="rect">\n                                    <font color="#0000ff">FishBase</font>\n                                  </a>\n                                  .\n                                </i>\n                                Ed. Ranier Froese and Daniel Pauly. 06 2006 version. N.p.: FishBase, 2006.\n                              </li>\n                              <li>\n                                <a target="_blank" href="http://www.itis.gov/servlet/SingleRpt/SingleRpt?search_topic=TSN&amp;search_value=168609" shape="rect">\n                                  <font color="#0000ff">Caranx hippos (TSN 168609)</font>\n                                </a>\n                                .\n                                <a target="_blank" href="http://en.wikipedia.org/wiki/Integrated_Taxonomic_Information_System" shape="rect">\n                                  <font color="#0000ff">Integrated Taxonomic Information System</font>\n                                </a>\n                                . Accessed on\n                                <a target="_blank" href="http://en.wikipedia.org/wiki/June_13" shape="rect">\n                                  <font color="#0000ff">13 June</font>\n                                </a>\n                                <a target="_blank" href="http://en.wikipedia.org/wiki/2006" shape="rect">\n                                  <font color="#0000ff">2006</font>\n                                </a>\n                                .\n                              </li>\n                            </ul>\n                            <font size="6">\n                              <font color="red">This fish is also known as the Galveston Jetty Yellow Fin Tuna.</font>\n                            </font>\n                            <br clear="none"></br>\n                            <br clear="none"></br>\n                            <br clear="none"></br>\n                            <br clear="none"></br>\n                            <b>\n                              [\n                              <a target="_blank" href="http://en.wikipedia.org/w/index.php?title=Crevalle_jack&amp;action=edit&amp;section=2" shape="rect">\n                                <font color="#0000ff">edit</font>\n                              </a>\n                              ] External links\n                            </b>\n                            <br clear="none"></br>\n                            <ul>\n                              <li>\n                                <a target="_blank" href="http://www.flmnh.ufl.edu/fish/Gallery/Descript/CrevalleJack/CrevalleJack.html" shape="rect">\n                                  <font color="#0000ff">Flordia Museum of Natural History Ichthyology Department biological profile</font>\n                                </a>\n                              </li>\n                              <li>\n                                <a target="_blank" href="http://www.enature.com/fieldguides/detail.asp?allSpecies=y&amp;searchText=jack&amp;curGroupID=3&amp;lgfromWhere=&amp;curPageNum=2" shape="rect">\n                                  <font color="#810081">eNature field guide entry</font>\n                                </a>\n                              </li>\n                              <li>\n                                <a target="_blank" href="http://www.tpwd.state.tx.us/huntwild/wild/species/crjack/" shape="rect">\n                                  <font color="#810081">Texas Parks and Wildlife fact sheet</font>\n                                </a>\n                              </li>\n                            </ul>\n                            Retrieved from &quot;\n                            <a target="_blank" href="http://en.wikipedia.org/wiki/Crevalle_jack" shape="rect">\n                              <font color="#810081">http://en.wikipedia.org/wiki/Crevalle_jack</font>\n                            </a>\n                            &quot;\n                          </div>\n                          <div style="margin-top: 10px" align="right">\n                            <a rel="nofollow" href="newreply.php?s=3566b612221f75a9fb616030732f4e10&amp;do=newreply&amp;p=1078309" shape="rect">\n                              <img border="0" alt="Reply With Quote" src="/ttmbforum/images/buttons/quote.gif"></img>\n                            </a>\n                          </div>\n                        </td>\n                      </tr>\n                    </table>\n                    <div style="display:none;" id="postmenu_1078309_menu" class="vbmenu_popup">\n                      <table border="0" cellspacing="1" cellpadding="4">\n                        <tr>\n                          <td class="thead" rowspan="1" colspan="1">cabolew</td>\n                        </tr>\n                        <tr>\n                          <td class="vbmenu_option" rowspan="1" colspan="1">\n                            <a href="member.php?s=3566b612221f75a9fb616030732f4e10&amp;u=6570" shape="rect">View Public Profile</a>\n                          </td>\n                        </tr>\n                        <tr>\n                          <td class="vbmenu_option" rowspan="1" colspan="1">\n                            <a rel="nofollow" href="private.php?s=3566b612221f75a9fb616030732f4e10&amp;do=newpm&amp;u=6570" shape="rect">Send a private message to cabolew</a>\n                          </td>\n                        </tr>\n                        <tr>\n                          <td class="vbmenu_option" rowspan="1" colspan="1">\n                            <a rel="nofollow" href="search.php?s=3566b612221f75a9fb616030732f4e10&amp;do=finduser&amp;u=6570" shape="rect">Find all posts by cabolew</a>\n                          </td>\n                        </tr>\n                      </table>\n                    </div>\n                  </div>\n                </div>\n              </div>\n            </div>\n            <div id="lastpost"></div>\n          </div>\n          <div align="center">\n            <div style="width:100%; text-align:left" class="page">\n              <div style="padding:0px 25px 0px 25px" align="left">\n                <table style="margin-top:-3px" width="100%" border="0" cellspacing="0" cellpadding="0">\n                  <tr valign="top">\n                    <td class="smallfont" rowspan="1" colspan="1">\n                      <a rel="nofollow" href="newreply.php?s=3566b612221f75a9fb616030732f4e10&amp;do=newreply&amp;noquote=1&amp;p=1078309" shape="rect">\n                        <img border="0" alt="Reply" src="/ttmbforum/images/buttons/reply.gif"></img>\n                      </a>\n                    </td>\n                    <td rowspan="1" colspan="1" align="right">\n                      <div class="pagenav" align="right">\n                        <table border="0" cellspacing="1" cellpadding="3" class="tborder">\n                          <tr>\n                            <td style="font-weight:normal" class="vbmenu_control" rowspan="1" colspan="1">Page 1 of 4</td>\n                            <td class="alt2" rowspan="1" colspan="1">\n                              <span title="Showing results 1 to 10 of 34" class="smallfont">\n                                <strong>1</strong>\n                              </span>\n                            </td>\n                            <td class="alt1" rowspan="1" colspan="1">\n                              <a title="Show results 11 to 20 of 34" href="showthread.php?s=3566b612221f75a9fb616030732f4e10&amp;t=114339&amp;page=2" class="smallfont" shape="rect">2</a>\n                            </td>\n                            <td class="alt1" rowspan="1" colspan="1">\n                              <a title="Show results 21 to 30 of 34" href="showthread.php?s=3566b612221f75a9fb616030732f4e10&amp;t=114339&amp;page=3" class="smallfont" shape="rect">3</a>\n                            </td>\n                            <td class="alt1" rowspan="1" colspan="1">\n                              <a title="Show results 31 to 34 of 34" href="showthread.php?s=3566b612221f75a9fb616030732f4e10&amp;t=114339&amp;page=4" class="smallfont" shape="rect">4</a>\n                            </td>\n                            <td class="alt1" rowspan="1" colspan="1">\n                              <a title="Next Page - Results 11 to 20 of 34" href="showthread.php?s=3566b612221f75a9fb616030732f4e10&amp;t=114339&amp;page=2" rel="next" class="smallfont" shape="rect">&gt;</a>\n                            </td>\n                          </tr>\n                        </table>\n                      </div>\n                    </td>\n                  </tr>\n                </table>\n                <br clear="none"></br>\n                <table width="100%" border="0" cellspacing="1" cellpadding="6" class="tborder" align="center">\n                  <tr>\n                    <td class="thead" rowspan="1" colspan="1">Bookmarks</td>\n                  </tr>\n                  <tr>\n                    <td style="padding-top:0px" class="alt2" rowspan="1" colspan="1">\n                      <div style="clear:both"></div>\n                      <ul style="list-style-type:none; margin:0px; padding:0px">\n                        <li style="width:25%; min-width:160px; float:left; margin-top:6px" class="smallfont">\n                          <a target="socialbookmark" href="http://digg.com/submit?phrase=2&amp;url=http%3A%2F%2F2coolfishing.com%2Fttmbforum%2Fshowthread.php%3Ft%3D114339&amp;title=Galveston+Jetties+on+Good+Friday" shape="rect">\n                            <img alt="Submit Thread to Digg" border="0" src="/ttmbforum/images/misc/bookmarksite_digg.gif" class="inlineimg"></img>\n                          </a>\n                          <a style="text-decoration:none" target="socialbookmark" href="http://digg.com/submit?phrase=2&amp;url=http%3A%2F%2F2coolfishing.com%2Fttmbforum%2Fshowthread.php%3Ft%3D114339&amp;title=Galveston+Jetties+on+Good+Friday" shape="rect">Digg</a>\n                        </li>\n                        <li style="width:25%; min-width:160px; float:left; margin-top:6px" class="smallfont">\n                          <a target="socialbookmark" href="http://del.icio.us/post?url=http%3A%2F%2F2coolfishing.com%2Fttmbforum%2Fshowthread.php%3Ft%3D114339&amp;title=Galveston+Jetties+on+Good+Friday" shape="rect">\n                            <img alt="Submit Thread to del.icio.us" border="0" src="/ttmbforum/images/misc/bookmarksite_delicious.gif" class="inlineimg"></img>\n                          </a>\n                          <a style="text-decoration:none" target="socialbookmark" href="http://del.icio.us/post?url=http%3A%2F%2F2coolfishing.com%2Fttmbforum%2Fshowthread.php%3Ft%3D114339&amp;title=Galveston+Jetties+on+Good+Friday" shape="rect">del.icio.us</a>\n                        </li>\n                        <li style="width:25%; min-width:160px; float:left; margin-top:6px" class="smallfont">\n                          <a target="socialbookmark" href="http://www.stumbleupon.com/submit?url=http%3A%2F%2F2coolfishing.com%2Fttmbforum%2Fshowthread.php%3Ft%3D114339&amp;title=Galveston+Jetties+on+Good+Friday" shape="rect">\n                            <img alt="Submit Thread to StumbleUpon" border="0" src="/ttmbforum/images/misc/bookmarksite_stumbleupon.gif" class="inlineimg"></img>\n                          </a>\n                          <a style="text-decoration:none" target="socialbookmark" href="http://www.stumbleupon.com/submit?url=http%3A%2F%2F2coolfishing.com%2Fttmbforum%2Fshowthread.php%3Ft%3D114339&amp;title=Galveston+Jetties+on+Good+Friday" shape="rect">StumbleUpon</a>\n                        </li>\n                        <li style="width:25%; min-width:160px; float:left; margin-top:6px" class="smallfont">\n                          <a target="socialbookmark" href="http://www.google.com/bookmarks/mark?op=edit&amp;output=popup&amp;bkmk=http%3A%2F%2F2coolfishing.com%2Fttmbforum%2Fshowthread.php%3Ft%3D114339&amp;title=Galveston+Jetties+on+Good+Friday" shape="rect">\n                            <img alt="Submit Thread to Google" border="0" src="/ttmbforum/images/misc/bookmarksite_google.gif" class="inlineimg"></img>\n                          </a>\n                          <a style="text-decoration:none" target="socialbookmark" href="http://www.google.com/bookmarks/mark?op=edit&amp;output=popup&amp;bkmk=http%3A%2F%2F2coolfishing.com%2Fttmbforum%2Fshowthread.php%3Ft%3D114339&amp;title=Galveston+Jetties+on+Good+Friday" shape="rect">Google</a>\n                        </li>\n                      </ul>\n                      <div style="clear:both"></div>\n                    </td>\n                  </tr>\n                </table>\n                <br clear="none"></br>\n                <div class="smallfont" align="center">\n                  <strong>\xc2\xab</strong>\n                  <a rel="nofollow" href="showthread.php?s=3566b612221f75a9fb616030732f4e10&amp;t=114339&amp;goto=nextoldest" shape="rect">Previous Thread</a>\n                  |\n                  <a rel="nofollow" href="showthread.php?s=3566b612221f75a9fb616030732f4e10&amp;t=114339&amp;goto=nextnewest" shape="rect">Next Thread</a>\n                  <strong>\xc2\xbb</strong>\n                </div>\n                <br clear="none"></br>\n                <table width="100%" border="0" cellspacing="1" cellpadding="6" class="tborder" align="center">\n                  <tr>\n                    <td class="tcat" rowspan="1" colspan="2">\n                      Currently Active Users Viewing This Thread: 1\n                      <span class="normal">(0 members and 1 guests)</span>\n                    </td>\n                  </tr>\n                  <tr>\n                    <td class="alt1" rowspan="1" colspan="2">\n                      <span class="smallfont">\xc2\xa0</span>\n                    </td>\n                  </tr>\n                </table>\n                <table style="border-top-width:0px" width="100%" border="0" cellspacing="1" cellpadding="6" class="tborder" align="center">\n                  <tr>\n                    <td class="thead" rowspan="1" colspan="2">\n                      Thread Tools\n                      <a name="goto_threadtools" shape="rect"></a>\n                    </td>\n                  </tr>\n                  <tr valign="top">\n                    <td class="alt1" rowspan="1" colspan="2">\n                      <div class="smallfont">\n                        <div>\n                          <img vspace="1" alt="Show Printable Version" src="/ttmbforum/images/buttons/printer.gif" class="inlineimg"></img>\n                          <a rel="nofollow" href="printthread.php?s=3566b612221f75a9fb616030732f4e10&amp;t=114339" shape="rect">Show Printable Version</a>\n                        </div>\n                        <div>\n                          <img vspace="1" alt="Email this Page" src="/ttmbforum/images/buttons/sendtofriend.gif" class="inlineimg"></img>\n                          <a rel="nofollow" href="sendmessage.php?s=3566b612221f75a9fb616030732f4e10&amp;do=sendtofriend&amp;t=114339" shape="rect">Email this Page</a>\n                        </div>\n                      </div>\n                    </td>\n                  </tr>\n                  <tr>\n                    <td class="thead" rowspan="1" colspan="2">\n                      Display Modes\n                      <a name="goto_displaymodes" shape="rect"></a>\n                    </td>\n                  </tr>\n                  <tr valign="top">\n                    <td class="alt2" rowspan="1" colspan="2">\n                      <div class="smallfont">\n                        <div>\n                          <img vspace="1" alt="Linear Mode" src="/ttmbforum/images/buttons/mode_linear.gif" class="inlineimg"></img>\n                          <strong>Linear Mode</strong>\n                        </div>\n                        <div>\n                          <img vspace="1" alt="Hybrid Mode" src="/ttmbforum/images/buttons/mode_hybrid.gif" class="inlineimg"></img>\n                          <a href="showthread.php?s=3566b612221f75a9fb616030732f4e10&amp;mode=hybrid&amp;t=114339" shape="rect">Switch to Hybrid Mode</a>\n                        </div>\n                        <div>\n                          <img vspace="1" alt="Threaded Mode" src="/ttmbforum/images/buttons/mode_threaded.gif" class="inlineimg"></img>\n                          <a href="showthread.php?s=3566b612221f75a9fb616030732f4e10&amp;p=1078269&amp;mode=threaded#post1078269" shape="rect">Switch to Threaded Mode</a>\n                        </div>\n                      </div>\n                    </td>\n                  </tr>\n                </table>\n                <br clear="none"></br>\n                <table width="100%" border="0" cellspacing="0" cellpadding="0" align="center">\n                  <tr valign="bottom">\n                    <td width="100%" valign="top" rowspan="1" colspan="1">\n                      <table width="210" border="0" cellspacing="1" cellpadding="6" class="tborder">\n                        <thead>\n                          <tr>\n                            <td class="thead" rowspan="1" colspan="1">\n                              <a onclick="return toggle_collapse(\'forumrules\')" href="#top" style="float:right" shape="rect">\n                                <img border="0" alt="" src="/ttmbforum/images/buttons/collapse_thead.gif" id="collapseimg_forumrules"></img>\n                              </a>\n                              Posting Rules\n                            </td>\n                          </tr>\n                        </thead>\n                        <tbody style="" id="collapseobj_forumrules">\n                          <tr>\n                            <td class="alt1" rowspan="1" nowrap="nowrap" colspan="1">\n                              <div class="smallfont">\n                                <div>\n                                  You\n                                  <strong>may not</strong>\n                                  post new threads\n                                </div>\n                                <div>\n                                  You\n                                  <strong>may not</strong>\n                                  post replies\n                                </div>\n                                <div>\n                                  You\n                                  <strong>may not</strong>\n                                  post attachments\n                                </div>\n                                <div>\n                                  You\n                                  <strong>may not</strong>\n                                  edit your posts\n                                </div>\n                                <hr></hr>\n                                <div>\n                                  <a target="_blank" href="misc.php?s=3566b612221f75a9fb616030732f4e10&amp;do=bbcode" shape="rect">BB code</a>\n                                  is\n                                  <strong>On</strong>\n                                </div>\n                                <div>\n                                  <a target="_blank" href="misc.php?s=3566b612221f75a9fb616030732f4e10&amp;do=showsmilies" shape="rect">Smilies</a>\n                                  are\n                                  <strong>On</strong>\n                                </div>\n                                <div>\n                                  <a target="_blank" href="misc.php?s=3566b612221f75a9fb616030732f4e10&amp;do=bbcode#imgcode" shape="rect">[IMG]</a>\n                                  code is\n                                  <strong>On</strong>\n                                </div>\n                                <div>\n                                  HTML code is\n                                  <strong>Off</strong>\n                                </div>\n                                <hr></hr>\n                                <div>\n                                  <a target="_blank" href="misc.php?s=3566b612221f75a9fb616030732f4e10&amp;do=showrules" shape="rect">Forum Rules</a>\n                                </div>\n                              </div>\n                            </td>\n                          </tr>\n                        </tbody>\n                      </table>\n                    </td>\n                    <td class="smallfont" rowspan="1" colspan="1" align="right">\n                      <table border="0" cellspacing="0" cellpadding="0">\n                        <tr>\n                          <td rowspan="1" colspan="1">\n                            <div style="text-align:left; white-space:nowrap" class="smallfont">\n                              <form action="forumdisplay.php" method="get" enctype="application/x-www-form-urlencoded">\n                                <input value="3566b612221f75a9fb616030732f4e10" name="s" type="hidden"></input>\n                                <input value="" name="daysprune" type="hidden"></input>\n                                <strong>Forum Jump</strong>\n                                <br clear="none"></br>\n                                <select onchange="this.form.submit();" name="f">\n                                  <optgroup label="Site Areas">\n                                    <option value="cp">User Control Panel</option>\n                                    <option value="pm">Private Messages</option>\n                                    <option value="subs">Subscriptions</option>\n                                    <option value="wol">Who\'s Online</option>\n                                    <option value="search">Search Forums</option>\n                                    <option value="home">Forums Home</option>\n                                  </optgroup>\n                                  <optgroup label="Forums">\n                                    <option value="1" class="fjdpth0"> TTMB</option>\n                                    <option value="46" class="fjdpth0"> Saltwater Fishing Forums</option>\n                                    <option value="8" class="fjdpth1">\xc2\xa0 \xc2\xa0 Fishing Reports</option>\n                                    <option value="40" class="fjsel" selected="selected">\xc2\xa0 \xc2\xa0 General Fishing Discussion</option>\n                                    <option value="18" class="fjdpth1">\xc2\xa0 \xc2\xa0 Texas Tarpon</option>\n                                    <option value="13" class="fjdpth1">\xc2\xa0 \xc2\xa0 Rod building forum</option>\n                                    <option value="9" class="fjdpth1">\xc2\xa0 \xc2\xa0 Gulf Coast Surf Fishing Message Board</option>\n                                    <option value="104" class="fjdpth1">\xc2\xa0 \xc2\xa0 Conservation Crossfire/Fisheries Issues</option>\n                                    <option value="54" class="fjdpth1">\xc2\xa0 \xc2\xa0 Flyfishing Forum</option>\n                                    <option value="72" class="fjdpth1">\xc2\xa0 \xc2\xa0 Reel repair, maintenance, and upgrade forum</option>\n                                    <option value="87" class="fjdpth1">\xc2\xa0 \xc2\xa0 Line Class Forum</option>\n                                    <option value="82" class="fjdpth1">\xc2\xa0 \xc2\xa0 Crew Wanted/Crew Available</option>\n                                    <option value="45" class="fjdpth0"> Bluewater Forums</option>\n                                    <option value="6" class="fjdpth1">\xc2\xa0 \xc2\xa0 Bluewater Board</option>\n                                    <option value="35" class="fjdpth1">\xc2\xa0 \xc2\xa0 scuba/spearfishing forum</option>\n                                    <option value="103" class="fjdpth1">\xc2\xa0 \xc2\xa0 Jigging &amp; Popping Forum</option>\n                                    <option value="47" class="fjdpth0"> Fresh water forums</option>\n                                    <option value="67" class="fjdpth1">\xc2\xa0 \xc2\xa0 Freshwater Fishing General Discussion Forum</option>\n                                    <option value="17" class="fjdpth1">\xc2\xa0 \xc2\xa0 The Catfish Lounge</option>\n                                    <option value="79" class="fjdpth1">\xc2\xa0 \xc2\xa0 Bow Fishing Forum</option>\n                                    <option value="48" class="fjdpth0"> Hunting and Shooting Forums</option>\n                                    <option value="22" class="fjdpth1">\xc2\xa0 \xc2\xa0 Hunting Board</option>\n                                    <option value="85" class="fjdpth1">\xc2\xa0 \xc2\xa0 Bow Hunting Forum</option>\n                                    <option value="102" class="fjdpth1">\xc2\xa0 \xc2\xa0 Reloading/Handloading forum</option>\n                                    <option value="49" class="fjdpth0"> General Interest Forums</option>\n                                    <option value="36" class="fjdpth1">\xc2\xa0 \xc2\xa0 Boating Forum</option>\n                                    <option value="123" class="fjdpth1">\xc2\xa0 \xc2\xa0 Blogs</option>\n                                    <option value="38" class="fjdpth1">\xc2\xa0 \xc2\xa0 Upcoming Events</option>\n                                    <option value="58" class="fjdpth1">\xc2\xa0 \xc2\xa0 Food For the Soul</option>\n                                    <option value="74" class="fjdpth1">\xc2\xa0 \xc2\xa0 Trucks/Towing/Trailering Forum</option>\n                                    <option value="10" class="fjdpth1">\xc2\xa0 \xc2\xa0 Joke Board</option>\n                                    <option value="83" class="fjdpth1">\xc2\xa0 \xc2\xa0 BBQ &amp; Grilling Forum</option>\n                                    <option value="86" class="fjdpth1">\xc2\xa0 \xc2\xa0 Home Gardening Forum</option>\n                                    <option value="56" class="fjdpth1">\xc2\xa0 \xc2\xa0 Investments and finance</option>\n                                    <option value="63" class="fjdpth1">\xc2\xa0 \xc2\xa0 Tobacco Quitters Support Forum</option>\n                                    <option value="14" class="fjdpth1">\xc2\xa0 \xc2\xa0 Recipes</option>\n                                    <option value="31" class="fjdpth1">\xc2\xa0 \xc2\xa0 Support our troops</option>\n                                    <option value="34" class="fjdpth1">\xc2\xa0 \xc2\xa0 TTMB Riders Group</option>\n                                    <option value="99" class="fjdpth1">\xc2\xa0 \xc2\xa0 DIY (Do it yourself) forum</option>\n                                    <option value="69" class="fjdpth1">\xc2\xa0 \xc2\xa0 Wood Turning &amp; Wood Working Forum</option>\n                                    <option value="37" class="fjdpth1">\xc2\xa0 \xc2\xa0 Photography Forum</option>\n                                    <option value="119" class="fjdpth1">\xc2\xa0 \xc2\xa0 Good Old Boys Hunting and Fishing Club</option>\n                                    <option value="120" class="fjdpth1">\xc2\xa0 \xc2\xa0 Musicians Corner Forum</option>\n                                    <option value="24" class="fjdpth1">\xc2\xa0 \xc2\xa0 Technical Support Board</option>\n                                    <option value="25" class="fjdpth1">\xc2\xa0 \xc2\xa0 RC General Forum</option>\n                                    <option value="4" class="fjdpth1">\xc2\xa0 \xc2\xa0 Testing/cookie board</option>\n                                    <option value="122" class="fjdpth1">\xc2\xa0 \xc2\xa0 Camping out and RV Forum</option>\n                                    <option value="88" class="fjdpth0"> Classified Ads</option>\n                                    <option value="89" class="fjdpth1">\xc2\xa0 \xc2\xa0 Boats/boating gear/engines/trailers for sale</option>\n                                    <option value="91" class="fjdpth1">\xc2\xa0 \xc2\xa0 Fishing gear &amp; electronics for sale &amp; wanted</option>\n                                    <option value="90" class="fjdpth1">\xc2\xa0 \xc2\xa0 Vehicles for sale</option>\n                                    <option value="93" class="fjdpth1">\xc2\xa0 \xc2\xa0 Real estate &amp; rentals</option>\n                                    <option value="84" class="fjdpth1">\xc2\xa0 \xc2\xa0 Help wanted and jobs available</option>\n                                    <option value="92" class="fjdpth1">\xc2\xa0 \xc2\xa0 Hunts/hunting gear for sale &amp; wanted</option>\n                                    <option value="94" class="fjdpth1">\xc2\xa0 \xc2\xa0 General merchandise</option>\n                                    <option value="95" class="fjdpth1">\xc2\xa0 \xc2\xa0 Wanted to trade</option>\n                                    <option value="96" class="fjdpth1">\xc2\xa0 \xc2\xa0 Wanted to buy</option>\n                                    <option value="97" class="fjdpth1">\xc2\xa0 \xc2\xa0 Free Stuff</option>\n                                    <option value="98" class="fjdpth1">\xc2\xa0 \xc2\xa0 Misc. section</option>\n                                    <option value="101" class="fjdpth1">\xc2\xa0 \xc2\xa0 RC Stuff</option>\n                                    <option value="19" class="fjdpth0"> The bottom dweller</option>\n                                    <option value="65" class="fjdpth1">\xc2\xa0 \xc2\xa0 Sports forum</option>\n                                    <option value="121" class="fjdpth1">\xc2\xa0 \xc2\xa0 The Lonely Hearts Club</option>\n                                  </optgroup>\n                                </select>\n                                <input value="Go" class="button" type="submit"></input>\n                              </form>\n                            </div>\n                          </td>\n                        </tr>\n                      </table>\n                    </td>\n                  </tr>\n                </table>\n                <br clear="none"></br>\n                <script type="text/javascript">ame_toggle_view({other : \'true\',post : \'true\',blog : \'true\',group : \'true\',vm : \'true\',sig : \'true\'});</script>\n                <br clear="none"></br>\n                <div class="smallfont" align="center">\n                  All times are GMT -5. The time now is\n                  <span class="time">03:57 AM</span>\n                  .\n                </div>\n                <br clear="none"></br>\n              </div>\n            </div>\n          </div>\n          <form action="index.php" method="get" enctype="application/x-www-form-urlencoded">\n            <table width="100%" border="0" cellspacing="0" cellpadding="6" class="page" align="center">\n              <tr>\n                <td width="100%" class="tfoot" rowspan="1" colspan="1" align="right">\n                  <div class="smallfont">\n                    <strong>\n                      <a accesskey="9" rel="nofollow" href="http://www.2coolfishing.com/contact.php?s=3566b612221f75a9fb616030732f4e10" shape="rect">Contact Us</a>\n                      -\n                      <a href="http://2coolfishing.com" shape="rect">2CoolFishing</a>\n                      -\n                      <a href="archive/index.php" shape="rect">Archive</a>\n                      -\n                      <a onclick="self.scrollTo(0, 0); return false;" href="#top" shape="rect">Top</a>\n                    </strong>\n                  </div>\n                </td>\n              </tr>\n            </table>\n            <br clear="none"></br>\n            <div align="center">\n              <div class="smallfont" align="center">\n                Powered by vBulletin\xc2\xae Version 3.8.4\n                <br clear="none"></br>\n                Copyright \xc2\xa92000 - 2012, Jelsoft Enterprises Ltd.\n              </div>\n              <div class="smallfont" align="center"> copyright 2004 </div>\n            </div>\n          </form>\n          <script type="text/javascript"> &lt;!-- // Main vBulletin Javascript Initialization vBulletin_init(); //--&gt; </script>\n          <div align="center">\n            <div style="width:728px; height:90px;" id="div-gpt-ad-1323985083214-21">\n              <script type="text/javascript"> googletag.cmd.push(function() { googletag.display(\'div-gpt-ad-1323985083214-21\'); }); </script>\n            </div>\n          </div>\n        </td>\n        <td width="7" rowspan="1" colspan="1">\n          <img border="0" alt="" src="http://www.noreast.com/images/blank.gif"></img>\n        </td>\n        <td bgcolor="#ffffff" width="174" valign="top" rowspan="1" colspan="1" align="center">\n          <img border="0" height="7" src="http://www.noreast.com/images/blank.gif"></img>\n          <div style="width:160px; height:600px;" id="div-gpt-ad-1323985083214-20">\n            <script type="text/javascript"> googletag.cmd.push(function() { googletag.display(\'div-gpt-ad-1323985083214-20\'); }); </script>\n          </div>\n          <img border="0" height="7" src="http://www.noreast.com/images/blank.gif"></img>\n          <div style="width:160px; height:160px;" id="div-gpt-ad-1323985083214-16">\n            <script type="text/javascript"> googletag.cmd.push(function() { googletag.display(\'div-gpt-ad-1323985083214-16\'); }); </script>\n          </div>\n          <img border="0" height="7" src="http://www.noreast.com/images/blank.gif"></img>\n          <div style="width:160px; height:160px;" id="div-gpt-ad-1323985083214-17">\n            <script type="text/javascript"> googletag.cmd.push(function() { googletag.display(\'div-gpt-ad-1323985083214-17\'); }); </script>\n          </div>\n          <img border="0" height="7" src="http://www.noreast.com/images/blank.gif"></img>\n          <div style="width:160px; height:160px;" id="div-gpt-ad-1323985083214-18">\n            <script type="text/javascript"> googletag.cmd.push(function() { googletag.display(\'div-gpt-ad-1323985083214-18\'); }); </script>\n          </div>\n          <img border="0" height="7" src="http://www.noreast.com/images/blank.gif"></img>\n          <div style="width:160px; height:600px;" id="div-gpt-ad-1323985083214-22">\n            <script type="text/javascript"> googletag.cmd.push(function() { googletag.display(\'div-gpt-ad-1323985083214-22\'); }); </script>\n          </div>\n        </td>\n      </tr>\n    </table>\n    <div align="center">\n      <div align="center">\n        <table cellpadding="0" cellspacing="0" border="0">\n          <tr>\n            <td rowspan="1" colspan="1">\n              <img border="0" src="http://allcoastmedia.com/amn/amn.jpg"></img>\n            </td>\n            <td rowspan="1" colspan="1">\n              <a href="http://www.2coolfishing.com" shape="rect">\n                <img border="0" src="http://allcoastmedia.com/amn/amn_2cool.jpg"></img>\n              </a>\n            </td>\n            <td rowspan="1" colspan="1">\n              <a href="http://www.noreast.com" shape="rect">\n                <img border="0" src="http://allcoastmedia.com/amn/amn_noreast.jpg"></img>\n              </a>\n            </td>\n            <td rowspan="1" colspan="1">\n              <a href="http://www.stripers247.com" shape="rect">\n                <img border="0" src="http://allcoastmedia.com/amn/amn_247.jpg"></img>\n              </a>\n            </td>\n            <td rowspan="1" colspan="1">\n              <a href="http://www.allcoast.com" shape="rect">\n                <img border="0" src="http://allcoastmedia.com/amn/amn_allcoast.jpg"></img>\n              </a>\n            </td>\n            <td rowspan="1" colspan="1">\n              <a href="http://www.ifish.net" shape="rect">\n                <img border="0" src="http://allcoastmedia.com/amn/amn_ifish.jpg"></img>\n              </a>\n            </td>\n          </tr>\n        </table>\n      </div>\n      <span style="font: 12px Arial, Helvetica, sans-serif;">\n        \xc2\xa9 2008 Noreast Media, LLC |\n        <a href="http://www.2coolfishing.com/terms.php" class="articlelink2" shape="rect">Terms of Service</a>\n        |\n        <a href="http://www.2coolfishing.com/contact-us.php" class="articlelink2" shape="rect">Contact Us</a>\n        |\n        <a href="http://www.2coolfishing.com/advertising.php" class="articlelink2" shape="rect">Advertise</a>\n      </span>\n    </div>\n    <script type="text/javascript">\n      var _qevents = _qevents || [];\n(function() {\nvar elem = document.createElement(\'script\');\nelem.src = (document.location.protocol == &quot;https:&quot; ? &quot;https://secure&quot; : &quot;http://edge&quot;) + &quot;.quantserve.com/quant.js&quot;;\nelem.async = true;\nelem.type = &quot;text/javascript&quot;;\nvar scpt = document.getElementsByTagName(\'script\')[0];\nscpt.parentNode.insertBefore(elem, scpt);\n})();\n_qevents.push({\nqacct:&quot;p-8c-9IoQlVzpTM&quot;\n});\n    </script>\n    <noscript>\n      <div style="display:none;">\n        <img alt="Quantcast" width="1" height="1" border="0" src="//pixel.quantserve.com/pixel/p-8c-9IoQlVzpTM.gif"></img>\n      </div>\n    </noscript>\n    <div style="display:none"> </div>\n  </body>\n</html>'
p11
sbsS'mentions'
p12
(lp13
(iedu.umass.cs.iesl.wikilink.expanded.data.ttypes
Mention
p14
(dp15
S'anchor_text'
p16
S'Linnaeus'
p17
sS'context'
p18
(iedu.umass.cs.iesl.wikilink.expanded.data.ttypes
Context
p19
(dp20
S'middle'
p21
S'Linnaeus'
p22
sS'right'
p23
S', 1766 ) Crevalle jack , Caranx hippos , is a fast, saltwater fish that can be found in inland waters along the shoreline of'
p24
sS'left'
p25
S'search Crevalle jack Scientific classification Kingdom: Animalia Phylum: Chordata Class: Actinopterygii Order: Perciformes Family: Carangidae Genus: Caranx Species: C. hippos Binomial name Caranx hippos ('
p26
sbsS'freebase_id'
p27
S'9202a8c04000641f800000000000cb6c'
p28
sS'raw_text_offset'
p29
I71713
sS'wiki_url'
p30
S'http://en.wikipedia.org/wiki/Carolus_Linnaeus'
p31
sba(iedu.umass.cs.iesl.wikilink.expanded.data.ttypes
Mention
p32
(dp33
g16
S'1766'
p34
sg18
(iedu.umass.cs.iesl.wikilink.expanded.data.ttypes
Context
p35
(dp36
g21
S'1766'
p37
sg23
S') Crevalle jack , Caranx hippos , is a fast, saltwater fish that can be found in inland waters along the shoreline of the western'
p38
sg25
S'jack Scientific classification Kingdom: Animalia Phylum: Chordata Class: Actinopterygii Order: Perciformes Family: Carangidae Genus: Caranx Species: C. hippos Binomial name Caranx hippos ( Linnaeus ,'
p39
sbsg27
Nsg29
I71860
sg30
S'http://en.wikipedia.org/wiki/1766'
p40
sba(iedu.umass.cs.iesl.wikilink.expanded.data.ttypes
Mention
p41
(dp42
g16
S'Atlantic Ocean'
p43
sg18
(iedu.umass.cs.iesl.wikilink.expanded.data.ttypes
Context
p44
(dp45
g21
S'Atlantic Ocean'
p46
sg23
S'from Nova Scotia to Uruguay and the eastern Atlantic from Portugal to Angola . It has a large rounded head with large eyes and a'
p47
sg25
S') Crevalle jack , Caranx hippos , is a fast, saltwater fish that can be found in inland waters along the shoreline of the western'
p48
sbsg27
S'9202a8c04000641f800000000000406a'
p49
sg29
I72137
sg30
S'http://en.wikipedia.org/wiki/Atlantic_Ocean'
p50
sba(iedu.umass.cs.iesl.wikilink.expanded.data.ttypes
Mention
p51
(dp52
g16
S'Nova Scotia'
p53
sg18
(iedu.umass.cs.iesl.wikilink.expanded.data.ttypes
Context
p54
(dp55
g21
S'Nova Scotia'
p56
sg23
S'to Uruguay and the eastern Atlantic from Portugal to Angola . It has a large rounded head with large eyes and a dark silvery body'
p57
sg25
S', Caranx hippos , is a fast, saltwater fish that can be found in inland waters along the shoreline of the western Atlantic Ocean from'
p58
sbsg27
S'9202a8c04000641f800000000002a728'
p59
sg29
I72257
sg30
S'http://en.wikipedia.org/wiki/Nova_Scotia'
p60
sba(iedu.umass.cs.iesl.wikilink.expanded.data.ttypes
Mention
p61
(dp62
g16
S'Uruguay'
p63
sg18
(iedu.umass.cs.iesl.wikilink.expanded.data.ttypes
Context
p64
(dp65
g21
S'Uruguay'
p66
sg23
S'and the eastern Atlantic from Portugal to Angola . It has a large rounded head with large eyes and a dark silvery body that can'
p67
sg25
S', is a fast, saltwater fish that can be found in inland waters along the shoreline of the western Atlantic Ocean from Nova Scotia to'
p68
sbsg27
S'9202a8c04000641f800000000003e77e'
p69
sg29
I72368
sg30
S'http://en.wikipedia.org/wiki/Uruguay'
p70
sba(iedu.umass.cs.iesl.wikilink.expanded.data.ttypes
Mention
p71
(dp72
g16
S'Portugal'
p73
sg18
(iedu.umass.cs.iesl.wikilink.expanded.data.ttypes
Context
p74
(dp75
g21
S'Portugal'
p76
sg23
S'to Angola . It has a large rounded head with large eyes and a dark silvery body that can show hints of blue-green to green-gold.'
p77
sg25
S'that can be found in inland waters along the shoreline of the western Atlantic Ocean from Nova Scotia to Uruguay and the eastern Atlantic from'
p78
sbsg27
S'9202a8c04000641f800000000002dc9b'
p79
sg29
I72503
sg30
S'http://en.wikipedia.org/wiki/Portugal'
p80
sba(iedu.umass.cs.iesl.wikilink.expanded.data.ttypes
Mention
p81
(dp82
g16
S'Angola'
p83
sg18
(iedu.umass.cs.iesl.wikilink.expanded.data.ttypes
Context
p84
(dp85
g21
S'Angola'
p86
sg23
S'. It has a large rounded head with large eyes and a dark silvery body that can show hints of blue-green to green-gold. They grow'
p87
sg25
S'be found in inland waters along the shoreline of the western Atlantic Ocean from Nova Scotia to Uruguay and the eastern Atlantic from Portugal to'
p88
sbsg27
S'9202a8c04000641f800000000000408a'
p89
sg29
I72610
sg30
S'http://en.wikipedia.org/wiki/Angola'
p90
sba(iedu.umass.cs.iesl.wikilink.expanded.data.ttypes
Mention
p91
(dp92
g16
S'Florida'
p93
sg18
(iedu.umass.cs.iesl.wikilink.expanded.data.ttypes
Context
p94
(dp95
g21
S'Florida'
p96
sg23
S'. Crevalle jacks can be poisonous to eat due to the threat of ciguatera poisoning, but they are prized as a game fish. Crevalle jacks'
p97
sg25
S'a half feet long. The fish usually weighs between three and five pounds, but a 51 pound Crevalle Jack was taken off the coast of'
p98
sbsg27
S'9202a8c04000641f80000000000172fd'
p99
sg29
I73059
sg30
S'http://en.wikipedia.org/wiki/Florida'
p100
sba(iedu.umass.cs.iesl.wikilink.expanded.data.ttypes
Mention
p101
(dp102
g16
S'ciguatera'
p103
sg18
(iedu.umass.cs.iesl.wikilink.expanded.data.ttypes
Context
p104
(dp105
g21
S'ciguatera'
p106
sg23
S'poisoning, but they are prized as a game fish. Crevalle jacks in a reef in the Caribbean Sea. Crevalle jacks spawn offshore from early March'
p107
sg25
S'a 51 pound Crevalle Jack was taken off the coast of Florida . Crevalle jacks can be poisonous to eat due to the threat of'
p108
sbsg27
S'9202a8c04000641f8000000000329318'
p109
sg29
I73226
sg30
S'http://en.wikipedia.org/wiki/Ciguatera'
p110
sba(iedu.umass.cs.iesl.wikilink.expanded.data.ttypes
Mention
p111
(dp112
g16
S'striped marlin'
p113
sg18
(iedu.umass.cs.iesl.wikilink.expanded.data.ttypes
Context
p114
(dp115
g21
S'striped marlin'
p116
sg23
S', and seabirds. Crevalle jacks feed during the day and eat a variety of fish and invertebrates . Other common names for Caranx hippos include'
p117
sg25
S'in large schools, but become solitary as they get older. They are preyed upon by many surface feeding carnivores, including finfish , such as the'
p118
sbsg27
S'9202a8c04000641f8000000000b111c9'
p119
sg29
I74223
sg30
S'http://en.wikipedia.org/wiki/Striped_marlin'
p120
sba(iedu.umass.cs.iesl.wikilink.expanded.data.ttypes
Mention
p121
(dp122
g16
S'invertebrates'
p123
sg18
(iedu.umass.cs.iesl.wikilink.expanded.data.ttypes
Context
p124
(dp125
g21
S'invertebrates'
p126
sg23
S'. Other common names for Caranx hippos include common jack, blacktailed trevally, cabalo, green jack, horse mackerel, horse-eye jack, kingfish, and trevally. [ edit ]'
p127
sg25
S'carnivores, including finfish , such as the striped marlin , and seabirds. Crevalle jacks feed during the day and eat a variety of fish and'
p128
sbsg27
S'9202a8c04000641f800000000001f395'
p129
sg29
I74420
sg30
S'http://en.wikipedia.org/wiki/Invertebrates'
p130
sba(iedu.umass.cs.iesl.wikilink.expanded.data.ttypes
Mention
p131
(dp132
g16
S'FishBase'
p133
sg18
(iedu.umass.cs.iesl.wikilink.expanded.data.ttypes
Context
p134
(dp135
g21
S'FishBase'
p136
sg23
S'. Ed. Ranier Froese and Daniel Pauly. 06 2006 version. N.p.: FishBase, 2006. Caranx hippos (TSN 168609) . Integrated Taxonomic Information System . Accessed on'
p137
sg25
S'hippos include common jack, blacktailed trevally, cabalo, green jack, horse mackerel, horse-eye jack, kingfish, and trevally. [ edit ] References " Caranx hippos " .'
p138
sbsg27
S'9202a8c04000641f8000000000182753'
p139
sg29
I75080
sg30
S'http://en.wikipedia.org/wiki/FishBase'
p140
sbasS'doc_id'
p141
I3179
sS'rare_words'
p142
(lp143
(iedu.umass.cs.iesl.wikilink.expanded.data.ttypes
RareWord
p144
(dp145
S'word'
p146
S'September'
p147
sS'offset'
p148
I73829
sba(iedu.umass.cs.iesl.wikilink.expanded.data.ttypes
RareWord
p149
(dp150
g146
S'poisonous'
p151
sg148
I73101
sba(iedu.umass.cs.iesl.wikilink.expanded.data.ttypes
RareWord
p152
(dp153
g146
S'weighs'
p154
sg148
I72880
sba(iedu.umass.cs.iesl.wikilink.expanded.data.ttypes
RareWord
p155
(dp156
g146
S'new'
p157
sg148
I38192
sba(iedu.umass.cs.iesl.wikilink.expanded.data.ttypes
RareWord
p158
(dp159
g146
S'fisherman'
p160
sg148
I38196
sba(iedu.umass.cs.iesl.wikilink.expanded.data.ttypes
RareWord
p161
(dp162
g146
S'us'
p163
sg148
I23914
sba(iedu.umass.cs.iesl.wikilink.expanded.data.ttypes
RareWord
p164
(dp165
g146
S'test'
p166
sg148
I24333
sba(iedu.umass.cs.iesl.wikilink.expanded.data.ttypes
RareWord
p167
(dp168
g146
S'Cruised'
p169
sg148
I23649
sba(iedu.umass.cs.iesl.wikilink.expanded.data.ttypes
RareWord
p170
(dp171
g146
S'pound'
p172
sg148
I72927
sba(iedu.umass.cs.iesl.wikilink.expanded.data.ttypes
RareWord
p173
(dp174
g146
S'Hey'
p175
sg148
I59319
sbasb.