(iedu.umass.cs.iesl.wikilink.expanded.data.ttypes
WikiLinkItem
p0
(dp1
S'url'
p2
S'http://akshaykumar-akki.blogspot.com/'
p3
sS'content'
p4
(iedu.umass.cs.iesl.wikilink.expanded.data.ttypes
PageContentItem
p5
(dp6
S'articleText'
p7
NsS'raw'
p8
NsS'fullText'
p9
NsS'dom'
p10
S'<html b:version="2" dir="ltr" class="v2">\n  <head>\n    <meta content="IE=EmulateIE7" http-equiv="X-UA-Compatible"></meta>\n    <meta content="width=1100" name="viewport"></meta>\n    <meta content="text/html; charset=UTF-8" http-equiv="Content-Type"></meta>\n    <script type="text/javascript">\n      (function() { var a=window,b=&quot;jstiming&quot;,d=&quot;tick&quot;;var e=function(c){this.t={};this.tick=function(c,p,h){h=void 0!=h?h:(new Date).getTime();this.t[c]=[h,p]};this[d](&quot;start&quot;,null,c)},f=new e;a.jstiming={Timer:e,load:f};if(a.performance&amp;&amp;a.performance.timing){var g=a.performance.timing,j=a[b].load,k=g.navigationStart,l=g.responseStart;0&lt;k&amp;&amp;l&gt;=k&amp;&amp;(j[d](&quot;_wtsrt&quot;,void 0,k),j[d](&quot;wtsrt_&quot;,&quot;_wtsrt&quot;,l),j[d](&quot;tbsd_&quot;,&quot;wtsrt_&quot;))}\ntry{var m=null;a.chrome&amp;&amp;a.chrome.csi&amp;&amp;(m=Math.floor(a.chrome.csi().pageT),j&amp;&amp;0&lt;k&amp;&amp;(j[d](&quot;_tbnd&quot;,void 0,a.chrome.csi().startE),j[d](&quot;tbnd_&quot;,&quot;_tbnd&quot;,k)));null==m&amp;&amp;a.gtbExternal&amp;&amp;(m=a.gtbExternal.pageT());null==m&amp;&amp;a.external&amp;&amp;(m=a.external.pageT,j&amp;&amp;0&lt;k&amp;&amp;(j[d](&quot;_tbnd&quot;,void 0,a.external.startE),j[d](&quot;tbnd_&quot;,&quot;_tbnd&quot;,k)));m&amp;&amp;(a[b].pt=m)}catch(n){};a.tickAboveFold=function(c){var i=0;if(c.offsetParent){do i+=c.offsetTop;while(c=c.offsetParent)}c=i;750&gt;=c&amp;&amp;a[b].load[d](&quot;aft&quot;)};var q=!1;function r(){q||(q=!0,a[b].load[d](&quot;firstScrollTime&quot;))}a.addEventListener?a.addEventListener(&quot;scroll&quot;,r,!1):a.attachEvent(&quot;onscroll&quot;,r);\n })();\n    </script>\n    <meta content="true" name="MSSmartTagsPreventParsing"></meta>\n    <meta content="blogger" name="generator"></meta>\n    <link type="image/x-icon" rel="icon" href="http://akshaykumar-akki.blogspot.com/favicon.ico"></link>\n    <link rel="canonical" href="http://akshaykumar-akki.blogspot.com/"></link>\n    <link href="http://akshaykumar-akki.blogspot.com/feeds/posts/default" title="Akshay kumar - Atom" type="application/atom+xml" rel="alternate"></link>\n    <link href="http://akshaykumar-akki.blogspot.com/feeds/posts/default?alt=rss" title="Akshay kumar - RSS" type="application/rss+xml" rel="alternate"></link>\n    <link href="http://www.blogger.com/feeds/3577064379726302641/posts/default" title="Akshay kumar - Atom" type="application/atom+xml" rel="service.post"></link>\n    <link href="http://www.blogger.com/rsd.g?blogID=3577064379726302641" title="RSD" type="application/rsd+xml" rel="EditURI"></link>\n    <link href="http://www.blogger.com/profile/11179151022333497700" rel="me"></link>\n    <link href="http://www.blogger.com/openid-server.g" rel="openid.server"></link>\n    <link href="http://akshaykumar-akki.blogspot.com/" rel="openid.delegate"></link>\n    <title>Akshay kumar</title>\n    <script type="text/javascript">\n      if (navigator.userAgent.indexOf(\'MSIE 6\') == -1) {\n  WebFontConfig = {\n    google: { families: [ \'Chewy\', \'Geo\' ],\n    api: \'//themes.googleusercontent.com/fonts/css?kit=RualApDuNP-oN7vOjTeXjfaUH6-UtVqa1RRLS31Rcsw\'\n    },\n    loading: function() {\n      if (window.jstiming) window.jstiming.load.tick(\'webfontLoading\');\n    },\n    active: function() {\n      if (window.jstiming) window.jstiming.load.tick(\'webfontActive\');\n    }\n  };\n  (function() {\n    var wf = document.createElement(\'script\');\n    wf.src = \'//ajax.googleapis.com/ajax/libs/webfont/1/webfont.js\';\n    wf.type = \'text/javascript\';\n    wf.async = \'true\';\n    var s = document.getElementsByTagName(\'script\')[0];\n    s.parentNode.insertBefore(wf, s);\n  })();\n} else {\n  document.documentElement.className = \'wf-inactive\';\n}\n    </script>\n    <style type="text/css"> .wf-inactive body, .wf-chewy-n4-loading body, .wf-chewy-n4-inactive body { font-family: cursive; } .wf-inactive .header h1, .wf-geo-n4-loading .header h1, .wf-geo-n4-inactive .header h1 { font-family: sans-serif; } </style>\n    <link href="//www.blogger.com/static/v1/widgets/4219271310-widget_css_2_bundle.css" rel="stylesheet" type="text/css"></link>\n    <link href="//www.google.com/uds/solutions/videobar/gsvideobar.css" rel="stylesheet" type="text/css"></link>\n    <link href="//www.blogger.com/dyn-css/authorization.css?targetBlogID=3577064379726302641&amp;zx=d94f68c2-56da-46b4-bd12-3edea6c57233" rel="stylesheet" type="text/css"></link>\n    <style type="text/css" id="page-skin-1">\n      &lt;!--\n/*\n-----------------------------------------------\nBlogger Template Style\nName:     Awesome Inc.\nDesigner: Tina Chen\nURL:      tinachen.org\n----------------------------------------------- */\n/* Variable definitions\n====================\n&lt;Variable name=&quot;keycolor&quot; description=&quot;Main Color&quot; type=&quot;color&quot; default=&quot;#ffffff&quot;/&gt;\n&lt;Group description=&quot;Page&quot; selector=&quot;body&quot;&gt;\n&lt;Variable name=&quot;body.font&quot; description=&quot;Font&quot; type=&quot;font&quot;\ndefault=&quot;normal normal 13px Arial, Tahoma, Helvetica, FreeSans, sans-serif&quot;/&gt;\n&lt;Variable name=&quot;body.background.color&quot; description=&quot;Background Color&quot; type=&quot;color&quot; default=&quot;#000000&quot;/&gt;\n&lt;Variable name=&quot;body.text.color&quot; description=&quot;Text Color&quot; type=&quot;color&quot; default=&quot;#ffffff&quot;/&gt;\n&lt;/Group&gt;\n&lt;Group description=&quot;Links&quot; selector=&quot;.main-inner&quot;&gt;\n&lt;Variable name=&quot;link.color&quot; description=&quot;Link Color&quot; type=&quot;color&quot; default=&quot;#888888&quot;/&gt;\n&lt;Variable name=&quot;link.visited.color&quot; description=&quot;Visited Color&quot; type=&quot;color&quot; default=&quot;#444444&quot;/&gt;\n&lt;Variable name=&quot;link.hover.color&quot; description=&quot;Hover Color&quot; type=&quot;color&quot; default=&quot;#cccccc&quot;/&gt;\n&lt;/Group&gt;\n&lt;Group description=&quot;Blog Title&quot; selector=&quot;.header h1&quot;&gt;\n&lt;Variable name=&quot;header.font&quot; description=&quot;Title Font&quot; type=&quot;font&quot;\ndefault=&quot;normal bold 40px Arial, Tahoma, Helvetica, FreeSans, sans-serif&quot;/&gt;\n&lt;Variable name=&quot;header.text.color&quot; description=&quot;Title Color&quot; type=&quot;color&quot; default=&quot;#ffffff&quot; /&gt;\n&lt;Variable name=&quot;header.background.color&quot; description=&quot;Header Background&quot; type=&quot;color&quot; default=&quot;transparent&quot; /&gt;\n&lt;/Group&gt;\n&lt;Group description=&quot;Blog Description&quot; selector=&quot;.header .description&quot;&gt;\n&lt;Variable name=&quot;description.font&quot; description=&quot;Font&quot; type=&quot;font&quot;\ndefault=&quot;normal normal 14px Arial, Tahoma, Helvetica, FreeSans, sans-serif&quot;/&gt;\n&lt;Variable name=&quot;description.text.color&quot; description=&quot;Text Color&quot; type=&quot;color&quot;\ndefault=&quot;#ffffff&quot; /&gt;\n&lt;/Group&gt;\n&lt;Group description=&quot;Tabs Text&quot; selector=&quot;.tabs-inner .widget li a&quot;&gt;\n&lt;Variable name=&quot;tabs.font&quot; description=&quot;Font&quot; type=&quot;font&quot;\ndefault=&quot;normal bold 14px Arial, Tahoma, Helvetica, FreeSans, sans-serif&quot;/&gt;\n&lt;Variable name=&quot;tabs.text.color&quot; description=&quot;Text Color&quot; type=&quot;color&quot; default=&quot;#ffffff&quot;/&gt;\n&lt;Variable name=&quot;tabs.selected.text.color&quot; description=&quot;Selected Color&quot; type=&quot;color&quot; default=&quot;#ffffff&quot;/&gt;\n&lt;/Group&gt;\n&lt;Group description=&quot;Tabs Background&quot; selector=&quot;.tabs-outer .PageList&quot;&gt;\n&lt;Variable name=&quot;tabs.background.color&quot; description=&quot;Background Color&quot; type=&quot;color&quot; default=&quot;#141414&quot;/&gt;\n&lt;Variable name=&quot;tabs.selected.background.color&quot; description=&quot;Selected Color&quot; type=&quot;color&quot; default=&quot;#444444&quot;/&gt;\n&lt;Variable name=&quot;tabs.border.color&quot; description=&quot;Border Color&quot; type=&quot;color&quot; default=&quot;#000000&quot;/&gt;\n&lt;/Group&gt;\n&lt;Group description=&quot;Date Header&quot; selector=&quot;.main-inner .widget h2.date-header, .main-inner .widget h2.date-header span&quot;&gt;\n&lt;Variable name=&quot;date.font&quot; description=&quot;Font&quot; type=&quot;font&quot;\ndefault=&quot;normal normal 14px Arial, Tahoma, Helvetica, FreeSans, sans-serif&quot;/&gt;\n&lt;Variable name=&quot;date.text.color&quot; description=&quot;Text Color&quot; type=&quot;color&quot; default=&quot;#666666&quot;/&gt;\n&lt;Variable name=&quot;date.border.color&quot; description=&quot;Border Color&quot; type=&quot;color&quot; default=&quot;#000000&quot;/&gt;\n&lt;/Group&gt;\n&lt;Group description=&quot;Post Title&quot; selector=&quot;h3.post-title, h4, h3.post-title a&quot;&gt;\n&lt;Variable name=&quot;post.title.font&quot; description=&quot;Font&quot; type=&quot;font&quot;\ndefault=&quot;normal bold 22px Arial, Tahoma, Helvetica, FreeSans, sans-serif&quot;/&gt;\n&lt;Variable name=&quot;post.title.text.color&quot; description=&quot;Text Color&quot; type=&quot;color&quot; default=&quot;#ffffff&quot;/&gt;\n&lt;/Group&gt;\n&lt;Group description=&quot;Post Background&quot; selector=&quot;.post&quot;&gt;\n&lt;Variable name=&quot;post.background.color&quot; description=&quot;Background Color&quot; type=&quot;color&quot; default=&quot;#000000&quot; /&gt;\n&lt;Variable name=&quot;post.border.color&quot; description=&quot;Border Color&quot; type=&quot;color&quot; default=&quot;#000000&quot; /&gt;\n&lt;Variable name=&quot;post.border.bevel.color&quot; description=&quot;Bevel Color&quot; type=&quot;color&quot; default=&quot;#000000&quot;/&gt;\n&lt;/Group&gt;\n&lt;Group description=&quot;Gadget Title&quot; selector=&quot;h2&quot;&gt;\n&lt;Variable name=&quot;widget.title.font&quot; description=&quot;Font&quot; type=&quot;font&quot;\ndefault=&quot;normal bold 14px Arial, Tahoma, Helvetica, FreeSans, sans-serif&quot;/&gt;\n&lt;Variable name=&quot;widget.title.text.color&quot; description=&quot;Text Color&quot; type=&quot;color&quot; default=&quot;#ffffff&quot;/&gt;\n&lt;/Group&gt;\n&lt;Group description=&quot;Gadget Text&quot; selector=&quot;.sidebar .widget&quot;&gt;\n&lt;Variable name=&quot;widget.font&quot; description=&quot;Font&quot; type=&quot;font&quot;\ndefault=&quot;normal normal 14px Arial, Tahoma, Helvetica, FreeSans, sans-serif&quot;/&gt;\n&lt;Variable name=&quot;widget.text.color&quot; description=&quot;Text Color&quot; type=&quot;color&quot; default=&quot;#ffffff&quot;/&gt;\n&lt;Variable name=&quot;widget.alternate.text.color&quot; description=&quot;Alternate Color&quot; type=&quot;color&quot; default=&quot;#666666&quot;/&gt;\n&lt;/Group&gt;\n&lt;Group description=&quot;Gadget Links&quot; selector=&quot;.sidebar .widget&quot;&gt;\n&lt;Variable name=&quot;widget.link.color&quot; description=&quot;Link Color&quot; type=&quot;color&quot; default=&quot;#4a4a4a&quot;/&gt;\n&lt;Variable name=&quot;widget.link.visited.color&quot; description=&quot;Visited Color&quot; type=&quot;color&quot; default=&quot;#000000&quot;/&gt;\n&lt;Variable name=&quot;widget.link.hover.color&quot; description=&quot;Hover Color&quot; type=&quot;color&quot; default=&quot;#b9b9b9&quot;/&gt;\n&lt;/Group&gt;\n&lt;Group description=&quot;Gadget Background&quot; selector=&quot;.sidebar .widget&quot;&gt;\n&lt;Variable name=&quot;widget.background.color&quot; description=&quot;Background Color&quot; type=&quot;color&quot; default=&quot;#141414&quot;/&gt;\n&lt;Variable name=&quot;widget.border.color&quot; description=&quot;Border Color&quot; type=&quot;color&quot; default=&quot;#222222&quot;/&gt;\n&lt;Variable name=&quot;widget.border.bevel.color&quot; description=&quot;Bevel Color&quot; type=&quot;color&quot; default=&quot;#000000&quot;/&gt;\n&lt;/Group&gt;\n&lt;Group description=&quot;Sidebar Background&quot; selector=&quot;.column-left-inner .column-right-inner&quot;&gt;\n&lt;Variable name=&quot;widget.outer.background.color&quot; description=&quot;Background Color&quot; type=&quot;color&quot; default=&quot;transparent&quot; /&gt;\n&lt;/Group&gt;\n&lt;Group description=&quot;Images&quot; selector=&quot;.main-inner&quot;&gt;\n&lt;Variable name=&quot;image.background.color&quot; description=&quot;Background Color&quot; type=&quot;color&quot; default=&quot;transparent&quot;/&gt;\n&lt;Variable name=&quot;image.border.color&quot; description=&quot;Border Color&quot; type=&quot;color&quot; default=&quot;transparent&quot;/&gt;\n&lt;/Group&gt;\n&lt;Group description=&quot;Feed&quot; selector=&quot;.blog-feeds&quot;&gt;\n&lt;Variable name=&quot;feed.text.color&quot; description=&quot;Text Color&quot; type=&quot;color&quot; default=&quot;#ffffff&quot;/&gt;\n&lt;/Group&gt;\n&lt;Group description=&quot;Feed Links&quot; selector=&quot;.blog-feeds&quot;&gt;\n&lt;Variable name=&quot;feed.link.color&quot; description=&quot;Link Color&quot; type=&quot;color&quot; default=&quot;#4a4a4a&quot;/&gt;\n&lt;Variable name=&quot;feed.link.visited.color&quot; description=&quot;Visited Color&quot; type=&quot;color&quot; default=&quot;#000000&quot;/&gt;\n&lt;Variable name=&quot;feed.link.hover.color&quot; description=&quot;Hover Color&quot; type=&quot;color&quot; default=&quot;#b9b9b9&quot;/&gt;\n&lt;/Group&gt;\n&lt;Group description=&quot;Pager&quot; selector=&quot;.blog-pager&quot;&gt;\n&lt;Variable name=&quot;pager.background.color&quot; description=&quot;Background Color&quot; type=&quot;color&quot; default=&quot;#141414&quot; /&gt;\n&lt;/Group&gt;\n&lt;Group description=&quot;Footer&quot; selector=&quot;.footer-outer&quot;&gt;\n&lt;Variable name=&quot;footer.background.color&quot; description=&quot;Background Color&quot; type=&quot;color&quot; default=&quot;#000000&quot; /&gt;\n&lt;Variable name=&quot;footer.text.color&quot; description=&quot;Text Color&quot; type=&quot;color&quot; default=&quot;#ffffff&quot; /&gt;\n&lt;/Group&gt;\n&lt;Variable name=&quot;title.shadow.spread&quot; description=&quot;Title Shadow&quot; type=&quot;length&quot; default=&quot;-1px&quot;/&gt;\n&lt;Variable name=&quot;body.background&quot; description=&quot;Body Background&quot; type=&quot;background&quot;\ncolor=&quot;#000000&quot;\ndefault=&quot;$(color) none repeat scroll top left&quot;/&gt;\n&lt;Variable name=&quot;body.background.gradient.cap&quot; description=&quot;Body Gradient Cap&quot; type=&quot;url&quot;\ndefault=&quot;none&quot;/&gt;\n&lt;Variable name=&quot;body.background.size&quot; description=&quot;Body Background Size&quot; type=&quot;string&quot; default=&quot;auto&quot;/&gt;\n&lt;Variable name=&quot;tabs.background.gradient&quot; description=&quot;Tabs Background Gradient&quot; type=&quot;url&quot;\ndefault=&quot;none&quot;/&gt;\n&lt;Variable name=&quot;header.background.gradient&quot; description=&quot;Header Background Gradient&quot; type=&quot;url&quot; default=&quot;none&quot; /&gt;\n&lt;Variable name=&quot;header.padding.top&quot; description=&quot;Header Top Padding&quot; type=&quot;length&quot; default=&quot;22px&quot; /&gt;\n&lt;Variable name=&quot;header.margin.top&quot; description=&quot;Header Top Margin&quot; type=&quot;length&quot; default=&quot;0&quot; /&gt;\n&lt;Variable name=&quot;header.margin.bottom&quot; description=&quot;Header Bottom Margin&quot; type=&quot;length&quot; default=&quot;0&quot; /&gt;\n&lt;Variable name=&quot;widget.padding.top&quot; description=&quot;Widget Padding Top&quot; type=&quot;length&quot; default=&quot;8px&quot; /&gt;\n&lt;Variable name=&quot;widget.padding.side&quot; description=&quot;Widget Padding Side&quot; type=&quot;length&quot; default=&quot;15px&quot; /&gt;\n&lt;Variable name=&quot;widget.outer.margin.top&quot; description=&quot;Widget Top Margin&quot; type=&quot;length&quot; default=&quot;0&quot; /&gt;\n&lt;Variable name=&quot;widget.outer.background.gradient&quot; description=&quot;Gradient&quot; type=&quot;url&quot; default=&quot;none&quot; /&gt;\n&lt;Variable name=&quot;widget.border.radius&quot; description=&quot;Gadget Border Radius&quot; type=&quot;length&quot; default=&quot;0&quot; /&gt;\n&lt;Variable name=&quot;outer.shadow.spread&quot; description=&quot;Outer Shadow Size&quot; type=&quot;length&quot; default=&quot;0&quot; /&gt;\n&lt;Variable name=&quot;date.header.border.radius.top&quot; description=&quot;Date Header Border Radius Top&quot; type=&quot;length&quot; default=&quot;0&quot; /&gt;\n&lt;Variable name=&quot;date.header.position&quot; description=&quot;Date Header Position&quot; type=&quot;length&quot; default=&quot;15px&quot; /&gt;\n&lt;Variable name=&quot;date.space&quot; description=&quot;Date Space&quot; type=&quot;length&quot; default=&quot;30px&quot; /&gt;\n&lt;Variable name=&quot;date.position&quot; description=&quot;Date Float&quot; type=&quot;string&quot; default=&quot;static&quot; /&gt;\n&lt;Variable name=&quot;date.padding.bottom&quot; description=&quot;Date Padding Bottom&quot; type=&quot;length&quot; default=&quot;0&quot; /&gt;\n&lt;Variable name=&quot;date.border.size&quot; description=&quot;Date Border Size&quot; type=&quot;length&quot; default=&quot;0&quot; /&gt;\n&lt;Variable name=&quot;date.background&quot; description=&quot;Date Background&quot; type=&quot;background&quot; color=&quot;transparent&quot;\ndefault=&quot;$(color) none no-repeat scroll top left&quot; /&gt;\n&lt;Variable name=&quot;date.first.border.radius.top&quot; description=&quot;Date First top radius&quot; type=&quot;length&quot; default=&quot;0&quot; /&gt;\n&lt;Variable name=&quot;date.last.space.bottom&quot; description=&quot;Date Last Space Bottom&quot; type=&quot;length&quot;\ndefault=&quot;20px&quot; /&gt;\n&lt;Variable name=&quot;date.last.border.radius.bottom&quot; description=&quot;Date Last bottom radius&quot; type=&quot;length&quot; default=&quot;0&quot; /&gt;\n&lt;Variable name=&quot;post.first.padding.top&quot; description=&quot;First Post Padding Top&quot; type=&quot;length&quot; default=&quot;0&quot; /&gt;\n&lt;Variable name=&quot;image.shadow.spread&quot; description=&quot;Image Shadow Size&quot; type=&quot;length&quot; default=&quot;0&quot;/&gt;\n&lt;Variable name=&quot;image.border.radius&quot; description=&quot;Image Border Radius&quot; type=&quot;length&quot; default=&quot;0&quot;/&gt;\n&lt;Variable name=&quot;separator.outdent&quot; description=&quot;Separator Outdent&quot; type=&quot;length&quot; default=&quot;15px&quot; /&gt;\n&lt;Variable name=&quot;title.separator.border.size&quot; description=&quot;Widget Title Border Size&quot; type=&quot;length&quot; default=&quot;1px&quot; /&gt;\n&lt;Variable name=&quot;list.separator.border.size&quot; description=&quot;List Separator Border Size&quot; type=&quot;length&quot; default=&quot;1px&quot; /&gt;\n&lt;Variable name=&quot;shadow.spread&quot; description=&quot;Shadow Size&quot; type=&quot;length&quot; default=&quot;0&quot;/&gt;\n&lt;Variable name=&quot;startSide&quot; description=&quot;Side where text starts in blog language&quot; type=&quot;automatic&quot; default=&quot;left&quot;/&gt;\n&lt;Variable name=&quot;endSide&quot; description=&quot;Side where text ends in blog language&quot; type=&quot;automatic&quot; default=&quot;right&quot;/&gt;\n&lt;Variable name=&quot;date.side&quot; description=&quot;Side where date header is placed&quot; type=&quot;string&quot; default=&quot;right&quot;/&gt;\n&lt;Variable name=&quot;pager.border.radius.top&quot; description=&quot;Pager Border Top Radius&quot; type=&quot;length&quot; default=&quot;0&quot; /&gt;\n&lt;Variable name=&quot;pager.space.top&quot; description=&quot;Pager Top Space&quot; type=&quot;length&quot; default=&quot;1em&quot; /&gt;\n&lt;Variable name=&quot;footer.background.gradient&quot; description=&quot;Background Gradient&quot; type=&quot;url&quot; default=&quot;none&quot; /&gt;\n&lt;Variable name=&quot;mobile.background.size&quot; description=&quot;Mobile Background Size&quot; type=&quot;string&quot;\ndefault=&quot;auto&quot;/&gt;\n&lt;Variable name=&quot;mobile.background.overlay&quot; description=&quot;Mobile Background Overlay&quot; type=&quot;string&quot;\ndefault=&quot;transparent none repeat scroll top left&quot;/&gt;\n&lt;Variable name=&quot;mobile.button.color&quot; description=&quot;Mobile Button Color&quot; type=&quot;color&quot; default=&quot;#ffffff&quot; /&gt;\n*/\n/* Content\n----------------------------------------------- */\nbody {\nfont: normal bold 16px Chewy;\ncolor: #ffffff;\nbackground: #000000 url(http://themes.googleusercontent.com/image?id=1fPzKKjY9pDchHIeFXfLO2zY1SYfTku0PLrkb-Aiu7meqodh01WKnpNCHAuTcBrMZaM6D) repeat-x scroll top center /* Credit: imagedepotpro (http://www.istockphoto.com/googleimages.php?id=4489297&amp;platform=blogger) */;\n}\nhtml body .content-outer {\nmin-width: 0;\nmax-width: 100%;\nwidth: 100%;\n}\na:link {\ntext-decoration: none;\ncolor: #4a4a4a;\n}\na:visited {\ntext-decoration: none;\ncolor: #000000;\n}\na:hover {\ntext-decoration: underline;\ncolor: #b9b9b9;\n}\n.body-fauxcolumn-outer .cap-top {\nposition: absolute;\nz-index: 1;\nheight: 276px;\nwidth: 100%;\nbackground: transparent none repeat-x scroll top left;\n_background-image: none;\n}\n/* Columns\n----------------------------------------------- */\n.content-inner {\npadding: 0;\n}\n.header-inner .section {\nmargin: 0 16px;\n}\n.tabs-inner .section {\nmargin: 0 16px;\n}\n.main-inner {\npadding-top: 30px;\n}\n.main-inner .column-center-inner,\n.main-inner .column-left-inner,\n.main-inner .column-right-inner {\npadding: 0 5px;\n}\n*+html body .main-inner .column-center-inner {\nmargin-top: -30px;\n}\n#layout .main-inner .column-center-inner {\nmargin-top: 0;\n}\n/* Header\n----------------------------------------------- */\n.header-outer {\nmargin: 0 0 0 0;\nbackground: transparent none repeat scroll 0 0;\n}\n.Header h1 {\nfont: normal bold 40px Geo;\ncolor: #adb0b4;\ntext-shadow: 0 0 -1px #000000;\n}\n.Header h1 a {\ncolor: #adb0b4;\n}\n.Header .description {\nfont: normal normal 14px Arial, Tahoma, Helvetica, FreeSans, sans-serif;\ncolor: #ffffff;\n}\n.header-inner .Header .titlewrapper,\n.header-inner .Header .descriptionwrapper {\npadding-left: 0;\npadding-right: 0;\nmargin-bottom: 0;\n}\n.header-inner .Header .titlewrapper {\npadding-top: 22px;\n}\n/* Tabs\n----------------------------------------------- */\n.tabs-outer {\noverflow: hidden;\nposition: relative;\nbackground: #000000 none repeat scroll 0 0;\n}\n#layout .tabs-outer {\noverflow: visible;\n}\n.tabs-cap-top, .tabs-cap-bottom {\nposition: absolute;\nwidth: 100%;\nborder-top: 1px solid #000000;\n}\n.tabs-cap-bottom {\nbottom: 0;\n}\n.tabs-inner .widget li a {\ndisplay: inline-block;\nmargin: 0;\npadding: .6em 1.5em;\nfont: normal bold 14px Arial, Tahoma, Helvetica, FreeSans, sans-serif;\ncolor: #ffffff;\nborder-top: 1px solid #000000;\nborder-bottom: 1px solid #000000;\nborder-left: 1px solid #000000;\nheight: 16px;\nline-height: 16px;\n}\n.tabs-inner .widget li:last-child a {\nborder-right: 1px solid #000000;\n}\n.tabs-inner .widget li.selected a, .tabs-inner .widget li a:hover {\nbackground: #000000 none repeat-x scroll 0 -100px;\ncolor: #ffffff;\n}\n/* Headings\n----------------------------------------------- */\nh2 {\nfont: normal bold 14px Arial, Tahoma, Helvetica, FreeSans, sans-serif;\ncolor: #ffffff;\n}\n/* Widgets\n----------------------------------------------- */\n.main-inner .section {\nmargin: 0 27px;\npadding: 0;\n}\n.main-inner .column-left-outer,\n.main-inner .column-right-outer {\nmargin-top: 0;\n}\n#layout .main-inner .column-left-outer,\n#layout .main-inner .column-right-outer {\nmargin-top: 0;\n}\n.main-inner .column-left-inner,\n.main-inner .column-right-inner {\nbackground: transparent none repeat 0 0;\n-moz-box-shadow: 0 0 0 rgba(0, 0, 0, .2);\n-webkit-box-shadow: 0 0 0 rgba(0, 0, 0, .2);\n-goog-ms-box-shadow: 0 0 0 rgba(0, 0, 0, .2);\nbox-shadow: 0 0 0 rgba(0, 0, 0, .2);\n-moz-border-radius: 0;\n-webkit-border-radius: 0;\n-goog-ms-border-radius: 0;\nborder-radius: 0;\n}\n#layout .main-inner .column-left-inner,\n#layout .main-inner .column-right-inner {\nmargin-top: 0;\n}\n.sidebar .widget {\nfont: normal normal 14px Arial, Tahoma, Helvetica, FreeSans, sans-serif;\ncolor: #ffffff;\n}\n.sidebar .widget a:link {\ncolor: #888888;\n}\n.sidebar .widget a:visited {\ncolor: #444444;\n}\n.sidebar .widget a:hover {\ncolor: #cccccc;\n}\n.sidebar .widget h2 {\ntext-shadow: 0 0 -1px #000000;\n}\n.main-inner .widget {\nbackground-color: #000000;\nborder: 1px solid #000000;\npadding: 0 15px 15px;\nmargin: 20px -16px;\n-moz-box-shadow: 0 0 0 rgba(0, 0, 0, .2);\n-webkit-box-shadow: 0 0 0 rgba(0, 0, 0, .2);\n-goog-ms-box-shadow: 0 0 0 rgba(0, 0, 0, .2);\nbox-shadow: 0 0 0 rgba(0, 0, 0, .2);\n-moz-border-radius: 0;\n-webkit-border-radius: 0;\n-goog-ms-border-radius: 0;\nborder-radius: 0;\n}\n.main-inner .widget h2 {\nmargin: 0 -15px;\npadding: .6em 15px .5em;\nborder-bottom: 1px solid #000000;\n}\n.footer-inner .widget h2 {\npadding: 0 0 .4em;\nborder-bottom: 1px solid #000000;\n}\n.main-inner .widget h2 + div, .footer-inner .widget h2 + div {\nborder-top: 1px solid #000000;\npadding-top: 8px;\n}\n.main-inner .widget .widget-content {\nmargin: 0 -15px;\npadding: 7px 15px 0;\n}\n.main-inner .widget ul, .main-inner .widget #ArchiveList ul.flat {\nmargin: -8px -15px 0;\npadding: 0;\nlist-style: none;\n}\n.main-inner .widget #ArchiveList {\nmargin: -8px 0 0;\n}\n.main-inner .widget ul li, .main-inner .widget #ArchiveList ul.flat li {\npadding: .5em 15px;\ntext-indent: 0;\ncolor: #000000;\nborder-top: 1px solid #000000;\nborder-bottom: 1px solid #000000;\n}\n.main-inner .widget #ArchiveList ul li {\npadding-top: .25em;\npadding-bottom: .25em;\n}\n.main-inner .widget ul li:first-child, .main-inner .widget #ArchiveList ul.flat li:first-child {\nborder-top: none;\n}\n.main-inner .widget ul li:last-child, .main-inner .widget #ArchiveList ul.flat li:last-child {\nborder-bottom: none;\n}\n.post-body {\nposition: relative;\n}\n.main-inner .widget .post-body ul {\npadding: 0 2.5em;\nmargin: .5em 0;\nlist-style: disc;\n}\n.main-inner .widget .post-body ul li {\npadding: 0.25em 0;\nmargin-bottom: .25em;\ncolor: #ffffff;\nborder: none;\n}\n.footer-inner .widget ul {\npadding: 0;\nlist-style: none;\n}\n.widget .zippy {\ncolor: #000000;\n}\n/* Posts\n----------------------------------------------- */\nbody .main-inner .Blog {\npadding: 0;\nmargin-bottom: 1em;\nbackground-color: transparent;\nborder: none;\n-moz-box-shadow: 0 0 0 rgba(0, 0, 0, 0);\n-webkit-box-shadow: 0 0 0 rgba(0, 0, 0, 0);\n-goog-ms-box-shadow: 0 0 0 rgba(0, 0, 0, 0);\nbox-shadow: 0 0 0 rgba(0, 0, 0, 0);\n}\n.main-inner .section:last-child .Blog:last-child {\npadding: 0;\nmargin-bottom: 1em;\n}\n.main-inner .widget h2.date-header {\nmargin: 0 -15px 1px;\npadding: 0 0 0 0;\nfont: normal normal 14px Arial, Tahoma, Helvetica, FreeSans, sans-serif;\ncolor: #000000;\nbackground: transparent none no-repeat scroll top left;\nborder-top: 0 solid #222222;\nborder-bottom: 1px solid #000000;\n-moz-border-radius-topleft: 0;\n-moz-border-radius-topright: 0;\n-webkit-border-top-left-radius: 0;\n-webkit-border-top-right-radius: 0;\nborder-top-left-radius: 0;\nborder-top-right-radius: 0;\nposition: static;\nbottom: 100%;\nright: 15px;\ntext-shadow: 0 0 -1px #000000;\n}\n.main-inner .widget h2.date-header span {\nfont: normal normal 14px Arial, Tahoma, Helvetica, FreeSans, sans-serif;\ndisplay: block;\npadding: .5em 15px;\nborder-left: 0 solid #222222;\nborder-right: 0 solid #222222;\n}\n.date-outer {\nposition: relative;\nmargin: 30px 0 20px;\npadding: 0 15px;\nbackground-color: #141414;\nborder: 1px solid #222222;\n-moz-box-shadow: 0 0 0 rgba(0, 0, 0, .2);\n-webkit-box-shadow: 0 0 0 rgba(0, 0, 0, .2);\n-goog-ms-box-shadow: 0 0 0 rgba(0, 0, 0, .2);\nbox-shadow: 0 0 0 rgba(0, 0, 0, .2);\n-moz-border-radius: 0;\n-webkit-border-radius: 0;\n-goog-ms-border-radius: 0;\nborder-radius: 0;\n}\n.date-outer:first-child {\nmargin-top: 0;\n}\n.date-outer:last-child {\nmargin-bottom: 20px;\n-moz-border-radius-bottomleft: 0;\n-moz-border-radius-bottomright: 0;\n-webkit-border-bottom-left-radius: 0;\n-webkit-border-bottom-right-radius: 0;\n-goog-ms-border-bottom-left-radius: 0;\n-goog-ms-border-bottom-right-radius: 0;\nborder-bottom-left-radius: 0;\nborder-bottom-right-radius: 0;\n}\n.date-posts {\nmargin: 0 -15px;\npadding: 0 15px;\nclear: both;\n}\n.post-outer, .inline-ad {\nborder-top: 1px solid #222222;\nmargin: 0 -15px;\npadding: 15px 15px;\n}\n.post-outer {\npadding-bottom: 10px;\n}\n.post-outer:first-child {\npadding-top: 0;\nborder-top: none;\n}\n.post-outer:last-child, .inline-ad:last-child {\nborder-bottom: none;\n}\n.post-body {\nposition: relative;\n}\n.post-body img {\npadding: 8px;\nbackground: #000000;\nborder: 1px solid transparent;\n-moz-box-shadow: 0 0 0 rgba(0, 0, 0, .2);\n-webkit-box-shadow: 0 0 0 rgba(0, 0, 0, .2);\nbox-shadow: 0 0 0 rgba(0, 0, 0, .2);\n-moz-border-radius: 0;\n-webkit-border-radius: 0;\nborder-radius: 0;\n}\nh3.post-title, h4 {\nfont: normal bold 22px Arial, Tahoma, Helvetica, FreeSans, sans-serif;\ncolor: #ffffff;\n}\nh3.post-title a {\nfont: normal bold 22px Arial, Tahoma, Helvetica, FreeSans, sans-serif;\ncolor: #ffffff;\n}\nh3.post-title a:hover {\ncolor: #b9b9b9;\ntext-decoration: underline;\n}\n.post-header {\nmargin: 0 0 1em;\n}\n.post-body {\nline-height: 1.4;\n}\n.post-outer h2 {\ncolor: #ffffff;\n}\n.post-footer {\nmargin: 1.5em 0 0;\n}\n#blog-pager {\npadding: 15px;\nfont-size: 120%;\nbackground-color: #141414;\nborder: 1px solid #000000;\n-moz-box-shadow: 0 0 0 rgba(0, 0, 0, .2);\n-webkit-box-shadow: 0 0 0 rgba(0, 0, 0, .2);\n-goog-ms-box-shadow: 0 0 0 rgba(0, 0, 0, .2);\nbox-shadow: 0 0 0 rgba(0, 0, 0, .2);\n-moz-border-radius: 0;\n-webkit-border-radius: 0;\n-goog-ms-border-radius: 0;\nborder-radius: 0;\n-moz-border-radius-topleft: 0;\n-moz-border-radius-topright: 0;\n-webkit-border-top-left-radius: 0;\n-webkit-border-top-right-radius: 0;\n-goog-ms-border-top-left-radius: 0;\n-goog-ms-border-top-right-radius: 0;\nborder-top-left-radius: 0;\nborder-top-right-radius-topright: 0;\nmargin-top: 1em;\n}\n.blog-feeds, .post-feeds {\nmargin: 1em 0;\ntext-align: center;\ncolor: #ffffff;\n}\n.blog-feeds a, .post-feeds a {\ncolor: #888888;\n}\n.blog-feeds a:visited, .post-feeds a:visited {\ncolor: #444444;\n}\n.blog-feeds a:hover, .post-feeds a:hover {\ncolor: #cccccc;\n}\n.post-outer .comments {\nmargin-top: 2em;\n}\n/* Comments\n----------------------------------------------- */\n.comments .comments-content .icon.blog-author {\nbackground-repeat: no-repeat;\nbackground-image: url(data:image/png;base64,iVBORw0KGgoAAAANSUhEUgAAABIAAAASCAYAAABWzo5XAAAAAXNSR0IArs4c6QAAAAZiS0dEAP8A/wD/oL2nkwAAAAlwSFlzAAALEgAACxIB0t1+/AAAAAd0SU1FB9sLFwMeCjjhcOMAAAD+SURBVDjLtZSvTgNBEIe/WRRnm3U8RC1neQdsm1zSBIU9VVF1FkUguQQsD9ITmD7ECZIJSE4OZo9stoVjC/zc7ky+zH9hXwVwDpTAWWLrgS3QAe8AZgaAJI5zYAmc8r0G4AHYHQKVwII8PZrZFsBFkeRCABYiMh9BRUhnSkPTNCtVXYXURi1FpBDgArj8QU1eVXUzfnjv7yP7kwu1mYrkWlU33vs1QNu2qU8pwN0UpKoqokjWwCztrMuBhEhmh8bD5UDqur75asbcX0BGUB9/HAMB+r32hznJgXy2v0sGLBcyAJ1EK3LFcbo1s91JeLwAbwGYu7TP/3ZGfnXYPgAVNngtqatUNgAAAABJRU5ErkJggg==);\n}\n.comments .comments-content .loadmore a {\nborder-top: 1px solid #000000;\nborder-bottom: 1px solid #000000;\n}\n.comments .continue {\nborder-top: 2px solid #000000;\n}\n/* Footer\n----------------------------------------------- */\n.footer-outer {\nmargin: -0 0 -1px;\npadding: 0 0 0;\ncolor: #ffffff;\noverflow: hidden;\n}\n.footer-fauxborder-left {\nborder-top: 1px solid #000000;\nbackground: #141414 none repeat scroll 0 0;\n-moz-box-shadow: 0 0 0 rgba(0, 0, 0, .2);\n-webkit-box-shadow: 0 0 0 rgba(0, 0, 0, .2);\n-goog-ms-box-shadow: 0 0 0 rgba(0, 0, 0, .2);\nbox-shadow: 0 0 0 rgba(0, 0, 0, .2);\nmargin: 0 -0;\n}\n/* Mobile\n----------------------------------------------- */\nbody.mobile {\nbackground-size: auto;\n}\n.mobile .body-fauxcolumn-outer {\nbackground: transparent none repeat scroll top left;\n}\n*+html body.mobile .main-inner .column-center-inner {\nmargin-top: 0;\n}\n.mobile .main-inner .widget {\npadding: 0 0 15px;\n}\n.mobile .main-inner .widget h2 + div,\n.mobile .footer-inner .widget h2 + div {\nborder-top: none;\npadding-top: 0;\n}\n.mobile .footer-inner .widget h2 {\npadding: 0.5em 0;\nborder-bottom: none;\n}\n.mobile .main-inner .widget .widget-content {\nmargin: 0;\npadding: 7px 0 0;\n}\n.mobile .main-inner .widget ul,\n.mobile .main-inner .widget #ArchiveList ul.flat {\nmargin: 0 -15px 0;\n}\n.mobile .main-inner .widget h2.date-header {\nright: 0;\n}\n.mobile .date-header span {\npadding: 0.4em 0;\n}\n.mobile .date-outer:first-child {\nmargin-bottom: 0;\nborder: 1px solid #222222;\n-moz-border-radius-topleft: 0;\n-moz-border-radius-topright: 0;\n-webkit-border-top-left-radius: 0;\n-webkit-border-top-right-radius: 0;\n-goog-ms-border-top-left-radius: 0;\n-goog-ms-border-top-right-radius: 0;\nborder-top-left-radius: 0;\nborder-top-right-radius: 0;\n}\n.mobile .date-outer {\nborder-color: #222222;\nborder-width: 0 1px 1px;\n}\n.mobile .date-outer:last-child {\nmargin-bottom: 0;\n}\n.mobile .main-inner {\npadding: 0;\n}\n.mobile .header-inner .section {\nmargin: 0;\n}\n.mobile .blog-posts {\npadding: 0 10px;\n}\n.mobile .post-outer, .mobile .inline-ad {\npadding: 5px 0;\n}\n.mobile .tabs-inner .section {\nmargin: 0 10px;\n}\n.mobile .main-inner .widget h2 {\nmargin: 0;\npadding: 0;\n}\n.mobile .main-inner .widget h2.date-header span {\npadding: 0;\n}\n.mobile .main-inner .widget .widget-content {\nmargin: 0;\npadding: 7px 0 0;\n}\n.mobile #blog-pager {\nborder: 1px solid transparent;\nbackground: #141414 none repeat scroll 0 0;\n}\n.mobile .main-inner .column-left-inner,\n.mobile .main-inner .column-right-inner {\nbackground: transparent none repeat 0 0;\n-moz-box-shadow: none;\n-webkit-box-shadow: none;\n-goog-ms-box-shadow: none;\nbox-shadow: none;\n}\n.mobile .date-posts {\nmargin: 0;\npadding: 0;\n}\n.mobile .footer-fauxborder-left {\nmargin: 0;\nborder-top: inherit;\n}\n.mobile .main-inner .section:last-child .Blog:last-child {\nmargin-bottom: 0;\n}\n.mobile-index-contents {\ncolor: #ffffff;\n}\n.mobile .mobile-link-button {\nbackground: #4a4a4a none repeat scroll 0 0;\n}\n.mobile-link-button a:link, .mobile-link-button a:visited {\ncolor: #ffffff;\n}\n.mobile .tabs-inner .PageList .widget-content {\nbackground: transparent;\nborder-top: 1px solid;\nborder-color: #000000;\ncolor: #ffffff;\n}\n.mobile .tabs-inner .PageList .widget-content .pagelist-arrow {\nborder-left: 1px solid #000000;\n}\n\n--&gt;\n    </style>\n    <style type="text/css" id="template-skin-1">\n      &lt;!--\nbody {\nmin-width: 930px;\n}\n.content-outer, .content-fauxcolumn-outer, .region-inner {\nmin-width: 930px;\nmax-width: 930px;\n_width: 930px;\n}\n.main-inner .columns {\npadding-left: 180px;\npadding-right: 180px;\n}\n.main-inner .fauxcolumn-center-outer {\nleft: 180px;\nright: 180px;\n/* IE6 does not respect left and right together */\n_width: expression(this.parentNode.offsetWidth -\nparseInt(&quot;180px&quot;) -\nparseInt(&quot;180px&quot;) + \'px\');\n}\n.main-inner .fauxcolumn-left-outer {\nwidth: 180px;\n}\n.main-inner .fauxcolumn-right-outer {\nwidth: 180px;\n}\n.main-inner .column-left-outer {\nwidth: 180px;\nright: 100%;\nmargin-left: -180px;\n}\n.main-inner .column-right-outer {\nwidth: 180px;\nmargin-right: -180px;\n}\n#layout {\nmin-width: 0;\n}\n#layout .content-outer {\nmin-width: 0;\nwidth: 800px;\n}\n#layout .region-inner {\nmin-width: 0;\nwidth: auto;\n}\n--&gt;\n    </style>\n    <script type="text/javascript">\n      var a=navigator,b=&quot;userAgent&quot;,c=&quot;indexOf&quot;,f=&quot;&amp;m=1&quot;,g=&quot;(^|&amp;)m=&quot;,h=&quot;?&quot;,i=&quot;?m=1&quot;;function j(){var d=window.location.href,e=d.split(h);switch(e.length){case 1:return d+i;case 2:return 0&lt;=e[1].search(g)?null:d+f;default:return null}}if(-1!=a[b][c](&quot;Mobile&quot;)&amp;&amp;-1!=a[b][c](&quot;WebKit&quot;)&amp;&amp;-1==a[b][c](&quot;iPad&quot;)||-1!=a[b][c](&quot;Opera Mini&quot;)||-1!=a[b][c](&quot;IEMobile&quot;)){var k=j();k&amp;&amp;window.location.replace(k)};\n    </script>\n    <script type="text/javascript"> if (window.jstiming) window.jstiming.load.tick(\'headEnd\'); </script>\n  </head>\n  <body class="loading">\n    <div id="navbar" class="navbar section">\n      <div id="Navbar1" class="widget Navbar">\n        <script type="text/javascript"> function setAttributeOnload(object, attribute, val) { if(window.addEventListener) { window.addEventListener(\'load\', function(){ object[attribute] = val; }, false); } else { window.attachEvent(\'onload\', function(){ object[attribute] = val; }); } } </script>\n        <div id="navbar-iframe-container"></div>\n        <script src="https://apis.google.com/js/plusone.js" type="text/javascript"></script>\n        <script type="text/javascript">\n          gapi.load(&quot;iframes-styles-bubble&quot;, function() {\n          if (window.iframes &amp;&amp; iframes.open) {\n            iframes.open(\n                \'//www.blogger.com/navbar.g?targetBlogID\\0753577064379726302641\\46blogName\\75Akshay+kumar\\46publishMode\\75PUBLISH_MODE_BLOGSPOT\\46navbarType\\75BLUE\\46layoutType\\75LAYOUTS\\46searchRoot\\75http://akshaykumar-akki.blogspot.com/search\\46blogLocale\\75en\\46v\\0752\\46homepageUrl\\75http://akshaykumar-akki.blogspot.com/\\46vt\\75-2623652776992652522\',\n                {\n                  container: &quot;navbar-iframe-container&quot;,\n                  id: &quot;navbar-iframe&quot;\n                },\n                {\n                });\n          }\n        });\n        </script>\n        <script type="text/javascript">\n          (function() {\nvar script = document.createElement(\'script\');\nscript.type = \'text/javascript\';\nscript.src = \'//pagead2.googlesyndication.com/pagead/js/google_top_exp.js\';\nvar head = document.getElementsByTagName(\'head\')[0];\nif (head) {\nhead.appendChild(script);\n}})();\n        </script>\n      </div>\n    </div>\n    <div style="display: none;" itemtype="http://schema.org/Blog" itemscope="itemscope"> </div>\n  </body>\n  <head>\n    <meta itemprop="name" content="Akshay kumar"></meta>\n  </head>\n  <body>\n    <div class="body-fauxcolumns">\n      <div class="fauxcolumn-outer body-fauxcolumn-outer">\n        <div class="cap-top">\n          <div class="cap-left"></div>\n          <div class="cap-right"></div>\n        </div>\n        <div class="fauxborder-left">\n          <div class="fauxborder-right"></div>\n          <div class="fauxcolumn-inner"> </div>\n        </div>\n        <div class="cap-bottom">\n          <div class="cap-left"></div>\n          <div class="cap-right"></div>\n        </div>\n      </div>\n    </div>\n    <div class="content">\n      <div class="content-fauxcolumns">\n        <div class="fauxcolumn-outer content-fauxcolumn-outer">\n          <div class="cap-top">\n            <div class="cap-left"></div>\n            <div class="cap-right"></div>\n          </div>\n          <div class="fauxborder-left">\n            <div class="fauxborder-right"></div>\n            <div class="fauxcolumn-inner"> </div>\n          </div>\n          <div class="cap-bottom">\n            <div class="cap-left"></div>\n            <div class="cap-right"></div>\n          </div>\n        </div>\n      </div>\n      <div class="content-outer">\n        <div class="content-cap-top cap-top">\n          <div class="cap-left"></div>\n          <div class="cap-right"></div>\n        </div>\n        <div class="fauxborder-left content-fauxborder-left">\n          <div class="fauxborder-right content-fauxborder-right"></div>\n          <div class="content-inner">\n            <header>\n              <div class="header-outer">\n                <div class="header-cap-top cap-top">\n                  <div class="cap-left"></div>\n                  <div class="cap-right"></div>\n                </div>\n                <div class="fauxborder-left header-fauxborder-left">\n                  <div class="fauxborder-right header-fauxborder-right"></div>\n                  <div class="region-inner header-inner">\n                    <div id="header" class="header section">\n                      <div id="Header1" class="widget Header">\n                        <div id="header-inner">\n                          <div class="titlewrapper">\n                            <h1 class="title"> Akshay kumar </h1>\n                          </div>\n                          <div class="descriptionwrapper">\n                            <p class="description">\n                              <span> </span>\n                            </p>\n                          </div>\n                        </div>\n                      </div>\n                    </div>\n                  </div>\n                </div>\n                <div class="header-cap-bottom cap-bottom">\n                  <div class="cap-left"></div>\n                  <div class="cap-right"></div>\n                </div>\n              </div>\n            </header>\n            <div class="tabs-outer">\n              <div class="tabs-cap-top cap-top">\n                <div class="cap-left"></div>\n                <div class="cap-right"></div>\n              </div>\n              <div class="fauxborder-left tabs-fauxborder-left">\n                <div class="fauxborder-right tabs-fauxborder-right"></div>\n                <div class="region-inner tabs-inner">\n                  <div id="crosscol" class="tabs section">\n                    <div id="Slideshow1" class="widget Slideshow">\n                      <h2 class="title">Slideshow</h2>\n                      <div class="widget-content">\n                        <div id="Slideshow1_slideshow" class="slideshow-container">\n                          <span class="slideshow-status">Loading...</span>\n                        </div>\n                      </div>\n                      <div class="clear"></div>\n                      <span class="widget-item-control">\n                        <span class="item-control blog-admin">\n                          <a \n                          title="Edit" target="configSlideshow1" onclick="return _WidgetManager._PopupConfig(document.getElementById(&quot;Slideshow1&quot;));" href="//www.blogger.com/rearrange?blogID=3577064379726302641&amp;widgetType=Slideshow&amp;widgetId=Slideshow1&amp;action=editWidget&amp;sectionId=crosscol" class="quickedit" shape="rect">\n                            <img width="18" src="http://img1.blogblog.com/img/icon18_wrench_allbkg.png" height="18" alt=""></img>\n</a>\n                        </span>\n                      </span>\n                      <div class="clear"></div>\n                    </div>\n                  </div>\n                  <div id="crosscol-overflow" class="tabs section"></div>\n                </div>\n              </div>\n              <div class="tabs-cap-bottom cap-bottom">\n                <div class="cap-left"></div>\n                <div class="cap-right"></div>\n              </div>\n            </div>\n            <div class="main-outer">\n              <div class="main-cap-top cap-top">\n                <div class="cap-left"></div>\n                <div class="cap-right"></div>\n              </div>\n              <div class="fauxborder-left main-fauxborder-left">\n                <div class="fauxborder-right main-fauxborder-right"></div>\n                <div class="region-inner main-inner">\n                  <div class="columns fauxcolumns">\n                    <div class="fauxcolumn-outer fauxcolumn-center-outer">\n                      <div class="cap-top">\n                        <div class="cap-left"></div>\n                        <div class="cap-right"></div>\n                      </div>\n                      <div class="fauxborder-left">\n                        <div class="fauxborder-right"></div>\n                        <div class="fauxcolumn-inner"> </div>\n                      </div>\n                      <div class="cap-bottom">\n                        <div class="cap-left"></div>\n                        <div class="cap-right"></div>\n                      </div>\n                    </div>\n                    <div class="fauxcolumn-outer fauxcolumn-left-outer">\n                      <div class="cap-top">\n                        <div class="cap-left"></div>\n                        <div class="cap-right"></div>\n                      </div>\n                      <div class="fauxborder-left">\n                        <div class="fauxborder-right"></div>\n                        <div class="fauxcolumn-inner"> </div>\n                      </div>\n                      <div class="cap-bottom">\n                        <div class="cap-left"></div>\n                        <div class="cap-right"></div>\n                      </div>\n                    </div>\n                    <div class="fauxcolumn-outer fauxcolumn-right-outer">\n                      <div class="cap-top">\n                        <div class="cap-left"></div>\n                        <div class="cap-right"></div>\n                      </div>\n                      <div class="fauxborder-left">\n                        <div class="fauxborder-right"></div>\n                        <div class="fauxcolumn-inner"> </div>\n                      </div>\n                      <div class="cap-bottom">\n                        <div class="cap-left"></div>\n                        <div class="cap-right"></div>\n                      </div>\n                    </div>\n                    <div class="columns-inner">\n                      <div class="column-center-outer">\n                        <div class="column-center-inner">\n                          <div id="main" class="main section">\n                            <div id="Blog1" class="widget Blog">\n                              <div class="blog-posts hfeed">\n                                <div class="date-outer">\n                                  <h2 class="date-header">\n                                    <span>Thursday, February 24, 2011</span>\n                                  </h2>\n                                  <div class="date-posts">\n                                    <div class="post-outer">\n                                      <div itemtype="http://schema.org/BlogPosting" itemscope="itemscope" class="post hentry"> </div>\n                                    </div>\n                                  </div>\n                                </div>\n                              </div>\n                            </div>\n                          </div>\n                        </div>\n                      </div>\n                    </div>\n                  </div>\n                </div>\n              </div>\n            </div>\n          </div>\n        </div>\n      </div>\n    </div>\n  </body>\n  <head>\n    <meta itemprop="image_url" content="http://2.bp.blogspot.com/-isWGb4CKueg/TWcdDYV5ktI/AAAAAAAAACQ/CUa8VVl89Tc/s72-c/computertreasure.com+%252815%2529.jpg"></meta>\n  </head>\n  <body>\n    <a name="6309000059295429778" shape="rect"></a>\n    <div class="post-header">\n      <div class="post-header-line-1"></div>\n    </div>\n    <div itemprop="description articleBody" id="post-body-6309000059295429778" class="post-body entry-content">\n      <div trbidi="on" style="text-align: left;" dir="ltr">\n        <br clear="none"></br>\n        <div style="clear: both; text-align: center;" class="separator"></div>\n        <div style="clear: both; text-align: center;" class="separator"></div>\n        <div style="clear: both; text-align: center;" class="separator">\n          <a style="clear: left; float: left; margin-bottom: 1em; margin-right: 1em;" imageanchor="1" href="http://2.bp.blogspot.com/-isWGb4CKueg/TWcdDYV5ktI/AAAAAAAAACQ/CUa8VVl89Tc/s1600/computertreasure.com+%252815%2529.jpg" shape="rect">\n            <img width="320" src="http://2.bp.blogspot.com/-isWGb4CKueg/TWcdDYV5ktI/AAAAAAAAACQ/CUa8VVl89Tc/s320/computertreasure.com+%252815%2529.jpg" height="256" border="0"></img>\n          </a>\n        </div>\n        <span style="color: #666666;" class="Apple-style-span">\n          <b>\n            <span style="color: black; font-weight: normal;" class="Apple-style-span">\n              <b>\n                <span style="color: #666666; font-family: \'Times New Roman\';">The Lion is described as large, carnivorous feline mammal (Panthera leo). Lions have a short tawny coat, a tufted tail, and male lions have a heavy mane around the head and neck.</span>\n              </b>\n            </span>\n          </b>\n        </span>\n        <br clear="none"></br>\n        <div style="clear: both; text-align: center;" class="separator"></div>\n        <div style="clear: both; text-align: center;" class="separator">\n          <a style="clear: left; float: left; margin-bottom: 1em; margin-right: 1em;" imageanchor="1" href="http://4.bp.blogspot.com/-RLrru0aZWO8/TWcc2PhmlOI/AAAAAAAAACM/4R7gMe8KB_o/s1600/600_lion9.jpg" shape="rect">\n            <img width="320" src="http://4.bp.blogspot.com/-RLrru0aZWO8/TWcc2PhmlOI/AAAAAAAAACM/4R7gMe8KB_o/s320/600_lion9.jpg" height="240" border="0"></img>\n          </a>\n        </div>\n        <span style="color: #666666;" class="Apple-style-span">\n          <b>\n            <span style="color: black; font-family: sans-serif; font-size: 13px; font-weight: normal; line-height: 19px;" class="Apple-style-span"></span>\n          </b>\n        </span>\n        <br clear="none"></br>\n        <div style="line-height: 1.5em; margin-bottom: 0.5em; margin-left: 0px; margin-right: 0px; margin-top: 0.4em;">\n          <span style="color: #666666;" class="Apple-style-span">\n            <b>\n              Asiatic lions are similar to African forms, though they have less swollen tympanic bullae, shorter\xc2\xa0\n              <a \n              title="Postorbital constriction" style="background-attachment: initial; background-clip: initial; background-color: initial; background-image: none; background-origin: initial; background-position: initial initial; background-repeat: initial initial; color: #0645ad; text-decoration: none;" href="http://en.wikipedia.org/wiki/Postorbital_constriction" class="mw-redirect" shape="rect">\n                postorbital constriction\n</a>\n              , and usually have divided\xc2\xa0\n              <a \n              style="background-attachment: initial; background-clip: initial; background-color: initial; background-image: none; background-origin: initial; background-position: initial initial; background-repeat: initial initial; color: #0645ad; text-decoration: none;" href="http://en.wikipedia.org/wiki/Infraorbital_foramen" shape="rect">\n                infraorbital foramen\n</a>\n              . The colour ranges from reddish-brown to a highly mottled black to sandy cinnamon grey.\n              <sup style="font-style: normal; font-weight: normal; line-height: 1em;" id="cite_ref-USSR_10-0" class="reference">\n                <a \n                style="background-attachment: initial; background-clip: initial; background-color: initial; background-image: none; background-origin: initial; background-position: initial initial; background-repeat: initial initial; color: #0645ad; text-decoration: none; white-space: nowrap;" href="http://en.wikipedia.org/wiki/Asiatic_Lion#cite_note-USSR-10" shape="rect">\n                  <span>[</span>\n                  11\n                  <span>]</span>\n</a>\n              </sup>\n            </b>\n          </span>\n        </div>\n        <div style="line-height: 1.5em; margin-bottom: 0.5em; margin-left: 0px; margin-right: 0px; margin-top: 0.4em;">\n          <span style="color: #666666;" class="Apple-style-span">\n            <b>\n              Their size corresponds to that of central African lions. In adult males, the maximum skull length is 330\xe2\x80\x93340\xc2\xa0mm, while that of females is 266\xe2\x80\x93277\xc2\xa0mm.\n              <sup style="font-style: normal; font-weight: normal; line-height: 1em;" id="cite_ref-USSR_10-1" class="reference">\n                <a \n                style="background-attachment: initial; background-clip: initial; background-color: initial; background-image: none; background-origin: initial; background-position: initial initial; background-repeat: initial initial; color: #0645ad; text-decoration: none; white-space: nowrap;" href="http://en.wikipedia.org/wiki/Asiatic_Lion#cite_note-USSR-10" shape="rect">\n                  <span>[</span>\n                  11\n                  <span>]</span>\n</a>\n              </sup>\n              \xc2\xa0They reach a weight of 160\xe2\x80\x93190\xc2\xa0kg. (n=4) for the males and 110\xe2\x80\x93120\xc2\xa0kg. (n=2) for the females.\n              <sup style="font-style: normal; font-weight: normal; line-height: 1em;" id="cite_ref-CAP_11-0" class="reference">\n                <a \n                style="background-attachment: initial; background-clip: initial; background-color: initial; background-image: none; background-origin: initial; background-position: initial initial; background-repeat: initial initial; color: #0645ad; text-decoration: none; white-space: nowrap;" href="http://en.wikipedia.org/wiki/Asiatic_Lion#cite_note-CAP-11" shape="rect">\n                  <span>[</span>\n                  12\n                  <span>]</span>\n</a>\n              </sup>\n              \xc2\xa0The scientific record for the longest male is of 292\xc2\xa0cm,\n              <sup style="font-style: normal; font-weight: normal; line-height: 1em;" id="cite_ref-Idem_12-0" class="reference">\n                <a \n                style="background-attachment: initial; background-clip: initial; background-color: initial; background-image: none; background-origin: initial; background-position: initial initial; background-repeat: initial initial; color: #0645ad; text-decoration: none; white-space: nowrap;" href="http://en.wikipedia.org/wiki/Asiatic_Lion#cite_note-Idem-12" shape="rect">\n                  <span>[</span>\n                  13\n                  <span>]</span>\n</a>\n              </sup>\n              \xc2\xa0while the maximum height to the shoulders reported is of 107\xc2\xa0cm.\n              <sup style="font-style: normal; font-weight: normal; line-height: 1em;" id="cite_ref-13" class="reference">\n                <a \n                style="background-attachment: initial; background-clip: initial; background-color: initial; background-image: none; background-origin: initial; background-position: initial initial; background-repeat: initial initial; color: #0645ad; text-decoration: none; white-space: nowrap;" href="http://en.wikipedia.org/wiki/Asiatic_Lion#cite_note-13" shape="rect">\n                  <span>[</span>\n                  14\n                  <span>]</span>\n</a>\n              </sup>\n              \xc2\xa0The Captain Smee hunted a male of 268\xc2\xa0cm long, which weight 222.3\xc2\xa0kg, excluding the entrails.\n              <sup style="font-style: normal; font-weight: normal; line-height: 1em;" id="cite_ref-Idem_12-1" class="reference">\n                <a \n                style="background-attachment: initial; background-clip: initial; background-color: initial; background-image: none; background-origin: initial; background-position: initial initial; background-repeat: initial initial; color: #0645ad; text-decoration: none; white-space: nowrap;" href="http://en.wikipedia.org/wiki/Asiatic_Lion#cite_note-Idem-12" shape="rect">\n                  <span>[</span>\n                  13\n                  <span>]</span>\n</a>\n              </sup>\n              \xc2\xa0The largest known wild male, in the hunting records, was exactly 3\xc2\xa0m (9.9\xc2\xa0ft) in length.\n              <sup style="font-style: normal; font-weight: normal; line-height: 1em;" id="cite_ref-14" class="reference">\n                <a \n                style="background-attachment: initial; background-clip: initial; background-color: initial; background-image: none; background-origin: initial; background-position: initial initial; background-repeat: initial initial; color: #0645ad; text-decoration: none; white-space: nowrap;" href="http://en.wikipedia.org/wiki/Asiatic_Lion#cite_note-14" shape="rect">\n                  <span>[</span>\n                  15\n                  <span>]</span>\n</a>\n              </sup>\n            </b>\n          </span>\n        </div>\n        <div style="line-height: 1.5em; margin-bottom: 0.5em; margin-left: 0px; margin-right: 0px; margin-top: 0.4em;">\n          <span style="color: #666666;" class="Apple-style-span">\n            <b>\n              Asiatic lions are highly social\xc2\xa0\n              <a \n              title="Animal" style="background-attachment: initial; background-clip: initial; background-color: initial; background-image: none; background-origin: initial; background-position: initial initial; background-repeat: initial initial; color: #0645ad; text-decoration: none;" href="http://en.wikipedia.org/wiki/Animal" shape="rect">\n                animals\n</a>\n              , living in units called prides. Their lion prides are smaller than those of African lions, with an average of only two females, whereas an African pride has an average of four to six. The Asiatic males are less social and only associate with the pride when mating or on a large kill. It has been suggested that this may be because their prey animals are smaller than those in Africa, requiring fewer hunters to tackle them.\n              <sup style="font-style: normal; font-weight: normal; line-height: 1em;" id="cite_ref-15" class="reference">\n                <a \n                style="background-attachment: initial; background-clip: initial; background-color: initial; background-image: none; background-origin: initial; background-position: initial initial; background-repeat: initial initial; color: #0645ad; text-decoration: none; white-space: nowrap;" href="http://en.wikipedia.org/wiki/Asiatic_Lion#cite_note-15" shape="rect">\n                  <span>[</span>\n                  16\n                  <span>]</span>\n</a>\n              </sup>\n              \xc2\xa0Asiatic lions prey predominantly on deer (\n              <a \n              title="Sambar (deer)" style="background-attachment: initial; background-clip: initial; background-color: initial; background-image: none; background-origin: initial; background-position: initial initial; background-repeat: initial initial; color: #0645ad; text-decoration: none;" href="http://en.wikipedia.org/wiki/Sambar_(deer)" shape="rect">\n                sambar\n</a>\n              \xc2\xa0&amp;\n              <a \n              style="background-attachment: initial; background-clip: initial; background-color: initial; background-image: none; background-origin: initial; background-position: initial initial; background-repeat: initial initial; color: #0645ad; text-decoration: none;" href="http://en.wikipedia.org/wiki/Chital" shape="rect">\n                chital\n</a>\n              ), antelope (\n              <a \n              style="background-attachment: initial; background-clip: initial; background-color: initial; background-image: none; background-origin: initial; background-position: initial initial; background-repeat: initial initial; color: #0645ad; text-decoration: none;" href="http://en.wikipedia.org/wiki/Nilgai" shape="rect">\n                nilgai\n</a>\n              ), gazelle (\n              <a \n              style="background-attachment: initial; background-clip: initial; background-color: initial; background-image: none; background-origin: initial; background-position: initial initial; background-repeat: initial initial; color: #0645ad; text-decoration: none;" href="http://en.wikipedia.org/wiki/Chinkara" shape="rect">\n                chinkara\n</a>\n              ),\xc2\xa0\n              <a \n              style="background-attachment: initial; background-clip: initial; background-color: initial; background-image: none; background-origin: initial; background-position: initial initial; background-repeat: initial initial; color: #0645ad; text-decoration: none;" href="http://en.wikipedia.org/wiki/Wild_boar" shape="rect">\n                wild boar\n</a>\n              ,\xc2\xa0\n              <a \n              title="Water buffalo" style="background-attachment: initial; background-clip: initial; background-color: initial; background-image: none; background-origin: initial; background-position: initial initial; background-repeat: initial initial; color: #0645ad; text-decoration: none;" href="http://en.wikipedia.org/wiki/Water_buffalo" class="mw-redirect" shape="rect">\n                water buffalo\n</a>\n              \xc2\xa0and\xc2\xa0\n              <a \n              style="background-attachment: initial; background-clip: initial; background-color: initial; background-image: none; background-origin: initial; background-position: initial initial; background-repeat: initial initial; color: #0645ad; text-decoration: none;" href="http://en.wikipedia.org/wiki/Livestock" shape="rect">\n                livestock\n</a>\n              .\n            </b>\n          </span>\n        </div>\n        <br clear="none"></br>\n        <span style="color: #666666;" class="Apple-style-span">\n          <b>\n            <span style="color: black; font-weight: normal;" class="Apple-style-span">\n              <b>\n                <span style="color: #666666; font-family: \'Times New Roman\';">\n                  <span style="color: black; font-weight: normal;" class="Apple-style-span">\n                    <b>\n                      <span style="color: #666666; font-family: \'Times New Roman\';">\n                        <img src="http://images.nationalgeographic.com/wpf/media-live/photos/000/006/cache/mountain-lion_637_600x450.jpg" alt="Photo: A mountain lion watches its territory from a rock"></img>\n                      </span>\n                    </b>\n                  </span>\n                </span>\n              </b>\n            </span>\n          </b>\n        </span>\n        <br clear="none"></br>\n        <span style="color: #666666;" class="Apple-style-span">\n          <b>\n            <span style="color: black; font-weight: normal;" class="Apple-style-span">\n              <b>\n                <span style="color: #666666; font-family: \'Times New Roman\';">\n                  <span style="color: black; font-weight: normal;" class="Apple-style-span">\n                    <b>\n                      <span style="color: #666666; font-family: \'Times New Roman\';"></span>\n                    </b>\n                  </span>\n                </span>\n              </b>\n            </span>\n          </b>\n        </span>\n        <span style="color: #666666;" class="Apple-style-span">\n          <b>\n            <span style="color: black; font-weight: normal;" class="Apple-style-span">\n              <b>\n                <span style="color: #666666; font-family: \'Times New Roman\';">\n                  <span style="color: black; font-weight: normal;" class="Apple-style-span">\n                    <b>\n                      <span style="color: #666666; font-family: \'Times New Roman\';">\n                        The Mountain Lion is described as a large, powerful, carnivorous mammal ( Felis concolor ) of the family Felidae - a wild cat. The Mountain Lion is similar to the leopard usually having an unmarked tawny body. Black Mountain Lions can be described as an unspotted leopards with dark brown hair and very sharp emerald eyes. Their hind legs are larger than the front legs on a long body and neck with a small head, short face a long tail.\n                      </span>\n                    </b>\n                  </span>\n                </span>\n              </b>\n            </span>\n          </b>\n        </span>\n        <br clear="none"></br>\n        <div style="clear: both; text-align: center;" class="separator">\n          <object data-thumbnail-src="http://3.gvt0.com/vi/4ROCySGH1eM/0.jpg" codebase="http://download.macromedia.com/pub/shockwave/cabs/flash/swflash.cab#version=6,0,40,0" classid="clsid:D27CDB6E-AE6D-11cf-96B8-444553540000" height="266" width="320" class="BLOGGER-youtube-video">\n            <param value="http://www.youtube.com/v/4ROCySGH1eM&amp;fs=1&amp;source=uds" name="movie" valuetype="data"></param>\n            <param value="#FFFFFF" name="bgcolor" valuetype="data"></param>\n            <embed type="application/x-shockwave-flash" src="http://www.youtube.com/v/4ROCySGH1eM&amp;fs=1&amp;source=uds" height="266" width="320"></embed>\n          </object>\n        </div>\n        <span style="color: #666666;" class="Apple-style-span">\n          <b>\n            <span style="color: black; font-weight: normal;" class="Apple-style-span">\n              <b>\n                <span style="color: #666666; font-family: \'Times New Roman\';">\n                  <span style="color: black; font-weight: normal;" class="Apple-style-span">\n                    <b>\n                      <span style="color: #666666; font-family: \'Times New Roman\';">\n                        <br clear="none"></br>\n                      </span>\n                    </b>\n                  </span>\n                </span>\n              </b>\n            </span>\n          </b>\n        </span>\n      </div>\n      <div style="clear: both;"></div>\n    </div>\n    <div class="post-footer">\n      <div class="post-footer-line post-footer-line-1">\n        <span class="post-author vcard">\n          Posted by\n          <span itemtype="http://schema.org/Person" itemscope="itemscope" itemprop="author" class="fn"> </span>\n        </span>\n      </div>\n    </div>\n  </body>\n  <head>\n    <meta itemprop="url" content="http://www.blogger.com/profile/11179151022333497700"></meta>\n    <meta itemprop="articleBody/aiaBlogId" content="3577064379726302641"></meta>\n    <meta itemprop="articleBody/aiaPostId" content="6309000059295429778"></meta>\n  </head>\n  <body>\n    <a title="author profile" rel="author" href="http://www.blogger.com/profile/11179151022333497700" shape="rect">\n      <span itemprop="name">Akki</span>\n    </a>\n    <span class="post-timestamp"> at </span>\n  </body>\n  <head>\n    <meta itemprop="url" content="http://akshaykumar-akki.blogspot.com/2011/02/lion-is-described-as-large-carnivorous.html"></meta>\n  </head>\n  <body>\n    <a title="permanent link" rel="bookmark" href="http://akshaykumar-akki.blogspot.com/2011/02/lion-is-described-as-large-carnivorous.html" class="timestamp-link" shape="rect">\n      <abbr title="2011-02-24T19:20:00-08:00" itemprop="datePublished" class="published">7:20 PM</abbr>\n    </a>\n    <span class="post-labels"> </span>\n    <span class="post-comment-link">\n      <a onclick="" href="http://akshaykumar-akki.blogspot.com/2011/02/lion-is-described-as-large-carnivorous.html#comment-form" class="comment-link" shape="rect"> No comments: </a>\n    </span>\n    <span class="post-icons">\n      <span class="item-control blog-admin pid-1324829728">\n        <a title="Edit Post" href="http://www.blogger.com/post-edit.g?blogID=3577064379726302641&amp;postID=6309000059295429778&amp;from=pencil" shape="rect">\n          <img width="18" src="http://img2.blogblog.com/img/icon18_edit_allbkg.gif" height="18" alt="" class="icon-action"></img>\n        </a>\n      </span>\n    </span>\n    <div class="post-share-buttons goog-inline-block">\n      <a title="Email This" target="_blank" href="http://www.blogger.com/share-post.g?blogID=3577064379726302641&amp;postID=6309000059295429778&amp;target=email" class="goog-inline-block share-button sb-email" shape="rect">\n        <span class="share-button-link-text">Email This</span>\n      </a>\n      <a \n      title="BlogThis!" target="_blank" onclick="window.open(this.href, &quot;_blank&quot;, &quot;height=270,width=475&quot;); return false;" href="http://www.blogger.com/share-post.g?blogID=3577064379726302641&amp;postID=6309000059295429778&amp;target=blog" class="goog-inline-block share-button sb-blog" shape="rect">\n        <span class="share-button-link-text">BlogThis!</span>\n</a>\n      <a title="Share to Twitter" target="_blank" href="http://www.blogger.com/share-post.g?blogID=3577064379726302641&amp;postID=6309000059295429778&amp;target=twitter" class="goog-inline-block share-button sb-twitter" shape="rect">\n        <span class="share-button-link-text">Share to Twitter</span>\n      </a>\n      <a \n      title="Share to Facebook" target="_blank" onclick="window.open(this.href, &quot;_blank&quot;, &quot;height=430,width=640&quot;); return false;" href="http://www.blogger.com/share-post.g?blogID=3577064379726302641&amp;postID=6309000059295429778&amp;target=facebook" class="goog-inline-block share-button sb-facebook" shape="rect">\n        <span class="share-button-link-text">Share to Facebook</span>\n</a>\n      <div class="goog-inline-block dummy-container">\n        <g:plusone annotation="inline" width="300" size="medium" href="http://akshaykumar-akki.blogspot.com/2011/02/lion-is-described-as-large-carnivorous.html" source="blogger:blog:plusone"></g:plusone>\n      </div>\n    </div>\n    <div class="post-footer-line post-footer-line-2"></div>\n    <div class="post-footer-line post-footer-line-3"></div>\n    <div class="post-outer">\n      <div itemtype="http://schema.org/BlogPosting" itemscope="itemscope" class="post hentry"> </div>\n    </div>\n  </body>\n  <head>\n    <meta itemprop="image_url" content="http://1.bp.blogspot.com/-TqnikA5DSbk/TWcWERz5_bI/AAAAAAAAACI/S3-6m0H0-4c/s72-c/Bleeding.jpg"></meta>\n  </head>\n  <body>\n    <a name="4336772398013411609" shape="rect"></a>\n    <div class="post-header">\n      <div class="post-header-line-1"></div>\n    </div>\n    <div itemprop="description articleBody" id="post-body-4336772398013411609" class="post-body entry-content">\n      <div trbidi="on" style="text-align: left;" dir="ltr">\n        <div style="clear: both; text-align: center;" class="separator">\n          <a style="clear: left; float: left; margin-bottom: 1em; margin-right: 1em;" imageanchor="1" href="http://1.bp.blogspot.com/-TqnikA5DSbk/TWcWERz5_bI/AAAAAAAAACI/S3-6m0H0-4c/s1600/Bleeding.jpg" shape="rect">\n            <img src="http://1.bp.blogspot.com/-TqnikA5DSbk/TWcWERz5_bI/AAAAAAAAACI/S3-6m0H0-4c/s1600/Bleeding.jpg" border="0"></img>\n          </a>\n        </div>\n        HI\n        <br clear="none"></br>\n        <br clear="none"></br>\n        I Akshay kumar visit and enjoy\n      </div>\n      <div style="clear: both;"></div>\n    </div>\n    <div class="post-footer">\n      <div class="post-footer-line post-footer-line-1">\n        <span class="post-author vcard">\n          Posted by\n          <span itemtype="http://schema.org/Person" itemscope="itemscope" itemprop="author" class="fn"> </span>\n        </span>\n      </div>\n    </div>\n  </body>\n  <head>\n    <meta itemprop="url" content="http://www.blogger.com/profile/11179151022333497700"></meta>\n    <meta itemprop="articleBody/aiaBlogId" content="3577064379726302641"></meta>\n    <meta itemprop="articleBody/aiaPostId" content="4336772398013411609"></meta>\n  </head>\n  <body>\n    <a title="author profile" rel="author" href="http://www.blogger.com/profile/11179151022333497700" shape="rect">\n      <span itemprop="name">Akki</span>\n    </a>\n    <span class="post-timestamp"> at </span>\n  </body>\n  <head>\n    <meta itemprop="url" content="http://akshaykumar-akki.blogspot.com/2011/02/hi-i-akshay-kumar-visit-and-enjoy.html"></meta>\n  </head>\n  <body>\n    <a title="permanent link" rel="bookmark" href="http://akshaykumar-akki.blogspot.com/2011/02/hi-i-akshay-kumar-visit-and-enjoy.html" class="timestamp-link" shape="rect">\n      <abbr title="2011-02-24T18:39:00-08:00" itemprop="datePublished" class="published">6:39 PM</abbr>\n    </a>\n    <span class="post-labels"> </span>\n    <span class="post-comment-link">\n      <a onclick="" href="http://akshaykumar-akki.blogspot.com/2011/02/hi-i-akshay-kumar-visit-and-enjoy.html#comment-form" class="comment-link" shape="rect"> No comments: </a>\n    </span>\n    <span class="post-icons">\n      <span class="item-control blog-admin pid-1324829728">\n        <a title="Edit Post" href="http://www.blogger.com/post-edit.g?blogID=3577064379726302641&amp;postID=4336772398013411609&amp;from=pencil" shape="rect">\n          <img width="18" src="http://img2.blogblog.com/img/icon18_edit_allbkg.gif" height="18" alt="" class="icon-action"></img>\n        </a>\n      </span>\n    </span>\n    <div class="post-share-buttons goog-inline-block">\n      <a title="Email This" target="_blank" href="http://www.blogger.com/share-post.g?blogID=3577064379726302641&amp;postID=4336772398013411609&amp;target=email" class="goog-inline-block share-button sb-email" shape="rect">\n        <span class="share-button-link-text">Email This</span>\n      </a>\n      <a \n      title="BlogThis!" target="_blank" onclick="window.open(this.href, &quot;_blank&quot;, &quot;height=270,width=475&quot;); return false;" href="http://www.blogger.com/share-post.g?blogID=3577064379726302641&amp;postID=4336772398013411609&amp;target=blog" class="goog-inline-block share-button sb-blog" shape="rect">\n        <span class="share-button-link-text">BlogThis!</span>\n</a>\n      <a title="Share to Twitter" target="_blank" href="http://www.blogger.com/share-post.g?blogID=3577064379726302641&amp;postID=4336772398013411609&amp;target=twitter" class="goog-inline-block share-button sb-twitter" shape="rect">\n        <span class="share-button-link-text">Share to Twitter</span>\n      </a>\n      <a \n      title="Share to Facebook" target="_blank" onclick="window.open(this.href, &quot;_blank&quot;, &quot;height=430,width=640&quot;); return false;" href="http://www.blogger.com/share-post.g?blogID=3577064379726302641&amp;postID=4336772398013411609&amp;target=facebook" class="goog-inline-block share-button sb-facebook" shape="rect">\n        <span class="share-button-link-text">Share to Facebook</span>\n</a>\n      <div class="goog-inline-block dummy-container">\n        <g:plusone annotation="inline" width="300" size="medium" href="http://akshaykumar-akki.blogspot.com/2011/02/hi-i-akshay-kumar-visit-and-enjoy.html" source="blogger:blog:plusone"></g:plusone>\n      </div>\n    </div>\n    <div class="post-footer-line post-footer-line-2"></div>\n    <div class="post-footer-line post-footer-line-3"></div>\n    <div id="blog-pager" class="blog-pager">\n      <a href="http://akshaykumar-akki.blogspot.com/" class="home-link" shape="rect">Home</a>\n    </div>\n    <div class="clear"></div>\n    <div class="blog-feeds">\n      <div class="feed-links">\n        Subscribe to:\n        <a type="application/atom+xml" target="_blank" href="http://akshaykumar-akki.blogspot.com/feeds/posts/default" class="feed-link" shape="rect">Posts (Atom)</a>\n      </div>\n    </div>\n    <script type="text/javascript">\n      window.___gcfg = {\'lang\': \'en\'};window.___gapisync = false;(function() {var po = document.createElement(\'script\');po.type = \'text/javascript\';po.async = true;po.src = \'https://apis.google.com/js/plusone.js\';var s = document.body.getElementsByTagName(\'script\')[0];s.parentNode.insertBefore(po, s);})();\n    </script>\n    <div class="column-left-outer">\n      <div class="column-left-inner">\n        <aside>\n          <div id="sidebar-left-1" class="sidebar section">\n            <div id="Gadget5" class="widget Gadget">\n              <h2 class="title">\n                <a href="http://www.appointron.com" shape="rect">Online Scheduling</a>\n              </h2>\n              <script type="text/javascript"> if (!window.google || !google.friendconnect) { document.write(\'&lt;script type=&quot;text/javascript&quot;\' + \'src=&quot;http://www.google.com/friendconnect/script/friendconnect.js&quot;&gt;\' + \'&lt;/scr\'+\'ipt&gt;\'); } </script>\n              <script type="text/javascript">\n                if (!window.registeredBloggerCallbacks) {\n        window.registeredBloggerCallbacks = true;\n\n        \n\n        \n        gadgets.rpc.register(\'requestReload\', function() {\n          document.location.reload();\n        });\n\n        \n        gadgets.rpc.register(\'requestSignOut\', function(siteId) {\n          \n          google.friendconnect.container.openSocialSiteId = siteId;\n          google.friendconnect.requestSignOut();\n        });\n      }\n              </script>\n              <script type="text/javascript">\n                function registerGetBlogUrls() {\n      gadgets.rpc.register(\'getBlogUrls\', function() {\n        var holder = {};\n        \n          \n          \n          \n            holder.postFeed = &quot;http://www.blogger.com/feeds/3577064379726302641/posts/default&quot;;\n          \n          \n          \n            holder.commentFeed = &quot;http://www.blogger.com/feeds/3577064379726302641/comments/default&quot;;\n          \n          holder.currentBlogUrl = &quot;http://akshaykumar-akki.blogspot.com/&quot;;\n          holder.currentBlogId = &quot;3577064379726302641&quot;;\n        \n        return holder;\n      });\n    }\n              </script>\n              <script type="text/javascript">\n                if (!window.registeredCommonBloggerCallbacks) {\n    window.registeredCommonBloggerCallbacks = true;\n\n    gadgets.rpc.register(\'resize_iframe\', function(height) {\n      var el = document.getElementById(this[\'f\']);\n      if (el) {\n        el.style.height = height + \'px\';\n      }\n    });\n\n    \n    gadgets.rpc.register(\'set_pref\', function() {});\n\n    registerGetBlogUrls();\n  }\n              </script>\n              <div style="width: 100%; " id="div-1wjpjh0f2nxsn"></div>\n              <script type="text/javascript">\n                var skin = {};\n    skin[\'FACE_SIZE\'] = \'32\';\n    skin[\'HEIGHT\'] = &quot;150&quot;;\n    skin[\'TITLE\'] = &quot;\\x3ca href\\x3d\\x22http://www.appointron.com\\x22\\x3eOnline Scheduling\\x3c/a\\x3e&quot;;\n    skin[\'BORDER_COLOR\'] = &quot;transparent&quot;;\n    skin[\'ENDCAP_BG_COLOR\'] = &quot;transparent&quot;;\n    skin[\'ENDCAP_TEXT_COLOR\'] = &quot;#ffffff&quot;;\n    skin[\'ENDCAP_LINK_COLOR\'] = &quot;#4a4a4a&quot;;\n    skin[\'ALTERNATE_BG_COLOR\'] = &quot;transparent&quot;;\n    \n    skin[\'CONTENT_BG_COLOR\'] = &quot;transparent&quot;;\n    skin[\'CONTENT_LINK_COLOR\'] = &quot;#4a4a4a&quot;;\n    skin[\'CONTENT_TEXT_COLOR\'] = &quot;#ffffff&quot;;\n    skin[\'CONTENT_SECONDARY_LINK_COLOR\'] = &quot;#4a4a4a&quot;;\n    skin[\'CONTENT_SECONDARY_TEXT_COLOR\'] = &quot;#000000&quot;;\n    skin[\'CONTENT_HEADLINE_COLOR\'] = &quot;#ffffff&quot;;\n    skin[\'FONT_FACE\'] = &quot;normal bold 16px Chewy&quot;;\n    google.friendconnect.container.setParentUrl(&quot;/&quot;);\n    google.friendconnect.container[&quot;renderOpenSocialGadget&quot;](\n    {id: &quot;div-1wjpjh0f2nxsn&quot;,\n     height: 150,\n     \n       url: &quot;http://mobilemetrics.appspot.com/ge/xml?ak\\x3dappointments&quot;,\n     \n     \n       &quot;view-params&quot;: {},\n     \n     \n       &quot;prefs&quot;: {},\n     \n     site: &quot;11792775479746428312&quot;,\n     \n     locale: \'en\' },\n     skin);\n              </script>\n              <div class="clear"></div>\n              <span class="widget-item-control">\n                <span class="item-control blog-admin">\n                  <a \n                  title="Edit" target="configGadget5" onclick="return _WidgetManager._PopupConfig(document.getElementById(&quot;Gadget5&quot;));" href="//www.blogger.com/rearrange?blogID=3577064379726302641&amp;widgetType=Gadget&amp;widgetId=Gadget5&amp;action=editWidget&amp;sectionId=sidebar-left-1" class="quickedit" shape="rect">\n                    <img width="18" src="http://img1.blogblog.com/img/icon18_wrench_allbkg.png" height="18" alt=""></img>\n</a>\n                </span>\n              </span>\n              <div class="clear"></div>\n            </div>\n            <div id="Gadget3" class="widget Gadget">\n              There was an error in this gadget\n              <div class="clear"></div>\n              <span class="widget-item-control">\n                <span class="item-control blog-admin">\n                  <a \n                  title="Edit" target="configGadget3" onclick="return _WidgetManager._PopupConfig(document.getElementById(&quot;Gadget3&quot;));" href="//www.blogger.com/rearrange?blogID=3577064379726302641&amp;widgetType=Gadget&amp;widgetId=Gadget3&amp;action=editWidget&amp;sectionId=sidebar-left-1" class="quickedit" shape="rect">\n                    <img width="18" src="http://img1.blogblog.com/img/icon18_wrench_allbkg.png" height="18" alt=""></img>\n</a>\n                </span>\n              </span>\n              <div class="clear"></div>\n            </div>\n            <div id="PopularPosts1" class="widget PopularPosts">\n              <h2>Popular Posts</h2>\n              <div class="widget-content popular-posts">\n                <ul></ul>\n                <div class="clear"></div>\n                <span class="widget-item-control">\n                  <span class="item-control blog-admin">\n                    <a \n                    title="Edit" target="configPopularPosts1" onclick="return _WidgetManager._PopupConfig(document.getElementById(&quot;PopularPosts1&quot;));" href="//www.blogger.com/rearrange?blogID=3577064379726302641&amp;widgetType=PopularPosts&amp;widgetId=PopularPosts1&amp;action=editWidget&amp;sectionId=sidebar-left-1" class="quickedit" shape="rect">\n                      <img width="18" src="http://img1.blogblog.com/img/icon18_wrench_allbkg.png" height="18" alt=""></img>\n</a>\n                  </span>\n                </span>\n                <div class="clear"></div>\n              </div>\n            </div>\n            <div id="Profile1" class="widget Profile">\n              <h2>About Me</h2>\n              <div class="widget-content">\n                <a href="http://www.blogger.com/profile/11179151022333497700" shape="rect">\n                  <img width="80" src="http://4.bp.blogspot.com/-28D6vdRFgUY/TWcNlIXiHtI/AAAAAAAAABU/wInogM_KKQw/s220/toonbot.gif" height="79" alt="My Photo" class="profile-img"></img>\n                </a>\n                <dl class="profile-datablock">\n                  <dt class="profile-data">\n                    <a style="background-image: url(//www.blogger.com/img/logo-16.png);" rel="author" href="http://www.blogger.com/profile/11179151022333497700" class="profile-name-link" shape="rect"> Akki </a>\n                  </dt>\n                </dl>\n                <a rel="author" href="http://www.blogger.com/profile/11179151022333497700" class="profile-link" shape="rect">View my complete profile</a>\n                <div class="clear"></div>\n                <span class="widget-item-control">\n                  <span class="item-control blog-admin">\n                    <a \n                    title="Edit" target="configProfile1" onclick="return _WidgetManager._PopupConfig(document.getElementById(&quot;Profile1&quot;));" href="//www.blogger.com/rearrange?blogID=3577064379726302641&amp;widgetType=Profile&amp;widgetId=Profile1&amp;action=editWidget&amp;sectionId=sidebar-left-1" class="quickedit" shape="rect">\n                      <img width="18" src="http://img1.blogblog.com/img/icon18_wrench_allbkg.png" height="18" alt=""></img>\n</a>\n                  </span>\n                </span>\n                <div class="clear"></div>\n              </div>\n            </div>\n          </div>\n        </aside>\n      </div>\n    </div>\n    <div class="column-right-outer">\n      <div class="column-right-inner">\n        <aside>\n          <div id="sidebar-right-1" class="sidebar section">\n            <div id="Gadget4" class="widget Gadget">\n              There was an error in this gadget\n              <div class="clear"></div>\n              <span class="widget-item-control">\n                <span class="item-control blog-admin">\n                  <a \n                  title="Edit" target="configGadget4" onclick="return _WidgetManager._PopupConfig(document.getElementById(&quot;Gadget4&quot;));" href="//www.blogger.com/rearrange?blogID=3577064379726302641&amp;widgetType=Gadget&amp;widgetId=Gadget4&amp;action=editWidget&amp;sectionId=sidebar-right-1" class="quickedit" shape="rect">\n                    <img width="18" src="http://img1.blogblog.com/img/icon18_wrench_allbkg.png" height="18" alt=""></img>\n</a>\n                </span>\n              </span>\n              <div class="clear"></div>\n            </div>\n            <div id="Followers1" class="widget Followers">\n              <h2 class="title">Followers</h2>\n              <div class="widget-content">\n                <div id="Followers1-wrapper">\n                  <div style="margin-right:2px;">\n                    <script type="text/javascript"> if (!window.google || !google.friendconnect) { document.write(\'&lt;script type=&quot;text/javascript&quot;\' + \'src=&quot;http://www.google.com/friendconnect/script/friendconnect.js&quot;&gt;\' + \'&lt;/scr\'+\'ipt&gt;\'); } </script>\n                    <script type="text/javascript">\n                      if (!window.registeredBloggerCallbacks) {\n        window.registeredBloggerCallbacks = true;\n\n        \n\n        \n        gadgets.rpc.register(\'requestReload\', function() {\n          document.location.reload();\n        });\n\n        \n        gadgets.rpc.register(\'requestSignOut\', function(siteId) {\n          \n          google.friendconnect.container.openSocialSiteId = siteId;\n          google.friendconnect.requestSignOut();\n        });\n      }\n                    </script>\n                    <script type="text/javascript">\n                      function registerGetBlogUrls() {\n      gadgets.rpc.register(\'getBlogUrls\', function() {\n        var holder = {};\n        \n          \n          \n          \n            holder.postFeed = &quot;http://www.blogger.com/feeds/3577064379726302641/posts/default&quot;;\n          \n          \n          \n            holder.commentFeed = &quot;http://www.blogger.com/feeds/3577064379726302641/comments/default&quot;;\n          \n          holder.currentBlogUrl = &quot;http://akshaykumar-akki.blogspot.com/&quot;;\n          holder.currentBlogId = &quot;3577064379726302641&quot;;\n        \n        return holder;\n      });\n    }\n                    </script>\n                    <script type="text/javascript">\n                      if (!window.registeredCommonBloggerCallbacks) {\n    window.registeredCommonBloggerCallbacks = true;\n\n    gadgets.rpc.register(\'resize_iframe\', function(height) {\n      var el = document.getElementById(this[\'f\']);\n      if (el) {\n        el.style.height = height + \'px\';\n      }\n    });\n\n    \n    gadgets.rpc.register(\'set_pref\', function() {});\n\n    registerGetBlogUrls();\n  }\n                    </script>\n                    <div style="width: 100%; " id="div-mjq487qukv7r"></div>\n                    <script type="text/javascript">\n                      var skin = {};\n    skin[\'FACE_SIZE\'] = \'32\';\n    skin[\'HEIGHT\'] = &quot;260&quot;;\n    skin[\'TITLE\'] = &quot;Followers&quot;;\n    skin[\'BORDER_COLOR\'] = &quot;transparent&quot;;\n    skin[\'ENDCAP_BG_COLOR\'] = &quot;transparent&quot;;\n    skin[\'ENDCAP_TEXT_COLOR\'] = &quot;#ffffff&quot;;\n    skin[\'ENDCAP_LINK_COLOR\'] = &quot;#4a4a4a&quot;;\n    skin[\'ALTERNATE_BG_COLOR\'] = &quot;transparent&quot;;\n    \n    skin[\'CONTENT_BG_COLOR\'] = &quot;transparent&quot;;\n    skin[\'CONTENT_LINK_COLOR\'] = &quot;#4a4a4a&quot;;\n    skin[\'CONTENT_TEXT_COLOR\'] = &quot;#ffffff&quot;;\n    skin[\'CONTENT_SECONDARY_LINK_COLOR\'] = &quot;#4a4a4a&quot;;\n    skin[\'CONTENT_SECONDARY_TEXT_COLOR\'] = &quot;#000000&quot;;\n    skin[\'CONTENT_HEADLINE_COLOR\'] = &quot;#ffffff&quot;;\n    skin[\'FONT_FACE\'] = &quot;normal bold 16px Chewy&quot;;\n    google.friendconnect.container.setParentUrl(&quot;/&quot;);\n    google.friendconnect.container[&quot;renderMembersGadget&quot;](\n    {id: &quot;div-mjq487qukv7r&quot;,\n     height: 260,\n     \n     \n     \n     site: &quot;11792775479746428312&quot;,\n     \n     locale: \'en\' },\n     skin);\n                    </script>\n                  </div>\n                </div>\n                <div class="clear"></div>\n                <span class="widget-item-control">\n                  <span class="item-control blog-admin">\n                    <a \n                    title="Edit" target="configFollowers1" onclick="return _WidgetManager._PopupConfig(document.getElementById(&quot;Followers1&quot;));" href="//www.blogger.com/rearrange?blogID=3577064379726302641&amp;widgetType=Followers&amp;widgetId=Followers1&amp;action=editWidget&amp;sectionId=sidebar-right-1" class="quickedit" shape="rect">\n                      <img width="18" src="http://img1.blogblog.com/img/icon18_wrench_allbkg.png" height="18" alt=""></img>\n</a>\n                  </span>\n                </span>\n                <div class="clear"></div>\n              </div>\n            </div>\n            <div id="BlogArchive1" class="widget BlogArchive">\n              <h2>Blog Archive</h2>\n              <div class="widget-content">\n                <div id="ArchiveList">\n                  <div id="BlogArchive1_ArchiveList">\n                    <ul class="hierarchy">\n                      <li class="archivedate expanded">\n                        <a href="javascript:void(0)" class="toggle" shape="rect">\n                          <span class="zippy toggle-open">\xe2\x96\xbc\xc2\xa0</span>\n                        </a>\n                        <a href="http://akshaykumar-akki.blogspot.com/search?updated-min=2011-01-01T00:00:00-08:00&amp;updated-max=2012-01-01T00:00:00-08:00&amp;max-results=2" class="post-count-link" shape="rect">2011</a>\n                        <span dir="ltr" class="post-count">(2)</span>\n                        <ul class="hierarchy">\n                          <li class="archivedate expanded">\n                            <a href="http://akshaykumar-akki.blogspot.com/2011_02_01_archive.html" class="post-count-link" shape="rect">February</a>\n                            <span dir="ltr" class="post-count">(2)</span>\n                          </li>\n                        </ul>\n                      </li>\n                    </ul>\n                  </div>\n                </div>\n                <div class="clear"></div>\n                <span class="widget-item-control">\n                  <span class="item-control blog-admin">\n                    <a \n                    title="Edit" target="configBlogArchive1" onclick="return _WidgetManager._PopupConfig(document.getElementById(&quot;BlogArchive1&quot;));" href="//www.blogger.com/rearrange?blogID=3577064379726302641&amp;widgetType=BlogArchive&amp;widgetId=BlogArchive1&amp;action=editWidget&amp;sectionId=sidebar-right-1" class="quickedit" shape="rect">\n                      <img width="18" src="http://img1.blogblog.com/img/icon18_wrench_allbkg.png" height="18" alt=""></img>\n</a>\n                  </span>\n                </span>\n                <div class="clear"></div>\n              </div>\n            </div>\n          </div>\n        </aside>\n      </div>\n    </div>\n    <div style="clear: both"></div>\n    <div class="main-cap-bottom cap-bottom">\n      <div class="cap-left"></div>\n      <div class="cap-right"></div>\n    </div>\n    <footer>\n      <div class="footer-outer">\n        <div class="footer-cap-top cap-top">\n          <div class="cap-left"></div>\n          <div class="cap-right"></div>\n        </div>\n        <div class="fauxborder-left footer-fauxborder-left">\n          <div class="fauxborder-right footer-fauxborder-right"></div>\n          <div class="region-inner footer-inner">\n            <div id="footer-1" class="foot section">\n              <div id="VideoBar1" class="widget VideoBar">\n                <h2 class="title">Video Bar</h2>\n                <div class="widget-content">\n                  <div id="VideoBar1_bar">\n                    <span class="videoBar-status">Loading...</span>\n                  </div>\n                </div>\n                <div class="clear"></div>\n                <span class="widget-item-control">\n                  <span class="item-control blog-admin">\n                    <a \n                    title="Edit" target="configVideoBar1" onclick="return _WidgetManager._PopupConfig(document.getElementById(&quot;VideoBar1&quot;));" href="//www.blogger.com/rearrange?blogID=3577064379726302641&amp;widgetType=VideoBar&amp;widgetId=VideoBar1&amp;action=editWidget&amp;sectionId=footer-1" class="quickedit" shape="rect">\n                      <img width="18" src="http://img1.blogblog.com/img/icon18_wrench_allbkg.png" height="18" alt=""></img>\n</a>\n                  </span>\n                </span>\n                <div class="clear"></div>\n              </div>\n            </div>\n            <table cellspacing="0" cellpadding="0" border="0" class="section-columns columns-3">\n              <tbody>\n                <tr>\n                  <td class="first columns-cell" rowspan="1" colspan="1">\n                    <div id="footer-2-1" class="foot section">\n                      <div id="BloggerButton1" class="widget BloggerButton">\n                        <div class="widget-content">\n                          <a href="http://www.blogger.com" shape="rect">\n                            <img src="http://img1.blogblog.com/html/buttons/blogger-ipower-blue.gif" alt="Powered By Blogger"></img>\n                          </a>\n                          <div class="clear"></div>\n                          <span class="widget-item-control">\n                            <span class="item-control blog-admin">\n                              <a \n                              title="Edit" target="configBloggerButton1" onclick="return _WidgetManager._PopupConfig(document.getElementById(&quot;BloggerButton1&quot;));" href="//www.blogger.com/rearrange?blogID=3577064379726302641&amp;widgetType=BloggerButton&amp;widgetId=BloggerButton1&amp;action=editWidget&amp;sectionId=footer-2-1" class="quickedit" shape="rect">\n                                <img width="18" src="http://img1.blogblog.com/img/icon18_wrench_allbkg.png" height="18" alt=""></img>\n</a>\n                            </span>\n                          </span>\n                          <div class="clear"></div>\n                        </div>\n                      </div>\n                    </div>\n                  </td>\n                  <td class="columns-cell" rowspan="1" colspan="1">\n                    <div id="footer-2-2" class="foot section">\n                      <div id="Gadget1" class="widget Gadget">\n                        <h2 class="title">Amazon MP3 Clips</h2>\n                        <div class="widget-content">\n                          <script type="text/javascript">\n                            if (!window.gadgets || !gadgets.rpc) {\n          document.write(\'&lt;script type=&quot;text/javascript&quot;\' +\n                  \'src=&quot;//www-blogger-opensocial.googleusercontent.com/gadgets/js/rpc.js?container\\x3dblogger\\x26nocache\\x3d0\\x26debug\\x3d0\\x26c\\x3d1\\x26v\\x3d86998f150f168aa91fa5ee2c8983b68e\\x26sv\\x3d9&quot;&gt;\' +\n                  \'&lt;/scr\'+\'ipt&gt;\');\n        }\n                          </script>\n                          <script type="text/javascript">\n                            function registerGetBlogUrls() {\n      gadgets.rpc.register(\'getBlogUrls\', function() {\n        var holder = {};\n        \n          \n          \n          \n            holder.postFeed = &quot;http://www.blogger.com/feeds/3577064379726302641/posts/default&quot;;\n          \n          \n          \n            holder.commentFeed = &quot;http://www.blogger.com/feeds/3577064379726302641/comments/default&quot;;\n          \n          holder.currentBlogUrl = &quot;http://akshaykumar-akki.blogspot.com/&quot;;\n          holder.currentBlogId = &quot;3577064379726302641&quot;;\n        \n        return holder;\n      });\n    }\n                          </script>\n                          <script type="text/javascript">\n                            if (!window.registeredCommonBloggerCallbacks) {\n    window.registeredCommonBloggerCallbacks = true;\n\n    gadgets.rpc.register(\'resize_iframe\', function(height) {\n      var el = document.getElementById(this[\'f\']);\n      if (el) {\n        el.style.height = height + \'px\';\n      }\n    });\n\n    \n    gadgets.rpc.register(\'set_pref\', function() {});\n\n    registerGetBlogUrls();\n  }\n                          </script>\n                          <iframe \n                          name="sidebar-gadget1" height="200" style="width: 100%; display: block" src="//dfgubl2g9ahmgfkabsjd7k921jq7ui6a-a-blogger-opensocial.googleusercontent.com/gadgets/ifr?url=http://wms.assoc-amazon.com/GoogleGadgets/amzn_mp3_clips.xml&amp;container=blogger&amp;view=default&amp;lang=en&amp;country=ALL&amp;sanitize=0&amp;v=cc275f493c390704&amp;libs=core:dynamic-height:google.blog:locked-domain:rpc:setprefs:skins:views&amp;parent=http://akshaykumar-akki.blogspot.com/&amp;up_size=5&amp;up_genre=324382011&amp;mid=1#up_genre=324382011&amp;up_size=5&amp;st=e%3DAFlCd0UFN4e056BLa7%252BhrdksmTOmVIFJDgV8JJ3yvWU2hOpeSbKgpbYj8080WzFxyD9P3EbwUDleCkTAiCQ99JdoNPfmFf%252Bm7L7zcUBefmRnxPak9ekxMX0%252BRWuzmG6VcnIcX83s1fzQ%26c%3Dblogger&amp;rpctoken=-5920762528173137232" id="sidebar-gadget1" scrolling="auto" frameborder="0">\n</iframe>\n                          <script type="text/javascript">\n                            gadgets.rpc.setRelayUrl(&quot;sidebar-gadget1&quot;, \'//dfgubl2g9ahmgfkabsjd7k921jq7ui6a-a-blogger-opensocial.googleusercontent.com/gadgets/files/container/rpc_relay.html\');\n        gadgets.rpc.setAuthToken(&quot;sidebar-gadget1&quot;, &quot;-5920762528173137232&quot;);\n                          </script>\n                        </div>\n                        <div class="clear"></div>\n                        <span class="widget-item-control">\n                          <span class="item-control blog-admin">\n                            <a \n                            title="Edit" target="configGadget1" onclick="return _WidgetManager._PopupConfig(document.getElementById(&quot;Gadget1&quot;));" href="//www.blogger.com/rearrange?blogID=3577064379726302641&amp;widgetType=Gadget&amp;widgetId=Gadget1&amp;action=editWidget&amp;sectionId=footer-2-2" class="quickedit" shape="rect">\n                              <img width="18" src="http://img1.blogblog.com/img/icon18_wrench_allbkg.png" height="18" alt=""></img>\n</a>\n                          </span>\n                        </span>\n                        <div class="clear"></div>\n                      </div>\n                    </div>\n                  </td>\n                  <td class="columns-cell" rowspan="1" colspan="1">\n                    <div id="footer-2-3" class="foot section">\n                      <div id="Gadget2" class="widget Gadget">\n                        <h2 class="title">Share it</h2>\n                        <script type="text/javascript"> if (!window.google || !google.friendconnect) { document.write(\'&lt;script type=&quot;text/javascript&quot;\' + \'src=&quot;http://www.google.com/friendconnect/script/friendconnect.js&quot;&gt;\' + \'&lt;/scr\'+\'ipt&gt;\'); } </script>\n                        <script type="text/javascript">\n                          if (!window.registeredBloggerCallbacks) {\n        window.registeredBloggerCallbacks = true;\n\n        \n\n        \n        gadgets.rpc.register(\'requestReload\', function() {\n          document.location.reload();\n        });\n\n        \n        gadgets.rpc.register(\'requestSignOut\', function(siteId) {\n          \n          google.friendconnect.container.openSocialSiteId = siteId;\n          google.friendconnect.requestSignOut();\n        });\n      }\n                        </script>\n                        <script type="text/javascript">\n                          function registerGetBlogUrls() {\n      gadgets.rpc.register(\'getBlogUrls\', function() {\n        var holder = {};\n        \n          \n          \n          \n            holder.postFeed = &quot;http://www.blogger.com/feeds/3577064379726302641/posts/default&quot;;\n          \n          \n          \n            holder.commentFeed = &quot;http://www.blogger.com/feeds/3577064379726302641/comments/default&quot;;\n          \n          holder.currentBlogUrl = &quot;http://akshaykumar-akki.blogspot.com/&quot;;\n          holder.currentBlogId = &quot;3577064379726302641&quot;;\n        \n        return holder;\n      });\n    }\n                        </script>\n                        <script type="text/javascript">\n                          if (!window.registeredCommonBloggerCallbacks) {\n    window.registeredCommonBloggerCallbacks = true;\n\n    gadgets.rpc.register(\'resize_iframe\', function(height) {\n      var el = document.getElementById(this[\'f\']);\n      if (el) {\n        el.style.height = height + \'px\';\n      }\n    });\n\n    \n    gadgets.rpc.register(\'set_pref\', function() {});\n\n    registerGetBlogUrls();\n  }\n                        </script>\n                        <div style="width: 100%; " id="div-1bkjrcn9q3mm1"></div>\n                        <script type="text/javascript">\n                          var skin = {};\n    skin[\'FACE_SIZE\'] = \'32\';\n    skin[\'HEIGHT\'] = &quot;200&quot;;\n    skin[\'TITLE\'] = &quot;Share it&quot;;\n    skin[\'BORDER_COLOR\'] = &quot;transparent&quot;;\n    skin[\'ENDCAP_BG_COLOR\'] = &quot;transparent&quot;;\n    skin[\'ENDCAP_TEXT_COLOR\'] = &quot;#ffffff&quot;;\n    skin[\'ENDCAP_LINK_COLOR\'] = &quot;#4a4a4a&quot;;\n    skin[\'ALTERNATE_BG_COLOR\'] = &quot;transparent&quot;;\n    \n    skin[\'CONTENT_BG_COLOR\'] = &quot;transparent&quot;;\n    skin[\'CONTENT_LINK_COLOR\'] = &quot;#4a4a4a&quot;;\n    skin[\'CONTENT_TEXT_COLOR\'] = &quot;#ffffff&quot;;\n    skin[\'CONTENT_SECONDARY_LINK_COLOR\'] = &quot;#4a4a4a&quot;;\n    skin[\'CONTENT_SECONDARY_TEXT_COLOR\'] = &quot;#000000&quot;;\n    skin[\'CONTENT_HEADLINE_COLOR\'] = &quot;#ffffff&quot;;\n    skin[\'FONT_FACE\'] = &quot;normal bold 16px Chewy&quot;;\n    google.friendconnect.container.setParentUrl(&quot;/&quot;);\n    google.friendconnect.container[&quot;renderOpenSocialGadget&quot;](\n    {id: &quot;div-1bkjrcn9q3mm1&quot;,\n     height: 200,\n     \n       url: &quot;http://fcgadgets.appspot.com/spec/shareit.xml&quot;,\n     \n     \n       &quot;view-params&quot;: {},\n     \n     \n       &quot;prefs&quot;: {},\n     \n     site: &quot;11792775479746428312&quot;,\n     \n     locale: \'en\' },\n     skin);\n                        </script>\n                        <div class="clear"></div>\n                        <span class="widget-item-control">\n                          <span class="item-control blog-admin">\n                            <a \n                            title="Edit" target="configGadget2" onclick="return _WidgetManager._PopupConfig(document.getElementById(&quot;Gadget2&quot;));" href="//www.blogger.com/rearrange?blogID=3577064379726302641&amp;widgetType=Gadget&amp;widgetId=Gadget2&amp;action=editWidget&amp;sectionId=footer-2-3" class="quickedit" shape="rect">\n                              <img width="18" src="http://img1.blogblog.com/img/icon18_wrench_allbkg.png" height="18" alt=""></img>\n</a>\n                          </span>\n                        </span>\n                        <div class="clear"></div>\n                      </div>\n                    </div>\n                  </td>\n                </tr>\n              </tbody>\n            </table>\n            <div id="footer-3" class="foot section">\n              <div id="Attribution1" class="widget Attribution">\n                <div style="text-align: center;" class="widget-content">\n                  Awesome Inc. template. Template images by\n                  <a target="_blank" href="http://www.istockphoto.com/googleimages.php?id=4489297&amp;platform=blogger&amp;langregion=en" shape="rect">imagedepotpro</a>\n                  . Powered by\n                  <a target="_blank" href="http://www.blogger.com" shape="rect">Blogger</a>\n                  .\n                </div>\n                <div class="clear"></div>\n                <span class="widget-item-control">\n                  <span class="item-control blog-admin">\n                    <a \n                    title="Edit" target="configAttribution1" onclick="return _WidgetManager._PopupConfig(document.getElementById(&quot;Attribution1&quot;));" href="//www.blogger.com/rearrange?blogID=3577064379726302641&amp;widgetType=Attribution&amp;widgetId=Attribution1&amp;action=editWidget&amp;sectionId=footer-3" class="quickedit" shape="rect">\n                      <img width="18" src="http://img1.blogblog.com/img/icon18_wrench_allbkg.png" height="18" alt=""></img>\n</a>\n                  </span>\n                </span>\n                <div class="clear"></div>\n              </div>\n            </div>\n          </div>\n        </div>\n        <div class="footer-cap-bottom cap-bottom">\n          <div class="cap-left"></div>\n          <div class="cap-right"></div>\n        </div>\n      </div>\n    </footer>\n    <div class="content-cap-bottom cap-bottom">\n      <div class="cap-left"></div>\n      <div class="cap-right"></div>\n    </div>\n    <script type="text/javascript"> window.setTimeout(function() { document.body.className = document.body.className.replace(\'loading\', \'\'); }, 10); </script>\n    <script type="text/javascript"> if (window.jstiming) window.jstiming.load.tick(\'widgetJsBefore\'); </script>\n    <script src="//www.blogger.com/static/v1/widgets/1040267425-widgets.js" type="text/javascript"></script>\n    <script src="//www.google.com/jsapi" type="text/javascript"></script>\n    <script src="//www.google.com/uds/solutions/slideshow/gfslideshow.js" type="text/javascript"></script>\n    <script src="//www.google.com/uds/solutions/videobar/gsvideobar.js" type="text/javascript"></script>\n    <script type="text/javascript">\n      if (typeof(BLOG_attachCsiOnload) != \'undefined\' &amp;&amp; BLOG_attachCsiOnload != null) { window[\'blogger_templates_experiment_id\'] = &quot;templatesV2&quot;;window[\'blogger_blog_id\'] = \'3577064379726302641\';BLOG_attachCsiOnload(\'\'); }_WidgetManager._Init(\'//www.blogger.com/rearrange?blogID\\x3d3577064379726302641\',\'//akshaykumar-akki.blogspot.com/\',\'3577064379726302641\');\n_WidgetManager._SetDataContext([{\'name\': \'blog\', \'data\': {\'blogId\': \'3577064379726302641\', \'bloggerUrl\': \'http://www.blogger.com\', \'title\': \'Akshay kumar\', \'pageType\': \'index\', \'url\': \'http://akshaykumar-akki.blogspot.com/\', \'canonicalUrl\': \'http://akshaykumar-akki.blogspot.com/\', \'canonicalHomepageUrl\': \'http://akshaykumar-akki.blogspot.com/\', \'homepageUrl\': \'http://akshaykumar-akki.blogspot.com/\', \'blogspotFaviconUrl\': \'http://akshaykumar-akki.blogspot.com/favicon.ico\', \'enabledCommentProfileImages\': true, \'adultContent\': false, \'disableAdSenseWidget\': false, \'analyticsAccountNumber\': \'\', \'searchLabel\': \'\', \'searchQuery\': \'\', \'pageName\': \'\', \'pageTitle\': \'Akshay kumar\', \'encoding\': \'UTF-8\', \'locale\': \'en\', \'isPrivate\': false, \'isMobile\': false, \'isMobileRequest\': false, \'mobileClass\': \'\', \'isPrivateBlog\': false, \'languageDirection\': \'ltr\', \'feedLinks\': \'\\74link rel\\75\\42alternate\\42 type\\75\\42application/atom+xml\\42 title\\75\\42Akshay kumar - Atom\\42 href\\75\\42http://akshaykumar-akki.blogspot.com/feeds/posts/default\\42 /\\76\\n\\74link rel\\75\\42alternate\\42 type\\75\\42application/rss+xml\\42 title\\75\\42Akshay kumar - RSS\\42 href\\75\\42http://akshaykumar-akki.blogspot.com/feeds/posts/default?alt\\75rss\\42 /\\76\\n\\74link rel\\75\\42service.post\\42 type\\75\\42application/atom+xml\\42 title\\75\\42Akshay kumar - Atom\\42 href\\75\\42http://www.blogger.com/feeds/3577064379726302641/posts/default\\42 /\\76\\n\\74link rel\\75\\42EditURI\\42 type\\75\\42application/rsd+xml\\42 title\\75\\42RSD\\42 href\\75\\42http://www.blogger.com/rsd.g?blogID\\0753577064379726302641\\42 /\\076\', \'meTag\': \'\\74link rel\\75\\42me\\42 href\\75\\42http://www.blogger.com/profile/11179151022333497700\\42 /\\76\\n\', \'openIdOpTag\': \'\\74link rel\\75\\42openid.server\\42 href\\75\\42http://www.blogger.com/openid-server.g\\42 /\\76\\n\\74link rel\\75\\42openid.delegate\\42 href\\75\\42http://akshaykumar-akki.blogspot.com/\\42 /\\76\\n\', \'imageSrcTag\': \'\', \'latencyHeadScript\': \'\\74script type\\75\\42text/javascript\\42\\76(function() { var a\\75window,b\\75\\42jstiming\\42,d\\75\\42tick\\42;var e\\75function(c){this.t\\75{};this.tick\\75function(c,p,h){h\\75void 0!\\75h?h:(new Date).getTime();this.t[c]\\75[h,p]};this[d](\\42start\\42,null,c)},f\\75new e;a.jstiming\\75{Timer:e,load:f};if(a.performance\\46\\46a.performance.timing){var g\\75a.performance.timing,j\\75a[b].load,k\\75g.navigationStart,l\\75g.responseStart;0\\74k\\46\\46l\\76\\75k\\46\\46(j[d](\\42_wtsrt\\42,void 0,k),j[d](\\42wtsrt_\\42,\\42_wtsrt\\42,l),j[d](\\42tbsd_\\42,\\42wtsrt_\\42))}\\ntry{var m\\75null;a.chrome\\46\\46a.chrome.csi\\46\\46(m\\75Math.floor(a.chrome.csi().pageT),j\\46\\0460\\74k\\46\\46(j[d](\\42_tbnd\\42,void 0,a.chrome.csi().startE),j[d](\\42tbnd_\\42,\\42_tbnd\\42,k)));null\\75\\75m\\46\\46a.gtbExternal\\46\\46(m\\75a.gtbExternal.pageT());null\\75\\75m\\46\\46a.external\\46\\46(m\\75a.external.pageT,j\\46\\0460\\74k\\46\\46(j[d](\\42_tbnd\\42,void 0,a.external.startE),j[d](\\42tbnd_\\42,\\42_tbnd\\42,k)));m\\46\\46(a[b].pt\\75m)}catch(n){};a.tickAboveFold\\75function(c){var i\\0750;if(c.offsetParent){do i+\\75c.offsetTop;while(c\\75c.offsetParent)}c\\75i;750\\76\\75c\\46\\46a[b].load[d](\\42aft\\42)};var q\\75!1;function r(){q||(q\\75!0,a[b].load[d](\\42firstScrollTime\\42))}a.addEventListener?a.addEventListener(\\42scroll\\42,r,!1):a.attachEvent(\\42onscroll\\42,r);\\n })();\\74/script\\076\', \'mobileHeadScript\': \'\', \'ieCssRetrofitLinks\': \'\\74!--[if IE]\\76\\74script type\\75\\42text/javascript\\42 src\\75\\42//www.blogger.com/static/v1/jsbin/3651483553-ieretrofit.js\\42\\76\\74/script\\76\\n\\74![endif]--\\076\', \'view\': \'\', \'dynamicViewsCommentsSrc\': \'//www.blogblog.com/dynamicviews/4224c15c4e7c9321/js/comments.js\', \'dynamicViewsScriptSrc\': \'//www.blogblog.com/dynamicviews/04452fcc9c8aa994\'}}, {\'name\': \'skin\', \'data\': {\'vars\': {\'date_border_size\': \'0\', \'description_font\': \'normal normal 14px Arial, Tahoma, Helvetica, FreeSans, sans-serif\', \'body_background_gradient_cap\': \'none\', \'tabs_selected_background_color\': \'#000000\', \'footer_background_gradient\': \'none\', \'date_background\': \'transparent none no-repeat scroll top left\', \'widget_border_radius\': \'0\', \'post_title_text_color\': \'#ffffff\', \'widget_font\': \'normal normal 14px Arial, Tahoma, Helvetica, FreeSans, sans-serif\', \'widget_link_hover_color\': \'#cccccc\', \'link_visited_color\': \'#000000\', \'mobile_background_size\': \'auto\', \'date_space\': \'30px\', \'post_title_font\': \'normal bold 22px Arial, Tahoma, Helvetica, FreeSans, sans-serif\', \'tabs_text_color\': \'#ffffff\', \'title_separator_border_size\': \'1px\', \'header_background_gradient\': \'none\', \'widget_outer_background_gradient\': \'none\', \'widget_link_color\': \'#888888\', \'mobile_button_color\': \'#ffffff\', \'widget_title_font\': \'normal bold 14px Arial, Tahoma, Helvetica, FreeSans, sans-serif\', \'widget_outer_background_color\': \'transparent\', \'date_last_border_radius_bottom\': \'0\', \'widget_outer_margin_top\': \'0\', \'shadow_spread\': \'0\', \'title_shadow_spread\': \'-1px\', \'body_background\': \'#000000 url(http://themes.googleusercontent.com/image?id\\0751fPzKKjY9pDchHIeFXfLO2zY1SYfTku0PLrkb-Aiu7meqodh01WKnpNCHAuTcBrMZaM6D) repeat-x scroll top center /* Credit: imagedepotpro (http://www.istockphoto.com/googleimages.php?id\\0754489297\\46platform\\75blogger) */\', \'outer_shadow_spread\': \'0\', \'keycolor\': \'#000000\', \'image_shadow_spread\': \'0\', \'image_background_color\': \'#000000\', \'header_font\': \'normal bold 40px Geo\', \'header_background_color\': \'transparent\', \'date_header_border_radius_top\': \'0\', \'widget_border_bevel_color\': \'#000000\', \'tabs_border_color\': \'#000000\', \'widget_background_color\': \'#000000\', \'date_position\': \'static\', \'post_first_padding_top\': \'0\', \'tabs_background_gradient\': \'none\', \'mobile_background_overlay\': \'transparent none repeat scroll top left\', \'date_border_color\': \'#222222\', \'tabs_background_color\': \'#000000\', \'widget_link_visited_color\': \'#444444\', \'feed_text_color\': \'#ffffff\', \'header_margin_top\': \'0\', \'link_hover_color\': \'#b9b9b9\', \'date_last_space_bottom\': \'20px\', \'header_margin_bottom\': \'0\', \'date_padding_bottom\': \'0\', \'list_separator_border_size\': \'1px\', \'description_text_color\': \'#ffffff\', \'body_text_color\': \'#ffffff\', \'header_padding_top\': \'22px\', \'post_border_color\': \'#222222\', \'footer_text_color\': \'#ffffff\', \'post_background_color\': \'#141414\', \'pager_space_top\': \'1em\', \'endSide\': \'right\', \'startSide\': \'left\', \'body_background_size\': \'auto\', \'tabs_font\': \'normal bold 14px Arial, Tahoma, Helvetica, FreeSans, sans-serif\', \'body_font\': \'normal bold 16px Chewy\', \'date_first_border_radius_top\': \'0\', \'date_header_position\': \'15px\', \'date_text_color\': \'#000000\', \'widget_title_text_color\': \'#ffffff\', \'image_border_color\': \'transparent\', \'separator_outdent\': \'15px\', \'widget_text_color\': \'#ffffff\', \'link_color\': \'#4a4a4a\', \'widget_border_color\': \'#000000\', \'pager_border_radius_top\': \'0\', \'feed_link_color\': \'#888888\', \'header_text_color\': \'#adb0b4\', \'footer_background_color\': \'#141414\', \'widget_padding_top\': \'8px\', \'feed_link_visited_color\': \'#444444\', \'feed_link_hover_color\': \'#cccccc\', \'date_font\': \'normal normal 14px Arial, Tahoma, Helvetica, FreeSans, sans-serif\', \'tabs_selected_text_color\': \'#ffffff\', \'date_side\': \'right\', \'post_border_bevel_color\': \'#222222\', \'widget_padding_side\': \'15px\', \'body_background_color\': \'#000000\', \'image_border_radius\': \'0\', \'pager_background_color\': \'#141414\', \'widget_alternate_text_color\': \'#000000\'}, \'override\': \'\'}}, {\'name\': \'view\', \'data\': {\'classic\': {\'name\': \'classic\', \'url\': \'/?view\\75classic\'}, \'flipcard\': {\'name\': \'flipcard\', \'url\': \'/?view\\75flipcard\'}, \'magazine\': {\'name\': \'magazine\', \'url\': \'/?view\\75magazine\'}, \'mosaic\': {\'name\': \'mosaic\', \'url\': \'/?view\\75mosaic\'}, \'sidebar\': {\'name\': \'sidebar\', \'url\': \'/?view\\75sidebar\'}, \'snapshot\': {\'name\': \'snapshot\', \'url\': \'/?view\\75snapshot\'}, \'timeslide\': {\'name\': \'timeslide\', \'url\': \'/?view\\75timeslide\'}}}]);\n_WidgetManager._RegisterWidget(\'_SlideshowView\', new _WidgetInfo(\'Slideshow1\', \'crosscol\', null, document.getElementById(\'Slideshow1\'), {\'title\': \'Slideshow\', \'computedFeed\': \'http://picasaweb.google.com/data/feed/api/search?kind\\75photo\\46max-results\\07520\\46q\\75Sunset\\46alt\\75rss\', \'linkNewWindow\': false, \'randomizeFeed\': true, \'speed\': 3000}, \'displayModeFull\'));\n_WidgetManager._RegisterWidget(\'_GadgetView\', new _WidgetInfo(\'Gadget4\', \'sidebar-right-1\', null, document.getElementById(\'Gadget4\'), {}, \'displayModeFull\'));\n_WidgetManager._RegisterWidget(\'_FollowersView\', new _WidgetInfo(\'Followers1\', \'sidebar-right-1\', null, document.getElementById(\'Followers1\'), {\'title\': \'Followers\', \'codeSnippet\': \'\\74script type\\75\\42text/javascript\\42\\76\\n        if (!window.google || !google.friendconnect) {\\n          document.write(\\47\\74script type\\75\\42text/javascript\\42\\47 +\\n              \\47src\\75\\42http://www.google.com/friendconnect/script/friendconnect.js\\42\\76\\47 +\\n              \\47\\74/scr\\47 + \\47ipt\\76\\47);\\n        }\\n      \\74/script\\76\\n\\74script type\\75\\42text/javascript\\42\\76\\n      if (!window.registeredBloggerCallbacks) {\\n        window.registeredBloggerCallbacks \\75 true;\\n\\n        \\n\\n        \\n        gadgets.rpc.register(\\47requestReload\\47, function() {\\n          document.location.reload();\\n        });\\n\\n        \\n        gadgets.rpc.register(\\47requestSignOut\\47, function(siteId) {\\n          \\n          google.friendconnect.container.openSocialSiteId \\75 siteId;\\n          google.friendconnect.requestSignOut();\\n        });\\n      }\\n    \\74/script\\76\\n\\74script type\\75\\42text/javascript\\42\\76\\n    \\n    function registerGetBlogUrls() {\\n      gadgets.rpc.register(\\47getBlogUrls\\47, function() {\\n        var holder \\75 {};\\n        \\n          \\n          \\n          \\n            holder.postFeed \\75 \\42http://www.blogger.com/feeds/3577064379726302641/posts/default\\42;\\n          \\n          \\n          \\n            holder.commentFeed \\75 \\42http://www.blogger.com/feeds/3577064379726302641/comments/default\\42;\\n          \\n          holder.currentBlogUrl \\75 \\42http://akshaykumar-akki.blogspot.com/\\42;\\n          holder.currentBlogId \\75 \\0423577064379726302641\\42;\\n        \\n        return holder;\\n      });\\n    }\\n  \\74/script\\76\\n\\74script type\\75\\42text/javascript\\42\\76\\n  if (!window.registeredCommonBloggerCallbacks) {\\n    window.registeredCommonBloggerCallbacks \\75 true;\\n\\n    gadgets.rpc.register(\\47resize_iframe\\47, function(height) {\\n      var el \\75 document.getElementById(this[\\47f\\47]);\\n      if (el) {\\n        el.style.height \\75 height + \\47px\\47;\\n      }\\n    });\\n\\n    \\n    gadgets.rpc.register(\\47set_pref\\47, function() {});\\n\\n    registerGetBlogUrls();\\n  }\\n  \\74/script\\76\\n\\74div id\\75\\42div-nz1pguft7zsx\\42 style\\75\\42width: 100%; \\42\\76\\74/div\\76\\n\\74script type\\75\\42text/javascript\\42\\76\\n    var skin \\75 {};\\n    skin[\\47FACE_SIZE\\47] \\75 \\04732\\47;\\n    skin[\\47HEIGHT\\47] \\75 \\042260\\42;\\n    skin[\\47TITLE\\47] \\75 \\42Followers\\42;\\n    skin[\\47BORDER_COLOR\\47] \\75 \\42transparent\\42;\\n    skin[\\47ENDCAP_BG_COLOR\\47] \\75 \\42transparent\\42;\\n    skin[\\47ENDCAP_TEXT_COLOR\\47] \\75 \\42#ffffff\\42;\\n    skin[\\47ENDCAP_LINK_COLOR\\47] \\75 \\42#4a4a4a\\42;\\n    skin[\\47ALTERNATE_BG_COLOR\\47] \\75 \\42transparent\\42;\\n    \\n    skin[\\47CONTENT_BG_COLOR\\47] \\75 \\42transparent\\42;\\n    skin[\\47CONTENT_LINK_COLOR\\47] \\75 \\42#4a4a4a\\42;\\n    skin[\\47CONTENT_TEXT_COLOR\\47] \\75 \\42#ffffff\\42;\\n    skin[\\47CONTENT_SECONDARY_LINK_COLOR\\47] \\75 \\42#4a4a4a\\42;\\n    skin[\\47CONTENT_SECONDARY_TEXT_COLOR\\47] \\75 \\42#000000\\42;\\n    skin[\\47CONTENT_HEADLINE_COLOR\\47] \\75 \\42#ffffff\\42;\\n    skin[\\47FONT_FACE\\47] \\75 \\42normal bold 16px Chewy\\42;\\n    google.friendconnect.container.setParentUrl(\\42/\\42);\\n    google.friendconnect.container[\\42renderMembersGadget\\42](\\n    {id: \\42div-nz1pguft7zsx\\42,\\n     height: 260,\\n     \\n     \\n     \\n     site: \\04211792775479746428312\\42,\\n     \\n     locale: \\47en\\47 },\\n     skin);\\n  \\74/script\\076\'}, \'displayModeFull\'));\n_WidgetManager._RegisterWidget(\'_BlogArchiveView\', new _WidgetInfo(\'BlogArchive1\', \'sidebar-right-1\', null, document.getElementById(\'BlogArchive1\'), {\'languageDirection\': \'ltr\'}, \'displayModeFull\'));\n_WidgetManager._RegisterWidget(\'_GadgetView\', new _WidgetInfo(\'Gadget5\', \'sidebar-left-1\', null, document.getElementById(\'Gadget5\'), {}, \'displayModeFull\'));\n_WidgetManager._RegisterWidget(\'_GadgetView\', new _WidgetInfo(\'Gadget3\', \'sidebar-left-1\', null, document.getElementById(\'Gadget3\'), {}, \'displayModeFull\'));\n_WidgetManager._RegisterWidget(\'_PopularPostsView\', new _WidgetInfo(\'PopularPosts1\', \'sidebar-left-1\', null, document.getElementById(\'PopularPosts1\'), {}, \'displayModeFull\'));\n_WidgetManager._RegisterWidget(\'_ProfileView\', new _WidgetInfo(\'Profile1\', \'sidebar-left-1\', null, document.getElementById(\'Profile1\'), {}, \'displayModeFull\'));\n_WidgetManager._RegisterWidget(\'_GadgetView\', new _WidgetInfo(\'Gadget1\', \'footer-2-2\', null, document.getElementById(\'Gadget1\'), {}, \'displayModeFull\'));\n_WidgetManager._RegisterWidget(\'_BloggerButtonView\', new _WidgetInfo(\'BloggerButton1\', \'footer-2-1\', null, document.getElementById(\'BloggerButton1\'), {}, \'displayModeFull\'));\n_WidgetManager._RegisterWidget(\'_AttributionView\', new _WidgetInfo(\'Attribution1\', \'footer-3\', null, document.getElementById(\'Attribution1\'), {\'attribution\': \'Awesome Inc. template. Template images by \\74a href\\75\\47http://www.istockphoto.com/googleimages.php?id\\0754489297\\46platform\\75blogger\\46langregion\\75en\\47 target\\75\\47_blank\\47\\76imagedepotpro\\74/a\\76. Powered by \\74a href\\75\\47http://www.blogger.com\\47 target\\75\\47_blank\\47\\76Blogger\\74/a\\76.\'}, \'displayModeFull\'));\n_WidgetManager._RegisterWidget(\'_VideoBarView\', new _WidgetInfo(\'VideoBar1\', \'footer-1\', null, document.getElementById(\'VideoBar1\'), {\'title\': \'Video Bar\', \'format\': \'HORIZONTAL-MEDIUM\', \'expression\': \'ytfeed:most_viewed.this_week,ytfeed:top_rated.this_week,ytfeed:recently_featured.this_week,latest movies vedios,animated videos,cars \\46amp; bikes,funny videos,\'}, \'displayModeFull\'));\n_WidgetManager._RegisterWidget(\'_HeaderView\', new _WidgetInfo(\'Header1\', \'header\', null, document.getElementById(\'Header1\'), {}, \'displayModeFull\'));\n_WidgetManager._RegisterWidget(\'_NavbarView\', new _WidgetInfo(\'Navbar1\', \'navbar\', null, document.getElementById(\'Navbar1\'), {}, \'displayModeFull\'));\n_WidgetManager._RegisterWidget(\'_GadgetView\', new _WidgetInfo(\'Gadget2\', \'footer-2-3\', null, document.getElementById(\'Gadget2\'), {}, \'displayModeFull\'));\n_WidgetManager._RegisterWidget(\'_BlogView\', new _WidgetInfo(\'Blog1\', \'main\', null, document.getElementById(\'Blog1\'), {\'cmtInteractionsEnabled\': false, \'lightboxEnabled\': true, \'lightboxModuleUrl\': \'//www.blogger.com/static/v1/jsbin/1664432155-lbx.js\', \'lightboxCssUrl\': \'//www.blogger.com/static/v1/v-css/228702327-lightbox_bundle.css\'}, \'displayModeFull\'));\n    </script>\n  </body>\n</html>'
p11
sbsS'mentions'
p12
(lp13
(iedu.umass.cs.iesl.wikilink.expanded.data.ttypes
Mention
p14
(dp15
S'anchor_text'
p16
S'postorbital constriction'
p17
sS'context'
p18
(iedu.umass.cs.iesl.wikilink.expanded.data.ttypes
Context
p19
(dp20
S'middle'
p21
S'postorbital constriction'
p22
sS'right'
p23
S', and usually have divided\xc2\xa0 infraorbital foramen . The colour ranges from reddish-brown to a highly mottled black to sandy cinnamon grey. [ 11 ]'
p24
sS'left'
p25
S'lions have a heavy mane around the head and neck. Asiatic lions are similar to African forms, though they have less swollen tympanic bullae, shorter\xc2\xa0'
p26
sbsS'freebase_id'
p27
S'9202a8c04000641f8000000000e233be'
p28
sS'raw_text_offset'
p29
I39822
sS'wiki_url'
p30
S'http://en.wikipedia.org/wiki/Postorbital_constriction'
p31
sba(iedu.umass.cs.iesl.wikilink.expanded.data.ttypes
Mention
p32
(dp33
g16
S'infraorbital foramen'
p34
sg18
(iedu.umass.cs.iesl.wikilink.expanded.data.ttypes
Context
p35
(dp36
g21
S'infraorbital foramen'
p37
sg23
S'. The colour ranges from reddish-brown to a highly mottled black to sandy cinnamon grey. [ 11 ] Their size corresponds to that of central'
p38
sg25
S'head and neck. Asiatic lions are similar to African forms, though they have less swollen tympanic bullae, shorter\xc2\xa0 postorbital constriction , and usually have divided\xc2\xa0'
p39
sbsg27
S'9202a8c04000641f8000000000b35f61'
p40
sg29
I40200
sg30
S'http://en.wikipedia.org/wiki/Infraorbital_foramen'
p41
sba(iedu.umass.cs.iesl.wikilink.expanded.data.ttypes
Mention
p42
(dp43
g16
S'sambar'
p44
sg18
(iedu.umass.cs.iesl.wikilink.expanded.data.ttypes
Context
p45
(dp46
g21
S'sambar'
p47
sg23
S'\xc2\xa0& chital ), antelope ( nilgai ), gazelle ( chinkara ),\xc2\xa0 wild boar ,\xc2\xa0 water buffalo \xc2\xa0and\xc2\xa0 livestock . The Mountain Lion is described as'
p48
sg25
S'their prey animals are smaller than those in Africa, requiring fewer hunters to tackle them. [ 16 ] \xc2\xa0Asiatic lions prey predominantly on deer ('
p49
sbsg27
S'9202a8c04000641f80000000004e7ad7'
p50
sg29
I46489
sg30
S'http://en.wikipedia.org/wiki/Sambar_(deer)'
p51
sba(iedu.umass.cs.iesl.wikilink.expanded.data.ttypes
Mention
p52
(dp53
g16
S'chital'
p54
sg18
(iedu.umass.cs.iesl.wikilink.expanded.data.ttypes
Context
p55
(dp56
g21
S'chital'
p57
sg23
S'), antelope ( nilgai ), gazelle ( chinkara ),\xc2\xa0 wild boar ,\xc2\xa0 water buffalo \xc2\xa0and\xc2\xa0 livestock . The Mountain Lion is described as a large,'
p58
sg25
S'animals are smaller than those in Africa, requiring fewer hunters to tackle them. [ 16 ] \xc2\xa0Asiatic lions prey predominantly on deer ( sambar \xc2\xa0&'
p59
sbsg27
S'9202a8c04000641f800000000050af48'
p60
sg29
I46814
sg30
S'http://en.wikipedia.org/wiki/Chital'
p61
sba(iedu.umass.cs.iesl.wikilink.expanded.data.ttypes
Mention
p62
(dp63
g16
S'nilgai'
p64
sg18
(iedu.umass.cs.iesl.wikilink.expanded.data.ttypes
Context
p65
(dp66
g21
S'nilgai'
p67
sg23
S'), gazelle ( chinkara ),\xc2\xa0 wild boar ,\xc2\xa0 water buffalo \xc2\xa0and\xc2\xa0 livestock . The Mountain Lion is described as a large, powerful, carnivorous mammal ('
p68
sg25
S'those in Africa, requiring fewer hunters to tackle them. [ 16 ] \xc2\xa0Asiatic lions prey predominantly on deer ( sambar \xc2\xa0& chital ), antelope ('
p69
sbsg27
S'9202a8c04000641f80000000003b1a4c'
p70
sg29
I47141
sg30
S'http://en.wikipedia.org/wiki/Nilgai'
p71
sba(iedu.umass.cs.iesl.wikilink.expanded.data.ttypes
Mention
p72
(dp73
g16
S'chinkara'
p74
sg18
(iedu.umass.cs.iesl.wikilink.expanded.data.ttypes
Context
p75
(dp76
g21
S'chinkara'
p77
sg23
S'),\xc2\xa0 wild boar ,\xc2\xa0 water buffalo \xc2\xa0and\xc2\xa0 livestock . The Mountain Lion is described as a large, powerful, carnivorous mammal ( Felis concolor ) of'
p78
sg25
S'fewer hunters to tackle them. [ 16 ] \xc2\xa0Asiatic lions prey predominantly on deer ( sambar \xc2\xa0& chital ), antelope ( nilgai ), gazelle ('
p79
sbsg27
S'9202a8c04000641f800000000082f0e0'
p80
sg29
I47469
sg30
S'http://en.wikipedia.org/wiki/Chinkara'
p81
sba(iedu.umass.cs.iesl.wikilink.expanded.data.ttypes
Mention
p82
(dp83
g16
S'wild boar'
p84
sg18
(iedu.umass.cs.iesl.wikilink.expanded.data.ttypes
Context
p85
(dp86
g21
S'wild boar'
p87
sg23
S',\xc2\xa0 water buffalo \xc2\xa0and\xc2\xa0 livestock . The Mountain Lion is described as a large, powerful, carnivorous mammal ( Felis concolor ) of the family Felidae'
p88
sg25
S'to tackle them. [ 16 ] \xc2\xa0Asiatic lions prey predominantly on deer ( sambar \xc2\xa0& chital ), antelope ( nilgai ), gazelle ( chinkara ),\xc2\xa0'
p89
sbsg27
S'9202a8c04000641f8000000000065c87'
p90
sg29
I47796
sg30
S'http://en.wikipedia.org/wiki/Wild_boar'
p91
sba(iedu.umass.cs.iesl.wikilink.expanded.data.ttypes
Mention
p92
(dp93
g16
S'water buffalo'
p94
sg18
(iedu.umass.cs.iesl.wikilink.expanded.data.ttypes
Context
p95
(dp96
g21
S'water buffalo'
p97
sg23
S'\xc2\xa0and\xc2\xa0 livestock . The Mountain Lion is described as a large, powerful, carnivorous mammal ( Felis concolor ) of the family Felidae - a wild'
p98
sg25
S'[ 16 ] \xc2\xa0Asiatic lions prey predominantly on deer ( sambar \xc2\xa0& chital ), antelope ( nilgai ), gazelle ( chinkara ),\xc2\xa0 wild boar ,\xc2\xa0'
p99
sbsg27
S'9202a8c04000641f80000000000703cb'
p100
sg29
I48169
sg30
S'http://en.wikipedia.org/wiki/Water_buffalo'
p101
sba(iedu.umass.cs.iesl.wikilink.expanded.data.ttypes
Mention
p102
(dp103
g16
S'livestock'
p104
sg18
(iedu.umass.cs.iesl.wikilink.expanded.data.ttypes
Context
p105
(dp106
g21
S'livestock'
p107
sg23
S'. The Mountain Lion is described as a large, powerful, carnivorous mammal ( Felis concolor ) of the family Felidae - a wild cat. The'
p108
sg25
S'\xc2\xa0Asiatic lions prey predominantly on deer ( sambar \xc2\xa0& chital ), antelope ( nilgai ), gazelle ( chinkara ),\xc2\xa0 wild boar ,\xc2\xa0 water buffalo \xc2\xa0and\xc2\xa0'
p109
sbsg27
S'9202a8c04000641f800000000005bd1a'
p110
sg29
I48508
sg30
S'http://en.wikipedia.org/wiki/Livestock'
p111
sbasS'doc_id'
p112
I16354
sS'rare_words'
p113
(lp114
(iedu.umass.cs.iesl.wikilink.expanded.data.ttypes
RareWord
p115
(dp116
S'word'
p117
S'grey'
p118
sS'offset'
p119
I40307
sba(iedu.umass.cs.iesl.wikilink.expanded.data.ttypes
RareWord
p120
(dp121
g117
S'reported'
p122
sg119
I42915
sba(iedu.umass.cs.iesl.wikilink.expanded.data.ttypes
RareWord
p123
(dp124
g117
S'though'
p125
sg119
I39387
sba(iedu.umass.cs.iesl.wikilink.expanded.data.ttypes
RareWord
p126
(dp127
g117
S'concolor'
p128
sg119
I49914
sba(iedu.umass.cs.iesl.wikilink.expanded.data.ttypes
RareWord
p129
(dp130
g117
S'deer'
p131
sg119
I46150
sba(iedu.umass.cs.iesl.wikilink.expanded.data.ttypes
RareWord
p132
(dp133
g117
S'records'
p134
sg119
I44095
sba(iedu.umass.cs.iesl.wikilink.expanded.data.ttypes
RareWord
p135
(dp136
g117
S'imagedepotpro'
p137
sg119
I80454
sba(iedu.umass.cs.iesl.wikilink.expanded.data.ttypes
RareWord
p138
(dp139
g117
S'associate'
p140
sg119
I45421
sba(iedu.umass.cs.iesl.wikilink.expanded.data.ttypes
RareWord
p141
(dp142
g117
S'longest'
p143
sg119
I42333
sba(iedu.umass.cs.iesl.wikilink.expanded.data.ttypes
RareWord
p144
(dp145
g117
S'four'
p146
sg119
I45365
sbasb.