(iedu.umass.cs.iesl.wikilink.expanded.data.ttypes
WikiLinkItem
p0
(dp1
S'url'
p2
S'http://commons.wikimedia.org/wiki/Category:Petre_Otskheli'
p3
sS'content'
p4
(iedu.umass.cs.iesl.wikilink.expanded.data.ttypes
PageContentItem
p5
(dp6
S'articleText'
p7
NsS'raw'
p8
NsS'fullText'
p9
NsS'dom'
p10
S'<html lang="en" dir="ltr" class="client-nojs">\n  <head>\n    <title>Category:Petre Otskheli - Wikimedia Commons</title>\n    <meta charset="UTF-8"></meta>\n    <meta content="MediaWiki 1.20wmf12" name="generator"></meta>\n    <link href="/w/index.php?title=Category:Petre_Otskheli&amp;action=edit" title="Edit" type="application/x-wiki" rel="alternate"></link>\n    <link href="/w/index.php?title=Category:Petre_Otskheli&amp;action=edit" title="Edit" rel="edit"></link>\n    <link href="//commons.wikipedia.org/apple-touch-icon.png" rel="apple-touch-icon"></link>\n    <link href="/favicon.ico" rel="shortcut icon"></link>\n    <link title="Wikimedia Commons" href="/w/opensearch_desc.php" type="application/opensearchdescription+xml" rel="search"></link>\n    <link href="//commons.wikimedia.org/w/api.php?action=rsd" type="application/rsd+xml" rel="EditURI"></link>\n    <link href="//creativecommons.org/licenses/by-sa/3.0/" rel="copyright"></link>\n    <link href="/w/index.php?title=Special:RecentChanges&amp;feed=atom" title="Wikimedia Commons Atom feed" type="application/atom+xml" rel="alternate"></link>\n    <link \n    href="//bits.wikimedia.org/commons.wikimedia.org/load.php?debug=false&amp;lang=en&amp;modules=ext.categoryTree.css%7Cext.gadget.AjaxQuickDelete%2CExtraTabs2%2CImprovedUploadForm%2CLanguageSelect%2CLong-Image-Names-in-Categories%2CSlideshow%2CStockphoto%2CUploadWizard%2CWikiMiniAtlas%2CZoomViewer%7Cext.wikihiero%7Cmediawiki.legacy.commonPrint%2Cshared%7Cskins.vector&amp;only=styles&amp;skin=vector&amp;*" rel="stylesheet">\n</link>\n    <meta content="" name="ResourceLoaderDynamicStyles"></meta>\n    <link href="//bits.wikimedia.org/commons.wikimedia.org/load.php?debug=false&amp;lang=en&amp;modules=site&amp;only=styles&amp;skin=vector&amp;*" rel="stylesheet"></link>\n    <style>a:lang(ar),a:lang(ckb),a:lang(fa),a:lang(kk-arab),a:lang(mzn),a:lang(ps),a:lang(ur){text-decoration:none} /* cache key: commonswiki:resourceloader:filter:minify-css:7:0b7449c99e297120728e239932a49b4c */ </style>\n    <script src="//bits.wikimedia.org/commons.wikimedia.org/load.php?debug=false&amp;lang=en&amp;modules=startup&amp;only=scripts&amp;skin=vector&amp;*"></script>\n    <script>\n      if(window.mw){\nmw.config.set({&quot;wgCanonicalNamespace&quot;:&quot;Category&quot;,&quot;wgCanonicalSpecialPageName&quot;:false,&quot;wgNamespaceNumber&quot;:14,&quot;wgPageName&quot;:&quot;Category:Petre_Otskheli&quot;,&quot;wgTitle&quot;:&quot;Petre Otskheli&quot;,&quot;wgCurRevisionId&quot;:52352588,&quot;wgArticleId&quot;:9844823,&quot;wgIsArticle&quot;:true,&quot;wgAction&quot;:&quot;view&quot;,&quot;wgUserName&quot;:null,&quot;wgUserGroups&quot;:[&quot;*&quot;],&quot;wgCategories&quot;:[&quot;Creator template home categories&quot;,&quot;Home categories of creator templates without authority control data&quot;,&quot;1907 births&quot;,&quot;1937 deaths&quot;,&quot;Artists from Georgia&quot;,&quot;Painters from Georgia&quot;,&quot;People from Kutaisi&quot;,&quot;Victims of the Great Purge&quot;,&quot;Executed Georgian people&quot;,&quot;People by name&quot;,&quot;Otskheli&quot;,&quot;Scenic designers&quot;,&quot;20th-century people of Georgia&quot;],&quot;wgBreakFrames&quot;:false,&quot;wgPageContentLanguage&quot;:&quot;en&quot;,&quot;wgSeparatorTransformTable&quot;:[&quot;&quot;,&quot;&quot;],&quot;wgDigitTransformTable&quot;:[&quot;&quot;,&quot;&quot;],&quot;wgDefaultDateFormat&quot;:&quot;dmy&quot;,&quot;wgMonthNames&quot;:[&quot;&quot;,&quot;January&quot;,&quot;February&quot;,&quot;March&quot;,&quot;April&quot;,&quot;May&quot;,&quot;June&quot;,&quot;July&quot;,&quot;August&quot;,&quot;September&quot;,&quot;October&quot;,&quot;November&quot;,&quot;December&quot;],&quot;wgMonthNamesShort&quot;:[&quot;&quot;,&quot;Jan&quot;,&quot;Feb&quot;,&quot;Mar&quot;,&quot;Apr&quot;,&quot;May&quot;,&quot;Jun&quot;,&quot;Jul&quot;,&quot;Aug&quot;,&quot;Sep&quot;,&quot;Oct&quot;,&quot;Nov&quot;,&quot;Dec&quot;],&quot;wgRelevantPageName&quot;:&quot;Category:Petre_Otskheli&quot;,&quot;wgRestrictionEdit&quot;:[],&quot;wgRestrictionMove&quot;:[],&quot;wgSearchNamespaces&quot;:[0,6,12,14,100,106],&quot;wgVectorEnabledModules&quot;:{&quot;collapsiblenav&quot;:true,&quot;collapsibletabs&quot;:true,&quot;editwarning&quot;:true,&quot;expandablesearch&quot;:false,&quot;footercleanup&quot;:false,&quot;sectioneditlinks&quot;:false,&quot;simplesearch&quot;:true,&quot;experiments&quot;:true},&quot;wgWikiEditorEnabledModules&quot;:{&quot;toolbar&quot;:true,&quot;dialogs&quot;:true,&quot;hidesig&quot;:true,&quot;templateEditor&quot;:false,&quot;templates&quot;:false,&quot;preview&quot;:false,&quot;previewDialog&quot;:false,&quot;publish&quot;:false,&quot;toc&quot;:false},&quot;wgNarayamAvailableSchemes&quot;:[],&quot;wgNarayamAllSchemes&quot;:{&quot;ady&quot;:[],&quot;ady-cyrl&quot;:[],&quot;ahr&quot;:{&quot;ahr&quot;:&quot;ext.narayam.rules.ahr&quot;,&quot;ahr-inscript&quot;:&quot;ext.narayam.rules.ahr-inscript&quot;},&quot;am&quot;:[],&quot;as&quot;:{&quot;as&quot;:&quot;ext.narayam.rules.as&quot;,&quot;as-avro&quot;:&quot;ext.narayam.rules.as-avro&quot;,&quot;as-bornona&quot;:&quot;ext.narayam.rules.as-bornona&quot;,&quot;as-inscript&quot;:&quot;ext.narayam.rules.as-inscript&quot;},&quot;bh&quot;:{&quot;bho&quot;:&quot;ext.narayam.rules.bho&quot;,&quot;bho-inscript&quot;:&quot;ext.narayam.rules.bho-inscript&quot;},&quot;av&quot;:[],&quot;bho&quot;:{&quot;bho&quot;:&quot;ext.narayam.rules.bho&quot;,&quot;bho-inscript&quot;:&quot;ext.narayam.rules.bho-inscript&quot;},&quot;bn&quot;:{&quot;bn-avro&quot;:&quot;ext.narayam.rules.bn-avro&quot;,&quot;bn-inscript&quot;:&quot;ext.narayam.rules.bn-inscript&quot;,&quot;bn-nkb&quot;:&quot;ext.narayam.rules.bn-nkb&quot;},&quot;brx&quot;:[],&quot;hne&quot;:[],&quot;ce&quot;:[],&quot;de&quot;:{&quot;de&quot;:&quot;ext.narayam.rules.de&quot;},&quot;eo&quot;:{&quot;eo&quot;:&quot;ext.narayam.rules.eo&quot;},&quot;gom-deva&quot;:[],&quot;gu&quot;:{&quot;gu&quot;:&quot;ext.narayam.rules.gu&quot;,&quot;gu-inscript&quot;:&quot;ext.narayam.rules.gu-inscript&quot;},&quot;he&quot;:[],&quot;hi&quot;:{&quot;hi&quot;:&quot;ext.narayam.rules.hi&quot;,&quot;hi-bolnagri&quot;:&quot;ext.narayam.rules.hi-bolnagri&quot;,&quot;hi-inscript&quot;:&quot;ext.narayam.rules.hi-inscript&quot;},&quot;inh&quot;:[],&quot;kbd&quot;:[],&quot;kbd-cyrl&quot;:[],&quot;ka&quot;:{&quot;ka&quot;:&quot;ext.narayam.rules.ka&quot;},&quot;kn&quot;:{&quot;kn&quot;:&quot;ext.narayam.rules.kn&quot;,&quot;kn-inscript&quot;:&quot;ext.narayam.rules.kn-inscript&quot;},&quot;lbe&quot;:[],&quot;lez&quot;:[],&quot;mai&quot;:[],&quot;ml&quot;:{&quot;ml&quot;:&quot;ext.narayam.rules.ml&quot;,&quot;ml-inscript&quot;:&quot;ext.narayam.rules.ml-inscript&quot;},&quot;mr&quot;:{&quot;mr&quot;:&quot;ext.narayam.rules.mr&quot;,&quot;mr-inscript&quot;:&quot;ext.narayam.rules.mr-inscript&quot;},&quot;ne&quot;:[],&quot;new&quot;:[],&quot;or&quot;:{&quot;or&quot;:&quot;ext.narayam.rules.or&quot;,&quot;or-inscript&quot;:&quot;ext.narayam.rules.or-inscript&quot;},&quot;pa&quot;:{&quot;pa&quot;:&quot;ext.narayam.rules.pa&quot;,&quot;pa-inscript&quot;:&quot;ext.narayam.rules.pa-inscript&quot;,&quot;pa-phonetic&quot;:&quot;ext.narayam.rules.pa-phonetic&quot;},&quot;rif&quot;:[],&quot;sa&quot;:{&quot;sa&quot;:&quot;ext.narayam.rules.sa&quot;,&quot;sa-inscript&quot;:&quot;ext.narayam.rules.sa-inscript&quot;},&quot;shi&quot;:[],&quot;si&quot;:{&quot;si-singlish&quot;:&quot;ext.narayam.rules.si-singlish&quot;,&quot;si-wijesekara&quot;:&quot;ext.narayam.rules.si-wijesekara&quot;},&quot;ta&quot;:{&quot;ta&quot;:&quot;ext.narayam.rules.ta&quot;,&quot;ta-99&quot;:&quot;ext.narayam.rules.ta-99&quot;,&quot;ta-inscript&quot;:&quot;ext.narayam.rules.ta-inscript&quot;},&quot;tcy&quot;:[],&quot;te&quot;:{&quot;te&quot;:&quot;ext.narayam.rules.te&quot;,&quot;te-inscript&quot;:&quot;ext.narayam.rules.te-inscript&quot;},&quot;tkr&quot;:[],&quot;ur&quot;:[],&quot;ru&quot;:[],&quot;sah&quot;:[]},&quot;wikilove-recipient&quot;:&quot;&quot;,&quot;wikilove-anon&quot;:0,&quot;wgCategoryTreePageCategoryOptions&quot;:&quot;{\\&quot;mode\\&quot;:0,\\&quot;hideprefix\\&quot;:20,\\&quot;showcount\\&quot;:true,\\&quot;namespaces\\&quot;:false}&quot;,&quot;Geo&quot;:{&quot;city&quot;:&quot;&quot;,&quot;country&quot;:&quot;&quot;},&quot;wgNoticeProject&quot;:&quot;commons&quot;});\n}\n    </script>\n    <script>\n      if(window.mw){\nmw.loader.implement(&quot;user.options&quot;,function(){mw.user.options.set({&quot;ccmeonemails&quot;:0,&quot;cols&quot;:80,&quot;date&quot;:&quot;default&quot;,&quot;diffonly&quot;:0,&quot;disablemail&quot;:0,&quot;disablesuggest&quot;:0,&quot;editfont&quot;:&quot;default&quot;,&quot;editondblclick&quot;:0,&quot;editsection&quot;:1,&quot;editsectiononrightclick&quot;:0,&quot;enotifminoredits&quot;:0,&quot;enotifrevealaddr&quot;:0,&quot;enotifusertalkpages&quot;:1,&quot;enotifwatchlistpages&quot;:0,&quot;extendwatchlist&quot;:0,&quot;externaldiff&quot;:0,&quot;externaleditor&quot;:0,&quot;fancysig&quot;:0,&quot;forceeditsummary&quot;:0,&quot;gender&quot;:&quot;unknown&quot;,&quot;hideminor&quot;:0,&quot;hidepatrolled&quot;:0,&quot;imagesize&quot;:2,&quot;justify&quot;:0,&quot;math&quot;:0,&quot;minordefault&quot;:0,&quot;newpageshidepatrolled&quot;:0,&quot;nocache&quot;:0,&quot;noconvertlink&quot;:0,&quot;norollbackdiff&quot;:0,&quot;numberheadings&quot;:0,&quot;previewonfirst&quot;:0,&quot;previewontop&quot;:1,&quot;quickbar&quot;:5,&quot;rcdays&quot;:7,&quot;rclimit&quot;:50,&quot;rememberpassword&quot;:0,&quot;rows&quot;:25,&quot;searchlimit&quot;:20,&quot;showhiddencats&quot;:true,&quot;showjumplinks&quot;:1,&quot;shownumberswatching&quot;:1,&quot;showtoc&quot;:1,&quot;showtoolbar&quot;:1,&quot;skin&quot;:&quot;vector&quot;,&quot;stubthreshold&quot;:0,&quot;thumbsize&quot;:4,&quot;underline&quot;:2,&quot;uselivepreview&quot;:0,&quot;usenewrc&quot;:0,&quot;watchcreations&quot;:0,&quot;watchdefault&quot;:0,&quot;watchdeletion&quot;:0,&quot;watchlistdays&quot;:3,\n&quot;watchlisthideanons&quot;:0,&quot;watchlisthidebots&quot;:0,&quot;watchlisthideliu&quot;:0,&quot;watchlisthideminor&quot;:0,&quot;watchlisthideown&quot;:0,&quot;watchlisthidepatrolled&quot;:0,&quot;watchmoves&quot;:0,&quot;wllimit&quot;:250,&quot;vector-simplesearch&quot;:1,&quot;useeditwarning&quot;:1,&quot;vector-collapsiblenav&quot;:1,&quot;usebetatoolbar&quot;:1,&quot;usebetatoolbar-cgd&quot;:1,&quot;upwiz_deflicense&quot;:&quot;default&quot;,&quot;upwiz_def3rdparty&quot;:&quot;default&quot;,&quot;upwiz_deflicensetype&quot;:&quot;default&quot;,&quot;wikilove-enabled&quot;:1,&quot;variant&quot;:&quot;en&quot;,&quot;language&quot;:&quot;en&quot;,&quot;searchNs0&quot;:true,&quot;searchNs1&quot;:false,&quot;searchNs2&quot;:false,&quot;searchNs3&quot;:false,&quot;searchNs4&quot;:false,&quot;searchNs5&quot;:false,&quot;searchNs6&quot;:true,&quot;searchNs7&quot;:false,&quot;searchNs8&quot;:false,&quot;searchNs9&quot;:false,&quot;searchNs10&quot;:false,&quot;searchNs11&quot;:false,&quot;searchNs12&quot;:true,&quot;searchNs13&quot;:false,&quot;searchNs14&quot;:true,&quot;searchNs15&quot;:false,&quot;searchNs100&quot;:true,&quot;searchNs101&quot;:false,&quot;searchNs102&quot;:false,&quot;searchNs103&quot;:false,&quot;searchNs104&quot;:false,&quot;searchNs105&quot;:false,&quot;searchNs106&quot;:true,&quot;searchNs107&quot;:false,&quot;gadget-Slideshow&quot;:1,&quot;gadget-ZoomViewer&quot;:1,&quot;gadget-UploadWizard&quot;:1,&quot;gadget-ImprovedUploadForm&quot;:1,&quot;gadget-MyUploads&quot;:1,\n&quot;gadget-RotateLink&quot;:1,&quot;gadget-RenameLink&quot;:1,&quot;gadget-Long-Image-Names-in-Categories&quot;:1,&quot;gadget-Stockphoto&quot;:1,&quot;gadget-ExtraTabs2&quot;:1,&quot;gadget-WikiMiniAtlas&quot;:1,&quot;gadget-AjaxQuickDelete&quot;:1,&quot;gadget-LanguageSelect&quot;:1,&quot;narayamEnable&quot;:true});;},{},{});mw.loader.implement(&quot;user.tokens&quot;,function(){mw.user.tokens.set({&quot;editToken&quot;:&quot;+\\\\&quot;,&quot;watchToken&quot;:false});;},{},{});\n\n/* cache key: commonswiki:resourceloader:filter:minify-js:7:e0779e9a4a8968e67d665df4f0150439 */\n}\n    </script>\n    <script>if(window.mw){ mw.loader.load([&quot;mediawiki.page.startup&quot;,&quot;mediawiki.legacy.wikibits&quot;,&quot;mediawiki.legacy.ajax&quot;,&quot;ext.centralNotice.bannerController&quot;]); }</script>\n    <script src="//bits.wikimedia.org/geoiplookup"></script>\n  </head>\n  <body class="mediawiki ltr sitedir-ltr ns-14 ns-subject page-Category_Petre_Otskheli skin-vector action-view vector-animateLayout">\n    <div id="mw-page-base" class="noprint"></div>\n    <div id="mw-head-base" class="noprint"></div>\n    <div id="content" class="mw-body">\n      <a id="top" shape="rect"></a>\n      <div style="display:none;" id="mw-js-message"></div>\n      <div id="siteNotice">\n        <script>mw.centralNotice.initialize();</script>\n        <script type="text/javascript"> /* &lt;![CDATA[ */ document.writeln(&quot;\\x3cdiv id=\\&quot;localNotice\\&quot; lang=\\&quot;en\\&quot; dir=\\&quot;ltr\\&quot;\\x3e\\x3cp style=\\&quot;display:none\\&quot;\\x3e\\x3c/p\\x3e\\n\\x3c/div\\x3e&quot;); /* ]]&gt; */ </script>\n      </div>\n      <h1 id="firstHeading" class="firstHeading">\n        <span dir="auto">Category:Petre Otskheli</span>\n      </h1>\n      <div id="bodyContent">\n        <div id="siteSub">From Wikimedia Commons, the free media repository</div>\n        <div id="contentSub"></div>\n        <div id="jump-to-nav" class="mw-jump">\n          Jump to:\n          <a href="#mw-head" shape="rect">navigation</a>\n          ,\n          <a href="#p-search" shape="rect">search</a>\n        </div>\n        <div lang="en" id="mw-content-text" dir="ltr" class="mw-content-ltr">\n          <div class="vcard">\n            <table style="direction:ltr; text-align:left; border-collapse:collapse; background:#f0f0ff; border:1px solid #aaa;" cellspacing="0" cellpadding="2" class="toccolours collapsible">\n              <tr valign="top">\n                <th style="background-color:#e0e0ee; font-weight:bold; border:1px solid #aaa;" rowspan="1" colspan="4">\n                  <span id="creator" class="fn">\n                    <a title="en:Petre Otskheli" href="//en.wikipedia.org/wiki/Petre_Otskheli" class="extiw" shape="rect">Petre Otskheli</a>\n                  </span>\n                  (1907\xc3\xa2\xe2\x82\xac\xe2\x80\x9c1937)\n                  <span class="wpImageAnnotatorControl wpImageAnnotatorOff">\n                    <a title="Link back to Creator infobox template" href="/wiki/Creator:Petre_Otskheli" shape="rect">\n                      <img height="15" width="15" src="//upload.wikimedia.org/wikipedia/commons/thumb/7/73/Blue_pencil.svg/15px-Blue_pencil.svg.png" alt="Link back to Creator infobox template"></img>\n                    </a>\n                  </span>\n                </th>\n              </tr>\n              <tr valign="top">\n                <td style="background:#e0e0ee; border:1px solid #aaa; font-weight:bold;" rowspan="1" colspan="1">Alternative names</td>\n                <td style="border:1px solid #aaa;" id="fileinfotpl_creator_alt-name_value" rowspan="1" colspan="2">\n                  <span class="nickname">\xc3\xa1\xc6\x92\xc5\xbe\xc3\xa1\xc6\x92\xe2\x80\x9d\xc3\xa1\xc6\x92\xc2\xa2\xc3\xa1\xc6\x92\xc2\xa0\xc3\xa1\xc6\x92\xe2\x80\x9d \xc3\xa1\xc6\x92\xe2\x80\x99\xc3\xa1\xc6\x92\xc2\xa0\xc3\xa1\xc6\x92\xcb\x9c\xc3\xa1\xc6\x92\xe2\x80\x99\xc3\xa1\xc6\x92\xef\xbf\xbd\xc3\xa1\xc6\x92\xc5\xa1\xc3\xa1\xc6\x92\xcb\x9c\xc3\xa1\xc6\x92\xc2\xa1 \xc3\xa1\xc6\x92\xc2\xab\xc3\xa1\xc6\x92\xe2\x80\x9d \xc3\xa1\xc6\x92\xef\xbf\xbd\xc3\xa1\xc6\x92\xc2\xaa\xc3\xa1\xc6\x92\xc2\xae\xc3\xa1\xc6\x92\xe2\x80\x9d\xc3\xa1\xc6\x92\xc5\xa1\xc3\xa1\xc6\x92\xcb\x9c</span>\n                </td>\n              </tr>\n              <tr valign="top">\n                <td style="background:#e0e0ee; border:1px solid #aaa; font-weight:bold;" rowspan="1" colspan="1">Description</td>\n                <td style="border:1px solid #aaa;" id="fileinfotpl_creator_desc_value" class="note" rowspan="1" colspan="2">\n                  <p>\n                    Georgian stage designer and costume designer\n                    <br clear="none"></br>\n                  </p>\n                </td>\n              </tr>\n              <tr valign="top">\n                <td style="background:#e0e0ee; border:1px solid #aaa; font-weight:bold;" rowspan="1" colspan="1">Date of birth/death</td>\n                <td style="width:30%; border:1px solid #aaa;" id="fileinfotpl_creator_birthdate_value" class="bday" rowspan="1" colspan="1">\n                  1907\n                  <span style="display:none">\n                    (\n                    <span class="dtstart">1907</span>\n                    )\n                  </span>\n                </td>\n                <td style="width:30%; border:1px solid #aaa;" id="fileinfotpl_creator_deathdate_value" rowspan="1" colspan="1">\n                  1937\n                  <span style="display:none">\n                    (\n                    <span class="dtstart">1937</span>\n                    )\n                  </span>\n                </td>\n              </tr>\n              <tr valign="top">\n                <td style="background:#e0e0ee; border:1px solid #aaa; font-weight:bold;" rowspan="1" colspan="1">Location of birth</td>\n                <td style="width:30%; border:1px solid #aaa;" id="fileinfotpl_creator_birthloc_value" rowspan="1" colspan="1">\n                  <a title="en:Kutaisi" href="//en.wikipedia.org/wiki/Kutaisi" class="extiw" shape="rect">Kutaisi</a>\n                </td>\n                <td style="width:30%; border:1px solid #aaa;" id="fileinfotpl_creator_deathloc_value" rowspan="1" colspan="1"></td>\n              </tr>\n              <tr valign="top">\n                <td style="background:#e0e0ee; border:1px solid #aaa; font-weight:bold;" rowspan="1" colspan="1">Work location</td>\n                <td style="border:1px solid #aaa;" id="fileinfotpl_creator_work-location_value" class="adr" rowspan="1" colspan="2">\n                  <span class="locality">Georgia</span>\n                </td>\n              </tr>\n            </table>\n          </div>\n          <p>\n            <b>Petre Otskheli</b>\n            (1907\xc3\xa2\xe2\x82\xac\xe2\x80\x9c1937) was a\n            <a title="en:Georgia (country)" href="//en.wikipedia.org/wiki/Georgia_(country)" class="extiw" shape="rect">Georgian</a>\n            <a title="en:Modernism" href="//en.wikipedia.org/wiki/Modernism" class="extiw" shape="rect">modernist</a>\n            <a title="en:set designer" href="//en.wikipedia.org/wiki/set_designer" class="extiw" shape="rect">set</a>\n            and\n            <a title="en:costume designer" href="//en.wikipedia.org/wiki/costume_designer" class="extiw" shape="rect">costume designer</a>\n            who designed in theatre in Georgia and briefly in\n            <a title="en:Moscow" href="//en.wikipedia.org/wiki/Moscow" class="extiw" shape="rect">Moscow</a>\n            . He was put to death during\n            <a title="en:Stalin" href="//en.wikipedia.org/wiki/Stalin" class="extiw" shape="rect">Stalin\xc3\xa2\xe2\x82\xac\xe2\x84\xa2s</a>\n            <a title="en:Great Purge" href="//en.wikipedia.org/wiki/Great_Purge" class="extiw" shape="rect">Great Purge</a>\n            at the age of 30, but his scenographic\n            <a title="en:Constructivism (art)" href="//en.wikipedia.org/wiki/Constructivism_(art)" class="extiw" shape="rect">constructivism</a>\n            has had a lasting influence on the Georgian scenic design.\n          </p>\n          <table style="width: 100%; background-color: transparent;">\n            <tr valign="top">\n              <td rowspan="1" colspan="1">\n                <div xml:lang="en" style="direction:ltr;" lang="en" class="description en">\n                  <span title="" class="language en">\n                    <b>English:</b>\n                  </span>\n                  <a title="en:Petre Otskheli" href="//en.wikipedia.org/wiki/Petre_Otskheli" class="extiw" shape="rect">Petre Otskheli</a>\n                </div>\n              </td>\n              <td rowspan="1" colspan="1">\n                <div xml:lang="fi" style="direction:ltr;" lang="fi" class="description fi">\n                  <span title="" class="language fi">\n                    <b>Suomi:</b>\n                  </span>\n                  <a title="fi:Petre Otskheli" href="//fi.wikipedia.org/wiki/Petre_Otskheli" class="extiw" shape="rect">Petre Otskheli</a>\n                </div>\n              </td>\n              <td rowspan="1" colspan="1">\n                <div xml:lang="ka" style="direction:ltr;" lang="ka" class="description ka">\n                  <span title="" class="language ka">\n                    <b>\xc3\xa1\xc6\x92\xc2\xa5\xc3\xa1\xc6\x92\xef\xbf\xbd\xc3\xa1\xc6\x92\xc2\xa0\xc3\xa1\xc6\x92\xe2\x80\x94\xc3\xa1\xc6\x92\xc2\xa3\xc3\xa1\xc6\x92\xc5\xa1\xc3\xa1\xc6\x92\xcb\x9c:</b>\n                  </span>\n                  <a title="ka:\xc3\xa1\xc6\x92\xc5\xbe\xc3\xa1\xc6\x92\xe2\x80\x9d\xc3\xa1\xc6\x92\xc2\xa2\xc3\xa1\xc6\x92\xc2\xa0\xc3\xa1\xc6\x92\xe2\x80\x9d \xc3\xa1\xc6\x92\xef\xbf\xbd\xc3\xa1\xc6\x92\xc2\xaa\xc3\xa1\xc6\x92\xc2\xae\xc3\xa1\xc6\x92\xe2\x80\x9d\xc3\xa1\xc6\x92\xc5\xa1\xc3\xa1\xc6\x92\xcb\x9c" href="//ka.wikipedia.org/wiki/%E1%83%9E%E1%83%94%E1%83%A2%E1%83%A0%E1%83%94_%E1%83%9D%E1%83%AA%E1%83%AE%E1%83%94%E1%83%9A%E1%83%98" class="extiw" shape="rect">\xc3\xa1\xc6\x92\xc5\xbe\xc3\xa1\xc6\x92\xe2\x80\x9d\xc3\xa1\xc6\x92\xc2\xa2\xc3\xa1\xc6\x92\xc2\xa0\xc3\xa1\xc6\x92\xe2\x80\x9d \xc3\xa1\xc6\x92\xef\xbf\xbd\xc3\xa1\xc6\x92\xc2\xaa\xc3\xa1\xc6\x92\xc2\xae\xc3\xa1\xc6\x92\xe2\x80\x9d\xc3\xa1\xc6\x92\xc5\xa1\xc3\xa1\xc6\x92\xcb\x9c</a>\n                </div>\n              </td>\n              <td rowspan="1" colspan="1">\n                <div xml:lang="he" style="direction:rtl;" lang="he" class="description he">\n                  <span title="" class="language he">\n                    <b>\xc3\x97\xc2\xa2\xc3\x97\xe2\x80\x98\xc3\x97\xc5\xa1\xc3\x97\xe2\x84\xa2\xc3\x97\xc2\xaa:</b>\n                  </span>\n                  \xc3\x97\xe2\x82\xac\xc3\x96\xc2\xb6\xc3\x96\xc5\x92\xc3\x97\xcb\x9c\xc3\x97\xc5\xa1\xc3\x96\xc2\xb6\xc3\x97\xe2\x80\x9d \xc3\x97\xef\xbf\xbd\xc3\x97\xe2\x80\xa2\xc3\x96\xc2\xb9\xc3\x97\xc5\xa0\xc3\x97\xe2\x80\x94\xc3\x96\xc2\xb6\xc3\x97\xc5\x93\xc3\x96\xc5\xbd\xc3\x97\xe2\x84\xa2\n                </div>\n              </td>\n            </tr>\n          </table>\n          <div lang="en" dir="ltr">\n            <div id="mw-subcategories">\n              <h2>Subcategories</h2>\n              <p>This category has the following 4 subcategories, out of 4 total. </p>\n              <div lang="en" dir="ltr" class="mw-content-ltr">\n                <h3>P</h3>\n                <ul>\n                  <li>\n                    <div class="CategoryTreeSection">\n                      <div class="CategoryTreeItem">\n                        <span class="CategoryTreeEmptyBullet">\n                          [\n                          <b>\xc3\x83\xe2\x80\x94</b>\n                          ]\n                        </span>\n                        <a href="/wiki/Category:Petre_Otskheli,_Aprakune_Chimchimeli_1934" class="CategoryTreeLabel CategoryTreeLabelNs14 CategoryTreeLabelCategory" shape="rect">Petre Otskheli, Aprakune Chimchimeli 1934</a>\n                        \xc3\xa2\xe2\x82\xac\xc5\xbd\n                        <span title="Contains 0 subcategories, 0 pages, and 11 files" dir="ltr">(11 F)</span>\n                      </div>\n                      <div style="display:none" class="CategoryTreeChildren"></div>\n                    </div>\n                  </li>\n                  <li>\n                    <div class="CategoryTreeSection">\n                      <div class="CategoryTreeItem">\n                        <span class="CategoryTreeEmptyBullet">\n                          [\n                          <b>\xc3\x83\xe2\x80\x94</b>\n                          ]\n                        </span>\n                        <a href="/wiki/Category:Petre_Otskheli,_Othello_1933" class="CategoryTreeLabel CategoryTreeLabelNs14 CategoryTreeLabelCategory" shape="rect">Petre Otskheli, Othello 1933</a>\n                        \xc3\xa2\xe2\x82\xac\xc5\xbd\n                        <span title="Contains 0 subcategories, 0 pages, and 19 files" dir="ltr">(19 F)</span>\n                      </div>\n                      <div style="display:none" class="CategoryTreeChildren"></div>\n                    </div>\n                  </li>\n                  <li>\n                    <div class="CategoryTreeSection">\n                      <div class="CategoryTreeItem">\n                        <span class="CategoryTreeEmptyBullet">\n                          [\n                          <b>\xc3\x83\xe2\x80\x94</b>\n                          ]\n                        </span>\n                        <a href="/wiki/Category:Petre_Otskheli,_Surami_Fortress_1933" class="CategoryTreeLabel CategoryTreeLabelNs14 CategoryTreeLabelCategory" shape="rect">Petre Otskheli, Surami Fortress 1933</a>\n                        \xc3\xa2\xe2\x82\xac\xc5\xbd\n                        <span title="Contains 0 subcategories, 0 pages, and 5 files" dir="ltr">(5 F)</span>\n                      </div>\n                      <div style="display:none" class="CategoryTreeChildren"></div>\n                    </div>\n                  </li>\n                  <li>\n                    <div class="CategoryTreeSection">\n                      <div class="CategoryTreeItem">\n                        <span class="CategoryTreeEmptyBullet">\n                          [\n                          <b>\xc3\x83\xe2\x80\x94</b>\n                          ]\n                        </span>\n                        <a href="/wiki/Category:Petre_Otskheli,_Uriel_Acosta_1929" class="CategoryTreeLabel CategoryTreeLabelNs14 CategoryTreeLabelCategory" shape="rect">Petre Otskheli, Uriel Acosta 1929</a>\n                        \xc3\xa2\xe2\x82\xac\xc5\xbd\n                        <span title="Contains 0 subcategories, 0 pages, and 7 files" dir="ltr">(7 F)</span>\n                      </div>\n                      <div style="display:none" class="CategoryTreeChildren"></div>\n                    </div>\n                  </li>\n                </ul>\n              </div>\n            </div>\n            <div id="mw-pages">\n              <h2>Pages in category &quot;Petre Otskheli&quot;</h2>\n              <p>This category contains only the following page. </p>\n              <div lang="en" dir="ltr" class="mw-content-ltr">\n                <h3> </h3>\n                <ul>\n                  <li>\n                    <a title="Creator:Petre Otskheli" href="/wiki/Creator:Petre_Otskheli" shape="rect">Creator:Petre Otskheli</a>\n                  </li>\n                </ul>\n              </div>\n            </div>\n            <div id="mw-category-media">\n              <h2>Media in category &quot;Petre Otskheli&quot;</h2>\n              <p>The following 3 files are in this category, out of 3 total. </p>\n              <ul class="gallery">\n                <li style="width: 155px" class="gallerybox">\n                  <div style="width: 155px">\n                    <div style="width: 150px;" class="thumb">\n                      <div style="margin:15px auto;">\n                        <a href="/wiki/File:P._Otskeli,_sketch_for_the_film_%E2%80%9CFlying_Dyer%E2%80%9D.JPG" class="image" shape="rect">\n                          <img height="120" width="86" src="//upload.wikimedia.org/wikipedia/commons/thumb/7/76/P._Otskeli%2C_sketch_for_the_film_%E2%80%9CFlying_Dyer%E2%80%9D.JPG/86px-P._Otskeli%2C_sketch_for_the_film_%E2%80%9CFlying_Dyer%E2%80%9D.JPG" alt="P. Otskeli, sketch for the film \xc3\xa2\xe2\x82\xac\xc5\x93Flying Dyer\xc3\xa2\xe2\x82\xac\xef\xbf\xbd.JPG"></img>\n                        </a>\n                      </div>\n                    </div>\n                    <div class="gallerytext">\n                      <a title="File:P. Otskeli, sketch for the film \xc3\xa2\xe2\x82\xac\xc5\x93Flying Dyer\xc3\xa2\xe2\x82\xac\xef\xbf\xbd.JPG" href="/wiki/File:P._Otskeli,_sketch_for_the_film_%E2%80%9CFlying_Dyer%E2%80%9D.JPG" shape="rect">P. Otskeli, sketch for...</a>\n                      <br clear="none"></br>\n                      50 KB\n                      <br clear="none"></br>\n                    </div>\n                  </div>\n                </li>\n                <li style="width: 155px" class="gallerybox">\n                  <div style="width: 155px">\n                    <div style="width: 150px;" class="thumb">\n                      <div style="margin:51.5px auto;">\n                        <a href="/wiki/File:Petre_Otskheli_signature.JPG" class="image" shape="rect">\n                          <img height="47" width="120" src="//upload.wikimedia.org/wikipedia/commons/3/3b/Petre_Otskheli_signature.JPG" alt="Petre Otskheli signature.JPG"></img>\n                        </a>\n                      </div>\n                    </div>\n                    <div class="gallerytext">\n                      <a title="File:Petre Otskheli signature.JPG" href="/wiki/File:Petre_Otskheli_signature.JPG" shape="rect">Petre Otskheli signatu...</a>\n                      <br clear="none"></br>\n                      1 KB\n                      <br clear="none"></br>\n                    </div>\n                  </div>\n                </li>\n                <li style="width: 155px" class="gallerybox">\n                  <div style="width: 155px">\n                    <div style="width: 150px;" class="thumb">\n                      <div style="margin:15px auto;">\n                        <a href="/wiki/File:Petre_Otskheli._Sketch_of_Costume._Gouache_on_Paper._25x20_cm.1934.jpg" class="image" shape="rect">\n                          <img \n                          height="120" width="108" src="//upload.wikimedia.org/wikipedia/commons/thumb/5/51/Petre_Otskheli._Sketch_of_Costume._Gouache_on_Paper._25x20_cm.1934.jpg/108px-Petre_Otskheli._Sketch_of_Costume._Gouache_on_Paper._25x20_cm.1934.jpg" alt="Petre Otskheli. Sketch of Costume. Gouache on Paper. 25x20 cm.1934.jpg">\n</img>\n                        </a>\n                      </div>\n                    </div>\n                    <div class="gallerytext">\n                      <a title="File:Petre Otskheli. Sketch of Costume. Gouache on Paper. 25x20 cm.1934.jpg" href="/wiki/File:Petre_Otskheli._Sketch_of_Costume._Gouache_on_Paper._25x20_cm.1934.jpg" shape="rect">Petre Otskheli. Sketch...</a>\n                      <br clear="none"></br>\n                      30 KB\n                      <br clear="none"></br>\n                    </div>\n                  </div>\n                </li>\n              </ul>\n            </div>\n          </div>\n        </div>\n        <div class="printfooter">\n          Retrieved from &quot;\n          <a href="http://commons.wikimedia.org/w/index.php?title=Category:Petre_Otskheli&amp;oldid=52352588" shape="rect">http://commons.wikimedia.org/w/index.php?title=Category:Petre_Otskheli&amp;oldid=52352588</a>\n          &quot;\n        </div>\n        <div id="catlinks" class="catlinks">\n          <div id="mw-normal-catlinks" class="mw-normal-catlinks">\n            <a title="Special:Categories" href="/wiki/Special:Categories" shape="rect">Categories</a>\n            :\n            <ul>\n              <li>\n                <a title="Category:1907 births" href="/wiki/Category:1907_births" shape="rect">1907 births</a>\n              </li>\n              <li>\n                <a title="Category:1937 deaths" href="/wiki/Category:1937_deaths" shape="rect">1937 deaths</a>\n              </li>\n              <li>\n                <a title="Category:Artists from Georgia" href="/wiki/Category:Artists_from_Georgia" shape="rect">Artists from Georgia</a>\n              </li>\n              <li>\n                <a title="Category:Painters from Georgia" href="/wiki/Category:Painters_from_Georgia" shape="rect">Painters from Georgia</a>\n              </li>\n              <li>\n                <a title="Category:People from Kutaisi" href="/wiki/Category:People_from_Kutaisi" shape="rect">People from Kutaisi</a>\n              </li>\n              <li>\n                <a title="Category:Victims of the Great Purge" href="/wiki/Category:Victims_of_the_Great_Purge" shape="rect">Victims of the Great Purge</a>\n              </li>\n              <li>\n                <a title="Category:Executed Georgian people" href="/wiki/Category:Executed_Georgian_people" shape="rect">Executed Georgian people</a>\n              </li>\n              <li>\n                <a title="Category:Otskheli" href="/wiki/Category:Otskheli" shape="rect">Otskheli</a>\n              </li>\n              <li>\n                <a title="Category:Scenic designers" href="/wiki/Category:Scenic_designers" shape="rect">Scenic designers</a>\n              </li>\n              <li>\n                <a title="Category:20th-century people of Georgia" href="/wiki/Category:20th-century_people_of_Georgia" shape="rect">20th-century people of Georgia</a>\n              </li>\n            </ul>\n          </div>\n          <div id="mw-hidden-catlinks" class="mw-hidden-catlinks mw-hidden-cats-user-shown">\n            Non-topical/index:\n            <ul>\n              <li>\n                <a title="Category:Creator template home categories" href="/wiki/Category:Creator_template_home_categories" shape="rect">Creator template home categories</a>\n              </li>\n              <li>\n                <a title="Category:Home categories of creator templates without authority control data" href="/wiki/Category:Home_categories_of_creator_templates_without_authority_control_data" shape="rect">Home categories of creator templates without authority control data</a>\n              </li>\n              <li>\n                <a title="Category:People by name" href="/wiki/Category:People_by_name" shape="rect">People by name</a>\n              </li>\n            </ul>\n          </div>\n        </div>\n        <div class="visualClear"></div>\n      </div>\n    </div>\n    <div id="mw-head" class="noprint">\n      <div id="p-personal" class="">\n        <h5>Personal tools</h5>\n        <ul>\n          <li id="pt-createaccount">\n            <a href="/w/index.php?title=Special:UserLogin&amp;returnto=Category%3APetre+Otskheli&amp;type=signup" shape="rect">Create account</a>\n          </li>\n          <li id="pt-login">\n            <a accesskey="o" title="You are encouraged to log in; however, it is not mandatory [o]" href="/w/index.php?title=Special:UserLogin&amp;returnto=Category%3APetre+Otskheli" shape="rect">Log in</a>\n          </li>\n        </ul>\n      </div>\n      <div id="left-navigation">\n        <div id="p-namespaces" class="vectorTabs">\n          <h5>Namespaces</h5>\n          <ul>\n            <li id="ca-nstab-category" class="selected">\n              <span>\n                <a accesskey="c" title="View the category page [c]" href="/wiki/Category:Petre_Otskheli" shape="rect">Category</a>\n              </span>\n            </li>\n            <li id="ca-talk" class="new">\n              <span>\n                <a accesskey="t" title="Discussion about the content page [t]" href="/w/index.php?title=Category_talk:Petre_Otskheli&amp;action=edit&amp;redlink=1" shape="rect">Discussion</a>\n              </span>\n            </li>\n          </ul>\n        </div>\n        <div id="p-variants" class="vectorMenu emptyPortlet">\n          <h4> </h4>\n          <h5>\n            <span>Variants</span>\n            <a href="#" shape="rect"></a>\n          </h5>\n          <div class="menu">\n            <ul></ul>\n          </div>\n        </div>\n      </div>\n      <div id="right-navigation">\n        <div id="p-views" class="vectorTabs">\n          <h5>Views</h5>\n          <ul>\n            <li id="ca-view" class="selected">\n              <span>\n                <a href="/wiki/Category:Petre_Otskheli" shape="rect">View</a>\n              </span>\n            </li>\n            <li id="ca-edit">\n              <span>\n                <a accesskey="e" title="You can edit this page. Please use the preview button before saving [e]" href="/w/index.php?title=Category:Petre_Otskheli&amp;action=edit" shape="rect">Edit</a>\n              </span>\n            </li>\n            <li id="ca-history" class="collapsible">\n              <span>\n                <a accesskey="h" title="Past revisions of this page [h]" href="/w/index.php?title=Category:Petre_Otskheli&amp;action=history" shape="rect">View history</a>\n              </span>\n            </li>\n          </ul>\n        </div>\n        <div id="p-cactions" class="vectorMenu emptyPortlet">\n          <h5>\n            <span>Actions</span>\n            <a href="#" shape="rect"></a>\n          </h5>\n          <div class="menu">\n            <ul></ul>\n          </div>\n        </div>\n        <div id="p-search">\n          <h5>\n            <label for="searchInput">Search</label>\n          </h5>\n          <form action="/w/index.php" id="searchform" method="get" enctype="application/x-www-form-urlencoded">\n            <div id="simpleSearch">\n              <input accesskey="f" title="Search Wikimedia Commons [f]" name="search" id="searchInput" type="text"></input>\n              <button height="13" width="12" title="Search the pages for this text" name="button" id="searchButton" type="submit">\n                <img alt="Search" src="//bits.wikimedia.org/static-1.20wmf12/skins/vector/images/search-ltr.png?303-4"></img>\n              </button>\n              <input value="Special:Search" name="title" type="hidden"></input>\n            </div>\n          </form>\n        </div>\n      </div>\n    </div>\n    <div id="mw-panel" class="noprint">\n      <div id="p-logo">\n        <a title="Visit the main page" href="/wiki/Main_Page" style="background-image: url(//upload.wikimedia.org/wikipedia/commons/7/79/Wiki-commons.png);" shape="rect"></a>\n      </div>\n      <div id="p-navigation" class="portal">\n        <h5>Navigation</h5>\n        <div class="body">\n          <ul>\n            <li id="n-mainpage">\n              <a accesskey="z" title="Visit the main page [z]" href="/wiki/Main_Page" shape="rect">Main Page</a>\n            </li>\n            <li id="n-welcome">\n              <a href="/wiki/Commons:Welcome" shape="rect">Welcome</a>\n            </li>\n            <li id="n-portal">\n              <a title="About the project, what you can do, where to find things" href="/wiki/Commons:Community_portal" shape="rect">Community portal</a>\n            </li>\n            <li id="n-village-pump">\n              <a href="/wiki/Commons:Village_pump" shape="rect">Village pump</a>\n            </li>\n          </ul>\n        </div>\n      </div>\n      <div id="p-participate" class="portal">\n        <h5>Participate</h5>\n        <div class="body">\n          <ul>\n            <li id="n-uploadbtn">\n              <a href="/wiki/Commons:Upload" shape="rect">Upload file</a>\n            </li>\n            <li id="n-recentchanges">\n              <a accesskey="r" title="A list of recent changes in the wiki [r]" href="/wiki/Special:RecentChanges" shape="rect">Recent changes</a>\n            </li>\n            <li id="n-latestfiles">\n              <a href="/wiki/Special:NewFiles" shape="rect">Latest files</a>\n            </li>\n            <li id="n-randomimage">\n              <a accesskey="x" title="Load a random file [x]" href="/wiki/Special:Random/File" shape="rect">Random file</a>\n            </li>\n            <li id="n-help">\n              <a title="The place to find out" href="/wiki/Help:Contents" shape="rect">Help</a>\n            </li>\n            <li id="n-contact">\n              <a href="/wiki/Commons:Contact_us" shape="rect">Contact us</a>\n            </li>\n            <li id="n-sitesupport">\n              <a title="Support us" href="//donate.wikimedia.org/wiki/Special:FundraiserRedirector?utm_source=donate&amp;utm_medium=sidebar&amp;utm_campaign=C12_commons.wikimedia.org" shape="rect">Donate</a>\n            </li>\n          </ul>\n        </div>\n      </div>\n      <div id="p-tb" class="portal">\n        <h5>Toolbox</h5>\n        <div class="body">\n          <ul>\n            <li id="t-whatlinkshere">\n              <a accesskey="j" title="A list of all wiki pages that link here [j]" href="/wiki/Special:WhatLinksHere/Category:Petre_Otskheli" shape="rect">What links here</a>\n            </li>\n            <li id="t-recentchangeslinked">\n              <a accesskey="k" title="Recent changes in pages linked from this page [k]" href="/wiki/Special:RecentChangesLinked/Category:Petre_Otskheli" shape="rect">Related changes</a>\n            </li>\n            <li id="t-specialpages">\n              <a accesskey="q" title="A list of all special pages [q]" href="/wiki/Special:SpecialPages" shape="rect">Special pages</a>\n            </li>\n            <li id="t-print">\n              <a accesskey="p" title="Printable version of this page [p]" rel="alternate" href="/w/index.php?title=Category:Petre_Otskheli&amp;printable=yes" shape="rect">Printable version</a>\n            </li>\n            <li id="t-permalink">\n              <a title="Permanent link to this revision of the page" href="/w/index.php?title=Category:Petre_Otskheli&amp;oldid=52352588" shape="rect">Permanent link</a>\n            </li>\n          </ul>\n        </div>\n      </div>\n      <div id="p-lang" class="portal">\n        <h5>In Wikipedia</h5>\n        <div class="body">\n          <ul>\n            <li class="interwiki-en">\n              <a title="Petre Otskheli" href="//en.wikipedia.org/wiki/Petre_Otskheli" lang="en" shape="rect" hreflang="en">English</a>\n            </li>\n            <li class="interwiki-fi">\n              <a title="Petre Otskheli" href="//fi.wikipedia.org/wiki/Petre_Otskheli" lang="fi" shape="rect" hreflang="fi">Suomi</a>\n            </li>\n            <li class="interwiki-ka">\n              <a title="\xc3\xa1\xc6\x92\xc5\xbe\xc3\xa1\xc6\x92\xe2\x80\x9d\xc3\xa1\xc6\x92\xc2\xa2\xc3\xa1\xc6\x92\xc2\xa0\xc3\xa1\xc6\x92\xe2\x80\x9d \xc3\xa1\xc6\x92\xef\xbf\xbd\xc3\xa1\xc6\x92\xc2\xaa\xc3\xa1\xc6\x92\xc2\xae\xc3\xa1\xc6\x92\xe2\x80\x9d\xc3\xa1\xc6\x92\xc5\xa1\xc3\xa1\xc6\x92\xcb\x9c" href="//ka.wikipedia.org/wiki/%E1%83%9E%E1%83%94%E1%83%A2%E1%83%A0%E1%83%94_%E1%83%9D%E1%83%AA%E1%83%AE%E1%83%94%E1%83%9A%E1%83%98" lang="ka" shape="rect" hreflang="ka">\xc3\xa1\xc6\x92\xc2\xa5\xc3\xa1\xc6\x92\xef\xbf\xbd\xc3\xa1\xc6\x92\xc2\xa0\xc3\xa1\xc6\x92\xe2\x80\x94\xc3\xa1\xc6\x92\xc2\xa3\xc3\xa1\xc6\x92\xc5\xa1\xc3\xa1\xc6\x92\xcb\x9c</a>\n            </li>\n          </ul>\n        </div>\n      </div>\n    </div>\n    <div id="footer">\n      <ul id="footer-info">\n        <li id="footer-info-lastmod"> This page was last modified on 25 March 2011, at 06:51.</li>\n        <li id="footer-info-copyright">\n          Text is available under the\n          <a href="//creativecommons.org/licenses/by-sa/3.0/" rel="license" shape="rect">Creative Commons Attribution/Share-Alike License</a>\n          ;\nadditional terms may apply.\nSee\n          <a href="//wikimediafoundation.org/wiki/Terms_of_Use" shape="rect">Terms of Use</a>\n          for details.\n        </li>\n      </ul>\n      <ul id="footer-places">\n        <li id="footer-places-privacy">\n          <a title="Commons:Privacy policy" href="/wiki/Commons:Privacy_policy" shape="rect">Privacy policy</a>\n        </li>\n        <li id="footer-places-about">\n          <a title="Commons:Welcome" href="/wiki/Commons:Welcome" shape="rect">About Wikimedia Commons</a>\n        </li>\n        <li id="footer-places-disclaimer">\n          <a title="Commons:General disclaimer" href="/wiki/Commons:General_disclaimer" shape="rect">Disclaimers</a>\n        </li>\n        <li id="footer-places-mobileview">\n          <a href="http://commons.wikimedia.org/w/index.php?title=Category:Petre_Otskheli&amp;mobileaction=toggle_view_mobile" class="noprint stopMobileRedirectToggle" shape="rect">Mobile view</a>\n        </li>\n      </ul>\n      <ul id="footer-icons" class="noprint">\n        <li id="footer-copyrightico">\n          <a href="//wikimediafoundation.org/" shape="rect">\n            <img alt="Wikimedia Foundation" height="31" width="88" src="//bits.wikimedia.org/images/wikimedia-button.png"></img>\n          </a>\n        </li>\n        <li id="footer-poweredbyico">\n          <a href="//www.mediawiki.org/" shape="rect">\n            <img height="31" width="88" alt="Powered by MediaWiki" src="//bits.wikimedia.org/static-1.20wmf12/skins/common/images/poweredby_mediawiki_88x31.png"></img>\n          </a>\n        </li>\n      </ul>\n      <div style="clear:both"></div>\n    </div>\n    <script>if(window.mw){ mw.loader.state({&quot;site&quot;:&quot;loading&quot;,&quot;user&quot;:&quot;ready&quot;,&quot;user.groups&quot;:&quot;ready&quot;}); }</script>\n    <script src="//bits.wikimedia.org/commons.wikimedia.org/load.php?debug=false&amp;lang=en&amp;modules=skins.vector&amp;only=scripts&amp;skin=vector&amp;*"></script>\n    <script>\n      if(window.mw){\nmw.loader.load([&quot;ext.categoryTree&quot;,&quot;mediawiki.user&quot;,&quot;mediawiki.page.ready&quot;,&quot;mediawiki.legacy.mwsuggest&quot;,&quot;ext.gadget.Slideshow&quot;,&quot;ext.gadget.ZoomViewer&quot;,&quot;ext.gadget.UploadWizard&quot;,&quot;ext.gadget.ImprovedUploadForm&quot;,&quot;ext.gadget.Long-Image-Names-in-Categories&quot;,&quot;ext.gadget.Stockphoto&quot;,&quot;ext.gadget.ExtraTabs2&quot;,&quot;ext.gadget.WikiMiniAtlas&quot;,&quot;ext.gadget.AjaxQuickDelete&quot;,&quot;ext.gadget.LanguageSelect&quot;,&quot;ext.vector.collapsibleNav&quot;,&quot;ext.vector.collapsibleTabs&quot;,&quot;ext.vector.editWarning&quot;,&quot;ext.vector.simpleSearch&quot;], null, true);\n}\n    </script>\n    <script src="//bits.wikimedia.org/commons.wikimedia.org/load.php?debug=false&amp;lang=en&amp;modules=site&amp;only=scripts&amp;skin=vector&amp;*"></script>\n  </body>\n</html>'
p11
sbsS'mentions'
p12
(lp13
(iedu.umass.cs.iesl.wikilink.expanded.data.ttypes
Mention
p14
(dp15
S'anchor_text'
p16
S'set'
p17
sS'context'
p18
(iedu.umass.cs.iesl.wikilink.expanded.data.ttypes
Context
p19
(dp20
S'middle'
p21
S'set'
p22
sS'right'
p23
S'and costume designer who designed in theatre in Georgia and briefly in Moscow . He was put to death during Stalin\xc3\xa2\xe2\x82\xac\xe2\x84\xa2s Great Purge at the'
p24
sS'left'
p25
S'Date of birth/death 1907 ( 1907 ) 1937 ( 1937 ) Location of birth Kutaisi Work location Georgia Petre Otskheli (1907\xc3\xa2\xe2\x82\xac\xe2\x80\x9c1937) was a Georgian modernist'
p26
sbsS'freebase_id'
p27
S'9202a8c04000641f800000000022e787'
p28
sS'raw_text_offset'
p29
I12767
sS'wiki_url'
p30
S'http://en.wikipedia.org/wiki/set_designer'
p31
sba(iedu.umass.cs.iesl.wikilink.expanded.data.ttypes
Mention
p32
(dp33
g16
S'costume designer'
p34
sg18
(iedu.umass.cs.iesl.wikilink.expanded.data.ttypes
Context
p35
(dp36
g21
S'costume designer'
p37
sg23
S'who designed in theatre in Georgia and briefly in Moscow . He was put to death during Stalin\xc3\xa2\xe2\x82\xac\xe2\x84\xa2s Great Purge at the age of 30,'
p38
sg25
S'birth/death 1907 ( 1907 ) 1937 ( 1937 ) Location of birth Kutaisi Work location Georgia Petre Otskheli (1907\xc3\xa2\xe2\x82\xac\xe2\x80\x9c1937) was a Georgian modernist set and'
p39
sbsg27
S'9202a8c04000641f80000000046c3321'
p40
sg29
I12872
sg30
S'http://en.wikipedia.org/wiki/costume_designer'
p41
sba(iedu.umass.cs.iesl.wikilink.expanded.data.ttypes
Mention
p42
(dp43
g16
S'Moscow'
p44
sg18
(iedu.umass.cs.iesl.wikilink.expanded.data.ttypes
Context
p45
(dp46
g21
S'Moscow'
p47
sg23
S'. He was put to death during Stalin\xc3\xa2\xe2\x82\xac\xe2\x84\xa2s Great Purge at the age of 30, but his scenographic constructivism has had a lasting influence on'
p48
sg25
S'birth Kutaisi Work location Georgia Petre Otskheli (1907\xc3\xa2\xe2\x82\xac\xe2\x80\x9c1937) was a Georgian modernist set and costume designer who designed in theatre in Georgia and briefly in'
p49
sbsg27
S'9202a8c04000641f8000000000499302'
p50
sg29
I13016
sg30
S'http://en.wikipedia.org/wiki/Moscow'
p51
sba(iedu.umass.cs.iesl.wikilink.expanded.data.ttypes
Mention
p52
(dp53
g16
S'Great Purge'
p54
sg18
(iedu.umass.cs.iesl.wikilink.expanded.data.ttypes
Context
p55
(dp56
g21
S'Great Purge'
p57
sg23
S'at the age of 30, but his scenographic constructivism has had a lasting influence on the Georgian scenic design. English: Petre Otskheli Suomi: Petre Otskheli'
p58
sg25
S'a Georgian modernist set and costume designer who designed in theatre in Georgia and briefly in Moscow . He was put to death during Stalin\xc3\xa2\xe2\x82\xac\xe2\x84\xa2s'
p59
sbsg27
S'9202a8c04000641f8000000000105735'
p60
sg29
I13226
sg30
S'http://en.wikipedia.org/wiki/Great_Purge'
p61
sba(iedu.umass.cs.iesl.wikilink.expanded.data.ttypes
Mention
p62
(dp63
g16
S'constructivism'
p64
sg18
(iedu.umass.cs.iesl.wikilink.expanded.data.ttypes
Context
p65
(dp66
g21
S'constructivism'
p67
sg23
S'has had a lasting influence on the Georgian scenic design. English: Petre Otskheli Suomi: Petre Otskheli \xc3\xa1\xc6\x92\xc2\xa5\xc3\xa1\xc6\x92\xef\xbf\xbd\xc3\xa1\xc6\x92\xc2\xa0\xc3\xa1\xc6\x92\xe2\x80\x94\xc3\xa1\xc6\x92\xc2\xa3\xc3\xa1\xc6\x92\xc5\xa1\xc3\xa1\xc6\x92\xcb\x9c: \xc3\xa1\xc6\x92\xc5\xbe\xc3\xa1\xc6\x92\xe2\x80\x9d\xc3\xa1\xc6\x92\xc2\xa2\xc3\xa1\xc6\x92\xc2\xa0\xc3\xa1\xc6\x92\xe2\x80\x9d \xc3\xa1\xc6\x92\xef\xbf\xbd\xc3\xa1\xc6\x92\xc2\xaa\xc3\xa1\xc6\x92\xc2\xae\xc3\xa1\xc6\x92\xe2\x80\x9d\xc3\xa1\xc6\x92\xc5\xa1\xc3\xa1\xc6\x92\xcb\x9c \xc3\x97\xc2\xa2\xc3\x97\xe2\x80\x98\xc3\x97\xc5\xa1\xc3\x97\xe2\x84\xa2\xc3\x97\xc2\xaa: \xc3\x97\xe2\x82\xac\xc3\x96\xc2\xb6\xc3\x96\xc5\x92\xc3\x97\xcb\x9c\xc3\x97\xc5\xa1\xc3\x96\xc2\xb6\xc3\x97\xe2\x80\x9d \xc3\x97\xef\xbf\xbd\xc3\x97\xe2\x80\xa2\xc3\x96\xc2\xb9\xc3\x97\xc5\xa0\xc3\x97\xe2\x80\x94\xc3\x96\xc2\xb6\xc3\x97\xc5\x93\xc3\x96\xc5\xbd\xc3\x97\xe2\x84\xa2 Subcategories This category'
p68
sg25
S'theatre in Georgia and briefly in Moscow . He was put to death during Stalin\xc3\xa2\xe2\x82\xac\xe2\x84\xa2s Great Purge at the age of 30, but his scenographic'
p69
sbsg27
S'9202a8c04000641f800000000076f9c6'
p70
sg29
I13382
sg30
S'http://en.wikipedia.org/wiki/Constructivism_(art)'
p71
sbasS'doc_id'
p72
I3395830
sS'rare_words'
p73
(lp74
(iedu.umass.cs.iesl.wikilink.expanded.data.ttypes
RareWord
p75
(dp76
S'word'
p77
S'Great'
p78
sS'offset'
p79
I13226
sba(iedu.umass.cs.iesl.wikilink.expanded.data.ttypes
RareWord
p80
(dp81
g77
S'Purge'
p82
sg79
I13232
sba(iedu.umass.cs.iesl.wikilink.expanded.data.ttypes
RareWord
p83
(dp84
g77
S'designed'
p85
sg79
I12897
sba(iedu.umass.cs.iesl.wikilink.expanded.data.ttypes
RareWord
p86
(dp87
g77
S'constructivism'
p88
sg79
I13382
sba(iedu.umass.cs.iesl.wikilink.expanded.data.ttypes
RareWord
p89
(dp90
g77
S'Category'
p91
sg79
I9577
sba(iedu.umass.cs.iesl.wikilink.expanded.data.ttypes
RareWord
p92
(dp93
g77
S'theatre'
p94
sg79
I12909
sba(iedu.umass.cs.iesl.wikilink.expanded.data.ttypes
RareWord
p95
(dp96
g77
S'design'
p97
sg79
I13452
sba(iedu.umass.cs.iesl.wikilink.expanded.data.ttypes
RareWord
p98
(dp99
g77
S'but'
p100
sg79
I13260
sba(iedu.umass.cs.iesl.wikilink.expanded.data.ttypes
RareWord
p101
(dp102
g77
S'briefly'
p103
sg79
I12932
sba(iedu.umass.cs.iesl.wikilink.expanded.data.ttypes
RareWord
p104
(dp105
g77
S'Georgia'
p106
sg79
I12920
sbasb.