(iedu.umass.cs.iesl.wikilink.expanded.data.ttypes
WikiLinkItem
p0
(dp1
S'url'
p2
S'http://anannyad.wordpress.com/2009/01/'
p3
sS'content'
p4
(iedu.umass.cs.iesl.wikilink.expanded.data.ttypes
PageContentItem
p5
(dp6
S'articleText'
p7
NsS'raw'
p8
NsS'fullText'
p9
NsS'dom'
p10
S'<html lang="en" dir="ltr">\n  <head profile="http://gmpg.org/xfn/11">\n    <meta content="text/html; charset=UTF-8" http-equiv="Content-Type"></meta>\n    <title>2009 January \xc2\xab The AD Zone</title>\n    <link media="screen" type="text/css" href="http://s0.wp.com/wp-content/themes/pub/enterprise/style.css?m=1344944977g" rel="stylesheet"></link>\n    <link href="http://anannyad.wordpress.com/xmlrpc.php" rel="pingback"></link>\n    <link href="http://anannyad.wordpress.com/feed/" title="The AD Zone \xc2\xbb Feed" type="application/rss+xml" rel="alternate"></link>\n    <link href="http://anannyad.wordpress.com/comments/feed/" title="The AD Zone \xc2\xbb Comments Feed" type="application/rss+xml" rel="alternate"></link>\n    <script type="text/javascript"> /* &lt;![CDATA[ */ function addLoadEvent(func){var oldonload=window.onload;if(typeof window.onload!=\'function\'){window.onload=func;}else{window.onload=function(){oldonload();func();}}} /* ]]&gt; */ </script>\n    <link \n    media="all" type="text/css" href="http://s1.wp.com/_static/??/wp-content/blog-plugins/loggedout-follow/widget.css,/wp-content/mu-plugins/infinity/themes/pub/enterprise.css,/wp-content/mu-plugins/post-flair/style.css,/wp-content/mu-plugins/post-flair/sharing/sharing.css,/wp-content/themes/h4/global.css?m=1345177132j" rel="stylesheet" id="all-css-0">\n</link>\n    <script type="text/javascript"> /* &lt;![CDATA[ */ var LoggedOutFollow = {&quot;invalid_email&quot;:&quot;Your subscription did not succeed, please try again with a valid email address.&quot;}; /* ]]&gt; */ </script>\n    <script src="http://s2.wp.com/_static/??/wp-includes/js/jquery/jquery.js,/wp-content/blog-plugins/loggedout-follow/widget.js?m=1333391137j" type="text/javascript"></script>\n    <link href="http://anannyad.wordpress.com/xmlrpc.php?rsd" title="RSD" type="application/rsd+xml" rel="EditURI"></link>\n    <link href="http://anannyad.wordpress.com/wp-includes/wlwmanifest.xml" type="application/wlwmanifest+xml" rel="wlwmanifest"></link>\n    <meta content="WordPress.com" name="generator"></meta>\n    <link sizes="16x16 24x24 32x32 48x48" href="http://s2.wp.com/i/favicon.ico?m=1317678009g" type="image/x-icon" rel="shortcut icon"></link>\n    <link sizes="16x16 24x24 32x32 48x48" href="http://s2.wp.com/i/favicon.ico?m=1317678009g" type="image/x-icon" rel="icon"></link>\n    <link href="http://s0.wp.com/i/webclip.png?m=1311618091g" rel="apple-touch-icon-precomposed"></link>\n    <link href="http://anannyad.wordpress.com/?openidserver=1" rel="openid.server"></link>\n    <link href="http://anannyad.wordpress.com/" rel="openid.delegate"></link>\n    <link title="The AD Zone" href="http://anannyad.wordpress.com/osd.xml" type="application/opensearchdescription+xml" rel="search"></link>\n    <link title="WordPress.com" href="http://wordpress.com/opensearch.xml" type="application/opensearchdescription+xml" rel="search"></link>\n    <style>\n      /* &lt;![CDATA[ */\n\t\t/* Block: reblog */\n\t\t\n\t\t.reblog-from img                   { margin: 0 10px 0 0; vertical-align: middle; padding: 0; border: 0; }\n\t\t.reblogger-note img.avatar         { float: left; padding: 0; border: 0; }\n\t\t.reblogger-note-content            { margin: 0 0 20px; }\n\t\t.reblog-post .wpcom-enhanced-excerpt-content { border-left: 3px solid #eee; padding-left: 15px; }\n\t\t.reblog-post ul.thumb-list         { display: block; list-style: none; margin: 2px 0; padding: 0; clear: both; }\n\t\t.reblog-post ul.thumb-list li      { display: inline; margin: 0; padding: 0 1px; border: 0; }\n\t\t.reblog-post ul.thumb-list li a    { margin: 0; padding: 0; border: 0; }\n\t\t.reblog-post ul.thumb-list li img  { margin: 0; padding: 0; border: 0; }\n\t\t\n\t\t.reblog-post .wpcom-enhanced-excerpt { clear: both; }\n\t\t\n\t\t.reblog-post .wpcom-enhanced-excerpt address,\n\t\t.reblog-post .wpcom-enhanced-excerpt li,\n\t\t.reblog-post .wpcom-enhanced-excerpt h1,\n\t\t.reblog-post .wpcom-enhanced-excerpt h2,\n\t\t.reblog-post .wpcom-enhanced-excerpt h3,\n\t\t.reblog-post .wpcom-enhanced-excerpt h4,\n\t\t.reblog-post .wpcom-enhanced-excerpt h5,\n\t\t.reblog-post .wpcom-enhanced-excerpt h6,\n\t\t.reblog-post .wpcom-enhanced-excerpt p { font-size: 100% !important; }\n\t\t\n\t\t.reblog-post .wpcom-enhanced-excerpt blockquote,\n\t\t.reblog-post .wpcom-enhanced-excerpt pre,\n\t\t.reblog-post .wpcom-enhanced-excerpt code,\n\t\t.reblog-post .wpcom-enhanced-excerpt q { font-size: 98% !important; }\n\t\t\n\n\t\t/* ]]&gt; */\n    </style>\n    <meta content="The AD Zone" name="application-name"></meta>\n    <meta content="width=device-width;height=device-height" name="msapplication-window"></meta>\n    <meta content="Notes from the whole wide world" name="msapplication-tooltip"></meta>\n    <meta content="name=Subscribe;action-uri=http://anannyad.wordpress.com/feed/;icon-uri=http://s2.wp.com/i/favicon.ico" name="msapplication-task"></meta>\n    <meta content="name=Sign up for a free blog;action-uri=http://wordpress.com/signup/;icon-uri=http://s2.wp.com/i/favicon.ico" name="msapplication-task"></meta>\n    <meta content="name=WordPress.com Support;action-uri=http://support.wordpress.com/;icon-uri=http://s2.wp.com/i/favicon.ico" name="msapplication-task"></meta>\n    <meta content="name=WordPress.com Forums;action-uri=http://forums.wordpress.com/;icon-uri=http://s2.wp.com/i/favicon.ico" name="msapplication-task"></meta>\n    <meta content="Posts from January 2009 on The AD Zone" name="title"></meta>\n    <meta content="10 posts published by Anannya Deb during January 2009" name="description"></meta>\n    <style type="text/css"> #header { background: transparent url(http://anannyad.files.wordpress.com/2011/01/cropped-sabarmati_1.jpg) no-repeat; border: none; } </style>\n    <style type="text/css"> #header h1, #header h1 a, #header h1 a:visited, #header h4, #header h4 a, #header h4 a:visited, .header-left { color: #FFFFFF; } </style>\n  </head>\n  <body class="archive date highlander-enabled highlander-light">\n    <div id="header">\n      <div class="header-left">\n        <h4>\n          <a href="http://anannyad.wordpress.com/" shape="rect">The AD Zone</a>\n        </h4>\n        <p id="description">Notes from the whole wide world</p>\n      </div>\n      <div class="header-right">\n        <form action="http://anannyad.wordpress.com/" id="searchform" method="get" enctype="application/x-www-form-urlencoded">\n          <div>\n            <label class="hidden" for="s">Search:</label>\n            <input name="s" value="" id="s" type="text"></input>\n            <input value="Go" id="searchsubmit" type="submit"></input>\n          </div>\n        </form>\n      </div>\n    </div>\n    <div id="access">\n      <div id="nav">\n        <div id="supernav" class="navleft nav">\n          <div class="menu-pages-container">\n            <ul id="menu-pages" class="menu">\n              <li id="menu-item-1000" class="menu-item menu-item-type-post_type menu-item-object-page menu-item-1000">\n                <a href="http://anannyad.wordpress.com/quizzes/" shape="rect">Quizzes</a>\n              </li>\n              <li id="menu-item-1001" class="menu-item menu-item-type-post_type menu-item-object-page menu-item-1001">\n                <a href="http://anannyad.wordpress.com/songs-and-poetry/" shape="rect">Songs and Poetry</a>\n              </li>\n              <li id="menu-item-1002" class="menu-item menu-item-type-post_type menu-item-object-page menu-item-1002">\n                <a href="http://anannyad.wordpress.com/about/" shape="rect">Me</a>\n              </li>\n              <li id="menu-item-1003" class="menu-item menu-item-type-post_type menu-item-object-page menu-item-1003">\n                <a href="http://anannyad.wordpress.com/wanderings/" shape="rect">Wanderings</a>\n              </li>\n              <li id="menu-item-1004" class="menu-item menu-item-type-post_type menu-item-object-page menu-item-1004">\n                <a href="http://anannyad.wordpress.com/mumbai-attacks/" shape="rect">Mumbai Attacks</a>\n              </li>\n            </ul>\n          </div>\n        </div>\n        <div class="navright">\n          <a href="http://anannyad.wordpress.com/feed/" rel="nofollow" class="rsslink" shape="rect">Posts</a>\n          <a href="http://anannyad.wordpress.com/comments/feed/" rel="nofollow" class="rsslink" shape="rect">Comments</a>\n        </div>\n      </div>\n      <div id="subnav" class="subnav nav">\n        <div class="menu-categories-container">\n          <ul id="menu-categories" class="menu"></ul>\n        </div>\n      </div>\n    </div>\n    <div id="wrap">\n      <div id="content">\n        <div id="content-left">\n          <div class="post-382 post type-post status-publish format-standard hentry category-arts-and-culture category-reviews tag-ar-rahman tag-film-reviews tag-gulzar tag-music tag-poetry tag-slumdog">\n            <div class="entry">\n              <h2>\n                <a href="http://anannyad.wordpress.com/2009/01/28/jai-ho/" shape="rect">Jai Ho \xe2\x80\x93 Why Gulzar is nominated for the\xc2\xa0Oscars</a>\n              </h2>\n              <div class="post-info">\n                <p>\n                  <span class="time">January 28, 2009</span>\n                  <span class="post-comments">\n                    <a title="Comment on Jai Ho \xe2\x80\x93 Why Gulzar is nominated for the\xc2\xa0Oscars" href="http://anannyad.wordpress.com/2009/01/28/jai-ho/#comments" shape="rect">4 Comments</a>\n                  </span>\n                </p>\n              </div>\n              <p>Let\xe2\x80\x99s start by posting the lyrics of Jai Ho (in poetry form)</p>\n              <blockquote>\n                <p>\n                  Jai Ho, Jai Ho, Jai Ho, Jai Ho\n                  <br clear="none"></br>\n                  Aaja Aaja Jinda Shamiyane Ke Tale\n                  <br clear="none"></br>\n                  Aaja Zariwale Nile Aasman Tale\n                  <br clear="none"></br>\n                  Jai Ho, Jai Ho, Jai Ho, Jai Ho, Jai Ho, Jai Ho\n                </p>\n                <p>\n                  Ratti Ratti Sachi Maine Jaan Gavayi Hai\n                  <br clear="none"></br>\n                  Nach Nach Koylo Pe Raat Bitayi Hai\n                  <br clear="none"></br>\n                  Akhiyon Ki Neend Maine Phoonk Se Uda Di\n                  <br clear="none"></br>\n                  Neele Neele Tare Maine Ungli Jalayi Hai\n                </p>\n                <p>\n                  Chakh Le, Ha Chakh Le, Ye Raat Shahad Hai\xe2\x80\xa6\xc3\x82\xc2\xa0 Chakh Le\n                  <br clear="none"></br>\n                  Rakh Le, Ha Dil Hai, Dil Aakhri Had Hai\xe2\x80\xa6\xc3\x82\xc2\xa0 Rakh Le\n                  <br clear="none"></br>\n                  Kala Kala Kajal Tera Koi Kala Jadoo Hai Na\n                  <br clear="none"></br>\n                  Kala Kala Kajal Tera Koi Kala Jadoo Hai Na\n                </p>\n                <p>\n                  Kab Se, Ha Kab Se Jo Lab Pe Ruki Hai.. Kah De\n                  <br clear="none"></br>\n                  Kah De, Ha Kah De Ab Aankh Jhuki Hai.. Kah De\n                  <br clear="none"></br>\n                  Aisi Aisi Roshan Aankhe Roshan Dono Bhi Hai Hai Kya\n                </p>\n                <p>\n                  Aaja Aaja Jind Shamiyane Ke Tale\n                  <br clear="none"></br>\n                  Aaja Jariwale Nile Aasman Tale\n                  <br clear="none"></br>\n                  Jai Ho, Jai Ho, Jai Ho, Jai Ho\n                  <br clear="none"></br>\n                  Jai Ho, Jai Ho, Jai Ho, Jai Ho\n                </p>\n              </blockquote>\n              <p>So what\xe2\x80\x99s the big deal about these lyrics? Right, let\xe2\x80\x99s analyse. I am not much of a Hindi widhwan but I will give it a shot.</p>\n              <p>\n                The slum boy spends his life without a roof over his head. All he has is the sky. The sky that is alive with stars and planets and galaxies and is his roof (\n                <em>zinda shamiana</em>\n                ); the sky that looks like a gold threaded blanket (\n                <em>zariwale neele aakash</em>\n                )\n              </p>\n              <p>\n                The boy lives his life through bit by bit (\n                <em>ratti ratti</em>\n                ); Spending his nights (\n                <em>raat bitayi</em>\n                ) after surviving through all possible ordeals (\n                <em>nach nach koylo</em>\n                \xe2\x80\x93 dancing on coals) ; He has dismissed all sleep and rest (\n                <em>Ankhiyon Ke Neend Main Phoonk Se Uda Di \xe2\x80\x93 just like blowing out a candle</em>\n                ); And burnt himself trying to catch his stars, his luck, his fortune (\n                <em>Neele Neele Tare Maine Ungli Jalayi Hai</em>\n                )\n              </p>\n              <p>\n                Now that victory is here, it is time to taste sweet success for the first time (\n                <em>Chakh Le\xe2\x80\xa6 Ye Raat Shahad Hai</em>\n                ); Finally, it is the heart (\n                <em>Dil Aakhri Had Hai</em>\n                ) that keeps one going (\n                <em>Rakh Le</em>\n                )\n                <br clear="none"></br>\n                - Danny Boyle\xe2\x80\x99s view of the slum life \xe2\x80\x93 spirit of life that keeps people going\n              </p>\n              <p>\n                What you wanted to say for a long time, was on your tongue for ever (\n                <em>Jo Lab Pe Ruki Hai</em>\n                ), let it out now that there is someone waiting for it in complete surrender (\n                <em>Aankhe jhuki hai</em>\n                )\n                <br clear="none"></br>\n                - in these two lines, the entire romance of Jamal and Latika is described.\n              </p>\n              <p>\n                Gulzar is the master of the Hindi metaphor \xe2\x80\x93 No high sounding Urdu or big words \xe2\x80\x93 simple common street language but used as metaphors for describing a world beyond. And this song is an excellent example of his craft. My favourite is of course the main two lines with the\n                <em>zinda shamiana</em>\n                and\n                <em>zariwale neele asmaan</em>\n                .\n              </p>\n              <p>The Oscar might well be his. And deservedly so.</p>\n              <div id="jp-post-flair" class="sharedaddy sd-like-enabled sd-sharing-enabled">\n                <div class="sharedaddy sd-sharing-enabled">\n                  <div class="robots-nocontent sd-block sd-social sd-social-icon-text sd-sharing">\n                    <h3 class="sd-title">Share this:</h3>\n                    <div class="sd-content">\n                      <ul>\n                        <li class="share-stumbleupon">\n                          <a title="Click to share on StumbleUpon" target="_blank" href="http://anannyad.wordpress.com/2009/01/28/jai-ho/?share=stumbleupon" rel="nofollow" class="share-stumbleupon sd-button share-icon" shape="rect">\n                            <span>StumbleUpon</span>\n                          </a>\n                        </li>\n                        <li class="share-digg">\n                          <a title="Click to Digg this post" target="_blank" href="http://anannyad.wordpress.com/2009/01/28/jai-ho/?share=digg" rel="nofollow" class="share-digg sd-button share-icon" shape="rect">\n                            <span>Digg</span>\n                          </a>\n                        </li>\n                        <li class="share-reddit">\n                          <a title="Click to share on Reddit" target="_blank" href="http://anannyad.wordpress.com/2009/01/28/jai-ho/?share=reddit" rel="nofollow" class="share-reddit sd-button share-icon" shape="rect">\n                            <span>Reddit</span>\n                          </a>\n                        </li>\n                        <li class="share-twitter">\n                          <a title="Click to share on Twitter" target="_blank" href="http://anannyad.wordpress.com/2009/01/28/jai-ho/?share=twitter" rel="nofollow" id="sharing-twitter-382" class="share-twitter sd-button share-icon" shape="rect">\n                            <span>Twitter</span>\n                          </a>\n                        </li>\n                        <li class="share-facebook">\n                          <a title="Share on Facebook" target="_blank" href="http://anannyad.wordpress.com/2009/01/28/jai-ho/?share=facebook" rel="nofollow" id="sharing-facebook-382" class="share-facebook sd-button share-icon" shape="rect">\n                            <span>Facebook</span>\n                          </a>\n                        </li>\n                        <li class="share-email">\n                          <a title="Click to email this to a friend" target="_blank" href="http://anannyad.wordpress.com/2009/01/28/jai-ho/?share=email" rel="nofollow" class="share-email sd-button share-icon" shape="rect">\n                            <span>Email</span>\n                          </a>\n                        </li>\n                        <li class="share-end"></li>\n                      </ul>\n                      <div class="sharing-clear"></div>\n                    </div>\n                  </div>\n                </div>\n                <div class="wpl-likebox sd-block sd-like">\n                  <h3 class="sd-title">Like this:</h3>\n                  <div class="sd-content">\n                    <div id="like-382" class="wpl-button">\n                      <a rel="nofollow" title="I like this." href="http://anannyad.wordpress.com/2009/01/28/jai-ho/?like=1&amp;_wpnonce=97316b2dc0" class="like needs-login sd-button" shape="rect">\n                        <span>Like</span>\n                      </a>\n                    </div>\n                    <div class="wpl-count sd-like-count">Be the first to like this.</div>\n                  </div>\n                </div>\n              </div>\n              <div class="clear"></div>\n            </div>\n            <div class="post-meta">\n              <p>\n                <span class="categories">\n                  Filed under\n                  <a rel="category tag" title="View all posts in arts and culture" href="http://anannyad.wordpress.com/category/arts-and-culture/" shape="rect">arts and culture</a>\n                  ,\n                  <a rel="category tag" title="View all posts in Reviews" href="http://anannyad.wordpress.com/category/reviews/" shape="rect">Reviews</a>\n                </span>\n                <span class="tags">\n                  Tagged with\n                  <a rel="tag" href="http://anannyad.wordpress.com/tag/ar-rahman/" shape="rect">ar rahman</a>\n                  ,\n                  <a rel="tag" href="http://anannyad.wordpress.com/tag/film-reviews/" shape="rect">film reviews</a>\n                  ,\n                  <a rel="tag" href="http://anannyad.wordpress.com/tag/gulzar/" shape="rect">gulzar</a>\n                  ,\n                  <a rel="tag" href="http://anannyad.wordpress.com/tag/music/" shape="rect">Music</a>\n                  ,\n                  <a rel="tag" href="http://anannyad.wordpress.com/tag/poetry/" shape="rect">poetry</a>\n                  ,\n                  <a rel="tag" href="http://anannyad.wordpress.com/tag/slumdog/" shape="rect">slumdog</a>\n                </span>\n              </p>\n            </div>\n          </div>\n          <div class="post-380 post type-post status-publish format-standard hentry category-news category-web-20 tag-awards tag-blogs tag-elections tag-scandals">\n            <div class="entry">\n              <h2>\n                <a href="http://anannyad.wordpress.com/2009/01/15/electoral-malpractices-2008-weblog-awards/" shape="rect">Electoral Malpractices \xe2\x80\x93 2008 Weblog\xc2\xa0Awards</a>\n              </h2>\n              <div class="post-info">\n                <p>\n                  <span class="time">January 15, 2009</span>\n                  <span class="post-comments">\n                    <a title="Comment on Electoral Malpractices \xe2\x80\x93 2008 Weblog\xc2\xa0Awards" href="http://anannyad.wordpress.com/2009/01/15/electoral-malpractices-2008-weblog-awards/#respond" shape="rect">Leave a comment</a>\n                  </span>\n                </p>\n              </div>\n              <p>\n                Amit Varma who writes the highly popular India Uncut blog was nominated in two categories \xe2\x80\x93\n                <a target="_blank" href="http://2008.weblogawards.org/polls/best-political-coverage/" shape="rect">Best Political Coverage</a>\n                and\n                <a target="_blank" href="http://2008.weblogawards.org/polls/best-asian-blog/" shape="rect">Best Asian Blog</a>\n                .\xc3\x82\xc2\xa0\n              </p>\n              <p>\n                In the Best Political Coverage category, there was\n                <a target="_blank" href="http://www.fivethirtyeight.com/" shape="rect">FiveThirtyEight</a>\n                \xc3\x82\xc2\xa0which won 56% of the 44,000+ votes that were polled. India Uncut picked up 1.6%, a decent show considering the Amit did not fancy his chances too much.\n              </p>\n              <p>However, in the Best Asian Blog, there was a scandal. Till Sunday night, India Uncut was leading by at least 10 percentage points. However, as Amit narrates\xe2\x80\xa6</p>\n              <blockquote>\n                <p>\n                  Regular voters would no doubt have noted that the healthy lead I\xc3\xa2\xe2\x82\xac\xe2\x84\xa2ve held from the start has now vanished. The manner in which this has happened\xc3\xa2\xe2\x82\xac\xe2\x80\x9dmost of it disappeared in a two-hour spell a few hours ago\xc3\xa2\xe2\x82\xac\xe2\x80\x9dis befuddling, and Deepak Iyer points me to this message board entry that might provide some clues. I have no idea if cheating is actually going on, and will not make that assumption about anyone unless proof is there. That said, I am also taking the numbers up there right now with a pinch of salt.\n                </p>\n              </blockquote>\n              <p>\n                The concerned blog was the Burmese blog\n                <a target="_blank" href="http://www.ashinmettacara.org/" shape="rect">Ashin Mettacara</a>\n                . It was later found that a number of votes were illegal \xe2\x80\x93 using a technique called \xe2\x80\x9c\n                <em>rinse and repeat</em>\n                \xe2\x80\x9c. This allows for multiple votes to be sent from the same machine inspite of the restrictions on the same. Over 500 votes were found to be illegal (and 60 votes of Amit as well)\n              </p>\n              <p>\n                In the end, Amit lost out by a mere 192 votes out of the 8,000+ polled. \xc3\x82\xc2\xa0\n                <a target="_blank" href="http://weblogawards.proboards85.com/index.cgi?board=asian&amp;action=display&amp;thread=828" shape="rect">The blog awards committee adjusted the votes</a>\n                . However, as the administrator says, both blog authors never wished for such methods to be used. They may have been some enthusiastic Burmese soul rallying round\n                <a target="_blank" href="http://www.ashinmettacara.org/2009/01/burma-myanmar-yes-we-can-win-this-award.html" shape="rect">Ashin\xe2\x80\x99s war cry to unify all Burmese around his cause</a>\n                . (with Obama as the copywriter).\n              </p>\n              <p>Am sure, Amit, the Stoic that he is, will find a chin to take the loss.</p>\n              <div id="jp-post-flair" class="sharedaddy sd-like-enabled sd-sharing-enabled">\n                <div class="sharedaddy sd-sharing-enabled">\n                  <div class="robots-nocontent sd-block sd-social sd-social-icon-text sd-sharing">\n                    <h3 class="sd-title">Share this:</h3>\n                    <div class="sd-content">\n                      <ul>\n                        <li class="share-stumbleupon">\n                          <a title="Click to share on StumbleUpon" target="_blank" href="http://anannyad.wordpress.com/2009/01/15/electoral-malpractices-2008-weblog-awards/?share=stumbleupon" rel="nofollow" class="share-stumbleupon sd-button share-icon" shape="rect">\n                            <span>StumbleUpon</span>\n                          </a>\n                        </li>\n                        <li class="share-digg">\n                          <a title="Click to Digg this post" target="_blank" href="http://anannyad.wordpress.com/2009/01/15/electoral-malpractices-2008-weblog-awards/?share=digg" rel="nofollow" class="share-digg sd-button share-icon" shape="rect">\n                            <span>Digg</span>\n                          </a>\n                        </li>\n                        <li class="share-reddit">\n                          <a title="Click to share on Reddit" target="_blank" href="http://anannyad.wordpress.com/2009/01/15/electoral-malpractices-2008-weblog-awards/?share=reddit" rel="nofollow" class="share-reddit sd-button share-icon" shape="rect">\n                            <span>Reddit</span>\n                          </a>\n                        </li>\n                        <li class="share-twitter">\n                          <a title="Click to share on Twitter" target="_blank" href="http://anannyad.wordpress.com/2009/01/15/electoral-malpractices-2008-weblog-awards/?share=twitter" rel="nofollow" id="sharing-twitter-380" class="share-twitter sd-button share-icon" shape="rect">\n                            <span>Twitter</span>\n                          </a>\n                        </li>\n                        <li class="share-facebook">\n                          <a title="Share on Facebook" target="_blank" href="http://anannyad.wordpress.com/2009/01/15/electoral-malpractices-2008-weblog-awards/?share=facebook" rel="nofollow" id="sharing-facebook-380" class="share-facebook sd-button share-icon" shape="rect">\n                            <span>Facebook</span>\n                          </a>\n                        </li>\n                        <li class="share-email">\n                          <a title="Click to email this to a friend" target="_blank" href="http://anannyad.wordpress.com/2009/01/15/electoral-malpractices-2008-weblog-awards/?share=email" rel="nofollow" class="share-email sd-button share-icon" shape="rect">\n                            <span>Email</span>\n                          </a>\n                        </li>\n                        <li class="share-end"></li>\n                      </ul>\n                      <div class="sharing-clear"></div>\n                    </div>\n                  </div>\n                </div>\n                <div class="wpl-likebox sd-block sd-like">\n                  <h3 class="sd-title">Like this:</h3>\n                  <div class="sd-content">\n                    <div id="like-380" class="wpl-button">\n                      <a rel="nofollow" title="I like this." href="http://anannyad.wordpress.com/2009/01/15/electoral-malpractices-2008-weblog-awards/?like=1&amp;_wpnonce=97316b2dc0" class="like needs-login sd-button" shape="rect">\n                        <span>Like</span>\n                      </a>\n                    </div>\n                    <div class="wpl-count sd-like-count">Be the first to like this.</div>\n                  </div>\n                </div>\n              </div>\n              <div class="clear"></div>\n            </div>\n            <div class="post-meta">\n              <p>\n                <span class="categories">\n                  Filed under\n                  <a rel="category tag" title="View all posts in News" href="http://anannyad.wordpress.com/category/news/" shape="rect">News</a>\n                  ,\n                  <a rel="category tag" title="View all posts in Web 2.0" href="http://anannyad.wordpress.com/category/web-20/" shape="rect">Web 2.0</a>\n                </span>\n                <span class="tags">\n                  Tagged with\n                  <a rel="tag" href="http://anannyad.wordpress.com/tag/awards/" shape="rect">awards</a>\n                  ,\n                  <a rel="tag" href="http://anannyad.wordpress.com/tag/blogs/" shape="rect">blogs</a>\n                  ,\n                  <a rel="tag" href="http://anannyad.wordpress.com/tag/elections/" shape="rect">elections</a>\n                  ,\n                  <a rel="tag" href="http://anannyad.wordpress.com/tag/scandals/" shape="rect">scandals</a>\n                </span>\n              </p>\n            </div>\n          </div>\n          <div class="post-378 post type-post status-publish format-standard hentry category-leisure category-news">\n            <div class="entry">\n              <h2>\n                <a href="http://anannyad.wordpress.com/2009/01/15/angel-investing/" shape="rect">Angel\xc2\xa0Investing</a>\n              </h2>\n              <div class="post-info">\n                <p>\n                  <span class="time">January 15, 2009</span>\n                  <span class="post-comments">\n                    <a title="Comment on Angel\xc2\xa0Investing" href="http://anannyad.wordpress.com/2009/01/15/angel-investing/#respond" shape="rect">Leave a comment</a>\n                  </span>\n                </p>\n              </div>\n              <p>\n                Prem Panicker tweeted news of\n                <a target="_blank" href="http://www.theweek.com/article/index/92213/3/The_value_of_virginity" shape="rect">Natalie Dylan</a>\n                (no relation to Bob Dylan \xe2\x80\x93 nothing has been confirmed to contrary anyway) auctioning off her virginity. The story goes that in order to fund her future education, the 22 year old has decided to deflower herself to the highest bidder. The current bid stands at $3.7 million.\n              </p>\n              <p>\n                The original announcement happened last year with\n                <a target="_blank" href="http://a11news.com/641/natalie-dylan/" shape="rect">full blurbs on CNN and the like</a>\n                .\n              </p>\n              <p>The social \xe2\x80\x9copinion\xe2\x80\x9d apart, we were wondering whether this will open up new vistas for frustrated bankers and corporate honchos. We were proposing \xe2\x80\x9cvirgin investments\xe2\x80\x9d and \xe2\x80\x9cangel funding\xe2\x80\x9d \xe2\x80\x93 be an angel to us and we put up your education.</p>\n              <p>Ghastly stuff, eh! But it\xe2\x80\x99s a free world.</p>\n              <div id="jp-post-flair" class="sharedaddy sd-like-enabled sd-sharing-enabled">\n                <div class="sharedaddy sd-sharing-enabled">\n                  <div class="robots-nocontent sd-block sd-social sd-social-icon-text sd-sharing">\n                    <h3 class="sd-title">Share this:</h3>\n                    <div class="sd-content">\n                      <ul>\n                        <li class="share-stumbleupon">\n                          <a title="Click to share on StumbleUpon" target="_blank" href="http://anannyad.wordpress.com/2009/01/15/angel-investing/?share=stumbleupon" rel="nofollow" class="share-stumbleupon sd-button share-icon" shape="rect">\n                            <span>StumbleUpon</span>\n                          </a>\n                        </li>\n                        <li class="share-digg">\n                          <a title="Click to Digg this post" target="_blank" href="http://anannyad.wordpress.com/2009/01/15/angel-investing/?share=digg" rel="nofollow" class="share-digg sd-button share-icon" shape="rect">\n                            <span>Digg</span>\n                          </a>\n                        </li>\n                        <li class="share-reddit">\n                          <a title="Click to share on Reddit" target="_blank" href="http://anannyad.wordpress.com/2009/01/15/angel-investing/?share=reddit" rel="nofollow" class="share-reddit sd-button share-icon" shape="rect">\n                            <span>Reddit</span>\n                          </a>\n                        </li>\n                        <li class="share-twitter">\n                          <a title="Click to share on Twitter" target="_blank" href="http://anannyad.wordpress.com/2009/01/15/angel-investing/?share=twitter" rel="nofollow" id="sharing-twitter-378" class="share-twitter sd-button share-icon" shape="rect">\n                            <span>Twitter</span>\n                          </a>\n                        </li>\n                        <li class="share-facebook">\n                          <a title="Share on Facebook" target="_blank" href="http://anannyad.wordpress.com/2009/01/15/angel-investing/?share=facebook" rel="nofollow" id="sharing-facebook-378" class="share-facebook sd-button share-icon" shape="rect">\n                            <span>Facebook</span>\n                          </a>\n                        </li>\n                        <li class="share-email">\n                          <a title="Click to email this to a friend" target="_blank" href="http://anannyad.wordpress.com/2009/01/15/angel-investing/?share=email" rel="nofollow" class="share-email sd-button share-icon" shape="rect">\n                            <span>Email</span>\n                          </a>\n                        </li>\n                        <li class="share-end"></li>\n                      </ul>\n                      <div class="sharing-clear"></div>\n                    </div>\n                  </div>\n                </div>\n                <div class="wpl-likebox sd-block sd-like">\n                  <h3 class="sd-title">Like this:</h3>\n                  <div class="sd-content">\n                    <div id="like-378" class="wpl-button">\n                      <a rel="nofollow" title="I like this." href="http://anannyad.wordpress.com/2009/01/15/angel-investing/?like=1&amp;_wpnonce=97316b2dc0" class="like needs-login sd-button" shape="rect">\n                        <span>Like</span>\n                      </a>\n                    </div>\n                    <div class="wpl-count sd-like-count">Be the first to like this.</div>\n                  </div>\n                </div>\n              </div>\n              <div class="clear"></div>\n            </div>\n            <div class="post-meta">\n              <p>\n                <span class="categories">\n                  Filed under\n                  <a rel="category tag" title="View all posts in Leisure" href="http://anannyad.wordpress.com/category/leisure/" shape="rect">Leisure</a>\n                  ,\n                  <a rel="category tag" title="View all posts in News" href="http://anannyad.wordpress.com/category/news/" shape="rect">News</a>\n                </span>\n              </p>\n            </div>\n          </div>\n          <div class="post-376 post type-post status-publish format-standard hentry category-issues category-leisure category-web-20 tag-microblogging tag-social-media tag-twitter">\n            <div class="entry">\n              <h2>\n                <a href="http://anannyad.wordpress.com/2009/01/15/microblogging-140-characters-be-damned/" shape="rect">Microblogging \xe2\x80\x93 140 characters be\xc2\xa0damned</a>\n              </h2>\n              <div class="post-info">\n                <p>\n                  <span class="time">January 15, 2009</span>\n                  <span class="post-comments">\n                    <a title="Comment on Microblogging \xe2\x80\x93 140 characters be\xc2\xa0damned" href="http://anannyad.wordpress.com/2009/01/15/microblogging-140-characters-be-damned/#respond" shape="rect">Leave a comment</a>\n                  </span>\n                </p>\n              </div>\n              <p>\n                All the different presentations on\n                <a href="http://www.slideshare.net/tag/twitter" shape="rect">Slideshare</a>\n                about the marvel that is\n                <a href="http://twitter.com/" shape="rect">Twitter</a>\n                focus on the concept of\n                <a href="http://en.wikipedia.org/wiki/Micro-blogging" shape="rect"> microblogging</a>\n                \xe2\x80\x93 in 140 characters , one expresses the essence of one\xe2\x80\x99s life. Of course, the student of Hitchhiker\xe2\x80\x99s Guide To The Galaxy does not need anything more than two digits, maybe three if he wants to be cryptic and write \xe2\x80\x9c7\xc3\x976\xe2\x80\xb3.\n              </p>\n              <p>However, couple \xc3\x82\xc2\xa0of particular individuals whom I follow on Twitter are probably unaware that they are not conforming to the generalisations propounded about this medium.</p>\n              <p>\n                One such gentleman is\n                <a href="http://www.prempanicker.com" shape="rect">Mr. Prem Panicker</a>\n                . A distinguished writer, journalist and cricket fan, Mr. Panicker (or Prem to friends \xe2\x80\x93 not to be confused with Prem, the alter ego of Salman Khan or Prem, Prem Chopra) is one for whom the phrase \xe2\x80\x9c\n                <em>a man of few words</em>\n                \xe2\x80\x9d does not apply. But fortunately, unlike similar afflicted people like Arundhati Roy and an aging Salman Rushdie, Prem does not suffer from verbal diarrhoea.\xc3\x82\xc2\xa0\n              </p>\n              <p>This elaborate introduction about Prem Panicker is in aid of furthering the argument that Twitter need not be a 140 character limited telegraphic communication engine.\xc3\x82\xc2\xa0</p>\n              <p>\n                For example, today, he tweeted (is there a word) on the\n                <a href="http://content-ind.cricinfo.com/ranjisuperleague2008/engine/current/match/368289.html" shape="rect">on-going Ranji trophy finals</a>\n                :\n              </p>\n              <blockquote>\n                <p>While on Ranji, Amish Sahiba appears set to be man of the match again \xe2\x80\x94 if you define MoM as the person playing the most influential role.</p>\n                <p>The dismissal of Kaif was unfortunate \xe2\x80\x94 and \xe2\x80\x9coddly enough\xe2\x80\x9d, his mistakes tend to favor Mumbai most of the time.</p>\n                <p>That said, not entirely sure what Kaif\xe2\x80\x99s UP thinks it is doing. Digging deep and focusing on accumulation through attrition is fine.</p>\n                <p>But 117 runs in 60 overs? That kind of stasis puts all the pressure on the batting side, and lets the fielding side free to call the play.</p>\n                <p>Parvinder earlier this month was on song \xe2\x80\x94 in fact, his partnership with Shivkant Shukla helped UP edge ahead of TN in the semis.</p>\n                <p>That\xe2\x80\x99s a nice feeling to take into this partnership between the same two players</p>\n                <p>If they can reprise their knocks of 138 and 178 NO from the semis, they can still give Mumbai a scare. 1 wkt though, and Mumbai is home.</p>\n                <p>When you spend 30 overs scoring 55 runs, it does strange things to your mind.</p>\n                <p>Flashy shots are what such a mindset eschews, but typically, flash is what batsmen tend to perish to in such situations.</p>\n                <p>Pity about Parvinder. Shivkant Shukla doing well, but he has too little support left to conceive of getting the 231 runs UP needs to lead.</p>\n              </blockquote>\n              <p>And this is true even for replies which would make one-line email replies die of shame.</p>\n              <p>Of course, the twitter scoop of Mumbai terror attacks is well publicised. This leads to relooking at the Twitter status message question, \xe2\x80\x9cWhat are you doing?\xe2\x80\x9d</p>\n              <p>\n                To this,\n                <a href="http://twitter.com/DDeeps" shape="rect">@ddeeps</a>\n                \xc3\x82\xc2\xa0gave as answer, \xe2\x80\x9c\n                <em>Most ppl unfollow for noise. I unfollow for silence. Why do ppl.who never engage in convos with me feel miffed if unfollowed is a mystery.</em>\n                \xe2\x80\x9c\n              </p>\n              <p>This of course begs the question, what is the meaning of \xe2\x80\x9cdoing\xe2\x80\x9d? Does \xe2\x80\x9cwhat are you doing\xe2\x80\x9d also mean \xe2\x80\x9cwhat are you thinking\xe2\x80\x9d? What are you ranting about? What are you watching? What are you reading? What are you saying?\xe2\x80\xa6.</p>\n              <p>Doing means experiencing life\xe2\x80\xa6</p>\n              <div id="jp-post-flair" class="sharedaddy sd-like-enabled sd-sharing-enabled">\n                <div class="sharedaddy sd-sharing-enabled">\n                  <div class="robots-nocontent sd-block sd-social sd-social-icon-text sd-sharing">\n                    <h3 class="sd-title">Share this:</h3>\n                    <div class="sd-content">\n                      <ul>\n                        <li class="share-stumbleupon">\n                          <a title="Click to share on StumbleUpon" target="_blank" href="http://anannyad.wordpress.com/2009/01/15/microblogging-140-characters-be-damned/?share=stumbleupon" rel="nofollow" class="share-stumbleupon sd-button share-icon" shape="rect">\n                            <span>StumbleUpon</span>\n                          </a>\n                        </li>\n                        <li class="share-digg">\n                          <a title="Click to Digg this post" target="_blank" href="http://anannyad.wordpress.com/2009/01/15/microblogging-140-characters-be-damned/?share=digg" rel="nofollow" class="share-digg sd-button share-icon" shape="rect">\n                            <span>Digg</span>\n                          </a>\n                        </li>\n                        <li class="share-reddit">\n                          <a title="Click to share on Reddit" target="_blank" href="http://anannyad.wordpress.com/2009/01/15/microblogging-140-characters-be-damned/?share=reddit" rel="nofollow" class="share-reddit sd-button share-icon" shape="rect">\n                            <span>Reddit</span>\n                          </a>\n                        </li>\n                        <li class="share-twitter">\n                          <a title="Click to share on Twitter" target="_blank" href="http://anannyad.wordpress.com/2009/01/15/microblogging-140-characters-be-damned/?share=twitter" rel="nofollow" id="sharing-twitter-376" class="share-twitter sd-button share-icon" shape="rect">\n                            <span>Twitter</span>\n                          </a>\n                        </li>\n                        <li class="share-facebook">\n                          <a title="Share on Facebook" target="_blank" href="http://anannyad.wordpress.com/2009/01/15/microblogging-140-characters-be-damned/?share=facebook" rel="nofollow" id="sharing-facebook-376" class="share-facebook sd-button share-icon" shape="rect">\n                            <span>Facebook</span>\n                          </a>\n                        </li>\n                        <li class="share-email">\n                          <a title="Click to email this to a friend" target="_blank" href="http://anannyad.wordpress.com/2009/01/15/microblogging-140-characters-be-damned/?share=email" rel="nofollow" class="share-email sd-button share-icon" shape="rect">\n                            <span>Email</span>\n                          </a>\n                        </li>\n                        <li class="share-end"></li>\n                      </ul>\n                      <div class="sharing-clear"></div>\n                    </div>\n                  </div>\n                </div>\n                <div class="wpl-likebox sd-block sd-like">\n                  <h3 class="sd-title">Like this:</h3>\n                  <div class="sd-content">\n                    <div id="like-376" class="wpl-button">\n                      <a rel="nofollow" title="I like this." href="http://anannyad.wordpress.com/2009/01/15/microblogging-140-characters-be-damned/?like=1&amp;_wpnonce=97316b2dc0" class="like needs-login sd-button" shape="rect">\n                        <span>Like</span>\n                      </a>\n                    </div>\n                    <div class="wpl-count sd-like-count">Be the first to like this.</div>\n                  </div>\n                </div>\n              </div>\n              <div class="clear"></div>\n            </div>\n            <div class="post-meta">\n              <p>\n                <span class="categories">\n                  Filed under\n                  <a rel="category tag" title="View all posts in Issues" href="http://anannyad.wordpress.com/category/issues/" shape="rect">Issues</a>\n                  ,\n                  <a rel="category tag" title="View all posts in Leisure" href="http://anannyad.wordpress.com/category/leisure/" shape="rect">Leisure</a>\n                  ,\n                  <a rel="category tag" title="View all posts in Web 2.0" href="http://anannyad.wordpress.com/category/web-20/" shape="rect">Web 2.0</a>\n                </span>\n                <span class="tags">\n                  Tagged with\n                  <a rel="tag" href="http://anannyad.wordpress.com/tag/microblogging/" shape="rect">microblogging</a>\n                  ,\n                  <a rel="tag" href="http://anannyad.wordpress.com/tag/social-media/" shape="rect">social media</a>\n                  ,\n                  <a rel="tag" href="http://anannyad.wordpress.com/tag/twitter/" shape="rect">twitter</a>\n                </span>\n              </p>\n            </div>\n          </div>\n          <div class="post-372 post type-post status-publish format-standard hentry category-business category-knowledge-work category-mumbai tag-advertising tag-mumbai tag-signs">\n            <div class="entry">\n              <h2>\n                <a href="http://anannyad.wordpress.com/2009/01/12/james-bond-speaks-english/" shape="rect">James Bond Speaks\xc2\xa0English</a>\n              </h2>\n              <div class="post-info">\n                <p>\n                  <span class="time">January 12, 2009</span>\n                  <span class="post-comments">\n                    <a title="Comment on James Bond Speaks\xc2\xa0English" href="http://anannyad.wordpress.com/2009/01/12/james-bond-speaks-english/#comments" shape="rect">1 Comment</a>\n                  </span>\n                </p>\n              </div>\n              <p>Pushing training programmes requires some reference point. And when it comes to learning to speak English, what better than James Bond? Learn to speak English like James Bond.</p>\n              <p>\xc3\x82\xc2\xa0</p>\n              <div style="width: 510px" id="attachment_373" class="wp-caption alignnone">\n                <img alt="Speak English Like James Bond" src="http://anannyad.files.wordpress.com/2009/01/speakenglish_jamesbond.jpg?w=630" title="speakenglish_jamesbond" class="size-full wp-image-373"></img>\n                <p class="wp-caption-text">Speak English Like James Bond</p>\n              </div>\n              <p>There is even a \xe2\x80\x9c100% guarantee\xe2\x80\x9d. My only issue, James Bond has been played by many actors who were Scottish, Irish, Welsh, Australian and English. They all had different accents, styles and voices. In this poster, the photograph of Roger Moore is used.</p>\n              <p>So what does \xe2\x80\x9cspeak English like James Bond\xe2\x80\x9d really constitute? What is it that I am getting a guarantee for? If something is not happening, what do I claim for in the guarantee?</p>\n              <p>Not clear at all.</p>\n              <div id="jp-post-flair" class="sharedaddy sd-like-enabled sd-sharing-enabled">\n                <div class="sharedaddy sd-sharing-enabled">\n                  <div class="robots-nocontent sd-block sd-social sd-social-icon-text sd-sharing">\n                    <h3 class="sd-title">Share this:</h3>\n                    <div class="sd-content">\n                      <ul>\n                        <li class="share-stumbleupon">\n                          <a title="Click to share on StumbleUpon" target="_blank" href="http://anannyad.wordpress.com/2009/01/12/james-bond-speaks-english/?share=stumbleupon" rel="nofollow" class="share-stumbleupon sd-button share-icon" shape="rect">\n                            <span>StumbleUpon</span>\n                          </a>\n                        </li>\n                        <li class="share-digg">\n                          <a title="Click to Digg this post" target="_blank" href="http://anannyad.wordpress.com/2009/01/12/james-bond-speaks-english/?share=digg" rel="nofollow" class="share-digg sd-button share-icon" shape="rect">\n                            <span>Digg</span>\n                          </a>\n                        </li>\n                        <li class="share-reddit">\n                          <a title="Click to share on Reddit" target="_blank" href="http://anannyad.wordpress.com/2009/01/12/james-bond-speaks-english/?share=reddit" rel="nofollow" class="share-reddit sd-button share-icon" shape="rect">\n                            <span>Reddit</span>\n                          </a>\n                        </li>\n                        <li class="share-twitter">\n                          <a title="Click to share on Twitter" target="_blank" href="http://anannyad.wordpress.com/2009/01/12/james-bond-speaks-english/?share=twitter" rel="nofollow" id="sharing-twitter-372" class="share-twitter sd-button share-icon" shape="rect">\n                            <span>Twitter</span>\n                          </a>\n                        </li>\n                        <li class="share-facebook">\n                          <a title="Share on Facebook" target="_blank" href="http://anannyad.wordpress.com/2009/01/12/james-bond-speaks-english/?share=facebook" rel="nofollow" id="sharing-facebook-372" class="share-facebook sd-button share-icon" shape="rect">\n                            <span>Facebook</span>\n                          </a>\n                        </li>\n                        <li class="share-email">\n                          <a title="Click to email this to a friend" target="_blank" href="http://anannyad.wordpress.com/2009/01/12/james-bond-speaks-english/?share=email" rel="nofollow" class="share-email sd-button share-icon" shape="rect">\n                            <span>Email</span>\n                          </a>\n                        </li>\n                        <li class="share-end"></li>\n                      </ul>\n                      <div class="sharing-clear"></div>\n                    </div>\n                  </div>\n                </div>\n                <div class="wpl-likebox sd-block sd-like">\n                  <h3 class="sd-title">Like this:</h3>\n                  <div class="sd-content">\n                    <div id="like-372" class="wpl-button">\n                      <a rel="nofollow" title="I like this." href="http://anannyad.wordpress.com/2009/01/12/james-bond-speaks-english/?like=1&amp;_wpnonce=97316b2dc0" class="like needs-login sd-button" shape="rect">\n                        <span>Like</span>\n                      </a>\n                    </div>\n                    <div class="wpl-count sd-like-count">Be the first to like this.</div>\n                  </div>\n                </div>\n              </div>\n              <div class="clear"></div>\n            </div>\n            <div class="post-meta">\n              <p>\n                <span class="categories">\n                  Filed under\n                  <a rel="category tag" title="View all posts in Business" href="http://anannyad.wordpress.com/category/business/" shape="rect">Business</a>\n                  ,\n                  <a rel="category tag" title="View all posts in Knowledge Work" href="http://anannyad.wordpress.com/category/knowledge-work/" shape="rect">Knowledge Work</a>\n                  ,\n                  <a rel="category tag" title="View all posts in Mumbai" href="http://anannyad.wordpress.com/category/mumbai/" shape="rect">Mumbai</a>\n                </span>\n                <span class="tags">\n                  Tagged with\n                  <a rel="tag" href="http://anannyad.wordpress.com/tag/advertising/" shape="rect">advertising</a>\n                  ,\n                  <a rel="tag" href="http://anannyad.wordpress.com/tag/mumbai/" shape="rect">Mumbai</a>\n                  ,\n                  <a rel="tag" href="http://anannyad.wordpress.com/tag/signs/" shape="rect">signs</a>\n                </span>\n              </p>\n            </div>\n          </div>\n          <div class="post-370 post type-post status-publish format-standard hentry category-cricket category-mumbai tag-advertising tag-kumble tag-mumbai tag-signs tag-wtf">\n            <div class="entry">\n              <h2>\n                <a href="http://anannyad.wordpress.com/2009/01/12/why-is-kumble-smiling-in-dadar/" shape="rect">Why is Kumble smiling in\xc2\xa0Dadar?</a>\n              </h2>\n              <div class="post-info">\n                <p>\n                  <span class="time">January 12, 2009</span>\n                  <span class="post-comments">\n                    <a title="Comment on Why is Kumble smiling in\xc2\xa0Dadar?" href="http://anannyad.wordpress.com/2009/01/12/why-is-kumble-smiling-in-dadar/#comments" shape="rect">1 Comment</a>\n                  </span>\n                </p>\n              </div>\n              <p>\xc3\x82\xc2\xa0</p>\n              <div style="width: 510px" id="attachment_369" class="wp-caption alignnone">\n                <img alt="Anil Kumble Promoting MBA courses" src="http://anannyad.files.wordpress.com/2009/01/kumble_banner.jpg?w=630" title="kumble_banner" class="size-full wp-image-369"></img>\n                <p class="wp-caption-text">Anil Kumble Promoting MBA courses</p>\n              </div>\n              <p>In Dadar, Mumbai one fine morning I saw this \xe2\x80\x93 the smiling face of Anil Kumble with the logo of some university emblazoned on his blazer and all the other courses mentioned.</p>\n              <p>I could not get it. For a man of his stature to be used in a cloth banner to promote a local business management training programme \xe2\x80\x93 not good.</p>\n              <div id="jp-post-flair" class="sharedaddy sd-like-enabled sd-sharing-enabled">\n                <div class="sharedaddy sd-sharing-enabled">\n                  <div class="robots-nocontent sd-block sd-social sd-social-icon-text sd-sharing">\n                    <h3 class="sd-title">Share this:</h3>\n                    <div class="sd-content">\n                      <ul>\n                        <li class="share-stumbleupon">\n                          <a title="Click to share on StumbleUpon" target="_blank" href="http://anannyad.wordpress.com/2009/01/12/why-is-kumble-smiling-in-dadar/?share=stumbleupon" rel="nofollow" class="share-stumbleupon sd-button share-icon" shape="rect">\n                            <span>StumbleUpon</span>\n                          </a>\n                        </li>\n                        <li class="share-digg">\n                          <a title="Click to Digg this post" target="_blank" href="http://anannyad.wordpress.com/2009/01/12/why-is-kumble-smiling-in-dadar/?share=digg" rel="nofollow" class="share-digg sd-button share-icon" shape="rect">\n                            <span>Digg</span>\n                          </a>\n                        </li>\n                        <li class="share-reddit">\n                          <a title="Click to share on Reddit" target="_blank" href="http://anannyad.wordpress.com/2009/01/12/why-is-kumble-smiling-in-dadar/?share=reddit" rel="nofollow" class="share-reddit sd-button share-icon" shape="rect">\n                            <span>Reddit</span>\n                          </a>\n                        </li>\n                        <li class="share-twitter">\n                          <a title="Click to share on Twitter" target="_blank" href="http://anannyad.wordpress.com/2009/01/12/why-is-kumble-smiling-in-dadar/?share=twitter" rel="nofollow" id="sharing-twitter-370" class="share-twitter sd-button share-icon" shape="rect">\n                            <span>Twitter</span>\n                          </a>\n                        </li>\n                        <li class="share-facebook">\n                          <a title="Share on Facebook" target="_blank" href="http://anannyad.wordpress.com/2009/01/12/why-is-kumble-smiling-in-dadar/?share=facebook" rel="nofollow" id="sharing-facebook-370" class="share-facebook sd-button share-icon" shape="rect">\n                            <span>Facebook</span>\n                          </a>\n                        </li>\n                        <li class="share-email">\n                          <a title="Click to email this to a friend" target="_blank" href="http://anannyad.wordpress.com/2009/01/12/why-is-kumble-smiling-in-dadar/?share=email" rel="nofollow" class="share-email sd-button share-icon" shape="rect">\n                            <span>Email</span>\n                          </a>\n                        </li>\n                        <li class="share-end"></li>\n                      </ul>\n                      <div class="sharing-clear"></div>\n                    </div>\n                  </div>\n                </div>\n                <div class="wpl-likebox sd-block sd-like">\n                  <h3 class="sd-title">Like this:</h3>\n                  <div class="sd-content">\n                    <div id="like-370" class="wpl-button">\n                      <a rel="nofollow" title="I like this." href="http://anannyad.wordpress.com/2009/01/12/why-is-kumble-smiling-in-dadar/?like=1&amp;_wpnonce=97316b2dc0" class="like needs-login sd-button" shape="rect">\n                        <span>Like</span>\n                      </a>\n                    </div>\n                    <div class="wpl-count sd-like-count">Be the first to like this.</div>\n                  </div>\n                </div>\n              </div>\n              <div class="clear"></div>\n            </div>\n            <div class="post-meta">\n              <p>\n                <span class="categories">\n                  Filed under\n                  <a rel="category tag" title="View all posts in cricket" href="http://anannyad.wordpress.com/category/cricket/" shape="rect">cricket</a>\n                  ,\n                  <a rel="category tag" title="View all posts in Mumbai" href="http://anannyad.wordpress.com/category/mumbai/" shape="rect">Mumbai</a>\n                </span>\n                <span class="tags">\n                  Tagged with\n                  <a rel="tag" href="http://anannyad.wordpress.com/tag/advertising/" shape="rect">advertising</a>\n                  ,\n                  <a rel="tag" href="http://anannyad.wordpress.com/tag/kumble/" shape="rect">kumble</a>\n                  ,\n                  <a rel="tag" href="http://anannyad.wordpress.com/tag/mumbai/" shape="rect">Mumbai</a>\n                  ,\n                  <a rel="tag" href="http://anannyad.wordpress.com/tag/signs/" shape="rect">signs</a>\n                  ,\n                  <a rel="tag" href="http://anannyad.wordpress.com/tag/wtf/" shape="rect">wtf</a>\n                </span>\n              </p>\n            </div>\n          </div>\n          <div class="post-362 post type-post status-publish format-standard hentry category-cricket tag-ashes tag-australia tag-cricket tag-england">\n            <div class="entry">\n              <h2>\n                <a href="http://anannyad.wordpress.com/2009/01/09/the-ashes-2009-the-first-words/" shape="rect">The Ashes 2009 \xe2\x80\x93 The First\xc2\xa0Words</a>\n              </h2>\n              <div class="post-info">\n                <p>\n                  <span class="time">January 9, 2009</span>\n                  <span class="post-comments">\n                    <a title="Comment on The Ashes 2009 \xe2\x80\x93 The First\xc2\xa0Words" href="http://anannyad.wordpress.com/2009/01/09/the-ashes-2009-the-first-words/#respond" shape="rect">Leave a comment</a>\n                  </span>\n                </p>\n              </div>\n              <p>\n                <a target="_blank" href="http://www.guardian.co.uk/sport/blog/2009/jan/08/kevin-pietersen-england-australia" shape="rect">Gideon Haig of the Guardian gets off the block</a>\n                with the first words on the 2009 Ashes series with a look at two teams who seem to be at odds with themselves than with any opponent.\n              </p>\n              <p>He says, about the current mess in which English cricket lies in (For those who came in late, KP has resigned as captain as has their coach Peter Moores)</p>\n              <blockquote>\n                <p>\n                  For years English cricketers have obsessed over that mysterious dark art of their Australian rivals defined by Steve Waugh as \xe2\x80\x9cmental disintegration\xe2\x80\x9d. At last they seem to have mastered it \xc3\xa2\xe2\x82\xac\xe2\x80\x9c except in one crucial respect. They have forgotten you are meant to apply it to your opponents rather than yourselves.\n                </p>\n              </blockquote>\n              <p>On the Australians, he says, very wittily,</p>\n              <blockquote>\n                <p>At the moment Ricky Ponting\xe2\x80\x99s Australians are a little like the world economy: nobody seems quite sure whether to expect a short, sharp recession or a long, enervating depression.</p>\n              </blockquote>\n              <p>\n                Overall, it\xe2\x80\x99s another six months before the first ball. Australia have a three test match away series against South Africa, England a test series in the West Indies. Australia needs to get their aggressive dominating cricket back on track while England, for starters, needs a steady and confident captain in place.\n              </p>\n              <p>Ricky Ponting has already lost one Ashes series, the last one played in England. It could be the end of his captaincy if he were to lose another (assuming he remains the captain till the Ashes \xe2\x80\x93 most likely he will be the captain).</p>\n              <div id="jp-post-flair" class="sharedaddy sd-like-enabled sd-sharing-enabled">\n                <div class="sharedaddy sd-sharing-enabled">\n                  <div class="robots-nocontent sd-block sd-social sd-social-icon-text sd-sharing">\n                    <h3 class="sd-title">Share this:</h3>\n                    <div class="sd-content">\n                      <ul>\n                        <li class="share-stumbleupon">\n                          <a title="Click to share on StumbleUpon" target="_blank" href="http://anannyad.wordpress.com/2009/01/09/the-ashes-2009-the-first-words/?share=stumbleupon" rel="nofollow" class="share-stumbleupon sd-button share-icon" shape="rect">\n                            <span>StumbleUpon</span>\n                          </a>\n                        </li>\n                        <li class="share-digg">\n                          <a title="Click to Digg this post" target="_blank" href="http://anannyad.wordpress.com/2009/01/09/the-ashes-2009-the-first-words/?share=digg" rel="nofollow" class="share-digg sd-button share-icon" shape="rect">\n                            <span>Digg</span>\n                          </a>\n                        </li>\n                        <li class="share-reddit">\n                          <a title="Click to share on Reddit" target="_blank" href="http://anannyad.wordpress.com/2009/01/09/the-ashes-2009-the-first-words/?share=reddit" rel="nofollow" class="share-reddit sd-button share-icon" shape="rect">\n                            <span>Reddit</span>\n                          </a>\n                        </li>\n                        <li class="share-twitter">\n                          <a title="Click to share on Twitter" target="_blank" href="http://anannyad.wordpress.com/2009/01/09/the-ashes-2009-the-first-words/?share=twitter" rel="nofollow" id="sharing-twitter-362" class="share-twitter sd-button share-icon" shape="rect">\n                            <span>Twitter</span>\n                          </a>\n                        </li>\n                        <li class="share-facebook">\n                          <a title="Share on Facebook" target="_blank" href="http://anannyad.wordpress.com/2009/01/09/the-ashes-2009-the-first-words/?share=facebook" rel="nofollow" id="sharing-facebook-362" class="share-facebook sd-button share-icon" shape="rect">\n                            <span>Facebook</span>\n                          </a>\n                        </li>\n                        <li class="share-email">\n                          <a title="Click to email this to a friend" target="_blank" href="http://anannyad.wordpress.com/2009/01/09/the-ashes-2009-the-first-words/?share=email" rel="nofollow" class="share-email sd-button share-icon" shape="rect">\n                            <span>Email</span>\n                          </a>\n                        </li>\n                        <li class="share-end"></li>\n                      </ul>\n                      <div class="sharing-clear"></div>\n                    </div>\n                  </div>\n                </div>\n                <div class="wpl-likebox sd-block sd-like">\n                  <h3 class="sd-title">Like this:</h3>\n                  <div class="sd-content">\n                    <div id="like-362" class="wpl-button">\n                      <a rel="nofollow" title="I like this." href="http://anannyad.wordpress.com/2009/01/09/the-ashes-2009-the-first-words/?like=1&amp;_wpnonce=97316b2dc0" class="like needs-login sd-button" shape="rect">\n                        <span>Like</span>\n                      </a>\n                    </div>\n                    <div class="wpl-count sd-like-count">Be the first to like this.</div>\n                  </div>\n                </div>\n              </div>\n              <div class="clear"></div>\n            </div>\n            <div class="post-meta">\n              <p>\n                <span class="categories">\n                  Filed under\n                  <a rel="category tag" title="View all posts in cricket" href="http://anannyad.wordpress.com/category/cricket/" shape="rect">cricket</a>\n                </span>\n                <span class="tags">\n                  Tagged with\n                  <a rel="tag" href="http://anannyad.wordpress.com/tag/ashes/" shape="rect">ashes</a>\n                  ,\n                  <a rel="tag" href="http://anannyad.wordpress.com/tag/australia/" shape="rect">australia</a>\n                  ,\n                  <a rel="tag" href="http://anannyad.wordpress.com/tag/cricket/" shape="rect">cricket</a>\n                  ,\n                  <a rel="tag" href="http://anannyad.wordpress.com/tag/england/" shape="rect">england</a>\n                </span>\n              </p>\n            </div>\n          </div>\n          <div class="post-360 post type-post status-publish format-standard hentry category-history category-reviews tag-australia tag-film-reviews tag-history tag-movies tag-peoples tag-world-war-2">\n            <div class="entry">\n              <h2>\n                <a href="http://anannyad.wordpress.com/2009/01/07/australia-the-movie-and-some-history/" shape="rect">Australia \xe2\x80\x93 The Movie and some\xc2\xa0history</a>\n              </h2>\n              <div class="post-info">\n                <p>\n                  <span class="time">January 7, 2009</span>\n                  <span class="post-comments">\n                    <a title="Comment on Australia \xe2\x80\x93 The Movie and some\xc2\xa0history" href="http://anannyad.wordpress.com/2009/01/07/australia-the-movie-and-some-history/#respond" shape="rect">Leave a comment</a>\n                  </span>\n                </p>\n              </div>\n              <p>\n                Baz Lurhman\xe2\x80\x99s\n                <a target="_blank" href="http://www.imdb.com/title/tt0455824/" shape="rect">Australia</a>\n                was a long film.\n                <a target="_blank" href="http://www.imdb.com/title/tt0117509/" shape="rect">Romeo + Juliet</a>\n                and\n                <a target="_blank" href="http://www.imdb.com/title/tt0203009/" shape="rect">Moulin Rouge</a>\n                had us all tuned into some really good entertaining treatment of two love stories. Here in Australia, the length of the film gets multiplied by the sheer lack of entertaining features (as I was wont to expect from a Baz Luhrman film). Instead, it was a three hour long saga that had various plot elements that seemed to be a recreation of Gone With The Wind. It was all there -\xc3\x82\xc2\xa0\n              </p>\n              <ol>\n                <li>Large property in the outback</li>\n                <li>Lady of the house comes into ownership due to sudden events (death of her husband)</li>\n                <li>Racism</li>\n                <li>War</li>\n                <li>Love between two strangers</li>\n                <li>Brave rescues</li>\n                <li>Redemption</li>\n                <li>Reunion (This wasn\xe2\x80\x99t there in Gone With The Wind)</li>\n              </ol>\n              <p>There were a few things about the film that seemed to be truly good \xe2\x80\x93 the Aborigine kid actor Brandon Walters who acts as Nullah; the cinematography by Australian Mandy Walker and a couple of neat scenes.\xc3\x82\xc2\xa0</p>\n              <p>\n                As a history buff, there were two points of interest in this film \xe2\x80\x93\n                <a target="_blank" href="en.wikipedia.org/wiki/Stolen_Generations" shape="rect">The Stolen Generation</a>\n                and\n                <a target="_blank" href="http://en.wikipedia.org/wiki/Bombing_of_Darwin_(February_1942)" shape="rect">The Japanese Raids on Darwin during the Second World War</a>\n                .\n              </p>\n              <p>\n                <strong>The Stolen Generation</strong>\n              </p>\n              <p>\n                The Stolen Generation has been a cause of much repentence amongst most Australians over the last many years. Between 1869 and 1969, Aboriginal (or Indigenous Australians or Aboriginal Australian and Torres Strait Island Peoples) children were forcibly taken away from their parents and raised in missionaries or charities or as foster-children in white families. They were kept here till the age of 18 after which they were returned to their original families. There was three main rationale behind these programmes (mandated by laws passed by the Australian Federal and State parliaments)\n              </p>\n              <ol>\n                <li>Child Protection \xe2\x80\x93 it was believed that children would be best taken care off by the state in order to protect them from disease</li>\n                <li>Preventing extinction of the race \xe2\x80\x93 with population of the indigenous Australians declining, it was felt that by raising the children by the state, they would be more healthy and hence more capable of development</li>\n                <li>Protecting white race purity \xe2\x80\x93 this was a third view point which had a minority support group.</li>\n              </ol>\n              <p>\n                Cathy Freeman lit the Olympic torch at the 2000 Sydney Olympics. Cathy, an Aboriginal Australian, was the grandchild of one such Stolen child. Midnight Oil, the cult Aussie band, demonstrated the national regret when they performed at the closing ceremony of the Olympic Games wearing black sweatshirts with the word \xe2\x80\x9cSorry\xe2\x80\x9d.\xc3\x82\xc2\xa0\n              </p>\n              <p>There was of course a national apology by the Australian PM Kevin Rudd and an unanimous resolution by the Federal Parliament.</p>\n              <p>\n                <strong>Japanese raids on Darwin</strong>\n              </p>\n              <p>\n                The next big point of interest is the advent of Second World War in Australia. This was the raid on Darwin by Japanese bombers on February 19, 1942. Called the Pearl Harbour of Australia, this raid in two waves attacked Australia at its weakest and most vulnerable point \xe2\x80\x93 completely underprepared and underequipped.\n              </p>\n              <p>\n                It remains the biggest attack on Australian soil though Japan never really occupied any Australian territory (in the main continent). The raids were executed by a combination of the Kate torpedo bombers and the Val dive bombers escorted by Zero fighters. The second wave was executed by Nell and Betty land-based bombers.\n              </p>\n              <p>Naval commander Mitsui Fuchida who led the first wave later in his memoirs writes that it was a significant waste of time as there was nothing of any value at Darwin \xe2\x80\x93 a small port installation, an even smaller airfield with minimal facilities.\xc3\x82\xc2\xa0</p>\n              <p>Closing up on the movie \xe2\x80\x93 well, a movie buff is a movie buff \xe2\x80\x93 so one can watch it. And the movie will definitely do well in the awards marquees across the world. The only issue \xe2\x80\x93 its a big too heavy on the sugar and teary stuff.</p>\n              <div id="jp-post-flair" class="sharedaddy sd-like-enabled sd-sharing-enabled">\n                <div class="sharedaddy sd-sharing-enabled">\n                  <div class="robots-nocontent sd-block sd-social sd-social-icon-text sd-sharing">\n                    <h3 class="sd-title">Share this:</h3>\n                    <div class="sd-content">\n                      <ul>\n                        <li class="share-stumbleupon">\n                          <a title="Click to share on StumbleUpon" target="_blank" href="http://anannyad.wordpress.com/2009/01/07/australia-the-movie-and-some-history/?share=stumbleupon" rel="nofollow" class="share-stumbleupon sd-button share-icon" shape="rect">\n                            <span>StumbleUpon</span>\n                          </a>\n                        </li>\n                        <li class="share-digg">\n                          <a title="Click to Digg this post" target="_blank" href="http://anannyad.wordpress.com/2009/01/07/australia-the-movie-and-some-history/?share=digg" rel="nofollow" class="share-digg sd-button share-icon" shape="rect">\n                            <span>Digg</span>\n                          </a>\n                        </li>\n                        <li class="share-reddit">\n                          <a title="Click to share on Reddit" target="_blank" href="http://anannyad.wordpress.com/2009/01/07/australia-the-movie-and-some-history/?share=reddit" rel="nofollow" class="share-reddit sd-button share-icon" shape="rect">\n                            <span>Reddit</span>\n                          </a>\n                        </li>\n                        <li class="share-twitter">\n                          <a title="Click to share on Twitter" target="_blank" href="http://anannyad.wordpress.com/2009/01/07/australia-the-movie-and-some-history/?share=twitter" rel="nofollow" id="sharing-twitter-360" class="share-twitter sd-button share-icon" shape="rect">\n                            <span>Twitter</span>\n                          </a>\n                        </li>\n                        <li class="share-facebook">\n                          <a title="Share on Facebook" target="_blank" href="http://anannyad.wordpress.com/2009/01/07/australia-the-movie-and-some-history/?share=facebook" rel="nofollow" id="sharing-facebook-360" class="share-facebook sd-button share-icon" shape="rect">\n                            <span>Facebook</span>\n                          </a>\n                        </li>\n                        <li class="share-email">\n                          <a title="Click to email this to a friend" target="_blank" href="http://anannyad.wordpress.com/2009/01/07/australia-the-movie-and-some-history/?share=email" rel="nofollow" class="share-email sd-button share-icon" shape="rect">\n                            <span>Email</span>\n                          </a>\n                        </li>\n                        <li class="share-end"></li>\n                      </ul>\n                      <div class="sharing-clear"></div>\n                    </div>\n                  </div>\n                </div>\n                <div class="wpl-likebox sd-block sd-like">\n                  <h3 class="sd-title">Like this:</h3>\n                  <div class="sd-content">\n                    <div id="like-360" class="wpl-button">\n                      <a rel="nofollow" title="I like this." href="http://anannyad.wordpress.com/2009/01/07/australia-the-movie-and-some-history/?like=1&amp;_wpnonce=97316b2dc0" class="like needs-login sd-button" shape="rect">\n                        <span>Like</span>\n                      </a>\n                    </div>\n                    <div class="wpl-count sd-like-count">Be the first to like this.</div>\n                  </div>\n                </div>\n              </div>\n              <div class="clear"></div>\n            </div>\n            <div class="post-meta">\n              <p>\n                <span class="categories">\n                  Filed under\n                  <a rel="category tag" title="View all posts in History" href="http://anannyad.wordpress.com/category/history/" shape="rect">History</a>\n                  ,\n                  <a rel="category tag" title="View all posts in Reviews" href="http://anannyad.wordpress.com/category/reviews/" shape="rect">Reviews</a>\n                </span>\n                <span class="tags">\n                  Tagged with\n                  <a rel="tag" href="http://anannyad.wordpress.com/tag/australia/" shape="rect">australia</a>\n                  ,\n                  <a rel="tag" href="http://anannyad.wordpress.com/tag/film-reviews/" shape="rect">film reviews</a>\n                  ,\n                  <a rel="tag" href="http://anannyad.wordpress.com/tag/history/" shape="rect">History</a>\n                  ,\n                  <a rel="tag" href="http://anannyad.wordpress.com/tag/movies/" shape="rect">movies</a>\n                  ,\n                  <a rel="tag" href="http://anannyad.wordpress.com/tag/peoples/" shape="rect">peoples</a>\n                  ,\n                  <a rel="tag" href="http://anannyad.wordpress.com/tag/world-war-2/" shape="rect">World War 2</a>\n                </span>\n              </p>\n            </div>\n          </div>\n          <div class="post-356 post type-post status-publish format-standard hentry category-arts-and-culture category-reviews tag-movies tag-reviews">\n            <div class="entry">\n              <h2>\n                <a href="http://anannyad.wordpress.com/2009/01/06/revolutionary-road-review-of-a-review-of-a-trailer/" shape="rect">Revolutionary Road \xe2\x80\x93 Review of a Review of a\xc2\xa0Trailer</a>\n              </h2>\n              <div class="post-info">\n                <p>\n                  <span class="time">January 6, 2009</span>\n                  <span class="post-comments">\n                    <a title="Comment on Revolutionary Road \xe2\x80\x93 Review of a Review of a\xc2\xa0Trailer" href="http://anannyad.wordpress.com/2009/01/06/revolutionary-road-review-of-a-review-of-a-trailer/#respond" shape="rect">Leave a comment</a>\n                  </span>\n                </p>\n              </div>\n              <p>\n                I came across\n                <a target="_blank" href="http://www.guardian.co.uk/film/2009/jan/06/revolutionary-road-trailer-review" shape="rect">this review by Anna Pickard of the Guardian</a>\n                of the movie trailer of\n                <a target="_blank" href="http://www.imdb.com/title/tt0959337/" shape="rect">Revolutionary Road</a>\n                . It stars Leonardo Di Caprio and Kate Winslet and is directed by Sam Mendes.\n              </p>\n              <span style="text-align:center; display: block;" class="embed-youtube">\n                <iframe src="http://www.youtube.com/embed/bpra9OEw6nQ?version=3&amp;rel=1&amp;fs=1&amp;showsearch=0&amp;showinfo=1&amp;iv_load_policy=1&amp;wmode=transparent" height="385" width="630" type="text/html" class="youtube-player" scrolling="auto" frameborder="0"></iframe>\n              </span>\n              <p>A few excerpts which I found interesting.</p>\n              <p>About Leonardo Di Caprio:</p>\n              <blockquote>\n                <p>\n                  <span>We in the cheap seats wonder if there\xe2\x80\x99s something magic in supermodel spittle that promises to keep Leo looking like he\xe2\x80\x99s in primary school possibly into his 70s.</span>\n                </p>\n              </blockquote>\n              <blockquote>\n                <p>[...]</p>\n              </blockquote>\n              <blockquote>\n                <p>\n                  <span>\n                    <em>I guess I kind of like it,</em>\n                    \xe2\x80\x9d says Leo, through gritted teeth.\n                    <br clear="none"></br>\n                    \xe2\x80\x9c\n                    <em>Won\xe2\x80\x99t you miss the city?</em>\n                    \xe2\x80\x9d asks a heavily pregnant Kate.\xc3\x82\xc2\xa0\n                    <br clear="none"></br>\n                    <em>\xe2\x80\x9cNothing\xe2\x80\x99s permanent \xc3\xa2\xe2\x82\xac\xc5\xa0 \xe2\x80\x9c</em>\n                    \xc3\x82\xc2\xa0replies the 12-year-old in a suit.\xc3\x82\xc2\xa0\n                  </span>\n                </p>\n              </blockquote>\n              <p>About the trailer and the impact of the trailer:</p>\n              <blockquote>\n                <p>Leonardo DiCaprio looks tortured. Kate Winslet looks miserable. If Titanic was the flush of first love, this is what happens when it subsequently all goes down the toilet.</p>\n                <p>[...]</p>\n                <p>\n                  Seriously, I feel like all the joy has been sucked from my soul, and I\xe2\x80\x99ve only been watching this for one minute and 45 seconds. The film is two sodding hours long. I wonder if the cinema staff have to go in at the end of each screening and pick up not only the empty cups and sweetie wrappers but also the shattered dreams of any foolish youthful idealists in the audience and the hollow, desiccated shells of cinemagoers with nothing left to live for.\n                </p>\n              </blockquote>\n              <p>Prediction about the movie:</p>\n              <blockquote>\n                <p>So, at the end of the day, is it a trailer that makes us want to rush out and watch the entire film? No, not really. It\xe2\x80\x99s already raining, and we\xe2\x80\x99re feeling a bit flat and fat and January-miserable and \xc3\xa2\xe2\x82\xac\xc5\xa0 no. It will probably win prizes, though. Armloads of \xe2\x80\x98em.</p>\n              </blockquote>\n              <p>\n                I saw the trailer myself and I tend to agree. Given the general mood of the day, I would be a tad wary of going for it. I saw\n                <a target="_blank" href="http://www.imdb.com/title/tt0455824/" shape="rect">Australia</a>\n                the other day and it was like watching a Gone With The Wind saga-esque drama with an Aussie accent \xe2\x80\x93 complete with racism, war, greed and villainy. Like what Anna Pickard says about Revolutionary Road, armloads of prizes am sure, for Hugh Jackman, Nicole Kidman, the kid who plays Nallah, maybe cinematography. But, not enjoyable watching.\n              </p>\n              <div id="jp-post-flair" class="sharedaddy sd-like-enabled sd-sharing-enabled">\n                <div class="sharedaddy sd-sharing-enabled">\n                  <div class="robots-nocontent sd-block sd-social sd-social-icon-text sd-sharing">\n                    <h3 class="sd-title">Share this:</h3>\n                    <div class="sd-content">\n                      <ul>\n                        <li class="share-stumbleupon">\n                          <a title="Click to share on StumbleUpon" target="_blank" href="http://anannyad.wordpress.com/2009/01/06/revolutionary-road-review-of-a-review-of-a-trailer/?share=stumbleupon" rel="nofollow" class="share-stumbleupon sd-button share-icon" shape="rect">\n                            <span>StumbleUpon</span>\n                          </a>\n                        </li>\n                        <li class="share-digg">\n                          <a title="Click to Digg this post" target="_blank" href="http://anannyad.wordpress.com/2009/01/06/revolutionary-road-review-of-a-review-of-a-trailer/?share=digg" rel="nofollow" class="share-digg sd-button share-icon" shape="rect">\n                            <span>Digg</span>\n                          </a>\n                        </li>\n                        <li class="share-reddit">\n                          <a title="Click to share on Reddit" target="_blank" href="http://anannyad.wordpress.com/2009/01/06/revolutionary-road-review-of-a-review-of-a-trailer/?share=reddit" rel="nofollow" class="share-reddit sd-button share-icon" shape="rect">\n                            <span>Reddit</span>\n                          </a>\n                        </li>\n                        <li class="share-twitter">\n                          <a title="Click to share on Twitter" target="_blank" href="http://anannyad.wordpress.com/2009/01/06/revolutionary-road-review-of-a-review-of-a-trailer/?share=twitter" rel="nofollow" id="sharing-twitter-356" class="share-twitter sd-button share-icon" shape="rect">\n                            <span>Twitter</span>\n                          </a>\n                        </li>\n                        <li class="share-facebook">\n                          <a title="Share on Facebook" target="_blank" href="http://anannyad.wordpress.com/2009/01/06/revolutionary-road-review-of-a-review-of-a-trailer/?share=facebook" rel="nofollow" id="sharing-facebook-356" class="share-facebook sd-button share-icon" shape="rect">\n                            <span>Facebook</span>\n                          </a>\n                        </li>\n                        <li class="share-email">\n                          <a title="Click to email this to a friend" target="_blank" href="http://anannyad.wordpress.com/2009/01/06/revolutionary-road-review-of-a-review-of-a-trailer/?share=email" rel="nofollow" class="share-email sd-button share-icon" shape="rect">\n                            <span>Email</span>\n                          </a>\n                        </li>\n                        <li class="share-end"></li>\n                      </ul>\n                      <div class="sharing-clear"></div>\n                    </div>\n                  </div>\n                </div>\n                <div class="wpl-likebox sd-block sd-like">\n                  <h3 class="sd-title">Like this:</h3>\n                  <div class="sd-content">\n                    <div id="like-356" class="wpl-button">\n                      <a rel="nofollow" title="I like this." href="http://anannyad.wordpress.com/2009/01/06/revolutionary-road-review-of-a-review-of-a-trailer/?like=1&amp;_wpnonce=97316b2dc0" class="like needs-login sd-button" shape="rect">\n                        <span>Like</span>\n                      </a>\n                    </div>\n                    <div class="wpl-count sd-like-count">Be the first to like this.</div>\n                  </div>\n                </div>\n              </div>\n              <div class="clear"></div>\n            </div>\n            <div class="post-meta">\n              <p>\n                <span class="categories">\n                  Filed under\n                  <a rel="category tag" title="View all posts in arts and culture" href="http://anannyad.wordpress.com/category/arts-and-culture/" shape="rect">arts and culture</a>\n                  ,\n                  <a rel="category tag" title="View all posts in Reviews" href="http://anannyad.wordpress.com/category/reviews/" shape="rect">Reviews</a>\n                </span>\n                <span class="tags">\n                  Tagged with\n                  <a rel="tag" href="http://anannyad.wordpress.com/tag/movies/" shape="rect">movies</a>\n                  ,\n                  <a rel="tag" href="http://anannyad.wordpress.com/tag/reviews/" shape="rect">Reviews</a>\n                </span>\n              </p>\n            </div>\n          </div>\n          <div class="post-352 post type-post status-publish format-standard hentry category-mumbai category-travelogs tag-cave-temples tag-mumbai tag-temples tag-travel tag-travelogs">\n            <div class="entry">\n              <h2>\n                <a href="http://anannyad.wordpress.com/2009/01/05/the-art-of-elephanta/" shape="rect">The Art of\xc2\xa0Elephanta</a>\n              </h2>\n              <div class="post-info">\n                <p>\n                  <span class="time">January 5, 2009</span>\n                  <span class="post-comments">\n                    <a title="Comment on The Art of\xc2\xa0Elephanta" href="http://anannyad.wordpress.com/2009/01/05/the-art-of-elephanta/#respond" shape="rect">Leave a comment</a>\n                  </span>\n                </p>\n              </div>\n              <p>\n                The\n                <a href="http://maps.google.com/maps/ms?ie=UTF8&amp;hl=en&amp;msa=0&amp;ll=18.97026,72.880554&amp;spn=0.178572,0.30899&amp;z=12&amp;msid=108303508591195276192.00045fab818c4205eb94c" shape="rect">Gharapuri Island</a>\n                , about 11 kms North East of Apollo Bunder (The Gateway of India) is popularly called\n                <a href="http://en.wikipedia.org/wiki/Elephanta_Caves" shape="rect">Elephanta</a>\n                . It houses a set of Shaivist caves \xe2\x80\x93 i.e. dedicated to Shiva, probably carved around 7th Century AD.\xc3\x82\xc2\xa0\n              </p>\n              <table border="0" style="width:auto;">\n                <tbody>\n                  <tr>\n                    <td rowspan="1" colspan="1">\n                      <a href="http://picasaweb.google.co.in/lh/photo/pBIZoJRFqjaTqC_EUZ1Bzw?feat=embedwebsite" shape="rect">\xc3\x82\xc2\xa0\xc3\x82\xc2\xa0 </a>\n                      <p style="text-align:center;">\n                        <img alt="" src="http://lh3.ggpht.com/_KEPbkfWm_Hs/SWD1apyIasI/AAAAAAAAADs/hgDRxzTqjGM/s400/IMG_4415.JPG"></img>\n                      </p>\n                      <p>\xc3\x82\xc2\xa0</p>\n                    </td>\n                  </tr>\n                  <tr>\n                    <td style="font-family:arial,sans-serif;font-size:11px;text-align:right;" rowspan="1" colspan="1">\n                      <p style="text-align:center;">This is the Sadashiva \xe2\x80\x93 The Panchmukhi Shiva (Five Headed). This image is ubiquitious in most tourist brochures of India and Mumbai</p>\n                      <p>\n                        See the Full Album\xc3\x82\xc2\xa0\n                        <a href="http://picasaweb.google.co.in/adzone.anannya/TheArtOfElephanta?feat=embedwebsite" shape="rect">The Art of Elephanta</a>\n                      </p>\n                    </td>\n                  </tr>\n                </tbody>\n              </table>\n              <p>\n                The most famous image from the Caves, indeed to main image of the page is the Tri-headed Shiva, called Sadashiva. According to the legend in the guide books, this idol represents the five faces of Shiva (Panchmukha Shiva) \xe2\x80\x93 three of which is visible. The fourth face is implied (at the back) and the fifth is the mythical face unseen by any mortal.\n              </p>\n              <p>Another interesting image is that of Ravana holding aloft Mount Kailasha</p>\n              <table border="0" style="width:auto;">\n                <tbody>\n                  <tr>\n                    <td rowspan="1" colspan="1">\n                      <a href="http://picasaweb.google.co.in/lh/photo/fy0iRBeZqmUuHtV5bi0zVQ?feat=embedwebsite" shape="rect">\n                        <img alt="" src="http://lh4.ggpht.com/_KEPbkfWm_Hs/SWD4kxQcBWI/AAAAAAAAAE0/gbudrM4ICZg/s400/IMG_4434.JPG"></img>\n                      </a>\n                    </td>\n                  </tr>\n                  <tr>\n                    <td style="font-family:arial,sans-serif;font-size:11px;text-align:right;" rowspan="1" colspan="1">\n                      <p style="text-align:center;">Ravana holding aloft Mount Kailasha, with Shiva sitting on top of the mountain</p>\n                      <p>\n                        From\n                        <a href="http://picasaweb.google.co.in/adzone.anannya/TheArtOfElephanta?feat=embedwebsite" shape="rect">The Art of Elephanta</a>\n                      </p>\n                    </td>\n                  </tr>\n                </tbody>\n              </table>\n              <p>\n                For those who regularly visit historical places in India would be aware of the lousy work done by ASI to maintain these priceless examples of Indian heritage. Here in Elephanta it was sheer commerce that was keeping it thriving. Libertarians and free marketers I am sure would be very happy. The local population (who seemed to be descendents of the Siddis \xe2\x80\x93 taking a guess on the basis of their physical features) were doing their all \xe2\x80\x93 well run restaurants, shops selling all kinds of stones, palkhis, guides, cleaners, even a monkey watcher.\n              </p>\n              <p>\n                Cave art in India is aplenty. In Mumbai itself, besides Elephanta, we have\n                <a href="http://en.wikipedia.org/wiki/Jogeshwari_Caves" shape="rect">Jogeshwari</a>\n                ,\n                <a href="http://en.wikipedia.org/wiki/Kanheri_Caves" shape="rect">Kanheri</a>\n                (inside Borivili National Park),\n                <a href="http://en.wikipedia.org/wiki/Mahakali_Caves" shape="rect">Mahakali</a>\n                (Junction of SEEPZ and the Jogeshwari-Vikhroli Link Road) and Mandapeshwar. While Elephanta is a set of temples dedicated to Shiva, Kanheri and Mahakali are of Buddhist origins.\n              </p>\n              <p>\n                One also saw a lot of tourists especially the foreigners making their way to Elephanta. No doubt, they were refering to the\n                <a href="http://www.lonelyplanet.com/india/mumbai-bombay/elephanta-island" oncontextmenu="mugicRightClick(this);" onclick="return mugicPopWin(this,event);" shape="rect">Lonely Planet and following Tony Wheeler\xe2\x80\x99s suggestions</a>\n                .\xc3\x82\xc2\xa0\n              </p>\n              <blockquote>\n                <p>The enormous central bust of Shiva, its eyes closed in eternal contemplation, may be the most serene sight you witness in India.</p>\n              </blockquote>\n              <p>\n                For more photos, visit my\n                <a href="http://picasaweb.google.co.in/adzone.anannya" shape="rect">new Picasa public gallery</a>\n                (The earlier one has saturated all the available free space).\n              </p>\n              <div id="jp-post-flair" class="sharedaddy sd-like-enabled sd-sharing-enabled">\n                <div class="sharedaddy sd-sharing-enabled">\n                  <div class="robots-nocontent sd-block sd-social sd-social-icon-text sd-sharing">\n                    <h3 class="sd-title">Share this:</h3>\n                    <div class="sd-content">\n                      <ul>\n                        <li class="share-stumbleupon">\n                          <a title="Click to share on StumbleUpon" target="_blank" href="http://anannyad.wordpress.com/2009/01/05/the-art-of-elephanta/?share=stumbleupon" rel="nofollow" class="share-stumbleupon sd-button share-icon" shape="rect">\n                            <span>StumbleUpon</span>\n                          </a>\n                        </li>\n                        <li class="share-digg">\n                          <a title="Click to Digg this post" target="_blank" href="http://anannyad.wordpress.com/2009/01/05/the-art-of-elephanta/?share=digg" rel="nofollow" class="share-digg sd-button share-icon" shape="rect">\n                            <span>Digg</span>\n                          </a>\n                        </li>\n                        <li class="share-reddit">\n                          <a title="Click to share on Reddit" target="_blank" href="http://anannyad.wordpress.com/2009/01/05/the-art-of-elephanta/?share=reddit" rel="nofollow" class="share-reddit sd-button share-icon" shape="rect">\n                            <span>Reddit</span>\n                          </a>\n                        </li>\n                        <li class="share-twitter">\n                          <a title="Click to share on Twitter" target="_blank" href="http://anannyad.wordpress.com/2009/01/05/the-art-of-elephanta/?share=twitter" rel="nofollow" id="sharing-twitter-352" class="share-twitter sd-button share-icon" shape="rect">\n                            <span>Twitter</span>\n                          </a>\n                        </li>\n                        <li class="share-facebook">\n                          <a title="Share on Facebook" target="_blank" href="http://anannyad.wordpress.com/2009/01/05/the-art-of-elephanta/?share=facebook" rel="nofollow" id="sharing-facebook-352" class="share-facebook sd-button share-icon" shape="rect">\n                            <span>Facebook</span>\n                          </a>\n                        </li>\n                        <li class="share-email">\n                          <a title="Click to email this to a friend" target="_blank" href="http://anannyad.wordpress.com/2009/01/05/the-art-of-elephanta/?share=email" rel="nofollow" class="share-email sd-button share-icon" shape="rect">\n                            <span>Email</span>\n                          </a>\n                        </li>\n                        <li class="share-end"></li>\n                      </ul>\n                      <div class="sharing-clear"></div>\n                    </div>\n                  </div>\n                </div>\n                <div class="wpl-likebox sd-block sd-like">\n                  <h3 class="sd-title">Like this:</h3>\n                  <div class="sd-content">\n                    <div id="like-352" class="wpl-button">\n                      <a rel="nofollow" title="I like this." href="http://anannyad.wordpress.com/2009/01/05/the-art-of-elephanta/?like=1&amp;_wpnonce=97316b2dc0" class="like needs-login sd-button" shape="rect">\n                        <span>Like</span>\n                      </a>\n                    </div>\n                    <div class="wpl-count sd-like-count">Be the first to like this.</div>\n                  </div>\n                </div>\n              </div>\n              <div class="clear"></div>\n            </div>\n            <div class="post-meta">\n              <p>\n                <span class="categories">\n                  Filed under\n                  <a rel="category tag" title="View all posts in Mumbai" href="http://anannyad.wordpress.com/category/mumbai/" shape="rect">Mumbai</a>\n                  ,\n                  <a rel="category tag" title="View all posts in Travelogs" href="http://anannyad.wordpress.com/category/travelogs/" shape="rect">Travelogs</a>\n                </span>\n                <span class="tags">\n                  Tagged with\n                  <a rel="tag" href="http://anannyad.wordpress.com/tag/cave-temples/" shape="rect">cave temples</a>\n                  ,\n                  <a rel="tag" href="http://anannyad.wordpress.com/tag/mumbai/" shape="rect">Mumbai</a>\n                  ,\n                  <a rel="tag" href="http://anannyad.wordpress.com/tag/temples/" shape="rect">temples</a>\n                  ,\n                  <a rel="tag" href="http://anannyad.wordpress.com/tag/travel/" shape="rect">Travel</a>\n                  ,\n                  <a rel="tag" href="http://anannyad.wordpress.com/tag/travelogs/" shape="rect">Travelogs</a>\n                </span>\n              </p>\n            </div>\n          </div>\n          <div class="navlink">\n            <div class="nav-previous">\n              <p></p>\n            </div>\n            <div class="nav-next">\n              <p></p>\n            </div>\n          </div>\n        </div>\n        <div id="sidebar">\n          <div id="text-218073012" class="widget widget_text">\n            <h4>Subscribe</h4>\n            <div class="textwidget">\n              <p>\n                <a rel="alternate" href="http://feeds.feedburner.com/TheAdZone" shape="rect">\n                  <img alt="" src="http://www.feedburner.com/fb/images/pub/feed-icon16x16.png"></img>\n                </a>\n                \xc2\xa0\n                <a rel="alternate" href="http://feeds.feedburner.com/TheAdZone" shape="rect">Subscribe in a reader</a>\n              </p>\n            </div>\n          </div>\n          <div id="wp_tag_cloud" class="widget wp_widget_tag_cloud">\n            <h4>Tags</h4>\n            <div style="overflow:hidden">\n              <a style="font-size: 8pt;" title="4 topics" href="http://anannyad.wordpress.com/tag/advertising/" class="tag-link-521" shape="rect">advertising</a>\n              <a style="font-size: 12.242424242424pt;" title="7 topics" href="http://anannyad.wordpress.com/tag/afghanistan/" class="tag-link-4338" shape="rect">afghanistan</a>\n              <a style="font-size: 11.181818181818pt;" title="6 topics" href="http://anannyad.wordpress.com/tag/arbit/" class="tag-link-29091" shape="rect">arbit</a>\n              <a style="font-size: 9.6969696969697pt;" title="5 topics" href="http://anannyad.wordpress.com/tag/blogs/" class="tag-link-460" shape="rect">blogs</a>\n              <a style="font-size: 8pt;" title="4 topics" href="http://anannyad.wordpress.com/tag/bollywood/" class="tag-link-4051" shape="rect">Bollywood</a>\n              <a style="font-size: 11.181818181818pt;" title="6 topics" href="http://anannyad.wordpress.com/tag/books/" class="tag-link-178" shape="rect">books</a>\n              <a style="font-size: 22pt;" title="22 topics" href="http://anannyad.wordpress.com/tag/cricket/" class="tag-link-3958" shape="rect">cricket</a>\n              <a style="font-size: 8pt;" title="4 topics" href="http://anannyad.wordpress.com/tag/england/" class="tag-link-1311" shape="rect">england</a>\n              <a style="font-size: 8pt;" title="4 topics" href="http://anannyad.wordpress.com/tag/federer/" class="tag-link-330092" shape="rect">Federer</a>\n              <a style="font-size: 9.6969696969697pt;" title="5 topics" href="http://anannyad.wordpress.com/tag/film-reviews/" class="tag-link-1314" shape="rect">film reviews</a>\n              <a style="font-size: 13.30303030303pt;" title="8 topics" href="http://anannyad.wordpress.com/tag/food/" class="tag-link-586" shape="rect">food</a>\n              <a style="font-size: 17.545454545455pt;" title="13 topics" href="http://anannyad.wordpress.com/tag/football/" class="tag-link-1134" shape="rect">football</a>\n              <a style="font-size: 8pt;" title="4 topics" href="http://anannyad.wordpress.com/tag/google/" class="tag-link-81" shape="rect">Google</a>\n              <a style="font-size: 11.181818181818pt;" title="6 topics" href="http://anannyad.wordpress.com/tag/gulzar/" class="tag-link-434652" shape="rect">gulzar</a>\n              <a style="font-size: 14.363636363636pt;" title="9 topics" href="http://anannyad.wordpress.com/tag/history/" class="tag-link-678" shape="rect">History</a>\n              <a style="font-size: 20.30303030303pt;" title="18 topics" href="http://anannyad.wordpress.com/tag/india/" class="tag-link-3054" shape="rect">India</a>\n              <a style="font-size: 13.30303030303pt;" title="8 topics" href="http://anannyad.wordpress.com/tag/ipl/" class="tag-link-281856" shape="rect">IPL</a>\n              <a style="font-size: 16.060606060606pt;" title="11 topics" href="http://anannyad.wordpress.com/tag/legends/" class="tag-link-4223" shape="rect">Legends</a>\n              <a style="font-size: 14.363636363636pt;" title="9 topics" href="http://anannyad.wordpress.com/tag/literature/" class="tag-link-557" shape="rect">literature</a>\n              <a style="font-size: 17.545454545455pt;" title="13 topics" href="http://anannyad.wordpress.com/tag/lyrics/" class="tag-link-1453" shape="rect">lyrics</a>\n              <a style="font-size: 9.6969696969697pt;" title="5 topics" href="http://anannyad.wordpress.com/tag/marketing/" class="tag-link-175" shape="rect">marketing</a>\n              <a style="font-size: 11.181818181818pt;" title="6 topics" href="http://anannyad.wordpress.com/tag/movies/" class="tag-link-190" shape="rect">movies</a>\n              <a style="font-size: 20.30303030303pt;" title="18 topics" href="http://anannyad.wordpress.com/tag/mumbai/" class="tag-link-4010" shape="rect">Mumbai</a>\n              <a style="font-size: 18.181818181818pt;" title="14 topics" href="http://anannyad.wordpress.com/tag/music/" class="tag-link-18" shape="rect">Music</a>\n              <a style="font-size: 8pt;" title="4 topics" href="http://anannyad.wordpress.com/tag/nadal/" class="tag-link-533239" shape="rect">Nadal</a>\n              <a style="font-size: 12.242424242424pt;" title="7 topics" href="http://anannyad.wordpress.com/tag/news/" class="tag-link-103" shape="rect">News</a>\n              <a style="font-size: 11.181818181818pt;" title="6 topics" href="http://anannyad.wordpress.com/tag/olympics/" class="tag-link-11490" shape="rect">olympics</a>\n              <a style="font-size: 11.181818181818pt;" title="6 topics" href="http://anannyad.wordpress.com/tag/pakistan/" class="tag-link-3235" shape="rect">Pakistan</a>\n              <a style="font-size: 9.6969696969697pt;" title="5 topics" href="http://anannyad.wordpress.com/tag/photos/" class="tag-link-304" shape="rect">photos</a>\n              <a style="font-size: 8pt;" title="4 topics" href="http://anannyad.wordpress.com/tag/poetry/" class="tag-link-422" shape="rect">poetry</a>\n              <a style="font-size: 9.6969696969697pt;" title="5 topics" href="http://anannyad.wordpress.com/tag/politics/" class="tag-link-398" shape="rect">politics</a>\n              <a style="font-size: 18.606060606061pt;" title="15 topics" href="http://anannyad.wordpress.com/tag/pop-culture/" class="tag-link-8737" shape="rect">pop-culture</a>\n              <a style="font-size: 9.6969696969697pt;" title="5 topics" href="http://anannyad.wordpress.com/tag/quizzes/" class="tag-link-1635" shape="rect">Quizzes</a>\n              <a style="font-size: 9.6969696969697pt;" title="5 topics" href="http://anannyad.wordpress.com/tag/rock-n-roll/" class="tag-link-18925" shape="rect">rock-n-roll</a>\n              <a style="font-size: 9.6969696969697pt;" title="5 topics" href="http://anannyad.wordpress.com/tag/signs/" class="tag-link-14922" shape="rect">signs</a>\n              <a style="font-size: 19.242424242424pt;" title="16 topics" href="http://anannyad.wordpress.com/tag/songs/" class="tag-link-4463" shape="rect">songs</a>\n              <a style="font-size: 9.6969696969697pt;" title="5 topics" href="http://anannyad.wordpress.com/tag/sports/" class="tag-link-67" shape="rect">sports</a>\n              <a style="font-size: 16.060606060606pt;" title="11 topics" href="http://anannyad.wordpress.com/tag/travel/" class="tag-link-200" shape="rect">Travel</a>\n              <a style="font-size: 8pt;" title="4 topics" href="http://anannyad.wordpress.com/tag/trivia/" class="tag-link-2011" shape="rect">trivia</a>\n              <a style="font-size: 8pt;" title="4 topics" href="http://anannyad.wordpress.com/tag/twitter/" class="tag-link-599182" shape="rect">twitter</a>\n              <a style="font-size: 9.6969696969697pt;" title="5 topics" href="http://anannyad.wordpress.com/tag/videos/" class="tag-link-1149" shape="rect">videos</a>\n              <a style="font-size: 9.6969696969697pt;" title="5 topics" href="http://anannyad.wordpress.com/tag/war/" class="tag-link-3934" shape="rect">War</a>\n              <a style="font-size: 9.6969696969697pt;" title="5 topics" href="http://anannyad.wordpress.com/tag/west-indies/" class="tag-link-16941" shape="rect">west indies</a>\n              <a style="font-size: 15.212121212121pt;" title="10 topics" href="http://anannyad.wordpress.com/tag/world-cup-t20/" class="tag-link-20931251" shape="rect">world cup T20</a>\n              <a style="font-size: 15.212121212121pt;" title="10 topics" href="http://anannyad.wordpress.com/tag/world-war-2/" class="tag-link-137224" shape="rect">World War 2</a>\n            </div>\n          </div>\n          <div id="delicious" class="widget widget_delicious">\n            <h4>\n              <a href="http://del.icio.us/anannya" shape="rect">My Delicious Bookmarks</a>\n            </h4>\n            <div style="margin:0;padding:0;border:none;" id="delicious-box"> </div>\n            <script type="text/javascript">\n              function render_delicious( data ) {\n\t\t\t\t\tvar ul = document.createElement( \'ul\' );\n\t\t\t\t\tfor ( var i = 0, post; post = data[i]; i++ ) {\n\t\t\t\t\t\tvar li = document.createElement( \'li\' );\n\t\t\t\t\t\tvar a  = document.createElement( \'a\' );\n\t\t\t\t\t\ta.setAttribute( \'href\', post.u );\n\t\t\t\t\t\ta.appendChild( document.createTextNode( post.d ) );\n\t\t\t\t\t\tli.appendChild( a );\n\t\t\t\t\t\tul.appendChild( li );\n\t\t\t\t\t}\n\t\t\t\t\tul.setAttribute( \'id\', \'delicious-list\' );\n\t\t\t\t\tdocument.getElementById( \'delicious-box\' ).appendChild( ul );\n\t\t\t\t}\n            </script>\n            <script src="http://feeds.delicious.com/v2/json/anannya?count=5&amp;callback=render_delicious" type="text/javascript"></script>\n          </div>\n          <div id="text-218073011" class="widget widget_text">\n            <h4>Find Me On The Web</h4>\n            <div class="textwidget">\n              <a href="http://friendfeed.com/anannya" shape="rect">FriendFeed</a>\n              <br clear="none"></br>\n              <a href="http://picasaweb.google.com/anannya.deb" shape="rect">Picasa</a>\n              <br clear="none"></br>\n              <a href="http://www.new.facebook.com/profile.php?id=526983250" shape="rect">Facebook</a>\n              <br clear="none"></br>\n              <a href="http://www.linkedin.com/in/anannya" shape="rect">LinkedIn</a>\n              <br clear="none"></br>\n              <a href="http://delicious.com/anannya" shape="rect">Delicious</a>\n              <br clear="none"></br>\n              <a href="http://www.google.com/reader/shared/12244919178248964665" shape="rect">Google Reader</a>\n            </div>\n          </div>\n          <div id="calendar-2" class="widget widget_calendar">\n            <h4>\xc2\xa0</h4>\n            <div id="calendar_wrap">\n              <table id="wp-calendar">\n                <caption>January 2009</caption>\n                <thead>\n                  <tr>\n                    <th title="Monday" scope="col" rowspan="1" colspan="1">M</th>\n                    <th title="Tuesday" scope="col" rowspan="1" colspan="1">T</th>\n                    <th title="Wednesday" scope="col" rowspan="1" colspan="1">W</th>\n                    <th title="Thursday" scope="col" rowspan="1" colspan="1">T</th>\n                    <th title="Friday" scope="col" rowspan="1" colspan="1">F</th>\n                    <th title="Saturday" scope="col" rowspan="1" colspan="1">S</th>\n                    <th title="Sunday" scope="col" rowspan="1" colspan="1">S</th>\n                  </tr>\n                </thead>\n                <tfoot>\n                  <tr>\n                    <td id="prev" rowspan="1" colspan="3">\n                      <a title="View posts for December 2008" href="http://anannyad.wordpress.com/2008/12/" shape="rect">\xc2\xab Dec</a>\n                    </td>\n                    <td class="pad" rowspan="1" colspan="1">\xc2\xa0</td>\n                    <td id="next" rowspan="1" colspan="3">\n                      <a title="View posts for February 2009" href="http://anannyad.wordpress.com/2009/02/" shape="rect">Feb \xc2\xbb</a>\n                    </td>\n                  </tr>\n                </tfoot>\n                <tbody>\n                  <tr>\n                    <td class="pad" rowspan="1" colspan="3">\xc2\xa0</td>\n                    <td rowspan="1" colspan="1">1</td>\n                    <td rowspan="1" colspan="1">2</td>\n                    <td rowspan="1" colspan="1">3</td>\n                    <td rowspan="1" colspan="1">4</td>\n                  </tr>\n                  <tr>\n                    <td rowspan="1" colspan="1">\n                      <a title="The Art of\xc2\xa0Elephanta" href="http://anannyad.wordpress.com/2009/01/05/" shape="rect">5</a>\n                    </td>\n                    <td rowspan="1" colspan="1">\n                      <a title="Revolutionary Road \xe2\x80\x93 Review of a Review of a\xc2\xa0Trailer" href="http://anannyad.wordpress.com/2009/01/06/" shape="rect">6</a>\n                    </td>\n                    <td rowspan="1" colspan="1">\n                      <a title="Australia \xe2\x80\x93 The Movie and some\xc2\xa0history" href="http://anannyad.wordpress.com/2009/01/07/" shape="rect">7</a>\n                    </td>\n                    <td rowspan="1" colspan="1">8</td>\n                    <td rowspan="1" colspan="1">\n                      <a title="The Ashes 2009 \xe2\x80\x93 The First\xc2\xa0Words" href="http://anannyad.wordpress.com/2009/01/09/" shape="rect">9</a>\n                    </td>\n                    <td rowspan="1" colspan="1">10</td>\n                    <td rowspan="1" colspan="1">11</td>\n                  </tr>\n                  <tr>\n                    <td rowspan="1" colspan="1">\n                      <a title="Why is Kumble smiling in\xc2\xa0Dadar?, James Bond Speaks\xc2\xa0English" href="http://anannyad.wordpress.com/2009/01/12/" shape="rect">12</a>\n                    </td>\n                    <td rowspan="1" colspan="1">13</td>\n                    <td rowspan="1" colspan="1">14</td>\n                    <td rowspan="1" colspan="1">\n                      <a title="Microblogging \xe2\x80\x93 140 characters be\xc2\xa0damned, Angel\xc2\xa0Investing, Electoral Malpractices \xe2\x80\x93 2008 Weblog\xc2\xa0Awards" href="http://anannyad.wordpress.com/2009/01/15/" shape="rect">15</a>\n                    </td>\n                    <td rowspan="1" colspan="1">16</td>\n                    <td rowspan="1" colspan="1">17</td>\n                    <td rowspan="1" colspan="1">18</td>\n                  </tr>\n                  <tr>\n                    <td rowspan="1" colspan="1">19</td>\n                    <td rowspan="1" colspan="1">20</td>\n                    <td rowspan="1" colspan="1">21</td>\n                    <td rowspan="1" colspan="1">22</td>\n                    <td rowspan="1" colspan="1">23</td>\n                    <td rowspan="1" colspan="1">24</td>\n                    <td rowspan="1" colspan="1">25</td>\n                  </tr>\n                  <tr>\n                    <td rowspan="1" colspan="1">26</td>\n                    <td rowspan="1" colspan="1">27</td>\n                    <td rowspan="1" colspan="1">\n                      <a title="Jai Ho \xe2\x80\x93 Why Gulzar is nominated for the\xc2\xa0Oscars" href="http://anannyad.wordpress.com/2009/01/28/" shape="rect">28</a>\n                    </td>\n                    <td rowspan="1" colspan="1">29</td>\n                    <td rowspan="1" colspan="1">30</td>\n                    <td rowspan="1" colspan="1">31</td>\n                    <td class="pad" rowspan="1" colspan="1">\xc2\xa0</td>\n                  </tr>\n                </tbody>\n              </table>\n            </div>\n          </div>\n          <div id="text-2" class="widget widget_text">\n            <div class="textwidget">\n              <div style="height:180px;padding-top:20px;" id="networkedblogs_container">\n                <div id="networkedblogs_above"></div>\n                <div style="width:120px;font-family:\'lucida grande\',tahoma,Verdana,Arial,Sans-Serif;font-size:11px;font-weight:normal;text-decoration:none;background:#3B5998 none repeat scroll 0 0;border:none;line-height:13px;margin:0 auto;padding:0 0 3px;" id="networkedblogs_widget">\n                  <div style="text-align:left;padding:1px 1px 2px 3px;" id="networkedblogs_header">\n                    <a href="http://www.facebook.com/apps/application.php?id=9953271133" shape="rect">NetworkedBlogs</a>\n                  </div>\n                  <div style="background-color:#FFFFFF;color:#444444;border-left:1px solid #D8DFEA;border-right:1px solid #D8DFEA;text-align:left;padding:4px;" id="networkedblogs_body">\n                    <table cellspacing="0" cellpadding="0">\n                      <tr>\n                        <td rowspan="1" colspan="1">\n                          <span style="color:#777777;">Blog:</span>\n                        </td>\n                      </tr>\n                      <tr>\n                        <td rowspan="1" colspan="1">\n                          <a href="http://networkedblogs.com/blog/the_ad_zone/" target="_blank" shape="rect">The AD Zone</a>\n                        </td>\n                      </tr>\n                      <tr>\n                        <td rowspan="1" colspan="1">\n                          <div style="color:#777777;padding:5px 0 0;">Topics:</div>\n                        </td>\n                      </tr>\n                      <tr>\n                        <td rowspan="1" colspan="1">\n                          <a href="http://networkedblogs.com/topic/cricket" target="_blank" shape="rect">cricket</a>\n                          ,\n                          <a href="http://networkedblogs.com/topic/general" target="_blank" shape="rect">general</a>\n                          ,\n                          <a href="http://networkedblogs.com/topic/India" target="_blank" shape="rect">India</a>\n                        </td>\n                      </tr>\n                      <tr>\n                        <td rowspan="1" colspan="1">\n                          <div id="networkedblogs_badges">\xc2\xa0</div>\n                        </td>\n                      </tr>\n                      <tr>\n                        <td rowspan="1" colspan="1">\n                          <div style="text-align:center;padding:0;">\n                            <a href="http://networkedblogs.com/blog/the_ad_zone/?ahash=96fcc6797a427222e0aebe990805fcd6" target="_blank" shape="rect">Follow my blog</a>\n                          </div>\n                        </td>\n                      </tr>\n                    </table>\n                  </div>\n                </div>\n                <div id="networkedblogs_below" class="networkedblogs_below"></div>\n              </div>\n            </div>\n          </div>\n        </div>\n      </div>\n      <div id="footer">\n        <div class="footerleft">\n          <p>\n            <a rel="generator" href="http://wordpress.com/?ref=footer" shape="rect">Blog at WordPress.com</a>\n            .\n          </p>\n        </div>\n        <div class="footerright">\n          Theme:\n          <a title="Learn more about this theme" href="http://theme.wordpress.com/themes/enterprise/" shape="rect">Enterprise</a>\n          by\n          <a rel="designer" href="http://www.studiopress.com/" shape="rect">StudioPress</a>\n          .\n        </div>\n      </div>\n    </div>\n    <script type="text/javascript">\n      var _qevents = _qevents || [], wpcomQuantcastData = {&quot;qacct&quot;:&quot;p-18-mFEk4J448M&quot;,&quot;labels&quot;:&quot;,language.en,type.wpcom&quot;};\nfunction wpcomQuantcastPixel( labels, options ) {\n\tvar i, defaults = wpcomQuantcastData, data = { event: \'ajax\' };\n\n\tlabels  = labels  || \'\';\n\toptions = options || {};\n\n\tif ( typeof labels != \'string\' )\n\t\toptions = labels;\n\n\tfor ( i in defaults ) {\n\t\tdata[i] = defaults[i];\n\t}\n\n\tfor ( i in options ) {\n\t\tdata[i] = options[i];\n\t}\n\n\tif ( data.labels ) {\n\t\tdata.labels += \',\' + labels;\n\t} else {\n\t\tdata.labels = labels;\n\t}\n\n\t_qevents.push( data );\n};\n(function() {var elem = document.createElement(\'script\');elem.src = (document.location.protocol == &quot;https:&quot; ? &quot;https://secure&quot; : &quot;http://edge&quot;) + &quot;.quantserve.com/quant.js&quot;;elem.async = true;elem.type = &quot;text/javascript&quot;;var scpt = document.getElementsByTagName(\'script\')[0];scpt.parentNode.insertBefore(elem, scpt);  })();\n_qevents.push( wpcomQuantcastData );\n    </script>\n    <noscript>\n      <div style="display: none;">\n        <img alt="" width="1" height="1" src="//pixel.quantserve.com/pixel/p-18-mFEk4J448M.gif?labels=%2Clanguage.en%2Ctype.wpcom"></img>\n      </div>\n    </noscript>\n    <script type="text/javascript">\n      /* &lt;![CDATA[ */\n\t(function($){\n\t\t$(document).on( \'ready post-load\', function() {\n\n\t\t\t// Remove the login box when clicking the page\n\t\t\t$( document ).mousedown( function( e ) {\n\t\t\t\tif ( null == $( e.target ).closest( \'#wpl-mustlogin\' ).get( 0 ) ) {\n\t\t\t\t\t$( \'#wpl-mustlogin\' ).remove();\n\t\t\t\t}\n\t\t\t});\n\n\t\t\t// Handle clicking the like button itself\n\t\t\t$(\'.wpl-button &gt; a.like\').click( function(e) {\n\t\t\t\te.preventDefault();\n\n\t\t\t\tvar postid = $(this).parent().attr(\'id\').split(\'like-\')[1];\n\t\t\t\t$.post( \'http://anannyad.wordpress.com/wp-admin/admin-ajax.php\', {\n\t\t\t\t\t\'action\': \'wpl_record_stat\',\n\t\t\t\t\t\'stat_name\': \'loggedout_like_click\'\n\t\t\t\t} );\n\n\t\t\t\tvar tenMins = new Date();\n\t\t\t\ttenMins.setTime( tenMins.getTime() + 600000 );\n\t\t\t\tdocument.cookie = \'wpl_rand=ccd7b724d3; expires=\' + tenMins.toGMTString() + \'; domain=wordpress.com; path=/;\';\n\n\t\t\t\t$(this).parent().siblings(\'.wpl-count\').after( \'\\\n\t\t\t\t\t&lt;div id=&quot;wpl-mustlogin&quot;&gt; \\\n\t\t\t\t\t\t&lt;form action=&quot;https://anannyad.wordpress.com/wp-login.php&quot; method=&quot;post&quot;&gt; \\\n\t\t\t\t\t\t\t&lt;p&gt;Just one more step to like this:&lt;/p&gt; \\\n\t\t\t\t\t\t\t&lt;label&gt;&lt;span&gt;Username&lt;/span&gt; &lt;input type=&quot;text&quot; name=&quot;log&quot; id=&quot;user_login&quot; class=&quot;input&quot; value=&quot;&quot; size=&quot;20&quot; tabindex=&quot;80&quot; /&gt;&lt;/label&gt; \\\n\t\t\t\t\t\t\t&lt;label&gt;&lt;span&gt;Password&lt;/span&gt; &lt;input type=&quot;password&quot; name=&quot;pwd&quot; id=&quot;user_pass&quot; class=&quot;input&quot; value=&quot;&quot; size=&quot;20&quot; tabindex=&quot;81&quot; /&gt;&lt;/label&gt; \\\n\t\t\t\t\t\t\t&lt;input type=&quot;submit&quot; name=&quot;wp-submit&quot; id=&quot;wp-submit&quot; class=&quot;button-primary&quot; value=&quot;Log In&quot; tabindex=&quot;82&quot; /&gt; \\\n\t\t\t\t\t\t\t&lt;input type=&quot;hidden&quot; name=&quot;postid&quot; value=&quot;\' + postid + \'&quot; /&gt; \\\n\t\t\t\t\t\t\t&lt;input type=&quot;hidden&quot; name=&quot;redirect_to&quot; value=&quot;http://anannyad.wordpress.com/2009/01?year=2009&amp;#038;monthnum=01&amp;#038;like=1&quot; /&gt; \\\n\t\t\t\t\t\t\t&lt;input type=&quot;hidden&quot; name=&quot;wpl_rand&quot; value=&quot;ccd7b724d3&quot; /&gt; \\\n\t\t\t\t\t\t\t&lt;p&gt;Not a member yet? &lt;a href=&quot;http://wordpress.com/signup/?ref=likebox&quot; id=&quot;wpl-signup-link&quot;&gt;Sign up with WordPress.com&lt;/a&gt;&lt;/p&gt; \\\n\t\t\t\t\t\t&lt;/form&gt; \\\n\t\t\t\t\t&lt;/div&gt; \\\n\t\t\t\t\');\n\n\t\t\t\t$(\'#wpl-mustlogin\').hide().slideDown(\'fast\');\n\t\t\t} );\n\n\t\t\t$(\'#wpl-mustlogin input.input\').live( \'focus\', function() {\n\t\t\t\t$(this).prev().hide();\n\t\t\t}).live( \'blur\', function() {\n\t\t\t\tif ( $(this).val() == \'\' ) {\n\t\t\t\t\t$(this).prev().show();\n\t\t\t\t}\n\t\t\t});\n\n\t\t\t$(\'#wpl-mustlogin input#wp-submit\').live( \'click\', function(e) {\n\t\t\t\te.preventDefault();\n\n\t\t\t\t$.post( \'http://anannyad.wordpress.com/wp-admin/admin-ajax.php\', {\n\t\t\t\t\t\'action\': \'wpl_record_stat\',\n\t\t\t\t\t\'stat_name\': \'loggedout_login_submit\'\n\t\t\t\t}, function() {\n\t\t\t\t\t$(\'#wpl-mustlogin form\').submit();\n\t\t\t\t} );\n\t\t\t});\n\n\t\t\t$(\'#wpl-mustlogin a#wpl-signup-link\').live( \'click\', function(e) {\n\t\t\t\te.preventDefault();\n\n\t\t\t\tvar link = $(this).attr(\'href\');\n\n\t\t\t\t$.post( \'http://anannyad.wordpress.com/wp-admin/admin-ajax.php\', {\n\t\t\t\t\t\'action\': \'wpl_record_stat\',\n\t\t\t\t\t\'stat_name\': \'loggedout_signup_click\'\n\t\t\t\t}, function() {\n\t\t\t\t\tlocation.href = link;\n\t\t\t\t} );\n\t\t\t});\n\t\t})\n\t})(jQuery);\n\t/* ]]&gt; */\n    </script>\n    <script src="http://s.gravatar.com/js/gprofiles.js?ver=201240ab" type="text/javascript"></script>\n    <script type="text/javascript"> /* &lt;![CDATA[ */ var WPGroHo = {&quot;my_hash&quot;:&quot;&quot;}; /* ]]&gt; */ </script>\n    <script src="http://s1.wp.com/wp-content/mu-plugins/gravatar-hovercards/wpgroho.js?m=1318621548g" type="text/javascript"></script>\n    <script>jQuery(document).ready(function($){ Gravatar.profile_cb = function( h, d ) { WPGroHo.syncProfileData( h, d ); }; Gravatar.my_hash = WPGroHo.my_hash; Gravatar.init( \'body\', \'#wp-admin-bar-my-account\' ); });</script>\n    <div style="display:none"> </div>\n    <div id="bit" class="loggedout-follow-normal">\n      <a href="javascript:void(0)" class="bsub" shape="rect">\n        <span id="bsub-text">Follow</span>\n      </a>\n      <div id="bitsubscribe">\n        <h3>\n          <label for="loggedout-follow-field">Follow \xe2\x80\x9cThe AD Zone\xe2\x80\x9d</label>\n        </h3>\n        <form accept-charset="utf-8" action="https://subscribe.wordpress.com" id="loggedout-follow" method="post" enctype="application/x-www-form-urlencoded">\n          <p>Get every new post delivered to your Inbox.</p>\n          <p style="display: none;" id="loggedout-follow-error"></p>\n          <p>\n            <input \n            onblur="this.value=(this.value==&quot;&quot;) ? &quot;Enter email address&quot; : this.value;" onfocus="this.value=(this.value==&quot;Enter your email address&quot;) ? &quot;&quot; : this.value;" value="Enter your email address" style="width: 95%; padding: 1px 2px" name="email" id="loggedout-follow-field" type="email">\n</input>\n          </p>\n          <input value="subscribe" name="action" type="hidden"></input>\n          <input value="4104510" name="blog_id" type="hidden"></input>\n          <input value="http://anannyad.wordpress.com/2009/01/" name="source" type="hidden"></input>\n          <input value="loggedout-follow" name="sub-type" type="hidden"></input>\n          <input value="773a64715a" name="_wpnonce" id="_wpnonce" type="hidden"></input>\n          <input value="/2009/01/" name="_wp_http_referer" type="hidden"></input>\n          <p id="bsub-subscribe-button">\n            <input value="Sign me up" type="submit"></input>\n          </p>\n        </form>\n        <div id="bsub-credit">\n          <a href="http://wordpress.com/signup/?ref=lof" shape="rect">Powered by WordPress.com</a>\n        </div>\n      </div>\n    </div>\n    <script src="http://s.skimresources.com/js/wordpress.js" type="text/javascript"></script>\n    <script type="text/javascript"> var skimlinks_pub_id = &quot;725X584219&quot; var skimlinks_sitename = \'anannyad.wordpress.com\'; skimlinks(); </script>\n    <script type="text/javascript">\n      WPCOM_sharing_counts = {&quot;http:\\/\\/anannyad.wordpress.com\\/2009\\/01\\/28\\/jai-ho\\/&quot;:382,&quot;http:\\/\\/anannyad.wordpress.com\\/2009\\/01\\/15\\/electoral-malpractices-2008-weblog-awards\\/&quot;:380,&quot;http:\\/\\/anannyad.wordpress.com\\/2009\\/01\\/15\\/angel-investing\\/&quot;:378,&quot;http:\\/\\/anannyad.wordpress.com\\/2009\\/01\\/15\\/microblogging-140-characters-be-damned\\/&quot;:376,&quot;http:\\/\\/anannyad.wordpress.com\\/2009\\/01\\/12\\/james-bond-speaks-english\\/&quot;:372,&quot;http:\\/\\/anannyad.wordpress.com\\/2009\\/01\\/12\\/why-is-kumble-smiling-in-dadar\\/&quot;:370,&quot;http:\\/\\/anannyad.wordpress.com\\/2009\\/01\\/09\\/the-ashes-2009-the-first-words\\/&quot;:362,&quot;http:\\/\\/anannyad.wordpress.com\\/2009\\/01\\/07\\/australia-the-movie-and-some-history\\/&quot;:360,&quot;http:\\/\\/anannyad.wordpress.com\\/2009\\/01\\/06\\/revolutionary-road-review-of-a-review-of-a-trailer\\/&quot;:356,&quot;http:\\/\\/anannyad.wordpress.com\\/2009\\/01\\/05\\/the-art-of-elephanta\\/&quot;:352}\n    </script>\n    <script src="http://s0.wp.com/wp-content/mu-plugins/post-flair/sharing/sharing.js?m=1345189394g" type="text/javascript"></script>\n    <script charset="utf-8" type="text/javascript"> jQuery(document).ready(function(){ jQuery( \'.share-twitter\' ).click(function(){ window.open( jQuery(this).attr( \'href\' ), \'wpcomtwitter\', \'menubar=1,resizable=1,width=600,height=350\' ); return false; }); }); </script>\n    <script charset="utf-8" type="text/javascript"> jQuery(document).ready(function(){ jQuery( \'.share-facebook\' ).click(function(){ window.open( jQuery(this).attr( \'href\' ), \'wpcomfacebook\', \'menubar=1,resizable=1,width=600,height=400\' ); return false; }); }); </script>\n    <div style="display: none;" id="sharing_email">\n      <form action="" method="post" enctype="application/x-www-form-urlencoded">\n        <label for="target_email">Send to Email Address</label>\n        <input value="" name="target_email" id="target_email" type="text"></input>\n        <label for="source_name">Your Name</label>\n        <input value="" name="source_name" id="source_name" type="text"></input>\n        <label for="source_email">Your Email Address</label>\n        <input value="" name="source_email" id="source_email" type="text"></input>\n        <div id="sharing_recaptcha" class="recaptcha"></div>\n        <input value="6LcYW8MSAAAAADBAuEH9yaPcF7lWh11Iq62ZKtoo" name="recaptcha_public_key" id="recaptcha_public_key" type="hidden"></input>\n        <img height="16" width="16" alt="loading" src="http://s2.wp.com/wp-content/mu-plugins/post-flair/sharing/images/loading.gif?m=1315610318g" style="float: right; display: none" class="loading"></img>\n        <input value="Send Email" class="sharing_send" type="submit"></input>\n        <a href="#cancel" class="sharing_cancel" shape="rect">Cancel</a>\n        <div style="display: none;" class="errors errors-1"> Post was not sent - check your email addresses! </div>\n        <div style="display: none;" class="errors errors-2"> Email check failed, please try again </div>\n        <div style="display: none;" class="errors errors-3"> Sorry, your blog cannot share posts by email. </div>\n      </form>\n    </div>\n    <script src="http://b.scorecardresearch.com/beacon.js" type="text/javascript"></script>\n    <script type="text/javascript">try{COMSCORE.beacon({c1:2,c2:7518284});}catch(e){}</script>\n    <noscript>\n      <p class="robots-nocontent">\n        <img height="1" width="1" style="display:none" alt="" src="http://b.scorecardresearch.com/p?cj=1c1=2&amp;c2=7518284"></img>\n      </p>\n    </noscript>\n    <script src="http://s1.wp.com/wp-content/js/devicepx.js?m=1349105731g" type="text/javascript"></script>\n    <script type="text/javascript">\n      // &lt;![CDATA[\n(function() {\ntry{\n  if ( window.external &amp;&amp;\'msIsSiteMode\' in window.external) {\n    if (window.external.msIsSiteMode()) {\n      var jl = document.createElement(\'script\');\n      jl.type=\'text/javascript\';\n      jl.async=true;\n      jl.src=\'/wp-content/plugins/ie-sitemode/custom-jumplist.php\';\n      var s = document.getElementsByTagName(\'script\')[0];\n      s.parentNode.insertBefore(jl, s);\n    }\n  }\n}catch(e){}\n})();\n// ]]&gt;\n    </script>\n    <script type="text/javascript" src="http://s.stats.wordpress.com/w.js?21"></script>\n    <script type="text/javascript">\n      st_go({\'blog\':\'4104510\',\'v\':\'wpcom\',\'user_id\':\'0\',\'subd\':\'anannyad\'});\nex_go({\'crypt\':\'UE40eW5QN0p8M2Y/RE1LVmwrVi5vQS5fVFtfdHBbPyw1VXIrU3hWLHhzVndTdktBX0ddJnpXRjVaOTd6fj1YMX4ydzR6MmRGQV0tJmwxeTZPSWdXbX5VeUlNVGFhM3BJOHlXaz9ZQ0FsP3BtPUpqPVNlQm5hai5kT0NmUFtbVis/eix3ZFJdc3YtNVtiYXR8RnVoNGJKUXZXemNuM3Z1L0pmLGdzTVZCPSxjZ2d0dlFxNSVpXWxrJnd8dU5pdk5fQyZ0WXQyV2NuSVA0SWFRaWtsTXxFWC85MC5hLXIrazRyLltyS25mcjd2eDBSZnZ6czR4UFFTUTFSeHNLd351ekUleFU5ZF1MJlkuSHlSRHZRLmhBOS8yclc=\'});\naddLoadEvent(function(){linktracker_init(\'4104510\',0);});\n    </script>\n    <noscript>\n      <img alt="" style="height:0px;width:0px;overflow:hidden" src="http://stats.wordpress.com/b.gif?v=noscript"></img>\n    </noscript>\n  </body>\n</html>'
p11
sbsS'mentions'
p12
(lp13
(iedu.umass.cs.iesl.wikilink.expanded.data.ttypes
Mention
p14
(dp15
S'anchor_text'
p16
S'The Japanese Raids on Darwin during the Second World War'
p17
sS'context'
p18
(iedu.umass.cs.iesl.wikilink.expanded.data.ttypes
Context
p19
(dp20
S'middle'
p21
S'The Japanese Raids on Darwin during the Second World War'
p22
sS'right'
p23
S'. The Stolen Generation The Stolen Generation has been a cause of much repentence amongst most Australians over the last many years. Between 1869 and'
p24
sS'left'
p25
S'Walker and a couple of neat scenes.\xc3\x82\xc2\xa0 As a history buff, there were two points of interest in this film \xe2\x80\x93 The Stolen Generation and'
p26
sbsS'freebase_id'
p27
S'9202a8c04000641f80000000004af6bc'
p28
sS'raw_text_offset'
p29
I49999
sS'wiki_url'
p30
S'http://en.wikipedia.org/wiki/Bombing_of_Darwin_(February_1942)'
p31
sba(iedu.umass.cs.iesl.wikilink.expanded.data.ttypes
Mention
p32
(dp33
g16
S'Elephanta'
p34
sg18
(iedu.umass.cs.iesl.wikilink.expanded.data.ttypes
Context
p35
(dp36
g21
S'Elephanta'
p37
sg23
S'. It houses a set of Shaivist caves \xe2\x80\x93 i.e. dedicated to Shiva, probably carved around 7th Century AD.\xc3\x82\xc2\xa0 \xc3\x82\xc2\xa0\xc3\x82\xc2\xa0 \xc3\x82\xc2\xa0 This is the Sadashiva'
p38
sg25
S'January 5, 2009 Leave a comment The Gharapuri Island , about 11 kms North East of Apollo Bunder (The Gateway of India) is popularly called'
p39
sbsg27
S'9202a8c04000641f8000000000205d45'
p40
sg29
I64186
sg30
S'http://en.wikipedia.org/wiki/Elephanta_Caves'
p41
sba(iedu.umass.cs.iesl.wikilink.expanded.data.ttypes
Mention
p42
(dp43
g16
S'Jogeshwari'
p44
sg18
(iedu.umass.cs.iesl.wikilink.expanded.data.ttypes
Context
p45
(dp46
g21
S'Jogeshwari'
p47
sg23
S', Kanheri (inside Borivili National Park), Mahakali (Junction of SEEPZ and the Jogeshwari-Vikhroli Link Road) and Mandapeshwar. While Elephanta is a set of temples dedicated'
p48
sg25
S'selling all kinds of stones, palkhis, guides, cleaners, even a monkey watcher. Cave art in India is aplenty. In Mumbai itself, besides Elephanta, we have'
p49
sbsg27
S'9202a8c04000641f80000000007a8ad6'
p50
sg29
I66808
sg30
S'http://en.wikipedia.org/wiki/Jogeshwari_Caves'
p51
sba(iedu.umass.cs.iesl.wikilink.expanded.data.ttypes
Mention
p52
(dp53
g16
S'Kanheri'
p54
sg18
(iedu.umass.cs.iesl.wikilink.expanded.data.ttypes
Context
p55
(dp56
g21
S'Kanheri'
p57
sg23
S'(inside Borivili National Park), Mahakali (Junction of SEEPZ and the Jogeshwari-Vikhroli Link Road) and Mandapeshwar. While Elephanta is a set of temples dedicated to Shiva,'
p58
sg25
S'kinds of stones, palkhis, guides, cleaners, even a monkey watcher. Cave art in India is aplenty. In Mumbai itself, besides Elephanta, we have Jogeshwari ,'
p59
sbsg27
S'9202a8c04000641f800000000036ccd4'
p60
sg29
I66877
sg30
S'http://en.wikipedia.org/wiki/Kanheri_Caves'
p61
sba(iedu.umass.cs.iesl.wikilink.expanded.data.ttypes
Mention
p62
(dp63
g16
S'Mahakali'
p64
sg18
(iedu.umass.cs.iesl.wikilink.expanded.data.ttypes
Context
p65
(dp66
g21
S'Mahakali'
p67
sg23
S'(Junction of SEEPZ and the Jogeshwari-Vikhroli Link Road) and Mandapeshwar. While Elephanta is a set of temples dedicated to Shiva, Kanheri and Mahakali are of'
p68
sg25
S'cleaners, even a monkey watcher. Cave art in India is aplenty. In Mumbai itself, besides Elephanta, we have Jogeshwari , Kanheri (inside Borivili National Park),'
p69
sbsg27
S'9202a8c04000641f80000000007a8b9f'
p70
sg29
I66976
sg30
S'http://en.wikipedia.org/wiki/Mahakali_Caves'
p71
sbasS'doc_id'
p72
I23912
sS'rare_words'
p73
(lp74
(iedu.umass.cs.iesl.wikilink.expanded.data.ttypes
RareWord
p75
(dp76
S'word'
p77
S'track'
p78
sS'offset'
p79
I44424
sba(iedu.umass.cs.iesl.wikilink.expanded.data.ttypes
RareWord
p80
(dp81
g77
S'Apollo'
p82
sg79
I64074
sba(iedu.umass.cs.iesl.wikilink.expanded.data.ttypes
RareWord
p83
(dp84
g77
S'raids'
p85
sg79
I52201
sba(iedu.umass.cs.iesl.wikilink.expanded.data.ttypes
RareWord
p86
(dp87
g77
S'hour'
p88
sg79
I16326
sba(iedu.umass.cs.iesl.wikilink.expanded.data.ttypes
RareWord
p89
(dp90
g77
S'twitter'
p91
sg79
I28976
sba(iedu.umass.cs.iesl.wikilink.expanded.data.ttypes
RareWord
p92
(dp93
g77
S'happy'
p94
sg79
I66398
sba(iedu.umass.cs.iesl.wikilink.expanded.data.ttypes
RareWord
p95
(dp96
g77
S'romance'
p97
sg79
I10993
sba(iedu.umass.cs.iesl.wikilink.expanded.data.ttypes
RareWord
p98
(dp99
g77
S'university'
p100
sg79
I38969
sba(iedu.umass.cs.iesl.wikilink.expanded.data.ttypes
RareWord
p101
(dp102
g77
S'master'
p103
sg79
I11056
sba(iedu.umass.cs.iesl.wikilink.expanded.data.ttypes
RareWord
p104
(dp105
g77
S'Urdu'
p106
sg79
I11110
sbasb.