(iedu.umass.cs.iesl.wikilink.expanded.data.ttypes
WikiLinkItem
p0
(dp1
S'url'
p2
S'http://7th-taste.com/2012/08/16/vanilla-brownie-ice-cream-drizzled-with-lavender-olive-oil/'
p3
sS'content'
p4
(iedu.umass.cs.iesl.wikilink.expanded.data.ttypes
PageContentItem
p5
(dp6
S'articleText'
p7
NsS'raw'
p8
NsS'fullText'
p9
NsS'dom'
p10
S'<html lang="en-US" dir="ltr">\n  <head>\n    <meta charset="UTF-8"></meta>\n    <title>Vanilla Brownie Ice Cream Drizzled with Lavender Olive Oil | 7th taste</title>\n    <link href="http://gmpg.org/xfn/11" rel="profile"></link>\n    <link href="http://7th-taste.com/wp-content/themes/sliding-door/style.css" media="all" type="text/css" rel="stylesheet"></link>\n    <link href="http://7th-taste.com/xmlrpc.php" rel="pingback"></link>\n    <link href="http://7th-taste.com/feed/" title="7th taste \xc2\xbb Feed" type="application/rss+xml" rel="alternate"></link>\n    <link href="http://7th-taste.com/comments/feed/" title="7th taste \xc2\xbb Comments Feed" type="application/rss+xml" rel="alternate"></link>\n    <script type="text/javascript">\n      //&lt;![CDATA[\n\t\t\t// Google Analytics for WordPress by Yoast v4.2.7 | http://yoast.com/wordpress/google-analytics/\n\t\t\tvar _gaq = _gaq || [];\n\t\t\t_gaq.push([\'_setAccount\', \'UA-23365288-1\']);\n\t\t\t\t\t\t\t_gaq.push([\'_trackPageview\']);\n\t\t\t(function () {\n\t\t\t\tvar ga = document.createElement(\'script\');\n\t\t\t\tga.type = \'text/javascript\';\n\t\t\t\tga.async = true;\n\t\t\t\tga.src = (\'https:\' == document.location.protocol ? \'https://ssl\' : \'http://www\') + \'.google-analytics.com/ga.js\';\n\t\t\t\tvar s = document.getElementsByTagName(\'script\')[0];\n\t\t\t\ts.parentNode.insertBefore(ga, s);\n\t\t\t})();\n\t\t\t//]]&gt;\n    </script>\n    <link href="http://7th-taste.com/2012/08/16/vanilla-brownie-ice-cream-drizzled-with-lavender-olive-oil/feed/" title="7th taste \xc2\xbb Vanilla Brownie Ice Cream Drizzled with Lavender Olive Oil Comments Feed" type="application/rss+xml" rel="alternate"></link>\n    <link media="all" type="text/css" href="http://7th-taste.com/wp-content/plugins/contact-form-7/includes/css/styles.css?ver=3.3" rel="stylesheet" id="contact-form-7-css"></link>\n    <script src="http://7th-taste.com/wp-includes/js/comment-reply.js?ver=3.4.2" type="text/javascript"></script>\n    <script src="http://7th-taste.com/wp-includes/js/jquery/jquery.js?ver=1.7.2" type="text/javascript"></script>\n    <link href="http://7th-taste.com/xmlrpc.php?rsd" title="RSD" type="application/rsd+xml" rel="EditURI"></link>\n    <link href="http://7th-taste.com/wp-includes/wlwmanifest.xml" type="application/wlwmanifest+xml" rel="wlwmanifest"></link>\n    <link href="http://7th-taste.com/2012/08/09/curried-bruschetta-with-goat-cheese-heirloom-tomatoes/" title="Curried Bruschetta with Goat Cheese &amp; Heirloom Tomatoes" rel="prev"></link>\n    <link href="http://7th-taste.com/2012/09/04/floss-pacific-nw-cuisine-pan-fried-wild-caught-salmon/" title="FLOSS Pacific NW Cuisine: Pan-Fried Wild-Caught Salmon" rel="next"></link>\n    <meta content="WordPress 3.4.2" name="generator"></meta>\n    <link href="http://wp.me/p1j5I3-xV" rel="shortlink"></link>\n    <meta content="business,california,cooking,flavor,ice cream,lavender,olive oil,wine tasting descriptors" name="keywords"></meta>\n    <link href="http://7th-taste.com/2012/08/16/vanilla-brownie-ice-cream-drizzled-with-lavender-olive-oil/" rel="canonical"></link>\n    <link href="http://7th-taste.com/wp-content/plugins/subscription-options/suboptions.css" type="text/css" rel="stylesheet"></link>\n    <style type="text/css" id="custom-background-css"> body.custom-background { background-color: #fdf3d5; background-image: url(\'http://216.172.188.235/~dsyl23/wp-content/uploads/2011/09/back.png\'); background-repeat: repeat; background-position: top left; background-attachment: scroll; } </style>\n    <link href="http://7th-taste.com/wp-content/themes/sliding-door/imagemenu/imageMenu.css" media="screen" type="text/css" rel="stylesheet"></link>\n    <script src="http://7th-taste.com/wp-content/themes/sliding-door/imagemenu/mootools.js" type="text/javascript"></script>\n    <script src="http://7th-taste.com/wp-content/themes/sliding-door/imagemenu/imageMenu.js" type="text/javascript"></script>\n  </head>\n  <body class="single single-post postid-2103 single-format-standard custom-background">\n    <div id="wrapper" class="hfeed">\n      <div id="header">\n        <div id="masthead">\n          <div role="banner" id="branding">\n            <div id="site-title">\n              <span> </span>\n              <div style="float:left; margin-top:90px; margin-left:0px;">\n                <a style="text-decoration:none;" rel="home" title="7th taste" href="http://7th-taste.com/" shape="rect">\n                  <img src="http://7th-taste.com/wp-content/uploads/2012/01/7th-taste-logo.png" style="border:none;"></img>\n                </a>\n                <div style="margin-left:0px; font-size:12px; color:#804129;">Simple. Real. Extraordinary.</div>\n              </div>\n              <div style="float:right; margin-top:10px; margin-right:20px;">\n                <a data-show-screen-name="false" data-size="large" data-show-count="false" href="https://twitter.com/7th_taste" class="twitter-follow-button" shape="rect">Follow @7th_taste</a>\n                <script>!function(d,s,id){var js,fjs=d.getElementsByTagName(s)[0];if(!d.getElementById(id)){js=d.createElement(s);js.id=id;js.src=&quot;//platform.twitter.com/widgets.js&quot;;fjs.parentNode.insertBefore(js,fjs);}}(document,&quot;script&quot;,&quot;twitter-wjs&quot;);</script>\n              </div>\n              <div style="float:left; margin-left:90px; margin-top:20px;">\n                <img src="http://216.172.188.235/~dsyl23/wp-content/uploads/2011/09/tagline.png" style="border:none;"></img>\n              </div>\n            </div>\n            <div id="imageMenu">\n              <ul id="menu-slider" class="">\n                <li id="menu-item-1425" class="bk0">\n                  <a style="background: url(\'http://7th-taste.com/wp-content/uploads/2011/09/EastAfricanharbor1.jpg\') repeat scroll 0%;" href="http://7th-taste.com/sharing/" shape="rect">Store</a>\n                </li>\n                <li id="menu-item-1426" class="bk1">\n                  <a style="background: url(\'http://7th-taste.com/wp-content/uploads/2011/01/MarseilleMarket.jpg\') repeat scroll 0%;" href="http://7th-taste.com/world-cuisine-recipes/" shape="rect">World Cuisine Recipes</a>\n                </li>\n                <li id="menu-item-1427" class="bk2">\n                  <a style="background: url(\'http://7th-taste.com/wp-content/uploads/2010/11/Islamicmancarryingfoods.jpg\') repeat scroll 0%;" href="http://7th-taste.com/food-wine-pairing/" shape="rect">Food &amp; Wine Pairing</a>\n                </li>\n                <li id="menu-item-1428" class="bk3">\n                  <a style="background: url(\'http://7th-taste.com/wp-content/uploads/2010/11/Kenyanvillagecooking.jpg\') repeat scroll 0%;" href="http://7th-taste.com/resources-for-gourmet-cooking/" shape="rect">Olive Oil Recipes</a>\n                </li>\n                <li id="menu-item-1429" class="bk4">\n                  <a style="background: url(\'http://7th-taste.com/wp-content/uploads/2010/10/thai-market2.jpg\') repeat scroll 0%;" href="http://7th-taste.com/about-diane-lee/" shape="rect">About</a>\n                </li>\n              </ul>\n            </div>\n            <script type="text/javascript"> window.addEvent(\'domready\', function(){ var myMenu = new ImageMenu($$(\'#imageMenu a\'),{openWidth:260, border:2, onOpen:function(e,i){location=(e);}}); }); </script>\n            <div id="site-description"></div>\n          </div>\n          <div style="border-bottom: 1px solid #301f17; border-top: 1px solid #301f17; width:930px;" role="navigation" id="access">\n            <div class="skip-link screen-reader-text">\n              <a title="Skip to content" href="#content" shape="rect">Skip to content</a>\n            </div>\n            <div class="menu-header">\n              <ul id="menu-home" class="menu">\n                <li id="menu-item-1440" class="menu-item menu-item-type-custom menu-item-object-custom menu-item-home menu-item-1440">\n                  <a href="http://7th-taste.com" shape="rect">Home</a>\n                </li>\n                <li id="menu-item-1441" class="menu-item menu-item-type-post_type menu-item-object-page menu-item-1441">\n                  <a href="http://7th-taste.com/about-diane-lee/" shape="rect">About</a>\n                </li>\n                <li id="menu-item-1776" class="menu-item menu-item-type-custom menu-item-object-custom menu-item-1776">\n                  <a href="http://7th-taste.com/shop" shape="rect">Product</a>\n                </li>\n                <li id="menu-item-1453" class="menu-item menu-item-type-post_type menu-item-object-page menu-item-1453">\n                  <a href="http://7th-taste.com/resources-for-gourmet-cooking/" shape="rect">Olive Oil Recipes</a>\n                </li>\n                <li id="menu-item-1442" class="menu-item menu-item-type-post_type menu-item-object-page menu-item-1442">\n                  <a href="http://7th-taste.com/world-cuisine-recipes/" shape="rect">World Cuisine Recipes</a>\n                </li>\n                <li id="menu-item-1443" class="menu-item menu-item-type-post_type menu-item-object-page menu-item-1443">\n                  <a href="http://7th-taste.com/food-wine-pairing/" shape="rect">Wine Pairing</a>\n                </li>\n                <li id="menu-item-1605" class="menu-item menu-item-type-post_type menu-item-object-page menu-item-1605">\n                  <a href="http://7th-taste.com/contact/" shape="rect">Contact</a>\n                </li>\n              </ul>\n            </div>\n          </div>\n        </div>\n      </div>\n      <div id="main">\n        <div role="complementary" id="sidebar1" class="widget-area">\n          <ul class="xoxo">\n            <li id="text-7" class="widget-container widget_text">\n              <h3 class="widget-title">Welcome to 7th taste!</h3>\n              <div class="textwidget">\n                We\'re making small batches of infused California extra virgin olive oils with real spices, not using artificial flavorings or mimic extracts. It is really good! We are using them a lot in our kitchen and think you would love them, too. It\'s a simple way to enhance the flavors of your favorite recipes.  Enjoy!\n              </div>\n            </li>\n            <li id="text-9" class="widget-container widget_text">\n              <h3 class="widget-title">Shop Olive Oils</h3>\n              <div class="textwidget">\n                <a style="text-decoration:none;" rel="home" title="7th taste shop" href="http://7th-taste.com/shop" shape="rect">\n                  <img src="http://7th-taste.com/wp-content/uploads/2012/01/7th-taste-trio-gift-box01.png" style="border:none;"></img>\n                </a>\n                <div style="color:#b7003e; font-size:10pt; font-weight:bold;text-align:center; width:160px; padding-top:0px;">\n                  Free Shipping On\n                  <br clear="none"></br>\n                  Orders Over $50\n                </div>\n                <div style="text-align: center; padding-left:30px" class="AuthorizeNetSeal">\n                  <script language="javascript" type="text/javascript">var ANS_customer_id=&quot;e8367e4f-0240-4aec-a96a-4bb07bb1f1fd&quot;;</script>\n                  <script src="//verify.authorize.net/anetseal/seal.js" language="javascript" type="text/javascript"></script>\n                  <a target="_blank" href="http://www.authorize.net/" id="AuthorizeNetText" shape="rect">Online Payments</a>\n                </div>\n              </div>\n            </li>\n            <li id="archives-2" class="widget-container widget_archive">\n              <h3 class="widget-title">Archives</h3>\n              <select onchange="document.location.href=this.options[this.selectedIndex].value;" name="archive-dropdown">\n                <option value="">Select Month</option>\n                <option value="http://7th-taste.com/2012/09/"> September 2012 </option>\n                <option value="http://7th-taste.com/2012/08/"> August 2012 </option>\n                <option value="http://7th-taste.com/2012/07/"> July 2012 </option>\n                <option value="http://7th-taste.com/2012/06/"> June 2012 </option>\n                <option value="http://7th-taste.com/2012/05/"> May 2012 </option>\n                <option value="http://7th-taste.com/2012/04/"> April 2012 </option>\n                <option value="http://7th-taste.com/2012/03/"> March 2012 </option>\n                <option value="http://7th-taste.com/2012/02/"> February 2012 </option>\n                <option value="http://7th-taste.com/2012/01/"> January 2012 </option>\n                <option value="http://7th-taste.com/2011/12/"> December 2011 </option>\n                <option value="http://7th-taste.com/2011/11/"> November 2011 </option>\n                <option value="http://7th-taste.com/2011/10/"> October 2011 </option>\n                <option value="http://7th-taste.com/2011/09/"> September 2011 </option>\n                <option value="http://7th-taste.com/2011/08/"> August 2011 </option>\n                <option value="http://7th-taste.com/2011/07/"> July 2011 </option>\n                <option value="http://7th-taste.com/2011/06/"> June 2011 </option>\n                <option value="http://7th-taste.com/2011/05/"> May 2011 </option>\n                <option value="http://7th-taste.com/2011/04/"> April 2011 </option>\n                <option value="http://7th-taste.com/2011/03/"> March 2011 </option>\n                <option value="http://7th-taste.com/2011/02/"> February 2011 </option>\n                <option value="http://7th-taste.com/2011/01/"> January 2011 </option>\n                <option value="http://7th-taste.com/2010/12/"> December 2010 </option>\n                <option value="http://7th-taste.com/2010/11/"> November 2010 </option>\n                <option value="http://7th-taste.com/2010/10/"> October 2010 </option>\n              </select>\n            </li>\n            <li id="text-3" class="widget-container widget_text">\n              <div class="textwidget">Copyright \xc3\x82\xc2\xa9 2012 SA Artisan Foods Company, Inc. All rights reserved.</div>\n            </li>\n          </ul>\n        </div>\n        <div role="complementary" id="sidebar2" class="widget-area">\n          <ul class="xoxo">\n            <li id="text-4" class="widget-container widget_text">\n              <div class="textwidget">\n                <div class="addthis_toolbox addthis_default_style">\n                  <a href="http://www.addthis.com/bookmark.php?v=250&amp;username=dsyl23" class="addthis_button_compact" shape="rect">Share</a>\n                  <span class="addthis_separator">|</span>\n                  <a class="addthis_button_preferred_1" shape="rect"></a>\n                  <a class="addthis_button_preferred_2" shape="rect"></a>\n                  <a class="addthis_button_preferred_3" shape="rect"></a>\n                  <a class="addthis_button_preferred_4" shape="rect"></a>\n                </div>\n                <script type="text/javascript">var addthis_config = {&quot;data_track_clickback&quot;:true};</script>\n                <script src="http://s7.addthis.com/js/250/addthis_widget.js#username=dsyl23" type="text/javascript"></script>\n              </div>\n            </li>\n            <li id="s2_form_widget-4" class="widget-container s2_form_widget">\n              <h3 class="widget-title">Stay connected</h3>\n              <div class="search">\n                <form action="http://7th-taste.com/about-diane-lee/" method="post" enctype="application/x-www-form-urlencoded">\n                  <input value="128.119.246.79" name="ip" type="hidden"></input>\n                  <p>\n                    <label for="s2email">Your email:</label>\n                    <br clear="none"></br>\n                    <input onblur="if (this.value == \'\') {this.value = \'Enter email address...\';}" onfocus="if (this.value == \'Enter email address...\') {this.value = \'\';}" size="20" value="Enter email address..." name="email" id="s2email" type="text"></input>\n                  </p>\n                  <p>\n                    <input value="Subscribe" name="subscribe" type="submit"></input>\n                  </p>\n                </form>\n              </div>\n            </li>\n            <li id="search-3" class="widget-container widget_search">\n              <h3 class="widget-title">Search 7th taste</h3>\n              <form action="http://7th-taste.com/" role="search" id="searchform" method="get" enctype="application/x-www-form-urlencoded">\n                <div>\n                  <label class="screen-reader-text" for="s">Search for:</label>\n                  <input name="s" value="" id="s" type="text"></input>\n                  <input value="Search" id="searchsubmit" type="submit"></input>\n                </div>\n              </form>\n            </li>\n            <li id="text-6" class="widget-container widget_text">\n              <h3 class="widget-title">Top 5 Blog Posts</h3>\n              <div class="textwidget">\n                <ul>\n                  <li>\n                    <a href="http://7th-taste.com/2010/11/04/journey-to-corsica-chestnut-soup-rose-wine/" shape="rect">Journey to Corsica: Chestnut Soup &amp; Rose Wine (11/4/2010)</a>\n                  </li>\n                  <li>\n                    <a href="http://7th-taste.com/2010/11/12/swahilli-coconut-fish-curry-gewurztraminer/" shape="rect">Swahilli Coconut Fish Curry &amp; Gewurztraminer (11/12/2010)</a>\n                  </li>\n                  <li>\n                    <a href="http://7th-taste.com/2010/12/06/sicilian-meatballs-nero-davola-italian-red-wine/" shape="rect">Sicilian Meatballs &amp; Nero d\xc3\xa2\xe2\x82\xac\xe2\x84\xa2Avola (12/6/2010)</a>\n                  </li>\n                  <li>\n                    <a href="http://7th-taste.com/2011/01/04/korean-new-years-dumpling-soup-with-rice-cakes/" shape="rect">Korean New Year\'s Dumpling Soup with Rice Cakes (1/4/2011)</a>\n                  </li>\n                  <li>\n                    <a href="http://7th-taste.com/2011/05/18/zanzabar-style-fish-with-sauvignon-blanc//" shape="rect">Zanzibar-Style Fish with Sauvignon Blanc (5/18/2011)</a>\n                  </li>\n                </ul>\n              </div>\n            </li>\n            <li id="suboptions-widget-3" class="widget-container suboptions">\n              <h3 class="widget-title">Subscribe</h3>\n              <a href="http://7th-taste.com/feed/rss2/" title="Subscribe via RSS" target="_blank" shape="rect">\n                <img src="http://7th-taste.com/wp-content/plugins/subscription-options/images/rss_transparent.png" style="background: 9; width: 25px; height: 25px; " alt="Subscribe via RSS" class="suboptions-icon rounded-corners rss-icon"></img>\n              </a>\n            </li>\n            <li id="meta-3" class="widget-container widget_meta">\n              <h3 class="widget-title">Meta</h3>\n              <ul>\n                <li>\n                  <a href="http://7th-taste.com/wp-login.php" shape="rect">Log in</a>\n                </li>\n                <li>\n                  <a title="Syndicate this site using RSS 2.0" href="http://7th-taste.com/feed/" shape="rect">\n                    Entries\n                    <abbr title="Really Simple Syndication">RSS</abbr>\n                  </a>\n                </li>\n                <li>\n                  <a title="The latest comments to all posts in RSS" href="http://7th-taste.com/comments/feed/" shape="rect">\n                    Comments\n                    <abbr title="Really Simple Syndication">RSS</abbr>\n                  </a>\n                </li>\n                <li>\n                  <a title="Powered by WordPress, state-of-the-art semantic personal publishing platform." href="http://wordpress.org/" shape="rect">WordPress.org</a>\n                </li>\n              </ul>\n            </li>\n          </ul>\n        </div>\n        <div id="container">\n          <div role="main" id="content">\n            <div id="nav-above" class="navigation">\n              <div class="nav-previous">\n                <a rel="prev" href="http://7th-taste.com/2012/08/09/curried-bruschetta-with-goat-cheese-heirloom-tomatoes/" shape="rect">\n                  <span class="meta-nav">\xe2\x86\x90</span>\n                  Curried Bruschetta with Goat Cheese &amp; Heirloom Tomatoes\n                </a>\n              </div>\n              <div class="nav-next">\n                <a rel="next" href="http://7th-taste.com/2012/09/04/floss-pacific-nw-cuisine-pan-fried-wild-caught-salmon/" shape="rect">\n                  FLOSS Pacific NW Cuisine: Pan-Fried Wild-Caught Salmon\n                  <span class="meta-nav">\xe2\x86\x92</span>\n                </a>\n              </div>\n            </div>\n            <div id="post-2103" class="post-2103 post type-post status-publish format-standard hentry category-food tag-business tag-california tag-cooking tag-flavor tag-ice-cream tag-lavender tag-olive-oil tag-wine-tasting-descriptors">\n              <h1 class="entry-title">Vanilla Brownie Ice Cream Drizzled with Lavender Olive Oil</h1>\n              <div class="entry-meta">\n                <span class="meta-prep meta-prep-author">Posted on</span>\n                <a rel="bookmark" title="8:32 am" href="http://7th-taste.com/2012/08/16/vanilla-brownie-ice-cream-drizzled-with-lavender-olive-oil/" shape="rect">\n                  <span class="entry-date">August 16, 2012</span>\n                </a>\n                <span class="meta-sep">by</span>\n                <span class="author vcard">\n                  <a title="View all posts by 7th taste" href="http://7th-taste.com/author/savoryaccent/" class="url fn n" shape="rect">7th taste</a>\n                </span>\n              </div>\n              <div class="entry-content">\n                <p>\n                  <a href="http://7th-taste.com/wp-content/uploads/2012/08/Vanilla-Brownie-Ice-Cream-with-Lavender-Olive-Oil-Topping.jpg" shape="rect">\n                    <img height="150" width="150" alt="" src="http://7th-taste.com/wp-content/uploads/2012/08/Vanilla-Brownie-Ice-Cream-with-Lavender-Olive-Oil-Topping-150x150.jpg" title="Vanilla Brownie Ice Cream with Lavender Olive Oil Topping" class="alignleft size-thumbnail wp-image-2104"></img>\n                  </a>\n                  <a target="_blank" rel="wikipedia" href="http://en.wikipedia.org/wiki/Lavender" title="Lavender" class="zem_slink" shape="rect">Lavender</a>\n                  is like \xc3\xa2\xe2\x82\xac\xc5\x93Dr. Jekyll and\n                  <a target="_blank" rel="wikipedia" href="http://en.wikipedia.org/wiki/Strange_Case_of_Dr_Jekyll_and_Mr_Hyde" title="Strange Case of Dr Jekyll and Mr Hyde" class="zem_slink" shape="rect">Mr. Hide</a>\n                  \xc3\xa2\xe2\x82\xac\xef\xbf\xbd. While its scent evokes a sense of relaxation and calmness, its\n                  <a target="_blank" rel="wikipedia" href="http://en.wikipedia.org/wiki/Flavor" title="Flavor" class="zem_slink" shape="rect">flavor</a>\n                  wakes you up with a peppery and minty kick that has a sweet and floral flavor with lemon and citrus notes. In the last several months, I have had tons of fun making savory dishes with my\n                  <a target="_blank" rel="wikipedia" href="http://en.wikipedia.org/wiki/Lavender" title="Lavender" class="zem_slink" shape="rect">lavender</a>\n                  <a target="_blank" rel="wikipedia" href="http://en.wikipedia.org/wiki/Olive_oil" title="Olive oil" class="zem_slink" shape="rect">olive oil</a>\n                  in my\n                  <a target="_blank" rel="geolocation" href="http://maps.google.com/maps?ll=37.0,-120.0&amp;spn=10.0,10.0&amp;q=37.0,-120.0%20%28California%29&amp;t=h" title="California" class="zem_slink" shape="rect">California</a>\n                  kitchen. The oil\xe2\x80\x99s blended flavors of mint, rosemary and evergreen, with its buttery texture and floral notes, have given a great depth of flavors to my dishes. Today, experimenting beyond savory dishes, I\xe2\x80\x99ve decided to drizzle a bit of my lavender olive oil on top of vanilla brownie\n                  <a target="_blank" rel="wikipedia" href="http://en.wikipedia.org/wiki/Ice_cream" title="Ice cream" class="zem_slink" shape="rect">ice cream</a>\n                  on this hot summer day.\n                </p>\n                <p>\n                  Wow. How well my lavender olive oil pairs with the bitter sweet brownies, sweet aromatic vanilla and creamy rich ice cream! Like\n                  <a target="_blank" rel="wikipedia" href="http://en.wikipedia.org/wiki/Yin_and_yang" title="Yin and yang" class="zem_slink" shape="rect">yin and yang</a>\n                  , the sweetness of this ice cream gets beautifully contrasted by the peppery-ness of my lavender olive oil. The mysterious scents and flavors of the lavender olive oil also give a wonderful mouth feeling of \xc3\xa2\xe2\x82\xac\xc5\x93coolness\xc3\xa2\xe2\x82\xac\xef\xbf\xbd and \xc3\xa2\xe2\x82\xac\xc5\x93freshness\xc3\xa2\xe2\x82\xac\xef\xbf\xbd in every bite. This experiment turns out to be great fun on a hot day like today. If you\xe2\x80\x99re having ice cream this summer, try it with my lavender olive oil as a topping. It will excite your palate and may even help cool down the heat a bit. Enjoy! Happy Summer!\n                </p>\n                <div style="margin-top: 10px; height: 15px;" class="zemanta-pixie">\n                  <a href="http://www.zemanta.com/?px" title="Enhanced by Zemanta" class="zemanta-pixie-a" shape="rect">\n                    <img alt="Enhanced by Zemanta" src="http://img.zemanta.com/zemified_e.png?x-id=aef50699-f2f4-4cbc-ae22-69d08480f7ec" style="float: right;" class="zemanta-pixie-img"></img>\n                  </a>\n                </div>\n              </div>\n              <div class="entry-utility">\n                This entry was posted in\n                <a rel="category tag" title="View all posts in Food" href="http://7th-taste.com/category/food/" shape="rect">Food</a>\n                and tagged\n                <a rel="tag" href="http://7th-taste.com/tag/business/" shape="rect">Business</a>\n                ,\n                <a rel="tag" href="http://7th-taste.com/tag/california/" shape="rect">California</a>\n                ,\n                <a rel="tag" href="http://7th-taste.com/tag/cooking/" shape="rect">Cooking</a>\n                ,\n                <a rel="tag" href="http://7th-taste.com/tag/flavor/" shape="rect">Flavor</a>\n                ,\n                <a rel="tag" href="http://7th-taste.com/tag/ice-cream/" shape="rect">Ice cream</a>\n                ,\n                <a rel="tag" href="http://7th-taste.com/tag/lavender/" shape="rect">Lavender</a>\n                ,\n                <a rel="tag" href="http://7th-taste.com/tag/olive-oil/" shape="rect">Olive oil</a>\n                ,\n                <a rel="tag" href="http://7th-taste.com/tag/wine-tasting-descriptors/" shape="rect">Wine tasting descriptors</a>\n                . Bookmark the\n                <a rel="bookmark" title="Permalink to Vanilla Brownie Ice Cream Drizzled with Lavender Olive Oil" href="http://7th-taste.com/2012/08/16/vanilla-brownie-ice-cream-drizzled-with-lavender-olive-oil/" shape="rect">permalink</a>\n                .\n              </div>\n            </div>\n            <div id="nav-below" class="navigation">\n              <div class="nav-previous">\n                <a rel="prev" href="http://7th-taste.com/2012/08/09/curried-bruschetta-with-goat-cheese-heirloom-tomatoes/" shape="rect">\n                  <span class="meta-nav">\xe2\x86\x90</span>\n                  Curried Bruschetta with Goat Cheese &amp; Heirloom Tomatoes\n                </a>\n              </div>\n              <div class="nav-next">\n                <a rel="next" href="http://7th-taste.com/2012/09/04/floss-pacific-nw-cuisine-pan-fried-wild-caught-salmon/" shape="rect">\n                  FLOSS Pacific NW Cuisine: Pan-Fried Wild-Caught Salmon\n                  <span class="meta-nav">\xe2\x86\x92</span>\n                </a>\n              </div>\n            </div>\n            <div id="comments">\n              <div id="respond">\n                <h3 id="reply-title">\n                  Leave a Reply\n                  <small>\n                    <a style="display:none;" href="/2012/08/16/vanilla-brownie-ice-cream-drizzled-with-lavender-olive-oil/#respond" rel="nofollow" id="cancel-comment-reply-link" shape="rect">Cancel reply</a>\n                  </small>\n                </h3>\n                <form action="http://7th-taste.com/wp-comments-post.php" id="commentform" method="post" enctype="application/x-www-form-urlencoded">\n                  <p class="comment-notes">\n                    Your email address will not be published. Required fields are marked\n                    <span class="required">*</span>\n                  </p>\n                  <p class="comment-form-author">\n                    <label for="author">Name</label>\n                    <span class="required">*</span>\n                    <input aria-required="true" size="30" value="" name="author" id="author" type="text"></input>\n                  </p>\n                  <p class="comment-form-email">\n                    <label for="email">Email</label>\n                    <span class="required">*</span>\n                    <input aria-required="true" size="30" value="" name="email" id="email" type="text"></input>\n                  </p>\n                  <p class="comment-form-url">\n                    <label for="url">Website</label>\n                    <input size="30" value="" name="url" id="url" type="text"></input>\n                  </p>\n                  <p class="comment-form-comment">\n                    <label for="comment">Comment</label>\n                    <textarea aria-required="true" name="comment" id="comment" rows="8" cols="45"></textarea>\n                  </p>\n                  <p class="form-allowed-tags">\n                    You may use these\n                    <abbr title="HyperText Markup Language">HTML</abbr>\n                    tags and attributes:\n                    <code>\n                      &lt;a href=&quot;&quot; title=&quot;&quot;&gt; &lt;abbr title=&quot;&quot;&gt; &lt;acronym title=&quot;&quot;&gt; &lt;b&gt; &lt;blockquote cite=&quot;&quot;&gt; &lt;cite&gt; &lt;code&gt; &lt;del datetime=&quot;&quot;&gt; &lt;em&gt; &lt;i&gt; &lt;q cite=&quot;&quot;&gt; &lt;strike&gt; &lt;strong&gt;\n                    </code>\n                  </p>\n                  <p class="form-submit">\n                    <input value="Post Comment" name="submit" id="submit" type="submit"></input>\n                    <input value="2103" name="comment_post_ID" id="comment_post_ID" type="hidden"></input>\n                    <input value="0" name="comment_parent" id="comment_parent" type="hidden"></input>\n                  </p>\n                  <p style="display: none;">\n                    <input value="ada39e637b" name="akismet_comment_nonce" id="akismet_comment_nonce" type="hidden"></input>\n                  </p>\n                </form>\n              </div>\n              <script type="text/javascript"> jQuery(document).ready(function () { jQuery(\'#commentform\').submit(function () { _gaq.push( [\'_setAccount\', \'UA-23365288-1\'], [\'_trackEvent\', \'comment\', \'submit\'] ); }); }); </script>\n            </div>\n          </div>\n        </div>\n      </div>\n      <div role="contentinfo" id="footer">\n        <div id="colophon">\n          <div id="site-generator">\n            <p>\n              Powered by\n              <a href="http://wordpress.org/" shape="rect">Wordpress</a>\n              and\n              <a href="http://macintoshhowto.com/about" shape="rect">Sliding Door</a>\n              theme.\n            </p>\n          </div>\n        </div>\n      </div>\n    </div>\n    <script src="http://7th-taste.com/wp-content/plugins/contact-form-7/includes/js/jquery.form.min.js?ver=3.15" type="text/javascript"></script>\n    <script type="text/javascript"> /* &lt;![CDATA[ */ var _wpcf7 = {&quot;loaderUrl&quot;:&quot;http:\\/\\/7th-taste.com\\/wp-content\\/plugins\\/contact-form-7\\/images\\/ajax-loader.gif&quot;,&quot;sending&quot;:&quot;Sending ...&quot;}; /* ]]&gt; */ </script>\n    <script src="http://7th-taste.com/wp-content/plugins/contact-form-7/includes/js/scripts.js?ver=3.3" type="text/javascript"></script>\n    <script type="text/javascript" src="http://stats.wordpress.com/e-201240.js"></script>\n    <script type="text/javascript"> st_go({blog:\'19326519\',v:\'ext\',post:\'2103\'}); var load_cmc = function(){linktracker_init(19326519,2103,2);}; if ( typeof addLoadEvent != \'undefined\' ) addLoadEvent(load_cmc); else load_cmc(); </script>\n  </body>\n</html>'
p11
sbsS'mentions'
p12
(lp13
(iedu.umass.cs.iesl.wikilink.expanded.data.ttypes
Mention
p14
(dp15
S'anchor_text'
p16
S'Lavender'
p17
sS'context'
p18
(iedu.umass.cs.iesl.wikilink.expanded.data.ttypes
Context
p19
(dp20
S'middle'
p21
S'Lavender'
p22
sS'right'
p23
S'is like \xc3\xa2\xe2\x82\xac\xc5\x93Dr. Jekyll and Mr. Hide \xc3\xa2\xe2\x82\xac\xef\xbf\xbd. While its scent evokes a sense of relaxation and calmness, its flavor wakes you up with a'
p24
sS'left'
p25
S'FLOSS Pacific NW Cuisine: Pan-Fried Wild-Caught Salmon \xe2\x86\x92 Vanilla Brownie Ice Cream Drizzled with Lavender Olive Oil Posted on August 16, 2012 by 7th taste'
p26
sbsS'freebase_id'
p27
S'9202a8c04000641f8000000000023b2f'
p28
sS'raw_text_offset'
p29
I18067
sS'wiki_url'
p30
S'http://en.wikipedia.org/wiki/Lavender'
p31
sba(iedu.umass.cs.iesl.wikilink.expanded.data.ttypes
Mention
p32
(dp33
g16
S'flavor'
p34
sg18
(iedu.umass.cs.iesl.wikilink.expanded.data.ttypes
Context
p35
(dp36
g21
S'flavor'
p37
sg23
S'wakes you up with a peppery and minty kick that has a sweet and floral flavor with lemon and citrus notes. In the last several'
p38
sg25
S'16, 2012 by 7th taste Lavender is like \xc3\xa2\xe2\x82\xac\xc5\x93Dr. Jekyll and Mr. Hide \xc3\xa2\xe2\x82\xac\xef\xbf\xbd. While its scent evokes a sense of relaxation and calmness, its'
p39
sbsg27
S'9202a8c04000641f8000000000016c08'
p40
sg29
I18470
sg30
S'http://en.wikipedia.org/wiki/Flavor'
p41
sba(iedu.umass.cs.iesl.wikilink.expanded.data.ttypes
Mention
p42
(dp43
g16
S'lavender'
p44
sg18
(iedu.umass.cs.iesl.wikilink.expanded.data.ttypes
Context
p45
(dp46
g21
S'lavender'
p47
sg23
S'olive oil in my California kitchen. The oil\xe2\x80\x99s blended flavors of mint, rosemary and evergreen, with its buttery texture and floral notes, have given a'
p48
sg25
S'sweet and floral flavor with lemon and citrus notes. In the last several months, I have had tons of fun making savory dishes with my'
p49
sbsg27
S'9202a8c04000641f8000000000023b2f'
p50
sg29
I18783
sg30
S'http://en.wikipedia.org/wiki/Lavender'
p51
sba(iedu.umass.cs.iesl.wikilink.expanded.data.ttypes
Mention
p52
(dp53
g16
S'olive oil'
p54
sg18
(iedu.umass.cs.iesl.wikilink.expanded.data.ttypes
Context
p55
(dp56
g21
S'olive oil'
p57
sg23
S'in my California kitchen. The oil\xe2\x80\x99s blended flavors of mint, rosemary and evergreen, with its buttery texture and floral notes, have given a great depth'
p58
sg25
S'and floral flavor with lemon and citrus notes. In the last several months, I have had tons of fun making savory dishes with my lavender'
p59
sbsg27
S'9202a8c04000641f800000000002ce44'
p60
sg29
I18913
sg30
S'http://en.wikipedia.org/wiki/Olive_oil'
p61
sba(iedu.umass.cs.iesl.wikilink.expanded.data.ttypes
Mention
p62
(dp63
g16
S'ice cream'
p64
sg18
(iedu.umass.cs.iesl.wikilink.expanded.data.ttypes
Context
p65
(dp66
g21
S'ice cream'
p67
sg23
S'on this hot summer day. Wow. How well my lavender olive oil pairs with the bitter sweet brownies, sweet aromatic vanilla and creamy rich ice'
p68
sg25
S'flavors to my dishes. Today, experimenting beyond savory dishes, I\xe2\x80\x99ve decided to drizzle a bit of my lavender olive oil on top of vanilla brownie'
p69
sbsg27
S'9202a8c04000641f800000000005f282'
p70
sg29
I19549
sg30
S'http://en.wikipedia.org/wiki/Ice_cream'
p71
sba(iedu.umass.cs.iesl.wikilink.expanded.data.ttypes
Mention
p72
(dp73
g16
S'yin and yang'
p74
sg18
(iedu.umass.cs.iesl.wikilink.expanded.data.ttypes
Context
p75
(dp76
g21
S'yin and yang'
p77
sg23
S', the sweetness of this ice cream gets beautifully contrasted by the peppery-ness of my lavender olive oil. The mysterious scents and flavors of the'
p78
sg25
S'hot summer day. Wow. How well my lavender olive oil pairs with the bitter sweet brownies, sweet aromatic vanilla and creamy rich ice cream! Like'
p79
sbsg27
S'9202a8c04000641f8000000000112d93'
p80
sg29
I19846
sg30
S'http://en.wikipedia.org/wiki/Yin_and_yang'
p81
sbasS'doc_id'
p82
I5962
sS'rare_words'
p83
(lp84
(iedu.umass.cs.iesl.wikilink.expanded.data.ttypes
RareWord
p85
(dp86
S'word'
p87
S'months'
p88
sS'offset'
p89
I18608
sba(iedu.umass.cs.iesl.wikilink.expanded.data.ttypes
RareWord
p90
(dp91
g87
S'ness'
p92
sg89
I19939
sba(iedu.umass.cs.iesl.wikilink.expanded.data.ttypes
RareWord
p93
(dp94
g87
S'decided'
p95
sg89
I19356
sba(iedu.umass.cs.iesl.wikilink.expanded.data.ttypes
RareWord
p96
(dp97
g87
S'Oil'
p98
sg89
I17003
sba(iedu.umass.cs.iesl.wikilink.expanded.data.ttypes
RareWord
p99
(dp100
g87
S'Cream'
p101
sg89
I16968
sba(iedu.umass.cs.iesl.wikilink.expanded.data.ttypes
RareWord
p102
(dp103
g87
S'Wow'
p104
sg89
I19594
sba(iedu.umass.cs.iesl.wikilink.expanded.data.ttypes
RareWord
p105
(dp106
g87
S'sense'
p107
sg89
I18321
sba(iedu.umass.cs.iesl.wikilink.expanded.data.ttypes
RareWord
p108
(dp109
g87
S'drizzle'
p110
sg89
I19367
sba(iedu.umass.cs.iesl.wikilink.expanded.data.ttypes
RareWord
p111
(dp112
g87
S'Happy'
p113
sg89
I20358
sba(iedu.umass.cs.iesl.wikilink.expanded.data.ttypes
RareWord
p114
(dp115
g87
S'up'
p116
sg89
I18491
sbasb.