(iedu.umass.cs.iesl.wikilink.expanded.data.ttypes
WikiLinkItem
p0
(dp1
S'url'
p2
S'http://activerain.com/blogsview/269045/happy-30th-birthday-rancho-cucamonga-'
p3
sS'content'
p4
(iedu.umass.cs.iesl.wikilink.expanded.data.ttypes
PageContentItem
p5
(dp6
S'articleText'
p7
NsS'raw'
p8
NsS'fullText'
p9
NsS'dom'
p10
S'<html>\n  <head>\n    <title>Happy 30th Birthday Rancho Cucamonga!</title>\n    <script>\n      (function() {\n    var cx = \'016474116467456296202:zcdp2tq_pxi\'\n    var gcse = document.createElement(\'script\'); gcse.type = \'text/javascript\'; gcse.async = true;\n    gcse.src = (document.location.protocol == \'https:\' ? \'https:\' : \'http:\') +\n        \'//www.google.com/cse/cse.js?cx=\' + cx;\n    var s = document.getElementsByTagName(\'script\')[0]; s.parentNode.insertBefore(gcse, s);\n  })();\n    </script>\n    <script charset="utf-8" type="text/javascript">\n      if (top != self ) {\n  var frame_whitelist = [document.location.hostname];\n  var frame_i;\n  var frame_test = frame_whitelist.length;\n  var frame_safe = false;\n  for (frame_i=0; frame_i &lt; frame_test ; frame_i++) {\n    if (document.referrer.indexOf(frame_whitelist[frame_i]) != -1 ) {\n      frame_safe = true;\n    }\n  }\n  if (frame_safe === false) {\n    top.location.replace(document.location);\n  } else {\n    document.write(&quot;&lt;link rel=\'stylesheet\' href=\'/stylesheets/tempest_scroll_bars.css\'&gt;&quot;)\n  }\n}\n    </script>\n    <meta \n    content="It was 30 years ago today (on November 10, 1977) that the city of Rancho Cucamonga was incorporated.&amp;nbsp; The city, formed by the mergers of the towns of Alta Loma, Cucamonga and Etiwanda, has always been acknowledged as a funny sounding name.&amp;nbsp; The Jack Benny Show gave the area some early, " name="description">\n</meta>\n    <meta content="http://activerain.com/blogsview/269045/happy-30th-birthday-rancho-cucamonga-" property="og:url"></meta>\n    <meta content="http://activerain.com/system/s3_buckets/activerain-image-store-2/agents/787/63787/huge/Headshots_051_600x600.jpg?1306136526" property="og:image"></meta>\n    <meta content="www.activerain.com" property="og:site_name"></meta>\n    <meta content="company" property="og:type"></meta>\n    <meta content="1239513501,1653307921" property="fb:admins"></meta>\n    <meta content="Business: Real Estate" name="classification"></meta>\n    <meta content="Business: Real Estate" name="category"></meta>\n    <meta content="4V8uxY1wliTUUps0MtNHCt8kaPckkPh7ElLu8u119GI=" name="verify-v1"></meta>\n    <link type="text/css" rel="stylesheet" media="screen" href="http://activeagent-prod-assets0.ar-img.com/stylesheets/style_and_forms.css?1348684471"></link>\n    <link type="text/css" rel="stylesheet" media="screen" href="http://activeagent-prod-assets1.ar-img.com/stylesheets/signup.css?1348684471"></link>\n    <link type="text/css" rel="stylesheet" media="screen" href="http://activeagent-prod-assets2.ar-img.com/plugin_assets/active_engine/stylesheets/ads.css?1348684487"></link>\n    <script type="text/javascript" src="http://activeagent-prod-assets1.ar-img.com/javascripts/active_engine_js.js?1348684487"></script>\n    <script type="text/javascript" src="http://activeagent-prod-assets2.ar-img.com/javascripts/app_and_iepngfix.js?1348684471"></script>\n    <link type="text/css" rel="stylesheet" media="screen" href="http://activeagent-prod-assets3.ar-img.com/stylesheets/sections.css?1348684471"></link>\n    <link href="/blogs/toomora/rss" title="Eastvale, Corona &amp; Mira Loma - Real Estate Deals!" type="application/rss+xml" rel="alternate"></link>\n    <script type="text/javascript" src="/plugin_assets/active_engine/javascripts/tiny_mce/tiny_mce.js"></script>\n    <script type="text/javascript">\n      var _gaq = _gaq || [];\n  _gaq.push([\'_setAccount\', \'UA-15408048-1\']);\n  _gaq.push([\'_trackPageview\']);\n\n  (function() {\n    var ga = document.createElement(\'script\'); ga.type = \'text/javascript\'; ga.async = true;\n    ga.src = (\'https:\' == document.location.protocol ? \'https://ssl\' : \'http://www\') + \'.google-analytics.com/ga.js\';\n    var s = document.getElementsByTagName(\'script\')[0]; s.parentNode.insertBefore(ga, s);\n  })();\n    </script>\n  </head>\n  <body>\n    <div id="fancy_scrollbar">\n      <link type="text/css" rel="stylesheet" media="screen" href="http://activeagent-prod-assets0.ar-img.com/stylesheets/header.css?1348684471"></link>\n      <script charset="utf-8" type="text/javascript">\n        window.onload=function(){\n      $(\'header_search_selector\').observe(\'change\', function() {\n          if ($F(\'header_search_selector\') == &quot;google&quot;) {\n              $(&quot;hit_router_search_container&quot;).style.display = &quot;none&quot;;\n              $(&quot;header_google_search&quot;).style.display = &quot;block&quot;;\n          }\n          else {\n              $(&quot;header_google_search&quot;).style.display = &quot;none&quot;;\n              $(&quot;hit_router_search_container&quot;).style.display = &quot;block&quot;;\n          }\n      })\n    }\n\n  function toggle_header_sub_menu(link_id, sub_nav_id) {\n    if ($(sub_nav_id).style.display == &quot;block&quot;) {\n      $(sub_nav_id).style.display = &quot;none&quot;;\n      $(link_id).style.background = &quot;url(/images/blue_arrow_right.gif) no-repeat 0px 5px&quot;;\n    } else {\n      $(sub_nav_id).style.display = &quot;block&quot;;\n      $(link_id).style.background = &quot;url(/images/blue_down_arrow.gif) no-repeat 0px 5px&quot;;\n    }\n  }\n      </script>\n      <div style="position: relative; z-index: 9999">\n        <div id="header_top"></div>\n        <div style="text-align:left;" id="logo_wrapper">\n          <iframe \n          allowtransparency="true" src="https://www.facebook.com/plugins/like.php?href=http%3A%2F%2Fwww.activerain.com&amp;send=false&amp;layout=button_count&amp;width=450&amp;show_faces=false&amp;action=like&amp;colorscheme=light&amp;font&amp;height=35" id="fb_header_like_button" scrolling="no" frameborder="0">\n</iframe>\n          <div id="google_plus_container" class="google_plus_container">\n            <g:plusone href="http://www.activerain.com" size="medium"></g:plusone>\n          </div>\n          <div id="logo">\n            <a style="position:absolute; left:14px; top:-10px;" href="/" shape="rect">\n              <img src="http://activeagent-prod-assets3.ar-img.com/images/headers/ar_home_logo.png?1348684471" alt="ActiveRain real estate agent network"></img>\n            </a>\n          </div>\n          <div id="header_search_wrapper">\n            <div id="main_header_cloud"></div>\n            <select name="header_search_selector" id="header_search_selector">\n              <option value="hitrouter">Search Listings</option>\n              <option value="google">Search ActiveRain</option>\n            </select>\n            <div id="header_google_search">\n              <form action="/search" method="get" enctype="application/x-www-form-urlencoded">\n                <input value="blogs" name="more" id="more" type="hidden"></input>\n                <input value="016474116467456296202:zcdp2tq_pxi" name="cx" type="hidden"></input>\n                <input value="FORID:10" name="cof" type="hidden"></input>\n                <input value="ISO-8859-1" name="ie" type="hidden"></input>\n                <input name="q" id="header_google_search_text" type="text"></input>\n                <input value="Search" name="commit" id="header_google_search_submit" type="submit"></input>\n              </form>\n              <script src="https://www.google.com/cse/brand?form=cse-search-box&amp;lang=en" type="text/javascript"></script>\n            </div>\n            <div id="hit_router_search_container">\n              <form \n              onsubmit="new Ajax.Updater(\'clickbar_city_results\', \'/action/nav/city_search/toomora\', {asynchronous:true, evalScripts:true, onComplete:function(request){$(\'clickbar_city_results\').style.display = \'block\'; currentIndex=-1}, parameters:Form.serialize(this)}); return false;" autocomplete="off" action="/action/nav/city_search/toomora" id="results_form" method="post" enctype="application/x-www-form-urlencoded">\n                <input value="Home Listings by City" style="" onkeydown="handle_keys(this, event)" onfocus="lr_focus(this)" onblur="lr_blur(this)" name="c_q" id="c_q" type="text"></input>\n                <img src="http://activeagent-prod-assets1.ar-img.com/images/headers/ar_home_b_search.png?1348684471" alt="Ar_home_b_search"></img>\n                <input value="Home Listings by City" name="phrase" id="phrase" type="hidden"></input>\n                <input name="source" id="source" type="hidden"></input>\n                <input name="source_id" id="source_id" type="hidden"></input>\n                <div style="display:none" id="clickbar_city_results"></div>\n</form>\n              <script charset="utf-8" type="text/javascript">\n                var currentIndex = -1\n  var default_phrase = &quot;Home Listings by City&quot;;\n  new Form.Element.Observer(&quot;c_q&quot;, 0.5, check_dropdown)\n  \n  function check_dropdown(el, value) {\n    if(value.blank() || value.length &lt; 3 || value == &quot;&quot; || value == default_phrase) { $(\'clickbar_city_results\').hide(); return }\n    $(\'results_form\').onsubmit()\n  }\n  \n  function lr_focus(e) {\n    if(e.value == default_phrase) { e.value = &quot;&quot;; return }\n    $(\'clickbar_city_results\').show()\n  }\n  function lr_blur(e) {\n    if(e.value.blank()) { e.value = default_phrase; }\n  }\n  \n  function handle_keys(elm, event) {\n    if(Event.KEY_ESC == event.keyCode) {\n      elm.value = &quot;&quot;\n      $(\'clickbar_city_results\').hide()\n    }\n    if(Event.KEY_DOWN == event.keyCode) {\n      return run_highlight(1)\n    }\n    if(Event.KEY_UP == event.keyCode) {\n      return run_highlight(-1)\n    }\n    if(Event.KEY_RETURN == event.keyCode &amp;&amp; currentIndex &gt; -1) {\n      $(\'c_q\').value = &quot;&quot;\n      $(\'clickbar_city_results\').hide()\n      window.location.href = $$(&quot;#clickbar_city_results li&quot;)[currentIndex].down().href\n      // window.open($$(&quot;#clickbar_city_results li&quot;)[currentIndex].down().href)\n    }\n  }\n  \n  function run_highlight(direction) {\n    clear_highlights()\n    max = $$(&quot;#clickbar_city_results li&quot;).length\n    currentIndex += direction\n    if(currentIndex &lt; 0) { currentIndex = max - 1; }\n    if(currentIndex &gt;= max) { currentIndex = 0 }\n    $$(&quot;#clickbar_city_results li&quot;)[currentIndex].addClassName(&quot;highlight&quot;)\n    return true\n  }\n  \n  function clear_highlights() {\n    $$(&quot;#clickbar_city_results li&quot;).invoke(&quot;removeClassName&quot;, &quot;highlight&quot;)\n  }\n              </script>\n            </div>\n            <div id="little_header_cloud"></div>\n          </div>\n        </div>\n        <div id="member_count">\n          <div class="layout">\n            <div class="auth_link"> </div>\n          </div>\n        </div>\n        <ul id="top_menu" class="top_level_menu">\n          <li>\n            <a href="http://www.activerainuniversity.com" shape="rect">University</a>\n          </li>\n          <li>\n            <a href="/search" shape="rect">Search</a>\n          </li>\n          <li>\n            <a href="/groups" shape="rect">Groups</a>\n          </li>\n          <li>\n            <a href="/bloghome" shape="rect">Blogs</a>\n          </li>\n          <li>\n            <a href="/groups/activeraincontests" shape="rect">Contests</a>\n          </li>\n          <li>\n            <a href="/action/question/list_questions" shape="rect">Q&amp;A</a>\n          </li>\n          <script type="text/javascript"> function go_to_state_page(state) { window.location.href = &quot;/states/&quot; + state; } function go_to_channel_page(channel) { window.location.href = &quot;/action/channels/&quot; + channel; } </script>\n          <li>\n            <span onclick="toggle_channel(\'consumer\')" class="fake_menu_item dropdown_link">\n              Channels\n              <img width="11" src="http://activeagent-prod-assets2.ar-img.com/images/headers/ar_home_nav_arrow_down.png?1348684471" height="9" alt="Ar_home_nav_arrow_down"></img>\n            </span>\n            <span style="display:none; width: 420px; margin-left: -300px" id="consumer_dropdown" class="top_dropdown"> </span>\n            <div style="padding: 5px;">\n              <div style="width: 200px; float: left; margin-right: 10px">\n                <span class="inner_menu_header">Consumer</span>\n                <ul>\n                  <li>\n                    <a onclick="go_to_channel_page(\'home_buying\'); return false;" href="#" shape="rect">Home Buying</a>\n                  </li>\n                  <li>\n                    <a onclick="go_to_channel_page(\'home_improvement\'); return false;" href="#" shape="rect">Home Improvement</a>\n                  </li>\n                  <li>\n                    <a onclick="go_to_channel_page(\'regional_localism\'); return false;" href="#" shape="rect">Regional (Localism)</a>\n                  </li>\n                  <li>\n                    <a onclick="go_to_channel_page(\'real_estate_investing_foreclosures\'); return false;" href="#" shape="rect">Real Estate Investing</a>\n                  </li>\n                  <li>\n                    <a onclick="go_to_channel_page(\'real_estate_market\'); return false;" href="#" shape="rect">Real Estate Market</a>\n                  </li>\n                  <li>\n                    <a onclick="go_to_channel_page(\'home_selling\'); return false;" href="#" shape="rect">Home Selling</a>\n                  </li>\n                  <li>\n                    <a onclick="go_to_channel_page(\'moving\'); return false;" href="#" shape="rect">Moving</a>\n                  </li>\n                  <li>\n                    <a onclick="go_to_channel_page(\'consumer_mortgage_finance\'); return false;" href="#" shape="rect">Mortgage / Finance</a>\n                  </li>\n                </ul>\n              </div>\n              <div style="width: 200px; float: left;">\n                <span class="inner_menu_header">Professional</span>\n                <ul>\n                  <li>\n                    <a onclick="go_to_channel_page(\'activerain\'); return false;" href="#" shape="rect">ActiveRain</a>\n                  </li>\n                  <li>\n                    <a onclick="go_to_channel_page(\'technology_and_tools\'); return false;" href="#" shape="rect">Technology and Tools</a>\n                  </li>\n                  <li>\n                    <a onclick="go_to_channel_page(\'training\'); return false;" href="#" shape="rect">Training</a>\n                  </li>\n                  <li>\n                    <a onclick="go_to_channel_page(\'professional_mortgage_finance\'); return false;" href="#" shape="rect">Mortgage / Finance</a>\n                  </li>\n                  <li>\n                    <a onclick="go_to_channel_page(\'sales_strategies_tactics\'); return false;" href="#" shape="rect">Sales Strategies / Tactics</a>\n                  </li>\n                  <li>\n                    <a onclick="go_to_channel_page(\'offline_marketing\'); return false;" href="#" shape="rect">Offline Marketing</a>\n                  </li>\n                  <li>\n                    <a onclick="go_to_channel_page(\'networking\'); return false;" href="#" shape="rect">Networking</a>\n                  </li>\n                  <li>\n                    <a onclick="go_to_channel_page(\'online_marketing\'); return false;" href="#" shape="rect">Online Marketing</a>\n                  </li>\n                </ul>\n              </div>\n              <br style="clear: both" clear="none"></br>\n            </div>\n          </li>\n          <li>\n            <span onclick="toggle_channel(\'state\');" class="fake_menu_item dropdown_link">\n              States\n              <img width="11" src="http://activeagent-prod-assets2.ar-img.com/images/headers/ar_home_nav_arrow_down.png?1348684471" height="9" alt="Ar_home_nav_arrow_down"></img>\n            </span>\n            <span style="display:none;" id="state_dropdown" class="top_dropdown"> </span>\n            <div style="padding: 5px">\n              <span style="text-align: left" class="inner_menu_header">USA</span>\n              <ul>\n                <li style="text-align: center">\n                  <a title="Alabama" onclick="go_to_state_page(\'AL\'); return false;" href="#" class="dropdown_link" shape="rect">AL</a>\n                </li>\n                <li style="text-align: center">\n                  <a title="Alaska" onclick="go_to_state_page(\'AK\'); return false;" href="#" class="dropdown_link" shape="rect">AK</a>\n                </li>\n                <li style="text-align: center">\n                  <a title="Arizona" onclick="go_to_state_page(\'AZ\'); return false;" href="#" class="dropdown_link" shape="rect">AZ</a>\n                </li>\n                <li style="text-align: center">\n                  <a title="Arkansas" onclick="go_to_state_page(\'AR\'); return false;" href="#" class="dropdown_link" shape="rect">AR</a>\n                </li>\n                <li style="text-align: center">\n                  <a title="California" onclick="go_to_state_page(\'CA\'); return false;" href="#" class="dropdown_link" shape="rect">CA</a>\n                </li>\n                <li style="text-align: center">\n                  <a title="Colorado" onclick="go_to_state_page(\'CO\'); return false;" href="#" class="dropdown_link" shape="rect">CO</a>\n                </li>\n                <li style="text-align: center">\n                  <a title="Connecticut" onclick="go_to_state_page(\'CT\'); return false;" href="#" class="dropdown_link" shape="rect">CT</a>\n                </li>\n                <li style="text-align: center">\n                  <a title="Delaware" onclick="go_to_state_page(\'DE\'); return false;" href="#" class="dropdown_link" shape="rect">DE</a>\n                </li>\n                <li style="text-align: center">\n                  <a title="District of Columbia" onclick="go_to_state_page(\'DC\'); return false;" href="#" class="dropdown_link" shape="rect">DC</a>\n                </li>\n                <li style="text-align: center">\n                  <a title="Florida" onclick="go_to_state_page(\'FL\'); return false;" href="#" class="dropdown_link" shape="rect">FL</a>\n                </li>\n                <li style="text-align: center">\n                  <a title="Georgia" onclick="go_to_state_page(\'GA\'); return false;" href="#" class="dropdown_link" shape="rect">GA</a>\n                </li>\n                <li style="text-align: center">\n                  <a title="Hawaii" onclick="go_to_state_page(\'HI\'); return false;" href="#" class="dropdown_link" shape="rect">HI</a>\n                </li>\n                <li style="text-align: center">\n                  <a title="Idaho" onclick="go_to_state_page(\'ID\'); return false;" href="#" class="dropdown_link" shape="rect">ID</a>\n                </li>\n                <li style="text-align: center">\n                  <a title="Illinois" onclick="go_to_state_page(\'IL\'); return false;" href="#" class="dropdown_link" shape="rect">IL</a>\n                </li>\n                <li style="text-align: center">\n                  <a title="Indiana" onclick="go_to_state_page(\'IN\'); return false;" href="#" class="dropdown_link" shape="rect">IN</a>\n                </li>\n                <li style="text-align: center">\n                  <a title="Iowa" onclick="go_to_state_page(\'IA\'); return false;" href="#" class="dropdown_link" shape="rect">IA</a>\n                </li>\n                <li style="text-align: center">\n                  <a title="Kansas" onclick="go_to_state_page(\'KS\'); return false;" href="#" class="dropdown_link" shape="rect">KS</a>\n                </li>\n                <li style="text-align: center">\n                  <a title="Kentucky" onclick="go_to_state_page(\'KY\'); return false;" href="#" class="dropdown_link" shape="rect">KY</a>\n                </li>\n                <li style="text-align: center">\n                  <a title="Louisiana" onclick="go_to_state_page(\'LA\'); return false;" href="#" class="dropdown_link" shape="rect">LA</a>\n                </li>\n                <li style="text-align: center">\n                  <a title="Maine" onclick="go_to_state_page(\'ME\'); return false;" href="#" class="dropdown_link" shape="rect">ME</a>\n                </li>\n                <li style="text-align: center">\n                  <a title="Maryland" onclick="go_to_state_page(\'MD\'); return false;" href="#" class="dropdown_link" shape="rect">MD</a>\n                </li>\n                <li style="text-align: center">\n                  <a title="Massachusetts" onclick="go_to_state_page(\'MA\'); return false;" href="#" class="dropdown_link" shape="rect">MA</a>\n                </li>\n                <li style="text-align: center">\n                  <a title="Michigan" onclick="go_to_state_page(\'MI\'); return false;" href="#" class="dropdown_link" shape="rect">MI</a>\n                </li>\n                <li style="text-align: center">\n                  <a title="Minnesota" onclick="go_to_state_page(\'MN\'); return false;" href="#" class="dropdown_link" shape="rect">MN</a>\n                </li>\n                <li style="text-align: center">\n                  <a title="Mississippi" onclick="go_to_state_page(\'MS\'); return false;" href="#" class="dropdown_link" shape="rect">MS</a>\n                </li>\n                <li style="text-align: center">\n                  <a title="Missouri" onclick="go_to_state_page(\'MO\'); return false;" href="#" class="dropdown_link" shape="rect">MO</a>\n                </li>\n                <li style="text-align: center">\n                  <a title="Montana" onclick="go_to_state_page(\'MT\'); return false;" href="#" class="dropdown_link" shape="rect">MT</a>\n                </li>\n                <li style="text-align: center">\n                  <a title="Nebraska" onclick="go_to_state_page(\'NE\'); return false;" href="#" class="dropdown_link" shape="rect">NE</a>\n                </li>\n                <li style="text-align: center">\n                  <a title="Nevada" onclick="go_to_state_page(\'NV\'); return false;" href="#" class="dropdown_link" shape="rect">NV</a>\n                </li>\n                <li style="text-align: center">\n                  <a title="New Hampshire" onclick="go_to_state_page(\'NH\'); return false;" href="#" class="dropdown_link" shape="rect">NH</a>\n                </li>\n                <li style="text-align: center">\n                  <a title="New Jersey" onclick="go_to_state_page(\'NJ\'); return false;" href="#" class="dropdown_link" shape="rect">NJ</a>\n                </li>\n                <li style="text-align: center">\n                  <a title="New Mexico" onclick="go_to_state_page(\'NM\'); return false;" href="#" class="dropdown_link" shape="rect">NM</a>\n                </li>\n                <li style="text-align: center">\n                  <a title="New York" onclick="go_to_state_page(\'NY\'); return false;" href="#" class="dropdown_link" shape="rect">NY</a>\n                </li>\n                <li style="text-align: center">\n                  <a title="North Carolina" onclick="go_to_state_page(\'NC\'); return false;" href="#" class="dropdown_link" shape="rect">NC</a>\n                </li>\n                <li style="text-align: center">\n                  <a title="North Dakota" onclick="go_to_state_page(\'ND\'); return false;" href="#" class="dropdown_link" shape="rect">ND</a>\n                </li>\n                <li style="text-align: center">\n                  <a title="Ohio" onclick="go_to_state_page(\'OH\'); return false;" href="#" class="dropdown_link" shape="rect">OH</a>\n                </li>\n                <li style="text-align: center">\n                  <a title="Oklahoma" onclick="go_to_state_page(\'OK\'); return false;" href="#" class="dropdown_link" shape="rect">OK</a>\n                </li>\n                <li style="text-align: center">\n                  <a title="Oregon" onclick="go_to_state_page(\'OR\'); return false;" href="#" class="dropdown_link" shape="rect">OR</a>\n                </li>\n                <li style="text-align: center">\n                  <a title="Pennsylvania" onclick="go_to_state_page(\'PA\'); return false;" href="#" class="dropdown_link" shape="rect">PA</a>\n                </li>\n                <li style="text-align: center">\n                  <a title="Rhode Island" onclick="go_to_state_page(\'RI\'); return false;" href="#" class="dropdown_link" shape="rect">RI</a>\n                </li>\n                <li style="text-align: center">\n                  <a title="South Carolina" onclick="go_to_state_page(\'SC\'); return false;" href="#" class="dropdown_link" shape="rect">SC</a>\n                </li>\n                <li style="text-align: center">\n                  <a title="South Dakota" onclick="go_to_state_page(\'SD\'); return false;" href="#" class="dropdown_link" shape="rect">SD</a>\n                </li>\n                <li style="text-align: center">\n                  <a title="Tennessee" onclick="go_to_state_page(\'TN\'); return false;" href="#" class="dropdown_link" shape="rect">TN</a>\n                </li>\n                <li style="text-align: center">\n                  <a title="Texas" onclick="go_to_state_page(\'TX\'); return false;" href="#" class="dropdown_link" shape="rect">TX</a>\n                </li>\n                <li style="text-align: center">\n                  <a title="US Virgin Islands" onclick="go_to_state_page(\'VI\'); return false;" href="#" class="dropdown_link" shape="rect">VI</a>\n                </li>\n                <li style="text-align: center">\n                  <a title="Utah" onclick="go_to_state_page(\'UT\'); return false;" href="#" class="dropdown_link" shape="rect">UT</a>\n                </li>\n                <li style="text-align: center">\n                  <a title="Vermont" onclick="go_to_state_page(\'VT\'); return false;" href="#" class="dropdown_link" shape="rect">VT</a>\n                </li>\n                <li style="text-align: center">\n                  <a title="Virginia" onclick="go_to_state_page(\'VA\'); return false;" href="#" class="dropdown_link" shape="rect">VA</a>\n                </li>\n                <li style="text-align: center">\n                  <a title="Washington" onclick="go_to_state_page(\'WA\'); return false;" href="#" class="dropdown_link" shape="rect">WA</a>\n                </li>\n                <li style="text-align: center">\n                  <a title="West Virginia" onclick="go_to_state_page(\'WV\'); return false;" href="#" class="dropdown_link" shape="rect">WV</a>\n                </li>\n                <li style="text-align: center">\n                  <a title="Wisconsin" onclick="go_to_state_page(\'WI\'); return false;" href="#" class="dropdown_link" shape="rect">WI</a>\n                </li>\n                <li style="text-align: center">\n                  <a title="Wyoming" onclick="go_to_state_page(\'WY\'); return false;" href="#" class="dropdown_link" shape="rect">WY</a>\n                </li>\n              </ul>\n              <span style="text-align: left" class="inner_menu_header">Canada</span>\n              <ul>\n                <li style="text-align: center">\n                  <a title="Alberta" onclick="go_to_state_page(\'AB\'); return false;" href="#" class="dropdown_link" shape="rect">AB</a>\n                </li>\n                <li style="text-align: center">\n                  <a title="British Columbia" onclick="go_to_state_page(\'BC\'); return false;" href="#" class="dropdown_link" shape="rect">BC</a>\n                </li>\n                <li style="text-align: center">\n                  <a title="Manitoba" onclick="go_to_state_page(\'MB\'); return false;" href="#" class="dropdown_link" shape="rect">MB</a>\n                </li>\n                <li style="text-align: center">\n                  <a title="New Brunswick" onclick="go_to_state_page(\'NB\'); return false;" href="#" class="dropdown_link" shape="rect">NB</a>\n                </li>\n                <li style="text-align: center">\n                  <a title="Newfoundland" onclick="go_to_state_page(\'NL\'); return false;" href="#" class="dropdown_link" shape="rect">NL</a>\n                </li>\n                <li style="text-align: center">\n                  <a title="North West Territories" onclick="go_to_state_page(\'NT\'); return false;" href="#" class="dropdown_link" shape="rect">NT</a>\n                </li>\n                <li style="text-align: center">\n                  <a title="Nova Scotia" onclick="go_to_state_page(\'NS\'); return false;" href="#" class="dropdown_link" shape="rect">NS</a>\n                </li>\n                <li style="text-align: center">\n                  <a title="Nunavut" onclick="go_to_state_page(\'NU\'); return false;" href="#" class="dropdown_link" shape="rect">NU</a>\n                </li>\n                <li style="text-align: center">\n                  <a title="Ontario" onclick="go_to_state_page(\'ON\'); return false;" href="#" class="dropdown_link" shape="rect">ON</a>\n                </li>\n                <li style="text-align: center">\n                  <a title="Prince Edward Island" onclick="go_to_state_page(\'PE\'); return false;" href="#" class="dropdown_link" shape="rect">PE</a>\n                </li>\n                <li style="text-align: center">\n                  <a title="Quebec" onclick="go_to_state_page(\'QC\'); return false;" href="#" class="dropdown_link" shape="rect">QC</a>\n                </li>\n                <li style="text-align: center">\n                  <a title="Saskatchewan" onclick="go_to_state_page(\'SK\'); return false;" href="#" class="dropdown_link" shape="rect">SK</a>\n                </li>\n                <li style="text-align: center">\n                  <a title="Yukon" onclick="go_to_state_page(\'YN\'); return false;" href="#" class="dropdown_link" shape="rect">YN</a>\n                </li>\n              </ul>\n              <br style="clear: both" clear="none"></br>\n            </div>\n          </li>\n        </ul>\n        <span id="my_home_link"> </span>\n        <ul>\n          <li style="float: right;">\n            <a href="/login" shape="rect">Login</a>\n          </li>\n          <li style="float: right; color: white; font-size: 130%;">|</li>\n          <li style="float: right;">\n            <a href="/action/signup" shape="rect">Sign Up</a>\n          </li>\n        </ul>\n      </div>\n      <table cellspacing="0" cellpadding="0" width="100%" id="blog_content">\n        <tr>\n          <td rowspan="1" colspan="1">\n            <div id="custom_blog_header"></div>\n          </td>\n        </tr>\n        <tr>\n          <td class="blog_content_td" valign="top" rowspan="1" colspan="1">\n            <table height="100%" width="100%">\n              <tr valign="top">\n                <td width="5px" rowspan="1" colspan="1">\xc2\xa0</td>\n                <td valign="top" rowspan="1" colspan="1">\n                  <div id="content_wrapper">\n                    <style media="screen" type="text/css">\n                      body {\n  background: #81AAAD ;\n  margin: 0;\n  padding: 0;\n}\ntable#blog_content {\n  width: 960px;\n  margin: 0 auto;\n}\ntd.blog_content_td {\n  background: #ffffff;\n}\n#top_menu {\n  border: none;\n    background-color:#4751B2;\n    background-image: none;\n}\n\n#top_menu li a, #top_menu li span.fake_menu_item {\n  color: #EBD2D2;\n  text-shadow: none;\n}\n\n#top_menu .top_dropdown ul li a:hover {\n  background: none !important;\n}\n\n#logo_wrapper {\n  background: white;\n}\n\n#header {\n  margin-top: 0;\n  padding-top: 0;\n  border: none !important;\n}\n.nav {\n  margin: 0 !important;\n  border-width: 0 !important;\n}\n\n#top_menu .top_dropdown {\n  border: none;\n  background-color:#4751B2;\n}\n#top_menu .top_dropdown a, #top_menu .top_dropdown .inner_menu_header {\n  color:#EBD2D2 !important;\n}\n#top_menu .top_dropdown .inner_menu_header {\n  text-decoration: underline;\n}\n#top_menu .top_dropdown ul li a:hover {\n  background-color:#4751B2;\n  font-weight: bold;\n}\n.top_dropdown {\n  margin-top: 5px;\n}\n* html ul.top_level_menu {\n  display: inline-block;\n  position: relative;\n  z-index: 1000;\n}\n* + html ul.top_level_menu {\n  display: inline-block;\n  position: relative;\n  z-index: 1000;\n}\n* html .top_dropdown {\n\tmargin-top: 3px;\n\tz-index: 1000;\n}\n* + html .top_dropdown {\n  margin-top: 19px;\n  z-index: 1000;\n}\n                    </style>\n                    <div id="breadcrumbs">\n                      <a href="/" shape="rect">Home</a>\n                      :\n                      <a href="/bloghome" shape="rect">Blogs</a>\n                      :\n                      <a href="/toomora" rel="author" shape="rect">Michael J. O\'Connor, Eastvale, 951-847-4883</a>\n                      :\n                      <a href="/blogs/toomora" shape="rect">Eastvale, Corona &amp; Mira Loma - Real Estate Deals!</a>\n                    </div>\n                    <div align="left">\n                      <table width="100%">\n                        <tr valign="top">\n                          <td valign="top" rowspan="1" colspan="1">\n                            <div class="blog_entry_wrapper">\n                              <style> .reblog { margin-left: 4px; } </style>\n                              <div id="blog_entry_269045" class="blog_entry">\n                                <div style="position:relative; overflow:auto; width:100%">\n                                  <div style="margin-left:0px; width: 222px; float: right; border: 0px solid red; height: 30px; position: relative;" id="blog_social_links_269045">\n                                    <span style="border: 0px solid green; position: absolute; top: 0px; right: 166px;">\n                                      <iframe \n                                      allowtransparency="true" style="border:none; overflow:hidden; width:52px; height:35px;" src="http://www.facebook.com/plugins/like.php?href=http://activerain.com/blogsview/269045/happy-30th-birthday-rancho-cucamonga-&amp;send=false&amp;layout=standard&amp;width=152&amp;show_faces=false&amp;action=like&amp;colorscheme=light&amp;font&amp;height=35" scrolling="no" frameborder="0">\n</iframe>\n                                    </span>\n                                    <span style="border: 0px solid red; position: absolute; top: 0px; right: 124px;">\n                                      <g:plusone href="http://activerain.com/blogsview/269045/happy-30th-birthday-rancho-cucamonga-" count="false"></g:plusone>\n                                    </span>\n                                    <span style="border: 0px solid red; position: absolute; top: 0px; right: 60px;">\n                                      <script src="http://platform.linkedin.com/in.js" type="text/javascript"></script>\n                                      <script data-url="http://activerain.com/blogsview/269045/happy-30th-birthday-rancho-cucamonga-" type="in/share"></script>\n                                    </span>\n                                    <span style="border: 0px solid red; position: absolute; top: 0px; right: 0px;">\n                                      <a data-count="none" data-url="http://activerain.com/blogsview/269045/happy-30th-birthday-rancho-cucamonga-" href="http://twitter.com/share" class="twitter-share-button" shape="rect">Tweet</a>\n                                      <script src="http://platform.twitter.com/widgets.js" type="text/javascript"></script>\n                                    </span>\n                                  </div>\n                                  <div>\n                                    <h1 style="margin-top:2px; font-size: 16px;">\n                                      <a rel="bookmark" href="http://activerain.com/blogsview/269045/happy-30th-birthday-rancho-cucamonga-" shape="rect">Happy 30th Birthday Rancho Cucamonga!</a>\n                                    </h1>\n                                  </div>\n                                  <p>It was 30 years ago today (on November 10, 1977) that the city of Rancho Cucamonga was incorporated.\xc2\xa0 </p>\n                                  <p>\n                                    The city, formed by the mergers of the towns of Alta Loma, Cucamonga and Etiwanda, has always been acknowledged as a funny sounding name.\xc2\xa0 The Jack Benny Show gave the area some early publicity when Mel Blanc as a train announcer would say over the loud speaker:\xc2\xa0 &quot;Train now leaving on track five for Anaheim, Azusa, and Cuc... amonga,&quot; with progressively longer pauses in the middle of Cucamonga.\xc2\xa0 The inside joke for LA viewers is that no such train route exists.\n                                  </p>\n                                  <p>Rancho Cucamonga also has the following ties to myth and history (sourced from Wikipedia):</p>\n                                  <ul>\n                                    <li>\n                                      In the movie\n                                      <em>\n                                        <a title="Fletch Lives" href="http://en.wikipedia.org/wiki/Fletch_Lives" shape="rect">Fletch Lives</a>\n                                        ,\n                                      </em>\n                                      Fletch, played by actor\n                                      <a title="Chevy Chase" href="http://en.wikipedia.org/wiki/Chevy_Chase" shape="rect">Chevy Chase</a>\n                                      , claims to a\n                                      <a title="Ku Klux Klan" href="http://en.wikipedia.org/wiki/Ku_Klux_Klan" shape="rect">Ku Klux Klan</a>\n                                      leader that he is from the &quot;Cucamonga Klan&quot; from California.\n                                    </li>\n                                    <li>\n                                      An\n                                      <a title="American Broadcasting Company" href="http://en.wikipedia.org/wiki/American_Broadcasting_Company" shape="rect">ABC</a>\n                                      television movie\n                                      <a title="Comedy" href="http://en.wikipedia.org/wiki/Comedy" shape="rect">comedy</a>\n                                      <em>\n                                        <a title="Camp Cucamonga" href="http://en.wikipedia.org/wiki/Camp_Cucamonga" shape="rect">Camp Cucamonga</a>\n                                      </em>\n                                      (1990), presumably takes place in a summer camp in Rancho Cucamonga\'s forested area in the\n                                      <a title="San Bernardino National Forest" href="http://en.wikipedia.org/wiki/San_Bernardino_National_Forest" shape="rect">San Bernardino National Forest</a>\n                                      . The current city limits barely extend into the forested regions of the foothills, and large parts of\n                                      <a title="Cucamonga Peak" href="http://en.wikipedia.org/wiki/Cucamonga_Peak" shape="rect">Cucamonga Peak</a>\n                                      north of the city lie in a\n                                      <a title="Wilderness area" href="http://en.wikipedia.org/wiki/Wilderness_area" shape="rect">wilderness area</a>\n                                      .\n                                    </li>\n                                    <li>\n                                      A fictional\n                                      <a title="Johnny Carson" href="http://en.wikipedia.org/wiki/Johnny_Carson" shape="rect">Johnny Carson</a>\n                                      character named Floyd R. Turbo said he was from Cucamonga, California.\n                                    </li>\n                                    <li>\n                                      &quot;Pride of Cucamonga&quot;, a\n                                      <a title="Wine" href="http://en.wikipedia.org/wiki/Wine" shape="rect">wine</a>\n                                      produced by the Joseph Filippi Winery in Rancho Cucamonga, was used as the title of a song by the\n                                      <a title="Grateful Dead" href="http://en.wikipedia.org/wiki/Grateful_Dead" shape="rect">Grateful Dead</a>\n                                      .\n                                    </li>\n                                    <li>\n                                      Comedian\n                                      <a title="Jamie Kennedy" href="http://en.wikipedia.org/wiki/Jamie_Kennedy" shape="rect">Jamie Kennedy</a>\n                                      performed a skit for his hidden camera show\n                                      <em>\n                                        <a title="The Jamie Kennedy Experiment" href="http://en.wikipedia.org/wiki/The_Jamie_Kennedy_Experiment" shape="rect">The Jamie Kennedy Experiment</a>\n                                      </em>\n                                      in which he pranked everyone at the Rancho Cucamonga Quakes Stadium into singing multiple verses of the national anthem.\n                                    </li>\n                                    <li>\n                                      Hometown to pop punk band\n                                      <a title="Rufio" href="http://en.wikipedia.org/wiki/Rufio" shape="rect">Rufio</a>\n                                      ,\n                                      <a title="O-Town" href="http://en.wikipedia.org/wiki/O-Town" shape="rect">O-Town</a>\n                                      boy band member\n                                      <a title="Trevor Penick" href="http://en.wikipedia.org/wiki/Trevor_Penick" shape="rect">Trevor Penick</a>\n                                      , as well as\n                                      <em>\n                                        <a title="American Idol" href="http://en.wikipedia.org/wiki/American_Idol" shape="rect">American Idol</a>\n                                        : Season 3\n                                      </em>\n                                      finalist\n                                      <a title="Matthew Rogers" href="http://en.wikipedia.org/wiki/Matthew_Rogers" shape="rect">Matthew Rogers</a>\n                                      .\n                                    </li>\n                                    <li>\n                                      Musician\n                                      <a title="Frank Zappa" href="http://en.wikipedia.org/wiki/Frank_Zappa" shape="rect">Frank Zappa</a>\n                                      built his famous\n                                      <a title="Studio Z" href="http://en.wikipedia.org/w/index.php?title=Studio_Z&amp;action=edit" shape="rect">Studio Z</a>\n                                      recording studio in Cucamonga and made the city his part-time residence for much of the \'60s and \'70s. (&quot;Cucamonga&quot; is also the name of a long-lived radio show on\n                                      <a title="VRT" href="http://en.wikipedia.org/wiki/VRT" shape="rect">Radio 1</a>\n                                      ,\n                                      <a title="Belgium" href="http://en.wikipedia.org/wiki/Belgium" shape="rect">Belgium</a>\n                                      , as an obscure reference to Frank Zappa.)\n                                    </li>\n                                    <li>\n                                      Rancho Cucamonga was mentioned in a 2006\n                                      <a title="Dr Pepper" href="http://en.wikipedia.org/wiki/Dr_Pepper" shape="rect">Dr Pepper</a>\n                                      commercial.\n                                    </li>\n                                    <li>\n                                      In an episode of &quot;\n                                      <a title="The Office (US TV series)" href="http://en.wikipedia.org/wiki/The_Office_%28US_TV_series%29" shape="rect">The Office</a>\n                                      ,&quot;\n                                      <a title="Michael Scott (The Office)" href="http://en.wikipedia.org/wiki/Michael_Scott_%28The_Office%29" shape="rect">Michael Scott</a>\n                                      tries to entertain a child during\n                                      <a title="Take Your Daughter to Work Day" href="http://en.wikipedia.org/wiki/Take_Your_Daughter_to_Work_Day" shape="rect">Take Your Daughter to Work Day</a>\n                                      . Blowing a train whistle, he paraphrases the Jack Benny joke, &quot;next stop Cuc-amonga&quot;.\n                                    </li>\n                                    <li>\n                                      In an episode of\n                                      <em>\n                                        <a title="The Simpsons" href="http://en.wikipedia.org/wiki/The_Simpsons" shape="rect">The Simpsons</a>\n                                      </em>\n                                      ,\n                                      <a title="Krusty the Clown" href="http://en.wikipedia.org/wiki/Krusty_the_Clown" shape="rect">Krusty the Clown</a>\n                                      mentioned Cucamonga, along with\n                                      <a title="Walla Walla, Washington" href="http://en.wikipedia.org/wiki/Walla_Walla%2C_Washington" shape="rect">Walla Walla</a>\n                                      ,\n                                      <a title="Seattle, Washington" href="http://en.wikipedia.org/wiki/Seattle%2C_Washington" shape="rect">Seattle</a>\n                                      , and\n                                      <a title="Keokuk, Iowa" href="http://en.wikipedia.org/wiki/Keokuk%2C_Iowa" shape="rect">Keokuk</a>\n                                      as funny place names.\n                                    </li>\n                                    <li>\n                                      In an early\n                                      <em>\n                                        <a title="Sesame Street" href="http://en.wikipedia.org/wiki/Sesame_Street" shape="rect">Sesame Street</a>\n                                      </em>\n                                      sketch,\n                                      <a title="Cookie Monster" href="http://en.wikipedia.org/wiki/Cookie_Monster" shape="rect">Cookie Monster</a>\n                                      tries to fool\n                                      <a title="Ernie" href="http://en.wikipedia.org/wiki/Ernie" shape="rect">Ernie</a>\n                                      by claiming that Ernie has a dread disease called &quot;Cucamongaphobia.&quot;\n                                    </li>\n                                    <li>\n                                      In the 1995 movie\n                                      <em>\n                                        <a title="A Kid in King Arthur\'s Court" href="http://en.wikipedia.org/wiki/A_Kid_in_King_Arthur%27s_Court" shape="rect">A Kid in King Arthur\'s Court</a>\n                                      </em>\n                                      , King Arthur exiles the villain to Cucamonga at the recommendation of Calvin Fuller.\n                                    </li>\n                                    <li>\n                                      <a title="Lou Costello" href="http://en.wikipedia.org/wiki/Lou_Costello" shape="rect">Lou Costello</a>\n                                      (\n                                      <a title="Abbott and Costello" href="http://en.wikipedia.org/wiki/Abbott_and_Costello" shape="rect">Abbott and Costello</a>\n                                      ) states that he once played with &quot;the Cucamonga Wildcats&quot; during a 1947 performance of &quot;\n                                      <a title="Who\'s on first" href="http://en.wikipedia.org/wiki/Who%27s_on_first" shape="rect">Who\'s on First?</a>\n                                      &quot;\n                                    </li>\n                                    <li>\n                                      It is mentioned in\n                                      <a title="Who Framed Roger Rabbit?" href="http://en.wikipedia.org/wiki/Who_Framed_Roger_Rabbit%3F" shape="rect">Who Framed Roger Rabbit?</a>\n                                    </li>\n                                    <li>Actor Redd Foxx made frequent references to Rancho Cucamonga in the television show &quot; Sanford and Son&quot; </li>\n                                  </ul>\n                                  <p>Wishing you the best 30th Birthday Rancho Cucamonga!</p>\n                                  <div class="clearer">\xc2\xa0</div>\n                                </div>\n                              </div>\n                            </div>\n                            <div id="divbei269045">\n                              <div style="width: 300px; float: right; margin-left: 15px" id="facebook">\n                                <iframe \n                                allowtransparency="true" style="border:none; overflow:hidden; width:300px; height:80px;" src="http://www.facebook.com/plugins/like.php?href=http%3A%2F%2Factiverain.com%2Fblogsview%2F269045%2Fhappy-30th-birthday-rancho-cucamonga-&amp;layout=standard&amp;show_faces=true&amp;width=300&amp;action=like&amp;font=verdana&amp;colorscheme=light&amp;height=80" scrolling="no" frameborder="0">\n</iframe>\n                              </div>\n                              <div class="blog_footer">\n                                <table>\n                                  <tr valign="middle">\n                                    <td rowspan="1" colspan="1">\n                                      Posted by\n                                      <a href="/toomora" shape="rect">Michael J. O\'Connor, Eastvale, 951-847-4883</a>\n                                      on 11/10/2007 02:57 PM\n                                    </td>\n                                    <td style="border-right:solid 2px #888888;" rowspan="1" colspan="1">\xc2\xa0</td>\n                                    <td rowspan="1" colspan="1">\n                                      <a style="white-space:nowrap;" href="http://activerain.com/blogsview/269045/happy-30th-birthday-rancho-cucamonga-" shape="rect">Comments (3)</a>\n                                    </td>\n                                    <td style="border-right:solid 2px #888888;" rowspan="1" colspan="1">\xc2\xa0</td>\n                                    <td rowspan="1" colspan="1">\n                                      <a href="/blogs/toomora/tags/rancho%20cucamonga" shape="rect">rancho cucamonga</a>\n                                      ,\n                                      <a href="/blogs/toomora/tags/city%20birthday" shape="rect">city birthday</a>\n                                      ,\n                                      <a href="/blogs/toomora/tags/city%20trivia" shape="rect">city trivia</a>\n                                    </td>\n                                    <td style="border-right:solid 2px #888888;" rowspan="1" colspan="1">\xc2\xa0</td>\n                                  </tr>\n                                </table>\n                                <table>\n                                  <tr valign="middle">\n                                    <td rowspan="1" colspan="1">\n                                      <span id="short_url">\n                                        <a onclick="new Ajax.Updater(\'short_url\', \'/action/blogs/shorten_url/269045\', {asynchronous:true, evalScripts:true, method:\'post\'}); return false;" href="#" shape="rect">Generate short URL</a>\n                                      </span>\n                                    </td>\n                                  </tr>\n                                </table>\n                              </div>\n                            </div>\n                            <div style="width:450px;" id="included_location" class="textBlock">\n                              <div style="width:450px;" class="innerTextBlock" align="left">\n                                This post has been included in\n                                <a href="/states/CA" shape="rect">California Real Estate News</a>\n                                <a href="/states/CA/counties/San%20Bernardino%20County" shape="rect">San Bernardino County, CA Real Estate News</a>\n                                <a href="/states/CA/cities/Rancho%20Cucamonga" shape="rect">Rancho Cucamonga, CA Real Estate News</a>\n                                <br clear="none"></br>\n                              </div>\n                            </div>\n                            <a name="comments" shape="rect"></a>\n                            <table style="clear:both">\n                              <tr>\n                                <td rowspan="1" colspan="1">\n                                  <p>\n                                    <b> 3 Comments on Happy 30th Birthday Rancho Cucamonga!</b>\n                                  </p>\n                                  <div class="date_bar">\n                                    <div style="margin-left: 56px" class="month">NOV</div>\n                                    <div class="day">14</div>\n                                    <div style="" class="year">2007</div>\n                                  </div>\n                                  <a name="1315786" shape="rect"></a>\n                                  <div id="comment_1315786" class="comment agent_949e420a39fd1ff191e1ba856f668f6867553a53">\n                                    <div class="comment_layout">\n                                      <a name="1315786" shape="rect"></a>\n                                      <div style="position: relative; _display: inline-block; background-image: url(http://activeagent-prod-assets0.ar-img.com/images/badges/rainmaker_small.png?1348684471); background-position: top right; background-repeat: no-repeat; _background-image: none;" class="inner_comment">\n                                        <table class="comment_layout_table">\n                                          <tr>\n                                            <td class="badge" rowspan="1" colspan="1">\n                                              <div style="position:relative; margin-bottom: 3px; margin-right: 8px">\n                                                <div \n                                                imagesrc="http://activerain.com/system/s3_buckets/activerain-image-store-2/agents/478/1478/small/Teri2012-4.jpg?1332481629" style="width: 80px; height: 80px; background: url(/images/blank.gif); background-position: center center; background-repeat: no-repeat; position: relative;" class="comment_image">\n</div>\n                                              </div>\n                                              <div>\n                                                <img title="402,294 Points" src="http://activeagent-prod-assets3.ar-img.com/images/badges/a/cfd6897ece0ce65b25f37d4a35cb171252c00107.gif?1348615406" alt="402,294 Points"></img>\n                                                <img title="17 Featured Posts" src="http://activeagent-prod-assets2.ar-img.com/images/badges/a/2f8dbae4324fb3c2447ab4ba2dcc1004b3959818.gif?1348615406" alt="17 Featured Posts"></img>\n                                                <img title="Outside Blog" src="http://activeagent-prod-assets0.ar-img.com/images/badges/a/472d1795f06355daf4a5fb5d5907d45784ef5620.gif?1348615406" alt="Outside Blog"></img>\n                                              </div>\n                                            </td>\n                                            <td style="width: 100%" class="comment_text" rowspan="1" colspan="1">\n                                              <p>Michael, good and informational post about Rancho Cucamonga. Even though I only typically &quot;pass through&quot;,\xc2\xa0if ever I\'m given a trivia question about Rancho Cucamonga, I\'ll know it\xc2\xa0- especially about Sanford and Son and Redd Foxx. Wasn\'t that just the greatest show?</p>\n                                              <p>\n                                                <em>\n                                                  <a rel="nofollow" href="http://www.glittermaker.com/" shape="rect">\n                                                    <img width="181" alt="http://www.GlitterMaker.com/ - Glitter Graphics" height="57" border="0" src="http://9.uploadmirror.com/uploaded/9/973/glitter_maker_07_08_2007_21_08_01_11781.gif" title="http://www.GlitterMaker.com/ - Glitter Graphics"></img>\n                                                  </a>\n                                                </em>\n                                              </p>\n                                            </td>\n                                            <td rowspan="1" colspan="1"></td>\n                                          </tr>\n                                          <tr class="header">\n                                            <td style="font-weight: normal; color: #777 !important; width: 100%; font-size: 10px" rowspan="1" colspan="2">\n                                              <table width="100%">\n                                                <tr>\n                                                  <td width="100%" rowspan="1" colspan="1">\n                                                    <div style="font-weight: normal; color: #777 !important; width: 100%; font-size: 10px">\n                                                      <a href="/teriellis" rel="nofollow" style="text-decoration: none; color: #999" shape="rect">Teri Ellis at Homes Arizona Real Estate LLC</a>\n                                                    </div>\n                                                  </td>\n                                                  <td rowspan="1" colspan="1"> </td>\n                                                </tr>\n                                              </table>\n                                            </td>\n                                            <td style="white-space: nowrap" rowspan="1" colspan="1" align="center">\n                                              <div title="Wednesday, November 14, 2007, 11:40PM" class="time">\n                                                11:40pm \xe2\x80\xa2\n                                                <a rel="nofollow" href="http://activerain.com/blogsview/269045/happy-30th-birthday-rancho-cucamonga-#1315786" shape="rect">#1</a>\n                                              </div>\n                                            </td>\n                                          </tr>\n                                        </table>\n                                      </div>\n                                    </div>\n                                  </div>\n                                  <div class="date_bar">\n                                    <div style="margin-left: 56px" class="month">NOV</div>\n                                    <div class="day">15</div>\n                                    <div style="" class="year">2007</div>\n                                  </div>\n                                  <a name="1316015" shape="rect"></a>\n                                  <div id="comment_1316015" class="comment original_poster agent_b83485b0fde9e619096a19089dae8003c9d0a2c6">\n                                    <div class="comment_layout">\n                                      <a name="1316015" shape="rect"></a>\n                                      <div style="position: relative; _display: inline-block; background-image: url(http://activeagent-prod-assets3.ar-img.com/images/badges/rainmaker_small.png?1348685941); background-position: top right; background-repeat: no-repeat; _background-image: none;" class="inner_comment">\n                                        <table class="comment_layout_table">\n                                          <tr>\n                                            <td class="badge" rowspan="1" colspan="1">\n                                              <div style="position:relative; margin-bottom: 3px; margin-right: 8px">\n                                                <div \n                                                imagesrc="http://activerain.com/system/s3_buckets/activerain-image-store-2/agents/787/63787/small/Headshots_051_600x600.jpg?1306136526" style="width: 80px; height: 80px; background: url(/images/blank.gif); background-position: center center; background-repeat: no-repeat; position: relative;" class="comment_image">\n</div>\n                                              </div>\n                                              <div>\n                                                <img title="238,975 Points" src="http://activeagent-prod-assets1.ar-img.com/images/badges/a/791a59033857b7bf7b47df1ebb75881129ba0216.gif?1348684471" alt="238,975 Points"></img>\n                                                <img title="3 Featured Posts" src="http://activeagent-prod-assets2.ar-img.com/images/badges/a/2f8dbae4324fb3c2447ab4ba2dcc1004b3959818.gif?1348684471" alt="3 Featured Posts"></img>\n                                                <img title="Localism Sponsor" src="http://activeagent-prod-assets1.ar-img.com/images/badges/a/d70939d843dd7f93801362bd67b6f469c2a7930a.gif?1348684471" alt="Localism Sponsor"></img>\n                                                <img title="Outside Blog" src="http://activeagent-prod-assets0.ar-img.com/images/badges/a/472d1795f06355daf4a5fb5d5907d45784ef5620.gif?1348684471" alt="Outside Blog"></img>\n                                                <img title="Attended Rain Camp" src="http://activeagent-prod-assets1.ar-img.com/images/badges/a/d99c1c80e7180261e9a2ae05836624ad15d05ad6.gif?1348684471" alt="Attended Rain Camp"></img>\n                                              </div>\n                                            </td>\n                                            <td style="width: 100%" class="comment_text" rowspan="1" colspan="1">\n                                              <p>\n                                                Many people have the habit of just \'passing through\' although that\'s starting to change.\xc2\xa0 A major destination now is\n                                                <a target="_blank" rel="nofollow" title="Victoria Gardens Homepage" href="http://www.victoriagardensie.com/" shape="rect">Victoria Gardens</a>\n                                                which is a real shopping and dining mecca in the region.\xc2\xa0 It has the first California\n                                                <a target="_blank" rel="nofollow" title="Bass Pro Shop Store Locations" href="http://www.basspro.com/webapp/wcs/stores/servlet/CFPage?appID=94&amp;storeId=10151&amp;catalogId=10001&amp;langId=-1&amp;CMID=MH_IN_EVENTS" shape="rect">Bass Pro Shop</a>\n                                                which is a region draw for anyone into outdoor-play-toys.\n                                              </p>\n                                              <p>Sanford &amp; Son was certainly landmark programming and I did enjoy watching the antics between Sanford and \'the evil and ugly Aunt Esther\'.\xc2\xa0 Interestingly the show ended just as Rancho Cucamonga was founded so the references on the show must have been to \'Cucamonga\'.</p>\n                                              <p>\n                                                <img width="221" alt="Sanford and Son" height="300" src="/image_store/uploads/2/6/0/2/3/ar119510902632062.jpg" title="Sanford and Son"></img>\n                                              </p>\n                                            </td>\n                                            <td rowspan="1" colspan="1"></td>\n                                          </tr>\n                                          <tr class="header">\n                                            <td style="font-weight: normal; color: #777 !important; width: 100%; font-size: 10px" rowspan="1" colspan="2">\n                                              <table width="100%">\n                                                <tr>\n                                                  <td width="100%" rowspan="1" colspan="1">\n                                                    <div style="font-weight: normal; color: #777 !important; width: 100%; font-size: 10px">\n                                                      <a href="/toomora" rel="nofollow" style="text-decoration: none; color: #999" shape="rect">Michael J. O\'Connor, Eastvale, 951-847-4883 (Diamond Ridge Realty)</a>\n                                                    </div>\n                                                  </td>\n                                                  <td rowspan="1" colspan="1"> </td>\n                                                </tr>\n                                              </table>\n                                            </td>\n                                            <td style="white-space: nowrap" rowspan="1" colspan="1" align="center">\n                                              <div title="Thursday, November 15, 2007, 12:45AM" class="time">\n                                                12:45am \xe2\x80\xa2\n                                                <a rel="nofollow" href="http://activerain.com/blogsview/269045/happy-30th-birthday-rancho-cucamonga-#1316015" shape="rect">#2</a>\n                                              </div>\n                                            </td>\n                                          </tr>\n                                        </table>\n                                      </div>\n                                    </div>\n                                  </div>\n                                  <div class="date_bar">\n                                    <div style="margin-left: 56px" class="month">DEC</div>\n                                    <div class="day">07</div>\n                                    <div style="" class="year">2007</div>\n                                  </div>\n                                  <a name="1443923" shape="rect"></a>\n                                  <div id="comment_1443923" class="comment agent_">\n                                    <div class="comment_layout">\n                                      <a name="1443923" shape="rect"></a>\n                                      <div style="position: relative; _display: inline-block; " class="inner_comment">\n                                        <table class="comment_layout_table">\n                                          <tr>\n                                            <td class="badge" rowspan="1" colspan="1"> </td>\n                                            <td style="width: 100%" class="comment_text" rowspan="1" colspan="1">\n                                              Michael:\xc2\xa0 I have a friend in Gallatin who sold her home in Rancho Cucamonga to move here.\xc2\xa0 She loved the place.\xc2\xa0 Great post and great presentation.\n                                              <br clear="none"></br>\n                                            </td>\n                                            <td rowspan="1" colspan="1"></td>\n                                          </tr>\n                                          <tr class="header">\n                                            <td style="font-weight: normal; color: #777 !important; width: 100%; font-size: 10px" rowspan="1" colspan="2">\n                                              <table width="100%">\n                                                <tr>\n                                                  <td width="100%" rowspan="1" colspan="1">\n                                                    <div style="font-weight: normal; color: #777 !important; width: 100%; font-size: 10px"> </div>\n                                                  </td>\n                                                  <td rowspan="1" colspan="1"> </td>\n                                                </tr>\n                                              </table>\n                                            </td>\n                                            <td style="white-space: nowrap" rowspan="1" colspan="1" align="center">\n                                              <div title="Friday, December 7, 2007, 4:15PM" class="time">\n                                                4:15pm \xe2\x80\xa2\n                                                <a rel="nofollow" href="http://activerain.com/blogsview/269045/happy-30th-birthday-rancho-cucamonga-#1443923" shape="rect">#3</a>\n                                              </div>\n                                            </td>\n                                          </tr>\n                                        </table>\n                                      </div>\n                                    </div>\n                                  </div>\n                                  <div id="new_notification_subscription" class="notification_subscription">\n                                    <form \n                                    onsubmit="new Ajax.Updater(\'new_notification_subscription\', \'/blog_entries/269045/notification_subscriptions\', {asynchronous:true, evalScripts:true, parameters:Form.serialize(this)}); return false;" action="/blog_entries/269045/notification_subscriptions" id="new_notification_subscription" class="new_notification_subscription" method="post" enctype="application/x-www-form-urlencoded">\n                                      <div>\n                                        <label for="show_notification_form">Notify me of new comments:</label>\n                                        <input value="true" onclick="$(\'form_notification_subscription\').toggle();" name="show_notification_form" id="show_notification_form" type="checkbox" checked="checked"></input>\n                                      </div>\n                                      <div id="form_notification_subscription">\n                                        <table>\n                                          <tr>\n                                            <td rowspan="1" colspan="1">\n                                              <b>\n                                                <label for="notification_subscription_email">Email:</label>\n                                              </b>\n                                              <input size="60" name="notification_subscription[email]" max_size="64" id="notification_subscription_email" type="text"></input>\n                                              <a \n                                              href="javascript:alert(\'You will be notified when someone comments or the blog is updated.  We will not display your email address or give it out to anyone. There will be a link to unsubscribe to the notification when you recieve the email. We will not use your email for anything other than this notification.\');" shape="rect">\n                                                <img src="/images/24-message-info.png"></img>\n</a>\n                                            </td>\n                                          </tr>\n                                          <tr>\n                                            <td rowspan="1" colspan="1">\n                                              What does the graphic say?\n                                              <table>\n                                                <tr>\n                                                  <td rowspan="1" colspan="1">\n                                                    <img autocomplete="off" src="/plugin_assets/fruit_captcha/images/f279.gif" id="captcha"></img>\n                                                  </td>\n                                                  <td rowspan="1" colspan="1">\n                                                    <input name="captcha_response" id="captcha_response" type="text"></input>\n                                                    <input value="279" name="captcha_sequence" id="captcha_sequence" type="hidden"></input>\n                                                  </td>\n                                                </tr>\n                                              </table>\n                                            </td>\n                                          </tr>\n                                          <tr>\n                                            <td rowspan="1" colspan="1" align="right">\n                                              <div class="button_wrapper">\n                                                <input value="Subscribe" name="commit" id="notification_subscription_submit" class="site_button" type="submit"></input>\n                                              </div>\n                                            </td>\n                                          </tr>\n                                        </table>\n                                      </div>\n</form>\n                                  </div>\n                                  <a name="new_comment" shape="rect"></a>\n                                  <div style="color: #1E77B9; font-size: 14px; font-weight: 600; margin: 10px 0px 10px 0px;">Leave a response\xe2\x80\xa6</div>\n                                  <script type="text/javascript" src="http://activeagent-prod-assets2.ar-img.com/javascripts/blog_comments/_form.js?1348684471"></script>\n                                  <link type="text/css" rel="stylesheet" media="screen" href="http://activeagent-prod-assets1.ar-img.com/stylesheets/comment_form.css?1348684471"></link>\n                                  <script type="text/javascript"> var RecaptchaOptions = { theme : \'custom\', custom_theme_widget: \'recaptcha_widget\' }; </script>\n                                  <form \n                                  onsubmit="blog_comment_before_submit(\'Submitting...\'); new Ajax.Updater({failure:\'ajax_messages\'}, \'/blog_entries/269045/blog_comments\', {asynchronous:true, evalScripts:true, onFailure:function(request){blog_comment_failure(\'Submit Comment\')}, onSuccess:function(request){blog_comment_success(\'http://activerain.com/blogsview/269045/happy-30th-birthday-rancho-cucamonga-\')}, parameters:Form.serialize(this)}); return false;" action="/blog_entries/269045/blog_comments" id="new_blog_comment" class="new_blog_comment" method="post" enctype="application/x-www-form-urlencoded">\n                                    <div id="more_info">\n                                      <input size="30" name="market" id="market" class="market" type="text"></input>\n                                    </div>\n                                    <p style="display: none; color: #d00; font-weight: bold;" id="ajax_messages" class="flash_notice2"></p>\n                                    <table>\n                                      <tr>\n                                        <td rowspan="1" colspan="1">\n                                          <b>\n                                            <label for="blog_comment_name">Name:</label>\n                                          </b>\n                                          <br clear="none"></br>\n                                          <input size="60" name="blog_comment[name]" max_size="64" id="blog_comment_name" type="text"></input>\n                                        </td>\n                                      </tr>\n                                      <tr>\n                                        <td rowspan="1" colspan="1">\n                                          <b>\n                                            <label for="blog_comment_email">Email:</label>\n                                          </b>\n                                          <br clear="none"></br>\n                                          <input size="60" name="blog_comment[email]" max_size="64" id="blog_comment_email" type="text"></input>\n                                          (optional)\n                                        </td>\n                                      </tr>\n                                      <tr>\n                                        <th rowspan="1" colspan="1" align="left">\n                                          <label for="blog_comment_comment">Comment:</label>\n                                        </th>\n                                      </tr>\n                                      <tr>\n                                        <td rowspan="1" colspan="1">\n                                          <textarea name="blog_comment[comment]" id="blog_comment_comment" rows="16" cols="100"></textarea>\n                                          <script type="text/javascript">\n                                            //&lt;![CDATA[\ntinyMCE.init(\n        { mode:\'exact\', \n        convert_urls: false, \n        elements:\'blog_comment_comment\', \n        theme:\'advanced\', \n        plugins: \'spellchecker\', \n        theme_advanced_toolbar_location: \'top\', \n        theme_advanced_buttons1 : \'bold, italic, underline, strikethrough, justifyleft, justifycenter, justifyright, justifyfull, outdent,indent, bullist, numlist,preview,spellchecker\', \n        extended_valid_elements: \'object[classid|codebase|width|height|align|embed|bgcolor|base|name|allowFullScreen|type|pluginspage|seamlesstabbing|id|src|quality|swliveconnect|allowscriptaccess|movie|moviedata],param[name|value],embed[quality|type|pluginspage|width|height|src|align|wmode|flashvars|bgcolor|base|name|allowFullScreen|type|pluginspage|seamlesstabbing|id|src|quality|swliveconnect|allowscriptaccess|movie|moviedata]\', \n        plugin_preview_width : \'600\', \n        plugin_preview_height : \'600\',\n        theme_advanced_buttons2 : \'\',\n        theme_advanced_buttons3 : \'\',\n        file_browser_callback : \'fileBrowserCallBack\',\n        spellchecker_rpc_url : \'/action/spellcheck\'\n        });\n        \n//]]&gt;\n                                          </script>\n                                        </td>\n                                      </tr>\n                                      <tr>\n                                        <td rowspan="1" colspan="1"> </td>\n                                      </tr>\n                                      <tr>\n                                        <td style="border-right: 0px;" class="label" rowspan="1" colspan="1"> Spam Prevention: </td>\n                                      </tr>\n                                      <tr>\n                                        <td style="position: relative; border-right: 0px;" rowspan="1" colspan="2">\n                                          <div style="display:none; width: 300px; margin: 0 auto; float: left;" id="recaptcha_widget">\n                                            <div id="recaptcha_image"></div>\n                                            <div style="color:red" class="recaptcha_only_if_incorrect_sol">Incorrect please try again</div>\n                                            <div style="position: relative;" class="ghost_wrapper">\n                                              <span onclick="$(\'recaptcha_response_field\').focus()" id="recaptcha_response_field_ghost" class="ghost">\n                                                <span class="recaptcha_only_if_image">Type the two words above</span>\n                                                <span class="recaptcha_only_if_audio">Type the numbers you hear</span>\n                                              </span>\n                                              <input onblur="handle_ghost_blur(this)" onfocus="handle_ghost_focus(this)" style="width: 236px" name="recaptcha_response_field" id="recaptcha_response_field" type="text"></input>\n                                              <div style="position:absolute; left:249px; bottom: 0; width: 100px;">\n                                                <img style="cursor: pointer; margin-right: 5px" src="http://activeagent-prod-assets2.ar-img.com/images/sound.gif?1348684471" onclick="Recaptcha.switch_type(\'audio\')" alt="Get an audio CAPTCHA" class="recaptcha_only_if_image"></img>\n                                                <img style="cursor: pointer; margin-right: 5px" src="http://activeagent-prod-assets3.ar-img.com/images/photo.gif?1348684471" onclick="Recaptcha.switch_type(\'image\')" alt="Get an image CAPTCHA" class="recaptcha_only_if_audio"></img>\n                                                <img style="cursor: pointer" src="http://activeagent-prod-assets1.ar-img.com/images/reload.gif?1348684471" onclick="Recaptcha.reload()" alt="Try another CAPTCHA"></img>\n                                              </div>\n                                            </div>\n                                          </div>\n                                        </td>\n                                      </tr>\n                                      <tr>\n                                        <td rowspan="1" colspan="1" align="right">\n                                          <div style="float: right;" class="button_wrapper">\n                                            <input value="Submit Comment" style="float: left;" name="commit" id="blog_comment_submit" class="site_button" type="submit"></input>\n                                          </div>\n                                        </td>\n                                      </tr>\n                                    </table>\n</form>\n                                </td>\n                              </tr>\n                              <script src="http://www.google.com/recaptcha/api/challenge?k=6Lffab0SAAAAADzaY18vUX-VqFDH09unXQ3M8alP" type="text/javascript"></script>\n                            </table>\n                          </td>\n                        </tr>\n                      </table>\n                    </div>\n                    <script charset="utf-8" type="text/javascript"> Event.observe(window, \'load\', initLazyLoad); function initLazyLoad() { $$(&quot;div.comment_image&quot;).each(function(e){ e.style.backgroundImage = &quot;url(&quot;+e.getAttribute(\'imagesrc\')+&quot;)&quot; }) } </script>\n                  </div>\n                </td>\n              </tr>\n            </table>\n          </td>\n          <td width="5px" rowspan="1" colspan="1">\xc2\xa0</td>\n          <td width="210px" bgcolor="#FBFAEA" rowspan="1" colspan="1">\n            <div style="width:220px;" id="blog_nav">\n              <script>\n                function contact(aid)\n{\n//documentation on this: http://prototype-window.xilinus.com/documentation.html\nvar win = new Window(\'modal_window\', \n\t\t\t\t\t{className: &quot;dialog&quot;, title: &quot;Contact&quot;,\n\t\t\t\t\ttop:30, left:30,  width:720, height:580, zIndex:150, \n\t\t\t\t\turl: &quot;/agents/contact?id=&quot; + aid,\n\t\t\t\t\topacity:1, resizable: true})\nwin.setDestroyOnClose();\nwin.show(true);\n}\n              </script>\n              <div style="text-align: center; margin-top: 10px" id="blog_profile" class="">\n                <div onclick="window.location.href=\'/toomora\'" style="margin-top: 15px; cursor: pointer" class="photo">\n                  <div style="z-index: 1000; position: relative; width:170px; margin: 0 auto">\n                    <img style="display: block" src="http://activerain.com/system/s3_buckets/activerain-image-store-2/agents/787/63787/large/Headshots_051_600x600.jpg?1306136526" alt="Headshots_051_600x600"></img>\n                    <img width="170" style="display: block" src="http://activeagent-prod-assets1.ar-img.com/images/badges/rainmaker_large.png?1348684471" height="37" alt="Rainmaker_large"></img>\n                  </div>\n                </div>\n                <p style="margin-bottom: 0; margin-top: 0">\n                  <b>Michael J. O\'Connor, Eastvale, 951-847-4883</b>\n                </p>\n                <p style="margin-top: 0">\n                  <a href="/states/CA/cities/Corona" shape="rect">Corona</a>\n                  ,\n                  <a href="/states/CA" shape="rect">CA</a>\n                </p>\n                <p>\n                  <a href="/toomora" shape="rect">More about me\xe2\x80\xa6 </a>\n                </p>\n                <p>Diamond Ridge Realty</p>\n                <p>\n                  <b>Address:</b>\n                  <a target="_blank" href="http://maps.google.com/maps?geocode=&amp;q=12523+Limonite+Avenue%2C+Ste+440-200%2C+Eastvale%2C+CA%2C+91752" shape="rect">12523 Limonite Avenue, Ste 440-200, Eastvale, CA, 91752</a>\n                </p>\n                <p>Office Phone: (951) 898-8912</p>\n                <p>Cell Phone: (951) 847-4883</p>\n                <p>\n                  <b>\n                    <a href="/toomora/contact?return_url=%2Fblogsview%2F269045%2Fhappy-30th-birthday-rancho-cucamonga-" shape="rect">Email Me</a>\n                  </b>\n                </p>\n              </div>\n              <div style="text-align: left; margin-left:2px;margin-top:5px"> </div>\n              <br clear="none"></br>\n              <br clear="none"></br>\n              <strong>\n                <a href="javascript:expandCollapse(\'blog_listings\',\'http://activeagent-prod-assets2.ar-img.com/images/plus.gif?1348684471\',\'http://activeagent-prod-assets1.ar-img.com/images/minus.gif?1348684471\',true);" shape="rect">\n                  <img border="0" src="http://activeagent-prod-assets1.ar-img.com/images/minus.gif?1348684471" id="blog_listingsImage"></img>\n                </a>\n                Listings\n              </strong>\n              <hr></hr>\n              <div id="blog_listings"> </div>\n              <br clear="none"></br>\n              <strong>\n                <a href="javascript:expandCollapse(\'blog_links\',\'http://activeagent-prod-assets2.ar-img.com/images/plus.gif?1348684471\',\'http://activeagent-prod-assets1.ar-img.com/images/minus.gif?1348684471\',true);" shape="rect">\n                  <img border="0" src="http://activeagent-prod-assets1.ar-img.com/images/minus.gif?1348684471" id="blog_linksImage"></img>\n                </a>\n                Links\n              </strong>\n              <hr></hr>\n              <div id="blog_links">\n                <ul>\n                  <li>\n                    <a href="http://activerain.com/blogsview/1556543/homebuying-process-1st-time-homebuyer-information" shape="rect">Homebuying Process</a>\n                  </li>\n                  <li>\n                    <a href="http://activerain.com/blogsview/1555718/parties-to-a-real-estate-purchase-1st-time-homebuyer-information" shape="rect">Parties in a Transaction</a>\n                  </li>\n                  <li>\n                    <a href="http://activerain.com/blogsview/1790937/how-much-are-the-closing-costs-" shape="rect">How Much are Selling Costs?</a>\n                  </li>\n                  <li>\n                    <a href="http://activerain.com/blogsview/1733828/things-to-consider-when-facing-mortgage-difficulty" shape="rect">Options When Facing Foreclosure</a>\n                  </li>\n                  <li>\n                    <a href="http://activerain.com/blogsview/1735912/how-soon-before-the-bank-takes-my-house-" shape="rect">How Soon Before Foreclosure?</a>\n                  </li>\n                  <li>\n                    <a href="http://activerain.com/blogsview/1567612/my-successful-short-sale-process" shape="rect">Short Sale Process</a>\n                  </li>\n                  <li>\n                    <a href="http://activerain.com/blogsview/1629064/california-2010-tax-credit-for-first-time-buyers" shape="rect">CA 1st Time Buyer Tax Credit</a>\n                  </li>\n                  <li>\n                    <a href="http://activerain.com/blogsview/1647468/raincamp-los-angeles-my-summary-" shape="rect">RainCamp LA</a>\n                  </li>\n                </ul>\n                <ul></ul>\n              </div>\n              <br clear="none"></br>\n              <strong>\n                <a href="javascript:expandCollapse(\'blog_archives\',\'http://activeagent-prod-assets2.ar-img.com/images/plus.gif?1348684471\',\'http://activeagent-prod-assets1.ar-img.com/images/minus.gif?1348684471\',true);" shape="rect">\n                  <img border="0" src="http://activeagent-prod-assets1.ar-img.com/images/minus.gif?1348684471" id="blog_archivesImage"></img>\n                </a>\n                Archives\n              </strong>\n              <hr></hr>\n              <div id="blog_archives">\n                <ul>\n                  <li>\n                    <a href="/blogs/toomora/archives/2012/09" shape="rect">September 2012 (1)</a>\n                  </li>\n                  <li>\n                    <a href="/blogs/toomora/archives/2012/03" shape="rect">March 2012 (1)</a>\n                  </li>\n                  <li>\n                    <a href="/blogs/toomora/archives/2011/03" shape="rect">March 2011 (2)</a>\n                  </li>\n                  <li>\n                    <a href="/blogs/toomora/archives/2011/02" shape="rect">February 2011 (2)</a>\n                  </li>\n                  <li>\n                    <a href="/blogs/toomora/archives/2011/01" shape="rect">January 2011 (1)</a>\n                  </li>\n                  <li>\n                    <a href="/blogs/toomora/archives/2010/08" shape="rect">August 2010 (1)</a>\n                  </li>\n                  <li>\n                    <a href="/blogs/toomora/archives/2010/07" shape="rect">July 2010 (5)</a>\n                  </li>\n                  <li>\n                    <a href="/blogs/toomora/archives/2010/06" shape="rect">June 2010 (13)</a>\n                  </li>\n                  <li>\n                    <a href="/blogs/toomora/archives/2010/05" shape="rect">May 2010 (45)</a>\n                  </li>\n                  <li>\n                    <a href="/blogs/toomora/archives/2010/04" shape="rect">April 2010 (19)</a>\n                  </li>\n                  <li>\n                    <a href="/blogs/toomora/archives/2010/03" shape="rect">March 2010 (29)</a>\n                  </li>\n                  <li>\n                    <a href="/blogs/toomora/archives/2010/02" shape="rect">February 2010 (20)</a>\n                  </li>\n                  <li>\n                    <a href="/blogs/toomora/archives/2010/01" shape="rect">January 2010 (3)</a>\n                  </li>\n                  <li>\n                    <a href="/blogs/toomora/archives/2009/12" shape="rect">December 2009 (2)</a>\n                  </li>\n                  <li>\n                    <a href="/blogs/toomora/archives/2009/07" shape="rect">July 2009 (1)</a>\n                  </li>\n                  <li>\n                    <a href="/blogs/toomora/archives/2008/04" shape="rect">April 2008 (7)</a>\n                  </li>\n                  <li>\n                    <a href="/blogs/toomora/archives/2007/12" shape="rect">December 2007 (5)</a>\n                  </li>\n                  <li>\n                    <a href="/blogs/toomora/archives/2007/11" shape="rect">November 2007 (11)</a>\n                  </li>\n                  <li>\n                    <a href="/blogs/toomora/archives/2007/10" shape="rect">October 2007 (3)</a>\n                  </li>\n                </ul>\n              </div>\n              <br clear="none"></br>\n              <p align="center">\n                <a target="_blank" href="/blogs/toomora/rss" shape="rect">\n                  <img alt="RSS 2.0 Feed for this blog" border="0" src="/images/rss.png"></img>\n                </a>\n              </p>\n            </div>\n          </td>\n        </tr>\n      </table>\n      <div style="background:white">\n        <ul id="bottom_menu" class="top_level_menu">\n          <li>\n            <div>\n              <a href="/about" shape="rect">About</a>\n            </div>\n          </li>\n          <li>\n            <div>\n              <a href="/culture/community_guidelines" shape="rect">Guidelines</a>\n            </div>\n          </li>\n          <li>\n            <div>\n              <a href="/legal/terms_of_service" shape="rect">Terms of Service</a>\n            </div>\n          </li>\n          <li>\n            <div>\n              <a href="/groups/helpfaq" shape="rect">Help/FAQ</a>\n            </div>\n          </li>\n          <li>\n            <div>\n              <a href="/action/default/advertising" shape="rect">Advertise with ActiveRain</a>\n            </div>\n          </li>\n          <li>\n            <div>\n              <a href="/action/default/feedback" shape="rect">Contact ActiveRain</a>\n            </div>\n          </li>\n          <li>\n            <div>\n              <a href="/action/signup" shape="rect">Join ActiveRain</a>\n            </div>\n          </li>\n        </ul>\n        <div id="find_agents" class="bottom_info">\n          <p>\n            Find\n            <a href="/states/CA" shape="rect">CA real estate agents</a>\n            and\n            <a href="/states/CA/cities/Corona" shape="rect">Corona real estate</a>\n            on ActiveRain.\n          </p>\n        </div>\n        <div id="copyright" class="bottom_info">\n          <p>\n            Disclaimer: ActiveRain Corp. does not necessarily endorse the  real estate agents, loan officers and brokers listed on this site. These real estate profiles,\n            <a href="/topbloggers" shape="rect">blogs</a>\n            and\n            <a href="/blogindex" shape="rect">blog entries</a>\n            are provided here as a courtesy to our visitors to help them make an informed decision when buying or selling a house. ActiveRain Corp. takes no responsibility for the content in these profiles, that are written by the members of this community.\n          </p>\n          <p>\xc2\xa9 2012 ActiveRain Corp. All Rights Reserved</p>\n          <p style="margin: 0; padding-bottom: 1em">\n            <a href="http://activerain.com/blogsview/46302/Fair-housing-and-ActiveRain" shape="rect">\n              <img src="http://activeagent-prod-assets3.ar-img.com/images/new_design/eho.gif?1348684471" alt="Eho"></img>\n            </a>\n          </p>\n        </div>\n        <script type="text/javascript"> (function() { var po = document.createElement(\'script\'); po.type = \'text/javascript\'; po.async = true; po.src = \'https://apis.google.com/js/plusone.js\'; var s = document.getElementsByTagName(\'script\')[0]; s.parentNode.insertBefore(po, s); })(); </script>\n      </div>\n    </div>\n  </body>\n</html>'
p11
sbsS'mentions'
p12
(lp13
(iedu.umass.cs.iesl.wikilink.expanded.data.ttypes
Mention
p14
(dp15
S'anchor_text'
p16
S'Fletch Lives'
p17
sS'context'
p18
(iedu.umass.cs.iesl.wikilink.expanded.data.ttypes
Context
p19
(dp20
S'middle'
p21
S'Fletch Lives'
p22
sS'right'
p23
S', Fletch, played by actor Chevy Chase , claims to a Ku Klux Klan leader that he is from the "Cucamonga Klan" from California. An'
p24
sS'left'
p25
S'viewers is that no such train route exists. Rancho Cucamonga also has the following ties to myth and history (sourced from Wikipedia): In the movie'
p26
sbsS'freebase_id'
p27
S'9202a8c04000641f8000000000ceaf47'
p28
sS'raw_text_offset'
p29
I28571
sS'wiki_url'
p30
S'http://en.wikipedia.org/wiki/Fletch_Lives'
p31
sba(iedu.umass.cs.iesl.wikilink.expanded.data.ttypes
Mention
p32
(dp33
g16
S'Chevy Chase'
p34
sg18
(iedu.umass.cs.iesl.wikilink.expanded.data.ttypes
Context
p35
(dp36
g21
S'Chevy Chase'
p37
sg23
S', claims to a Ku Klux Klan leader that he is from the "Cucamonga Klan" from California. An ABC television movie comedy Camp Cucamonga (1990),'
p38
sg25
S'exists. Rancho Cucamonga also has the following ties to myth and history (sourced from Wikipedia): In the movie Fletch Lives , Fletch, played by actor'
p39
sbsg27
S'9202a8c04000641f80000000000afe0b'
p40
sg29
I28689
sg30
S'http://en.wikipedia.org/wiki/Chevy_Chase'
p41
sba(iedu.umass.cs.iesl.wikilink.expanded.data.ttypes
Mention
p42
(dp43
g16
S'Ku Klux Klan'
p44
sg18
(iedu.umass.cs.iesl.wikilink.expanded.data.ttypes
Context
p45
(dp46
g21
S'Ku Klux Klan'
p47
sg23
S'leader that he is from the "Cucamonga Klan" from California. An ABC television movie comedy Camp Cucamonga (1990), presumably takes place in a summer camp'
p48
sg25
S'following ties to myth and history (sourced from Wikipedia): In the movie Fletch Lives , Fletch, played by actor Chevy Chase , claims to a'
p49
sbsg27
S'9202a8c04000641f80000000000222d7'
p50
sg29
I28791
sg30
S'http://en.wikipedia.org/wiki/Ku_Klux_Klan'
p51
sba(iedu.umass.cs.iesl.wikilink.expanded.data.ttypes
Mention
p52
(dp53
g16
S'comedy'
p54
sg18
(iedu.umass.cs.iesl.wikilink.expanded.data.ttypes
Context
p55
(dp56
g21
S'comedy'
p57
sg23
S"Camp Cucamonga (1990), presumably takes place in a summer camp in Rancho Cucamonga's forested area in the San Bernardino National Forest . The current city"
p58
sg25
S'by actor Chevy Chase , claims to a Ku Klux Klan leader that he is from the "Cucamonga Klan" from California. An ABC television movie'
p59
sbsg27
S'9202a8c04000641f800000000000f89d'
p60
sg29
I29075
sg30
S'http://en.wikipedia.org/wiki/Comedy'
p61
sba(iedu.umass.cs.iesl.wikilink.expanded.data.ttypes
Mention
p62
(dp63
g16
S'Camp Cucamonga'
p64
sg18
(iedu.umass.cs.iesl.wikilink.expanded.data.ttypes
Context
p65
(dp66
g21
S'Camp Cucamonga'
p67
sg23
S"(1990), presumably takes place in a summer camp in Rancho Cucamonga's forested area in the San Bernardino National Forest . The current city limits barely"
p68
sg25
S'actor Chevy Chase , claims to a Ku Klux Klan leader that he is from the "Cucamonga Klan" from California. An ABC television movie comedy'
p69
sbsg27
S'9202a8c04000641f80000000008fb6a1'
p70
sg29
I29167
sg30
S'http://en.wikipedia.org/wiki/Camp_Cucamonga'
p71
sba(iedu.umass.cs.iesl.wikilink.expanded.data.ttypes
Mention
p72
(dp73
g16
S'San Bernardino National Forest'
p74
sg18
(iedu.umass.cs.iesl.wikilink.expanded.data.ttypes
Context
p75
(dp76
g21
S'San Bernardino National Forest'
p77
sg23
S'. The current city limits barely extend into the forested regions of the foothills, and large parts of Cucamonga Peak north of the city lie'
p78
sg25
S'Klan" from California. An ABC television movie comedy Camp Cucamonga (1990), presumably takes place in a summer camp in Rancho Cucamonga\'s forested area in the'
p79
sbsg27
S'9202a8c04000641f80000000006ee99b'
p80
sg29
I29391
sg30
S'http://en.wikipedia.org/wiki/San_Bernardino_National_Forest'
p81
sba(iedu.umass.cs.iesl.wikilink.expanded.data.ttypes
Mention
p82
(dp83
g16
S'Cucamonga Peak'
p84
sg18
(iedu.umass.cs.iesl.wikilink.expanded.data.ttypes
Context
p85
(dp86
g21
S'Cucamonga Peak'
p87
sg23
S'north of the city lie in a wilderness area . A fictional Johnny Carson character named Floyd R. Turbo said he was from Cucamonga, California.'
p88
sg25
S'area in the San Bernardino National Forest . The current city limits barely extend into the forested regions of the foothills, and large parts of'
p89
sbsg27
S'9202a8c04000641f80000000007f0bf7'
p90
sg29
I29605
sg30
S'http://en.wikipedia.org/wiki/Cucamonga_Peak'
p91
sba(iedu.umass.cs.iesl.wikilink.expanded.data.ttypes
Mention
p92
(dp93
g16
S'wilderness area'
p94
sg18
(iedu.umass.cs.iesl.wikilink.expanded.data.ttypes
Context
p95
(dp96
g21
S'wilderness area'
p97
sg23
S'. A fictional Johnny Carson character named Floyd R. Turbo said he was from Cucamonga, California. "Pride of Cucamonga", a wine produced by the Joseph'
p98
sg25
S'current city limits barely extend into the forested regions of the foothills, and large parts of Cucamonga Peak north of the city lie in a'
p99
sbsg27
S'9202a8c04000641f800000001dc0911c'
p100
sg29
I29730
sg30
S'http://en.wikipedia.org/wiki/Wilderness_area'
p101
sba(iedu.umass.cs.iesl.wikilink.expanded.data.ttypes
Mention
p102
(dp103
g16
S'Johnny Carson'
p104
sg18
(iedu.umass.cs.iesl.wikilink.expanded.data.ttypes
Context
p105
(dp106
g21
S'Johnny Carson'
p107
sg23
S'character named Floyd R. Turbo said he was from Cucamonga, California. "Pride of Cucamonga", a wine produced by the Joseph Filippi Winery in Rancho Cucamonga,'
p108
sg25
S'into the forested regions of the foothills, and large parts of Cucamonga Peak north of the city lie in a wilderness area . A fictional'
p109
sbsg27
S'9202a8c04000641f80000000000abc5b'
p110
sg29
I29848
sg30
S'http://en.wikipedia.org/wiki/Johnny_Carson'
p111
sba(iedu.umass.cs.iesl.wikilink.expanded.data.ttypes
Mention
p112
(dp113
g16
S'wine'
p114
sg18
(iedu.umass.cs.iesl.wikilink.expanded.data.ttypes
Context
p115
(dp116
g21
S'wine'
p117
sg23
S'produced by the Joseph Filippi Winery in Rancho Cucamonga, was used as the title of a song by the Grateful Dead . Comedian Jamie Kennedy'
p118
sg25
S'lie in a wilderness area . A fictional Johnny Carson character named Floyd R. Turbo said he was from Cucamonga, California. "Pride of Cucamonga", a'
p119
sbsg27
Nsg29
I30028
sg30
S'http://en.wikipedia.org/wiki/Wine'
p120
sba(iedu.umass.cs.iesl.wikilink.expanded.data.ttypes
Mention
p121
(dp122
g16
S'Grateful Dead'
p123
sg18
(iedu.umass.cs.iesl.wikilink.expanded.data.ttypes
Context
p124
(dp125
g21
S'Grateful Dead'
p126
sg23
S'. Comedian Jamie Kennedy performed a skit for his hidden camera show The Jamie Kennedy Experiment in which he pranked everyone at the Rancho Cucamonga'
p127
sg25
S'California. "Pride of Cucamonga", a wine produced by the Joseph Filippi Winery in Rancho Cucamonga, was used as the title of a song by the'
p128
sbsg27
S'9202a8c04000641f800000000001a49d'
p129
sg29
I30210
sg30
S'http://en.wikipedia.org/wiki/Grateful_Dead'
p130
sba(iedu.umass.cs.iesl.wikilink.expanded.data.ttypes
Mention
p131
(dp132
g16
S'Jamie Kennedy'
p133
sg18
(iedu.umass.cs.iesl.wikilink.expanded.data.ttypes
Context
p134
(dp135
g21
S'Jamie Kennedy'
p136
sg23
S'performed a skit for his hidden camera show The Jamie Kennedy Experiment in which he pranked everyone at the Rancho Cucamonga Quakes Stadium into singing'
p137
sg25
S'a wine produced by the Joseph Filippi Winery in Rancho Cucamonga, was used as the title of a song by the Grateful Dead . Comedian'
p138
sbsg27
S'9202a8c04000641f80000000002af971'
p139
sg29
I30323
sg30
S'http://en.wikipedia.org/wiki/Jamie_Kennedy'
p140
sba(iedu.umass.cs.iesl.wikilink.expanded.data.ttypes
Mention
p141
(dp142
g16
S'The Jamie Kennedy Experiment'
p143
sg18
(iedu.umass.cs.iesl.wikilink.expanded.data.ttypes
Context
p144
(dp145
g21
S'The Jamie Kennedy Experiment'
p146
sg23
S'in which he pranked everyone at the Rancho Cucamonga Quakes Stadium into singing multiple verses of the national anthem. Hometown to pop punk band Rufio'
p147
sg25
S'Cucamonga, was used as the title of a song by the Grateful Dead . Comedian Jamie Kennedy performed a skit for his hidden camera show'
p148
sbsg27
S'9202a8c04000641f80000000002b237b'
p149
sg29
I30494
sg30
S'http://en.wikipedia.org/wiki/The_Jamie_Kennedy_Experiment'
p150
sba(iedu.umass.cs.iesl.wikilink.expanded.data.ttypes
Mention
p151
(dp152
g16
S'Rufio'
p153
sg18
(iedu.umass.cs.iesl.wikilink.expanded.data.ttypes
Context
p154
(dp155
g21
S'Rufio'
p156
sg23
S', O-Town boy band member Trevor Penick , as well as American Idol : Season 3 finalist Matthew Rogers . Musician Frank Zappa built his'
p157
sg25
S'Experiment in which he pranked everyone at the Rancho Cucamonga Quakes Stadium into singing multiple verses of the national anthem. Hometown to pop punk band'
p158
sbsg27
S'9202a8c04000641f800000000042f0cd'
p159
sg29
I30748
sg30
S'http://en.wikipedia.org/wiki/Rufio'
p160
sba(iedu.umass.cs.iesl.wikilink.expanded.data.ttypes
Mention
p161
(dp162
g16
S'O-Town'
p163
sg18
(iedu.umass.cs.iesl.wikilink.expanded.data.ttypes
Context
p164
(dp165
g21
S'O-Town'
p166
sg23
S'boy band member Trevor Penick , as well as American Idol : Season 3 finalist Matthew Rogers . Musician Frank Zappa built his famous Studio'
p167
sg25
S'which he pranked everyone at the Rancho Cucamonga Quakes Stadium into singing multiple verses of the national anthem. Hometown to pop punk band Rufio ,'
p168
sbsg27
Nsg29
I30820
sg30
S'http://en.wikipedia.org/wiki/O-Town'
p169
sba(iedu.umass.cs.iesl.wikilink.expanded.data.ttypes
Mention
p170
(dp171
g16
S'Trevor Penick'
p172
sg18
(iedu.umass.cs.iesl.wikilink.expanded.data.ttypes
Context
p173
(dp174
g21
S'Trevor Penick'
p175
sg23
S', as well as American Idol : Season 3 finalist Matthew Rogers . Musician Frank Zappa built his famous Studio Z recording studio in Cucamonga'
p176
sg25
S'at the Rancho Cucamonga Quakes Stadium into singing multiple verses of the national anthem. Hometown to pop punk band Rufio , O-Town boy band member'
p177
sbsg27
S'9202a8c04000641f8000000003245629'
p178
sg29
I30922
sg30
S'http://en.wikipedia.org/wiki/Trevor_Penick'
p179
sba(iedu.umass.cs.iesl.wikilink.expanded.data.ttypes
Mention
p180
(dp181
g16
S'American Idol'
p182
sg18
(iedu.umass.cs.iesl.wikilink.expanded.data.ttypes
Context
p183
(dp184
g21
S'American Idol'
p185
sg23
S': Season 3 finalist Matthew Rogers . Musician Frank Zappa built his famous Studio Z recording studio in Cucamonga and made the city his part-time'
p186
sg25
S'into singing multiple verses of the national anthem. Hometown to pop punk band Rufio , O-Town boy band member Trevor Penick , as well as'
p187
sbsg27
S'9202a8c04000641f8000000000151de8'
p188
sg29
I31031
sg30
S'http://en.wikipedia.org/wiki/American_Idol'
p189
sba(iedu.umass.cs.iesl.wikilink.expanded.data.ttypes
Mention
p190
(dp191
g16
S'Matthew Rogers'
p192
sg18
(iedu.umass.cs.iesl.wikilink.expanded.data.ttypes
Context
p193
(dp194
g21
S'Matthew Rogers'
p195
sg23
S". Musician Frank Zappa built his famous Studio Z recording studio in Cucamonga and made the city his part-time residence for much of the '60s"
p196
sg25
S'national anthem. Hometown to pop punk band Rufio , O-Town boy band member Trevor Penick , as well as American Idol : Season 3 finalist'
p197
sbsg27
S'9202a8c04000641f80000000002689bd'
p198
sg29
I31150
sg30
S'http://en.wikipedia.org/wiki/Matthew_Rogers'
p199
sba(iedu.umass.cs.iesl.wikilink.expanded.data.ttypes
Mention
p200
(dp201
g16
S'Frank Zappa'
p202
sg18
(iedu.umass.cs.iesl.wikilink.expanded.data.ttypes
Context
p203
(dp204
g21
S'Frank Zappa'
p205
sg23
S'built his famous Studio Z recording studio in Cucamonga and made the city his part-time residence for much of the \'60s and \'70s. ("Cucamonga" is'
p206
sg25
S'pop punk band Rufio , O-Town boy band member Trevor Penick , as well as American Idol : Season 3 finalist Matthew Rogers . Musician'
p207
sbsg27
S'9202a8c04000641f8000000000016df0'
p208
sg29
I31260
sg30
S'http://en.wikipedia.org/wiki/Frank_Zappa'
p209
sba(iedu.umass.cs.iesl.wikilink.expanded.data.ttypes
Mention
p210
(dp211
g16
S'Belgium'
p212
sg18
(iedu.umass.cs.iesl.wikilink.expanded.data.ttypes
Context
p213
(dp214
g21
S'Belgium'
p215
sg23
S', as an obscure reference to Frank Zappa.) Rancho Cucamonga was mentioned in a 2006 Dr Pepper commercial. In an episode of " The Office'
p216
sg25
S'city his part-time residence for much of the \'60s and \'70s. ("Cucamonga" is also the name of a long-lived radio show on Radio 1 ,'
p217
sbsg27
S'9202a8c04000641f8000000000009490'
p218
sg29
I31694
sg30
S'http://en.wikipedia.org/wiki/Belgium'
p219
sba(iedu.umass.cs.iesl.wikilink.expanded.data.ttypes
Mention
p220
(dp221
g16
S'Dr Pepper'
p222
sg18
(iedu.umass.cs.iesl.wikilink.expanded.data.ttypes
Context
p223
(dp224
g21
S'Dr Pepper'
p225
sg23
S'commercial. In an episode of " The Office ," Michael Scott tries to entertain a child during Take Your Daughter to Work Day . Blowing'
p226
sg25
S'of a long-lived radio show on Radio 1 , Belgium , as an obscure reference to Frank Zappa.) Rancho Cucamonga was mentioned in a 2006'
p227
sbsg27
S'9202a8c04000641f800000000018ff93'
p228
sg29
I31866
sg30
S'http://en.wikipedia.org/wiki/Dr_Pepper'
p229
sba(iedu.umass.cs.iesl.wikilink.expanded.data.ttypes
Mention
p230
(dp231
g16
S'Take Your Daughter to Work Day'
p232
sg18
(iedu.umass.cs.iesl.wikilink.expanded.data.ttypes
Context
p233
(dp234
g21
S'Take Your Daughter to Work Day'
p235
sg23
S'. Blowing a train whistle, he paraphrases the Jack Benny joke, "next stop Cuc-amonga". In an episode of The Simpsons , Krusty the Clown mentioned'
p236
sg25
S'Cucamonga was mentioned in a 2006 Dr Pepper commercial. In an episode of " The Office ," Michael Scott tries to entertain a child during'
p237
sbsg27
S'9202a8c04000641f8000000000baefe0'
p238
sg29
I32306
sg30
S'http://en.wikipedia.org/wiki/Take_Your_Daughter_to_Work_Day'
p239
sba(iedu.umass.cs.iesl.wikilink.expanded.data.ttypes
Mention
p240
(dp241
g16
S'The Simpsons'
p242
sg18
(iedu.umass.cs.iesl.wikilink.expanded.data.ttypes
Context
p243
(dp244
g21
S'The Simpsons'
p245
sg23
S', Krusty the Clown mentioned Cucamonga, along with Walla Walla , Seattle , and Keokuk as funny place names. In an early Sesame Street sketch,'
p246
sg25
S'during Take Your Daughter to Work Day . Blowing a train whistle, he paraphrases the Jack Benny joke, "next stop Cuc-amonga". In an episode of'
p247
sbsg27
S'9202a8c04000641f800000000003ace2'
p248
sg29
I32531
sg30
S'http://en.wikipedia.org/wiki/The_Simpsons'
p249
sba(iedu.umass.cs.iesl.wikilink.expanded.data.ttypes
Mention
p250
(dp251
g16
S'Krusty the Clown'
p252
sg18
(iedu.umass.cs.iesl.wikilink.expanded.data.ttypes
Context
p253
(dp254
g21
S'Krusty the Clown'
p255
sg23
S'mentioned Cucamonga, along with Walla Walla , Seattle , and Keokuk as funny place names. In an early Sesame Street sketch, Cookie Monster tries to'
p256
sg25
S'Daughter to Work Day . Blowing a train whistle, he paraphrases the Jack Benny joke, "next stop Cuc-amonga". In an episode of The Simpsons ,'
p257
sbsg27
S'9202a8c04000641f800000000007a20c'
p258
sg29
I32635
sg30
S'http://en.wikipedia.org/wiki/Krusty_the_Clown'
p259
sba(iedu.umass.cs.iesl.wikilink.expanded.data.ttypes
Mention
p260
(dp261
g16
S'Sesame Street'
p262
sg18
(iedu.umass.cs.iesl.wikilink.expanded.data.ttypes
Context
p263
(dp264
g21
S'Sesame Street'
p265
sg23
S'sketch, Cookie Monster tries to fool Ernie by claiming that Ernie has a dread disease called "Cucamongaphobia." In the 1995 movie A Kid in King'
p266
sg25
S'of The Simpsons , Krusty the Clown mentioned Cucamonga, along with Walla Walla , Seattle , and Keokuk as funny place names. In an early'
p267
sbsg27
S'9202a8c04000641f800000000005eef7'
p268
sg29
I33117
sg30
S'http://en.wikipedia.org/wiki/Sesame_Street'
p269
sba(iedu.umass.cs.iesl.wikilink.expanded.data.ttypes
Mention
p270
(dp271
g16
S'Cookie Monster'
p272
sg18
(iedu.umass.cs.iesl.wikilink.expanded.data.ttypes
Context
p273
(dp274
g21
S'Cookie Monster'
p275
sg23
S'tries to fool Ernie by claiming that Ernie has a dread disease called "Cucamongaphobia." In the 1995 movie A Kid in King Arthur\'s Court ,'
p276
sg25
S', Krusty the Clown mentioned Cucamonga, along with Walla Walla , Seattle , and Keokuk as funny place names. In an early Sesame Street sketch,'
p277
sbsg27
S'9202a8c04000641f8000000000099dce'
p278
sg29
I33225
sg30
S'http://en.wikipedia.org/wiki/Cookie_Monster'
p279
sba(iedu.umass.cs.iesl.wikilink.expanded.data.ttypes
Mention
p280
(dp281
g16
S'Ernie'
p282
sg18
(iedu.umass.cs.iesl.wikilink.expanded.data.ttypes
Context
p283
(dp284
g21
S'Ernie'
p285
sg23
S'by claiming that Ernie has a dread disease called "Cucamongaphobia." In the 1995 movie A Kid in King Arthur\'s Court , King Arthur exiles the'
p286
sg25
S'Cucamonga, along with Walla Walla , Seattle , and Keokuk as funny place names. In an early Sesame Street sketch, Cookie Monster tries to fool'
p287
sbsg27
S'9202a8c04000641f8000000000129ec4'
p288
sg29
I33317
sg30
S'http://en.wikipedia.org/wiki/Ernie'
p289
sba(iedu.umass.cs.iesl.wikilink.expanded.data.ttypes
Mention
p290
(dp291
g16
S'Lou Costello'
p292
sg18
(iedu.umass.cs.iesl.wikilink.expanded.data.ttypes
Context
p293
(dp294
g21
S'Lou Costello'
p295
sg23
S'( Abbott and Costello ) states that he once played with "the Cucamonga Wildcats" during a 1947 performance of " Who\'s on First? " It'
p296
sg25
S'"Cucamongaphobia." In the 1995 movie A Kid in King Arthur\'s Court , King Arthur exiles the villain to Cucamonga at the recommendation of Calvin Fuller.'
p297
sbsg27
S'9202a8c04000641f80000000000b4607'
p298
sg29
I33742
sg30
S'http://en.wikipedia.org/wiki/Lou_Costello'
p299
sba(iedu.umass.cs.iesl.wikilink.expanded.data.ttypes
Mention
p300
(dp301
g16
S'Abbott and Costello'
p302
sg18
(iedu.umass.cs.iesl.wikilink.expanded.data.ttypes
Context
p303
(dp304
g21
S'Abbott and Costello'
p305
sg23
S') states that he once played with "the Cucamonga Wildcats" during a 1947 performance of " Who\'s on First? " It is mentioned in Who'
p306
sg25
S"1995 movie A Kid in King Arthur's Court , King Arthur exiles the villain to Cucamonga at the recommendation of Calvin Fuller. Lou Costello ("
p307
sbsg27
S'9202a8c04000641f80000000000b462d'
p308
sg29
I33847
sg30
S'http://en.wikipedia.org/wiki/Abbott_and_Costello'
p309
sba(iedu.umass.cs.iesl.wikilink.expanded.data.ttypes
Mention
p310
(dp311
g16
S'Who Framed Roger Rabbit?'
p312
sg18
(iedu.umass.cs.iesl.wikilink.expanded.data.ttypes
Context
p313
(dp314
g21
S'Who Framed Roger Rabbit?'
p315
sg23
S'Actor Redd Foxx made frequent references to Rancho Cucamonga in the television show " Sanford and Son" Wishing you the best 30th Birthday Rancho Cucamonga!'
p316
sg25
S'Costello ) states that he once played with "the Cucamonga Wildcats" during a 1947 performance of " Who\'s on First? " It is mentioned in'
p317
sbsg27
Nsg29
I34187
sg30
S'http://en.wikipedia.org/wiki/Who_Framed_Roger_Rabbit%3F'
p318
sba(iedu.umass.cs.iesl.wikilink.expanded.data.ttypes
Mention
p319
(dp320
g16
S'Michael Scott'
p321
sg18
(iedu.umass.cs.iesl.wikilink.expanded.data.ttypes
Context
p322
(dp323
g21
S'Michael Scott'
p324
sg23
S'tries to entertain a child during Take Your Daughter to Work Day . Blowing a train whistle, he paraphrases the Jack Benny joke, "next stop'
p325
sg25
S'as an obscure reference to Frank Zappa.) Rancho Cucamonga was mentioned in a 2006 Dr Pepper commercial. In an episode of " The Office ,"'
p326
sbsg27
S'9202a8c04000641f80000000009481e9'
p327
sg29
I32145
sg30
S'http://en.wikipedia.org/wiki/Michael_Scott_(The_Office)'
p328
sba(iedu.umass.cs.iesl.wikilink.expanded.data.ttypes
Mention
p329
(dp330
g16
S'The Office'
p331
sg18
(iedu.umass.cs.iesl.wikilink.expanded.data.ttypes
Context
p332
(dp333
g21
S'The Office'
p334
sg23
S'," Michael Scott tries to entertain a child during Take Your Daughter to Work Day . Blowing a train whistle, he paraphrases the Jack Benny'
p335
sg25
S', Belgium , as an obscure reference to Frank Zappa.) Rancho Cucamonga was mentioned in a 2006 Dr Pepper commercial. In an episode of "'
p336
sbsg27
S'9202a8c04000641f8000000000883a21'
p337
sg29
I32023
sg30
S'http://en.wikipedia.org/wiki/The_Office_(US_TV_series)'
p338
sba(iedu.umass.cs.iesl.wikilink.expanded.data.ttypes
Mention
p339
(dp340
g16
S'Walla Walla'
p341
sg18
(iedu.umass.cs.iesl.wikilink.expanded.data.ttypes
Context
p342
(dp343
g21
S'Walla Walla'
p344
sg23
S', Seattle , and Keokuk as funny place names. In an early Sesame Street sketch, Cookie Monster tries to fool Ernie by claiming that Ernie'
p345
sg25
S'train whistle, he paraphrases the Jack Benny joke, "next stop Cuc-amonga". In an episode of The Simpsons , Krusty the Clown mentioned Cucamonga, along with'
p346
sbsg27
S'9202a8c04000641f8000000000106a6a'
p347
sg29
I32785
sg30
S'http://en.wikipedia.org/wiki/Walla_Walla,_Washington'
p348
sba(iedu.umass.cs.iesl.wikilink.expanded.data.ttypes
Mention
p349
(dp350
g16
S"A Kid in King Arthur's Court"
p351
sg18
(iedu.umass.cs.iesl.wikilink.expanded.data.ttypes
Context
p352
(dp353
g21
S"A Kid in King Arthur's Court"
p354
sg23
S', King Arthur exiles the villain to Cucamonga at the recommendation of Calvin Fuller. Lou Costello ( Abbott and Costello ) states that he once'
p355
sg25
S'an early Sesame Street sketch, Cookie Monster tries to fool Ernie by claiming that Ernie has a dread disease called "Cucamongaphobia." In the 1995 movie'
p356
sbsg27
S'9202a8c04000641f80000000001b1033'
p357
sg29
I33535
sg30
S"http://en.wikipedia.org/wiki/A_Kid_in_King_Arthur's_Court"
p358
sba(iedu.umass.cs.iesl.wikilink.expanded.data.ttypes
Mention
p359
(dp360
g16
S"Who's on First?"
p361
sg18
(iedu.umass.cs.iesl.wikilink.expanded.data.ttypes
Context
p362
(dp363
g21
S"Who's on First?"
p364
sg23
S'" It is mentioned in Who Framed Roger Rabbit? Actor Redd Foxx made frequent references to Rancho Cucamonga in the television show " Sanford and'
p365
sg25
S'of Calvin Fuller. Lou Costello ( Abbott and Costello ) states that he once played with "the Cucamonga Wildcats" during a 1947 performance of "'
p366
sbsg27
S'9202a8c04000641f80000000000b485b'
p367
sg29
I34038
sg30
S"http://en.wikipedia.org/wiki/Who's_on_first"
p368
sba(iedu.umass.cs.iesl.wikilink.expanded.data.ttypes
Mention
p369
(dp370
g16
S'Seattle'
p371
sg18
(iedu.umass.cs.iesl.wikilink.expanded.data.ttypes
Context
p372
(dp373
g21
S'Seattle'
p374
sg23
S', and Keokuk as funny place names. In an early Sesame Street sketch, Cookie Monster tries to fool Ernie by claiming that Ernie has a'
p375
sg25
S'paraphrases the Jack Benny joke, "next stop Cuc-amonga". In an episode of The Simpsons , Krusty the Clown mentioned Cucamonga, along with Walla Walla ,'
p376
sbsg27
S'9202a8c04000641f8000000000062617'
p377
sg29
I32891
sg30
S'http://en.wikipedia.org/wiki/Seattle,_Washington'
p378
sba(iedu.umass.cs.iesl.wikilink.expanded.data.ttypes
Mention
p379
(dp380
g16
S'Keokuk'
p381
sg18
(iedu.umass.cs.iesl.wikilink.expanded.data.ttypes
Context
p382
(dp383
g21
S'Keokuk'
p384
sg23
S'as funny place names. In an early Sesame Street sketch, Cookie Monster tries to fool Ernie by claiming that Ernie has a dread disease called'
p385
sg25
S'Benny joke, "next stop Cuc-amonga". In an episode of The Simpsons , Krusty the Clown mentioned Cucamonga, along with Walla Walla , Seattle , and'
p386
sbsg27
S'9202a8c04000641f80000000000c8242'
p387
sg29
I32983
sg30
S'http://en.wikipedia.org/wiki/Keokuk,_Iowa'
p388
sbasS'doc_id'
p389
I10620
sS'rare_words'
p390
(lp391
(iedu.umass.cs.iesl.wikilink.expanded.data.ttypes
RareWord
p392
(dp393
S'word'
p394
S'been'
p395
sS'offset'
p396
I27985
sba(iedu.umass.cs.iesl.wikilink.expanded.data.ttypes
RareWord
p397
(dp398
g394
S'Filippi'
p399
sg396
I30060
sba(iedu.umass.cs.iesl.wikilink.expanded.data.ttypes
RareWord
p400
(dp401
g394
S'Corona'
p402
sg396
I25507
sba(iedu.umass.cs.iesl.wikilink.expanded.data.ttypes
RareWord
p403
(dp404
g394
S'residence'
p405
sg396
I31462
sba(iedu.umass.cs.iesl.wikilink.expanded.data.ttypes
RareWord
p406
(dp407
g394
S'Comments'
p408
sg396
I36751
sba(iedu.umass.cs.iesl.wikilink.expanded.data.ttypes
RareWord
p409
(dp410
g394
S'entertain'
p411
sg396
I32172
sba(iedu.umass.cs.iesl.wikilink.expanded.data.ttypes
RareWord
p412
(dp413
g394
S'whistle'
p414
sg396
I32358
sba(iedu.umass.cs.iesl.wikilink.expanded.data.ttypes
RareWord
p415
(dp416
g394
S'years'
p417
sg396
I27787
sba(iedu.umass.cs.iesl.wikilink.expanded.data.ttypes
RareWord
p418
(dp419
g394
S'Belgium'
p420
sg396
I31694
sba(iedu.umass.cs.iesl.wikilink.expanded.data.ttypes
RareWord
p421
(dp422
g394
S'Sesame'
p423
sg396
I33117
sbasb.