(iedu.umass.cs.iesl.wikilink.expanded.data.ttypes
WikiLinkItem
p0
(dp1
S'url'
p2
S'http://acoupleofwankers.blogspot.com/2012/05/science-of-sex-toys.html'
p3
sS'content'
p4
(iedu.umass.cs.iesl.wikilink.expanded.data.ttypes
PageContentItem
p5
(dp6
S'articleText'
p7
NsS'raw'
p8
NsS'fullText'
p9
NsS'dom'
p10
S'<html b:version="2" dir="ltr" class="v2">\n  <head>\n    <meta content="s8mvUxz3tESdRZQM5wazoRDFr2k" name="alexaVerifyID"></meta>\n    <meta content="IE=EmulateIE7" http-equiv="X-UA-Compatible"></meta>\n    <meta content="width=1100" name="viewport"></meta>\n    <meta content="text/html; charset=UTF-8" http-equiv="Content-Type"></meta>\n    <script type="text/javascript">\n      (function() { var a=window,b=&quot;jstiming&quot;,d=&quot;tick&quot;;var e=function(c){this.t={};this.tick=function(c,p,h){h=void 0!=h?h:(new Date).getTime();this.t[c]=[h,p]};this[d](&quot;start&quot;,null,c)},f=new e;a.jstiming={Timer:e,load:f};if(a.performance&amp;&amp;a.performance.timing){var g=a.performance.timing,j=a[b].load,k=g.navigationStart,l=g.responseStart;0&lt;k&amp;&amp;l&gt;=k&amp;&amp;(j[d](&quot;_wtsrt&quot;,void 0,k),j[d](&quot;wtsrt_&quot;,&quot;_wtsrt&quot;,l),j[d](&quot;tbsd_&quot;,&quot;wtsrt_&quot;))}\ntry{var m=null;a.chrome&amp;&amp;a.chrome.csi&amp;&amp;(m=Math.floor(a.chrome.csi().pageT),j&amp;&amp;0&lt;k&amp;&amp;(j[d](&quot;_tbnd&quot;,void 0,a.chrome.csi().startE),j[d](&quot;tbnd_&quot;,&quot;_tbnd&quot;,k)));null==m&amp;&amp;a.gtbExternal&amp;&amp;(m=a.gtbExternal.pageT());null==m&amp;&amp;a.external&amp;&amp;(m=a.external.pageT,j&amp;&amp;0&lt;k&amp;&amp;(j[d](&quot;_tbnd&quot;,void 0,a.external.startE),j[d](&quot;tbnd_&quot;,&quot;_tbnd&quot;,k)));m&amp;&amp;(a[b].pt=m)}catch(n){};a.tickAboveFold=function(c){var i=0;if(c.offsetParent){do i+=c.offsetTop;while(c=c.offsetParent)}c=i;750&gt;=c&amp;&amp;a[b].load[d](&quot;aft&quot;)};var q=!1;function r(){q||(q=!0,a[b].load[d](&quot;firstScrollTime&quot;))}a.addEventListener?a.addEventListener(&quot;scroll&quot;,r,!1):a.attachEvent(&quot;onscroll&quot;,r);\n })();\n    </script>\n    <meta content="true" name="MSSmartTagsPreventParsing"></meta>\n    <meta content="blogger" name="generator"></meta>\n    <link type="image/x-icon" rel="icon" href="http://acoupleofwankers.blogspot.com/favicon.ico"></link>\n    <link rel="canonical" href="http://acoupleofwankers.blogspot.com/2012/05/science-of-sex-toys.html"></link>\n    <link href="http://acoupleofwankers.blogspot.com/feeds/posts/default" title="A Couple of Wankers - Atom" type="application/atom+xml" rel="alternate"></link>\n    <link href="http://acoupleofwankers.blogspot.com/feeds/posts/default?alt=rss" title="A Couple of Wankers - RSS" type="application/rss+xml" rel="alternate"></link>\n    <link href="http://www.blogger.com/feeds/9105134761876954044/posts/default" title="A Couple of Wankers - Atom" type="application/atom+xml" rel="service.post"></link>\n    <link href="http://www.blogger.com/rsd.g?blogID=9105134761876954044" title="RSD" type="application/rsd+xml" rel="EditURI"></link>\n    <link href="http://acoupleofwankers.blogspot.com/feeds/4014730327161824691/comments/default" title="A Couple of Wankers - Atom" type="application/atom+xml" rel="alternate"></link>\n    <meta content="adult" name="rating"></meta>\n    <title>A Couple of Wankers: The science of sex toys</title>\n    <script type="text/javascript">\n      if (navigator.userAgent.indexOf(\'MSIE 6\') == -1) {\n  WebFontConfig = {\n    google: { families: [ \'GFS Neohellenic\', \'Josefin Sans\' ],\n    api: \'//themes.googleusercontent.com/fonts/css?kit=B4xRqbn-tANVqVgamMsSDkrzDF-rNKt4eBA3tdlrDZMxxM8c_WDZVnBuTFxeL71b\'\n    },\n    loading: function() {\n      if (window.jstiming) window.jstiming.load.tick(\'webfontLoading\');\n    },\n    active: function() {\n      if (window.jstiming) window.jstiming.load.tick(\'webfontActive\');\n    }\n  };\n  (function() {\n    var wf = document.createElement(\'script\');\n    wf.src = \'//ajax.googleapis.com/ajax/libs/webfont/1/webfont.js\';\n    wf.type = \'text/javascript\';\n    wf.async = \'true\';\n    var s = document.getElementsByTagName(\'script\')[0];\n    s.parentNode.insertBefore(wf, s);\n  })();\n} else {\n  document.documentElement.className = \'wf-inactive\';\n}\n    </script>\n    <style type="text/css">\n      .wf-inactive body, .wf-gfsneohellenic-n4-loading body, .wf-gfsneohellenic-n4-inactive body {\n  font-family: sans-serif;\n}\n.wf-inactive .tabs-inner .widget li a, .wf-josefinsans-n4-loading .tabs-inner .widget li a, .wf-josefinsans-n4-inactive .tabs-inner .widget li a {\n  font-family: sans-serif;\n}\n.wf-inactive h3.post-title, .wf-josefinsans-n4-loading h3.post-title, .wf-josefinsans-n4-inactive h3.post-title, .wf-inactive .comments h4, .wf-josefinsans-n4-loading .comments h4, .wf-josefinsans-n4-inactive .comments h4 {\n  font-family: sans-serif;\n}\n.wf-inactive h2, .wf-josefinsans-n4-loading h2, .wf-josefinsans-n4-inactive h2 {\n  font-family: sans-serif;\n}\n    </style>\n    <link href="//www.blogger.com/static/v1/widgets/4219271310-widget_css_2_bundle.css" rel="stylesheet" type="text/css"></link>\n    <link href="http://www.blogger.com/static/v1/v-css/3307124014-interstitial_bundle.css" rel="stylesheet" type="text/css"></link>\n    <link href="//www.blogger.com/dyn-css/authorization.css?targetBlogID=9105134761876954044&amp;zx=733786e2-87a4-4b89-b39b-be20d7c7c777" rel="stylesheet" type="text/css"></link>\n    <style type="text/css" id="page-skin-1">\n      &lt;!--\n/*\n-----------------------------------------------\nBlogger Template Style\nName:     Simple\nDesigner: Josh Peterson\nURL:      www.noaesthetic.com\n----------------------------------------------- */\n/* Variable definitions\n====================\n&lt;Variable name=&quot;keycolor&quot; description=&quot;Main Color&quot; type=&quot;color&quot; default=&quot;#66bbdd&quot;/&gt;\n&lt;Group description=&quot;Page Text&quot; selector=&quot;body&quot;&gt;\n&lt;Variable name=&quot;body.font&quot; description=&quot;Font&quot; type=&quot;font&quot;\ndefault=&quot;normal normal 12px Arial, Tahoma, Helvetica, FreeSans, sans-serif&quot;/&gt;\n&lt;Variable name=&quot;body.text.color&quot; description=&quot;Text Color&quot; type=&quot;color&quot; default=&quot;#222222&quot;/&gt;\n&lt;/Group&gt;\n&lt;Group description=&quot;Backgrounds&quot; selector=&quot;.body-fauxcolumns-outer&quot;&gt;\n&lt;Variable name=&quot;body.background.color&quot; description=&quot;Outer Background&quot; type=&quot;color&quot; default=&quot;#66bbdd&quot;/&gt;\n&lt;Variable name=&quot;content.background.color&quot; description=&quot;Main Background&quot; type=&quot;color&quot; default=&quot;#ffffff&quot;/&gt;\n&lt;Variable name=&quot;header.background.color&quot; description=&quot;Header Background&quot; type=&quot;color&quot; default=&quot;transparent&quot;/&gt;\n&lt;/Group&gt;\n&lt;Group description=&quot;Links&quot; selector=&quot;.main-outer&quot;&gt;\n&lt;Variable name=&quot;link.color&quot; description=&quot;Link Color&quot; type=&quot;color&quot; default=&quot;#2288bb&quot;/&gt;\n&lt;Variable name=&quot;link.visited.color&quot; description=&quot;Visited Color&quot; type=&quot;color&quot; default=&quot;#888888&quot;/&gt;\n&lt;Variable name=&quot;link.hover.color&quot; description=&quot;Hover Color&quot; type=&quot;color&quot; default=&quot;#33aaff&quot;/&gt;\n&lt;/Group&gt;\n&lt;Group description=&quot;Blog Title&quot; selector=&quot;.header h1&quot;&gt;\n&lt;Variable name=&quot;header.font&quot; description=&quot;Font&quot; type=&quot;font&quot;\ndefault=&quot;normal normal 60px Arial, Tahoma, Helvetica, FreeSans, sans-serif&quot;/&gt;\n&lt;Variable name=&quot;header.text.color&quot; description=&quot;Title Color&quot; type=&quot;color&quot; default=&quot;#3399bb&quot; /&gt;\n&lt;/Group&gt;\n&lt;Group description=&quot;Blog Description&quot; selector=&quot;.header .description&quot;&gt;\n&lt;Variable name=&quot;description.text.color&quot; description=&quot;Description Color&quot; type=&quot;color&quot;\ndefault=&quot;#777777&quot; /&gt;\n&lt;/Group&gt;\n&lt;Group description=&quot;Tabs Text&quot; selector=&quot;.tabs-inner .widget li a&quot;&gt;\n&lt;Variable name=&quot;tabs.font&quot; description=&quot;Font&quot; type=&quot;font&quot;\ndefault=&quot;normal normal 14px Arial, Tahoma, Helvetica, FreeSans, sans-serif&quot;/&gt;\n&lt;Variable name=&quot;tabs.text.color&quot; description=&quot;Text Color&quot; type=&quot;color&quot; default=&quot;#999999&quot;/&gt;\n&lt;Variable name=&quot;tabs.selected.text.color&quot; description=&quot;Selected Color&quot; type=&quot;color&quot; default=&quot;#000000&quot;/&gt;\n&lt;/Group&gt;\n&lt;Group description=&quot;Tabs Background&quot; selector=&quot;.tabs-outer .PageList&quot;&gt;\n&lt;Variable name=&quot;tabs.background.color&quot; description=&quot;Background Color&quot; type=&quot;color&quot; default=&quot;#f5f5f5&quot;/&gt;\n&lt;Variable name=&quot;tabs.selected.background.color&quot; description=&quot;Selected Color&quot; type=&quot;color&quot; default=&quot;#eeeeee&quot;/&gt;\n&lt;/Group&gt;\n&lt;Group description=&quot;Post Title&quot; selector=&quot;h3.post-title, .comments h4&quot;&gt;\n&lt;Variable name=&quot;post.title.font&quot; description=&quot;Font&quot; type=&quot;font&quot;\ndefault=&quot;normal normal 22px Arial, Tahoma, Helvetica, FreeSans, sans-serif&quot;/&gt;\n&lt;/Group&gt;\n&lt;Group description=&quot;Date Header&quot; selector=&quot;.date-header&quot;&gt;\n&lt;Variable name=&quot;date.header.color&quot; description=&quot;Text Color&quot; type=&quot;color&quot;\ndefault=&quot;#000000&quot;/&gt;\n&lt;Variable name=&quot;date.header.background.color&quot; description=&quot;Background Color&quot; type=&quot;color&quot;\ndefault=&quot;transparent&quot;/&gt;\n&lt;/Group&gt;\n&lt;Group description=&quot;Post Footer&quot; selector=&quot;.post-footer&quot;&gt;\n&lt;Variable name=&quot;post.footer.text.color&quot; description=&quot;Text Color&quot; type=&quot;color&quot; default=&quot;#666666&quot;/&gt;\n&lt;Variable name=&quot;post.footer.background.color&quot; description=&quot;Background Color&quot; type=&quot;color&quot;\ndefault=&quot;#f9f9f9&quot;/&gt;\n&lt;Variable name=&quot;post.footer.border.color&quot; description=&quot;Shadow Color&quot; type=&quot;color&quot; default=&quot;#eeeeee&quot;/&gt;\n&lt;/Group&gt;\n&lt;Group description=&quot;Gadgets&quot; selector=&quot;h2&quot;&gt;\n&lt;Variable name=&quot;widget.title.font&quot; description=&quot;Title Font&quot; type=&quot;font&quot;\ndefault=&quot;normal bold 11px Arial, Tahoma, Helvetica, FreeSans, sans-serif&quot;/&gt;\n&lt;Variable name=&quot;widget.title.text.color&quot; description=&quot;Title Color&quot; type=&quot;color&quot; default=&quot;#000000&quot;/&gt;\n&lt;Variable name=&quot;widget.alternate.text.color&quot; description=&quot;Alternate Color&quot; type=&quot;color&quot; default=&quot;#999999&quot;/&gt;\n&lt;/Group&gt;\n&lt;Group description=&quot;Images&quot; selector=&quot;.main-inner&quot;&gt;\n&lt;Variable name=&quot;image.background.color&quot; description=&quot;Background Color&quot; type=&quot;color&quot; default=&quot;#ffffff&quot;/&gt;\n&lt;Variable name=&quot;image.border.color&quot; description=&quot;Border Color&quot; type=&quot;color&quot; default=&quot;#eeeeee&quot;/&gt;\n&lt;Variable name=&quot;image.text.color&quot; description=&quot;Caption Text Color&quot; type=&quot;color&quot; default=&quot;#000000&quot;/&gt;\n&lt;/Group&gt;\n&lt;Group description=&quot;Accents&quot; selector=&quot;.content-inner&quot;&gt;\n&lt;Variable name=&quot;body.rule.color&quot; description=&quot;Separator Line Color&quot; type=&quot;color&quot; default=&quot;#eeeeee&quot;/&gt;\n&lt;Variable name=&quot;tabs.border.color&quot; description=&quot;Tabs Border Color&quot; type=&quot;color&quot; default=&quot;#ffffff&quot;/&gt;\n&lt;/Group&gt;\n&lt;Variable name=&quot;body.background&quot; description=&quot;Body Background&quot; type=&quot;background&quot;\ncolor=&quot;#47d6d6&quot; default=&quot;$(color) none repeat scroll top left&quot;/&gt;\n&lt;Variable name=&quot;body.background.override&quot; description=&quot;Body Background Override&quot; type=&quot;string&quot; default=&quot;&quot;/&gt;\n&lt;Variable name=&quot;body.background.gradient.cap&quot; description=&quot;Body Gradient Cap&quot; type=&quot;url&quot;\ndefault=&quot;url(http://www.blogblog.com/1kt/simple/gradients_light.png)&quot;/&gt;\n&lt;Variable name=&quot;body.background.gradient.tile&quot; description=&quot;Body Gradient Tile&quot; type=&quot;url&quot;\ndefault=&quot;url(http://www.blogblog.com/1kt/simple/body_gradient_tile_light.png)&quot;/&gt;\n&lt;Variable name=&quot;content.background.color.selector&quot; description=&quot;Content Background Color Selector&quot; type=&quot;string&quot; default=&quot;.content-inner&quot;/&gt;\n&lt;Variable name=&quot;content.padding&quot; description=&quot;Content Padding&quot; type=&quot;length&quot; default=&quot;10px&quot;/&gt;\n&lt;Variable name=&quot;content.padding.horizontal&quot; description=&quot;Content Horizontal Padding&quot; type=&quot;length&quot; default=&quot;10px&quot;/&gt;\n&lt;Variable name=&quot;content.shadow.spread&quot; description=&quot;Content Shadow Spread&quot; type=&quot;length&quot; default=&quot;40px&quot;/&gt;\n&lt;Variable name=&quot;content.shadow.spread.webkit&quot; description=&quot;Content Shadow Spread (WebKit)&quot; type=&quot;length&quot; default=&quot;5px&quot;/&gt;\n&lt;Variable name=&quot;content.shadow.spread.ie&quot; description=&quot;Content Shadow Spread (IE)&quot; type=&quot;length&quot; default=&quot;10px&quot;/&gt;\n&lt;Variable name=&quot;main.border.width&quot; description=&quot;Main Border Width&quot; type=&quot;length&quot; default=&quot;0&quot;/&gt;\n&lt;Variable name=&quot;header.background.gradient&quot; description=&quot;Header Gradient&quot; type=&quot;url&quot; default=&quot;none&quot;/&gt;\n&lt;Variable name=&quot;header.shadow.offset.left&quot; description=&quot;Header Shadow Offset Left&quot; type=&quot;length&quot; default=&quot;-1px&quot;/&gt;\n&lt;Variable name=&quot;header.shadow.offset.top&quot; description=&quot;Header Shadow Offset Top&quot; type=&quot;length&quot; default=&quot;-1px&quot;/&gt;\n&lt;Variable name=&quot;header.shadow.spread&quot; description=&quot;Header Shadow Spread&quot; type=&quot;length&quot; default=&quot;1px&quot;/&gt;\n&lt;Variable name=&quot;header.padding&quot; description=&quot;Header Padding&quot; type=&quot;length&quot; default=&quot;30px&quot;/&gt;\n&lt;Variable name=&quot;header.border.size&quot; description=&quot;Header Border Size&quot; type=&quot;length&quot; default=&quot;1px&quot;/&gt;\n&lt;Variable name=&quot;header.bottom.border.size&quot; description=&quot;Header Bottom Border Size&quot; type=&quot;length&quot; default=&quot;1px&quot;/&gt;\n&lt;Variable name=&quot;header.border.horizontalsize&quot; description=&quot;Header Horizontal Border Size&quot; type=&quot;length&quot; default=&quot;0&quot;/&gt;\n&lt;Variable name=&quot;description.text.size&quot; description=&quot;Description Text Size&quot; type=&quot;string&quot; default=&quot;140%&quot;/&gt;\n&lt;Variable name=&quot;tabs.margin.top&quot; description=&quot;Tabs Margin Top&quot; type=&quot;length&quot; default=&quot;0&quot; /&gt;\n&lt;Variable name=&quot;tabs.margin.side&quot; description=&quot;Tabs Side Margin&quot; type=&quot;length&quot; default=&quot;30px&quot; /&gt;\n&lt;Variable name=&quot;tabs.background.gradient&quot; description=&quot;Tabs Background Gradient&quot; type=&quot;url&quot;\ndefault=&quot;url(http://www.blogblog.com/1kt/simple/gradients_light.png)&quot;/&gt;\n&lt;Variable name=&quot;tabs.border.width&quot; description=&quot;Tabs Border Width&quot; type=&quot;length&quot; default=&quot;1px&quot;/&gt;\n&lt;Variable name=&quot;tabs.bevel.border.width&quot; description=&quot;Tabs Bevel Border Width&quot; type=&quot;length&quot; default=&quot;1px&quot;/&gt;\n&lt;Variable name=&quot;date.header.padding&quot; description=&quot;Date Header Padding&quot; type=&quot;string&quot; default=&quot;inherit&quot;/&gt;\n&lt;Variable name=&quot;date.header.letterspacing&quot; description=&quot;Date Header Letter Spacing&quot; type=&quot;string&quot; default=&quot;inherit&quot;/&gt;\n&lt;Variable name=&quot;date.header.margin&quot; description=&quot;Date Header Margin&quot; type=&quot;string&quot; default=&quot;inherit&quot;/&gt;\n&lt;Variable name=&quot;post.margin.bottom&quot; description=&quot;Post Bottom Margin&quot; type=&quot;length&quot; default=&quot;25px&quot;/&gt;\n&lt;Variable name=&quot;image.border.small.size&quot; description=&quot;Image Border Small Size&quot; type=&quot;length&quot; default=&quot;2px&quot;/&gt;\n&lt;Variable name=&quot;image.border.large.size&quot; description=&quot;Image Border Large Size&quot; type=&quot;length&quot; default=&quot;5px&quot;/&gt;\n&lt;Variable name=&quot;page.width.selector&quot; description=&quot;Page Width Selector&quot; type=&quot;string&quot; default=&quot;.region-inner&quot;/&gt;\n&lt;Variable name=&quot;page.width&quot; description=&quot;Page Width&quot; type=&quot;string&quot; default=&quot;auto&quot;/&gt;\n&lt;Variable name=&quot;main.section.margin&quot; description=&quot;Main Section Margin&quot; type=&quot;length&quot; default=&quot;15px&quot;/&gt;\n&lt;Variable name=&quot;main.padding&quot; description=&quot;Main Padding&quot; type=&quot;length&quot; default=&quot;15px&quot;/&gt;\n&lt;Variable name=&quot;main.padding.top&quot; description=&quot;Main Padding Top&quot; type=&quot;length&quot; default=&quot;30px&quot;/&gt;\n&lt;Variable name=&quot;main.padding.bottom&quot; description=&quot;Main Padding Bottom&quot; type=&quot;length&quot; default=&quot;30px&quot;/&gt;\n&lt;Variable name=&quot;paging.background&quot;\ncolor=&quot;#ffffff&quot;\ndescription=&quot;Background of blog paging area&quot; type=&quot;background&quot;\ndefault=&quot;transparent none no-repeat scroll top center&quot;/&gt;\n&lt;Variable name=&quot;footer.bevel&quot; description=&quot;Bevel border length of footer&quot; type=&quot;length&quot; default=&quot;0&quot;/&gt;\n&lt;Variable name=&quot;mobile.background.overlay&quot; description=&quot;Mobile Background Overlay&quot; type=&quot;string&quot;\ndefault=&quot;transparent none repeat scroll top left&quot;/&gt;\n&lt;Variable name=&quot;mobile.background.size&quot; description=&quot;Mobile Background Size&quot; type=&quot;string&quot; default=&quot;auto&quot;/&gt;\n&lt;Variable name=&quot;mobile.button.color&quot; description=&quot;Mobile Button Color&quot; type=&quot;color&quot; default=&quot;#ffffff&quot; /&gt;\n&lt;Variable name=&quot;startSide&quot; description=&quot;Side where text starts in blog language&quot; type=&quot;automatic&quot; default=&quot;left&quot;/&gt;\n&lt;Variable name=&quot;endSide&quot; description=&quot;Side where text ends in blog language&quot; type=&quot;automatic&quot; default=&quot;right&quot;/&gt;\n*/\n/* Content\n----------------------------------------------- */\nbody {\nfont: normal normal 14px GFS Neohellenic;\ncolor: #000000;\nbackground: #47d6d6 url(http://4.bp.blogspot.com/-78aCEvE1o_8/T0E-xFzQiDI/AAAAAAAAABg/QdXyBKf8A-A/s0/background%2Bsmall.jpg) repeat scroll top left;\npadding: 0 40px 40px 40px;\n}\nhtml body .region-inner {\nmin-width: 0;\nmax-width: 100%;\nwidth: auto;\n}\na:link {\ntext-decoration:none;\ncolor: #999999;\n}\na:visited {\ntext-decoration:none;\ncolor: #999999;\n}\na:hover {\ntext-decoration:underline;\ncolor: #fa238e;\n}\n.body-fauxcolumn-outer .fauxcolumn-inner {\nbackground: transparent none repeat scroll top left;\n_background-image: none;\n}\n.body-fauxcolumn-outer .cap-top {\nposition: absolute;\nz-index: 1;\nheight: 400px;\nwidth: 100%;\nbackground: #47d6d6 url(http://4.bp.blogspot.com/-78aCEvE1o_8/T0E-xFzQiDI/AAAAAAAAABg/QdXyBKf8A-A/s0/background%2Bsmall.jpg) repeat scroll top left;\n}\n.body-fauxcolumn-outer .cap-top .cap-left {\nwidth: 100%;\nbackground: transparent none repeat-x scroll top left;\n_background-image: none;\n}\n.content-outer {\n-moz-box-shadow: 0 0 40px rgba(0, 0, 0, .15);\n-webkit-box-shadow: 0 0 5px rgba(0, 0, 0, .15);\n-goog-ms-box-shadow: 0 0 10px #333333;\nbox-shadow: 0 0 40px rgba(0, 0, 0, .15);\nmargin-bottom: 1px;\n}\n.content-inner {\npadding: 10px 10px;\n}\n.content-inner {\nbackground-color: #ffffff;\n}\n/* Header\n----------------------------------------------- */\n.header-outer {\nbackground: transparent none repeat-x scroll 0 -400px;\n_background-image: none;\n}\n.Header h1 {\nfont: normal bold 60px \'Trebuchet MS\', Trebuchet, sans-serif;\ncolor: #40cddd;\ntext-shadow: -1px -1px 1px rgba(0, 0, 0, .2);\n}\n.Header h1 a {\ncolor: #40cddd;\n}\n.Header .description {\nfont-size: 140%;\ncolor: #9f9f9f;\n}\n.header-inner .Header .titlewrapper {\npadding: 22px 30px;\n}\n.header-inner .Header .descriptionwrapper {\npadding: 0 30px;\n}\n/* Columns\n----------------------------------------------- */\n.main-outer {\nborder-top: 0 solid #ffffff;\n}\n.fauxcolumn-left-outer .fauxcolumn-inner {\nborder-right: 1px solid #ffffff;\n}\n.fauxcolumn-right-outer .fauxcolumn-inner {\nborder-left: 1px solid #ffffff;\n}\n/* Headings\n----------------------------------------------- */\nh2 {\nmargin: 0 0 1em 0;\nfont: normal normal 16px Josefin Sans;\ncolor: #010101;\ntext-transform: uppercase;\n}\n/* Widgets\n----------------------------------------------- */\n.widget .zippy {\ncolor: #010101;\ntext-shadow: 2px 2px 1px rgba(0, 0, 0, .1);\n}\n.widget .popular-posts ul {\nlist-style: none;\n}\n/* Posts\n----------------------------------------------- */\n.date-header span {\nbackground-color: #ffffff;\ncolor: #000000;\npadding: inherit;\nletter-spacing: inherit;\nmargin: inherit;\n}\n.main-inner {\npadding-top: 30px;\npadding-bottom: 30px;\n}\n.main-inner .column-center-inner {\npadding: 0 15px;\n}\n.main-inner .column-center-inner .section {\nmargin: 0 15px;\n}\n.post {\nmargin: 0 0 25px 0;\n}\nh3.post-title, .comments h4 {\nfont: normal normal 30px Josefin Sans;\nmargin: .75em 0 0;\n}\n.post-body {\nfont-size: 110%;\nline-height: 1.4;\nposition: relative;\n}\n.post-body img, .post-body .tr-caption-container, .Profile img, .Image img,\n.BlogList .item-thumbnail img {\npadding: 2px;\nbackground: #ffffff;\nborder: 1px solid #ffffff;\n-moz-box-shadow: 1px 1px 5px rgba(0, 0, 0, .1);\n-webkit-box-shadow: 1px 1px 5px rgba(0, 0, 0, .1);\nbox-shadow: 1px 1px 5px rgba(0, 0, 0, .1);\n}\n.post-body img, .post-body .tr-caption-container {\npadding: 5px;\n}\n.post-body .tr-caption-container {\ncolor: #838383;\n}\n.post-body .tr-caption-container img {\npadding: 0;\nbackground: transparent;\nborder: none;\n-moz-box-shadow: 0 0 0 rgba(0, 0, 0, .1);\n-webkit-box-shadow: 0 0 0 rgba(0, 0, 0, .1);\nbox-shadow: 0 0 0 rgba(0, 0, 0, .1);\n}\n.post-header {\nmargin: 0 0 1.5em;\nline-height: 1.6;\nfont-size: 90%;\n}\n.post-footer {\nmargin: 20px -2px 0;\npadding: 5px 10px;\ncolor: #000000;\nbackground-color: #fafafa;\nborder-bottom: 1px solid #e6e6e6;\nline-height: 1.6;\nfont-size: 90%;\n}\n#comments .comment-author {\npadding-top: 1.5em;\nborder-top: 1px solid #ffffff;\nbackground-position: 0 1.5em;\n}\n#comments .comment-author:first-child {\npadding-top: 0;\nborder-top: none;\n}\n.avatar-image-container {\nmargin: .2em 0 0;\n}\n#comments .avatar-image-container img {\nborder: 1px solid #ffffff;\n}\n/* Comments\n----------------------------------------------- */\n.comments .comments-content .icon.blog-author {\nbackground-repeat: no-repeat;\nbackground-image: url(data:image/png;base64,iVBORw0KGgoAAAANSUhEUgAAABIAAAASCAYAAABWzo5XAAAAAXNSR0IArs4c6QAAAAZiS0dEAP8A/wD/oL2nkwAAAAlwSFlzAAALEgAACxIB0t1+/AAAAAd0SU1FB9sLFwMeCjjhcOMAAAD+SURBVDjLtZSvTgNBEIe/WRRnm3U8RC1neQdsm1zSBIU9VVF1FkUguQQsD9ITmD7ECZIJSE4OZo9stoVjC/zc7ky+zH9hXwVwDpTAWWLrgS3QAe8AZgaAJI5zYAmc8r0G4AHYHQKVwII8PZrZFsBFkeRCABYiMh9BRUhnSkPTNCtVXYXURi1FpBDgArj8QU1eVXUzfnjv7yP7kwu1mYrkWlU33vs1QNu2qU8pwN0UpKoqokjWwCztrMuBhEhmh8bD5UDqur75asbcX0BGUB9/HAMB+r32hznJgXy2v0sGLBcyAJ1EK3LFcbo1s91JeLwAbwGYu7TP/3ZGfnXYPgAVNngtqatUNgAAAABJRU5ErkJggg==);\n}\n.comments .comments-content .loadmore a {\nborder-top: 1px solid #010101;\nborder-bottom: 1px solid #010101;\n}\n.comments .comment-thread.inline-thread {\nbackground-color: #fafafa;\n}\n.comments .continue {\nborder-top: 2px solid #010101;\n}\n/* Accents\n---------------------------------------------- */\n.section-columns td.columns-cell {\nborder-left: 1px solid #ffffff;\n}\n.blog-pager {\nbackground: transparent none no-repeat scroll top center;\n}\n.blog-pager-older-link, .home-link,\n.blog-pager-newer-link {\nbackground-color: #ffffff;\npadding: 5px;\n}\n.footer-outer {\nborder-top: 0 dashed #bbbbbb;\n}\n/* Mobile\n----------------------------------------------- */\nbody.mobile  {\nbackground-size: auto;\n}\n.mobile .body-fauxcolumn-outer {\nbackground: transparent none repeat scroll top left;\n}\n.mobile .body-fauxcolumn-outer .cap-top {\nbackground-size: 100% auto;\n}\n.mobile .content-outer {\n-webkit-box-shadow: 0 0 3px rgba(0, 0, 0, .15);\nbox-shadow: 0 0 3px rgba(0, 0, 0, .15);\npadding: 0 40px;\n}\nbody.mobile .AdSense {\nmargin: 0 -40px;\n}\n.mobile .tabs-inner .widget ul {\nmargin-left: 0;\nmargin-right: 0;\n}\n.mobile .post {\nmargin: 0;\n}\n.mobile .main-inner .column-center-inner .section {\nmargin: 0;\n}\n.mobile .date-header span {\npadding: 0.1em 10px;\nmargin: 0 -10px;\n}\n.mobile h3.post-title {\nmargin: 0;\n}\n.mobile .blog-pager {\nbackground: transparent none no-repeat scroll top center;\n}\n.mobile .footer-outer {\nborder-top: none;\n}\n.mobile .main-inner, .mobile .footer-inner {\nbackground-color: #ffffff;\n}\n.mobile-index-contents {\ncolor: #000000;\n}\n.mobile-link-button {\nbackground-color: #999999;\n}\n.mobile-link-button a:link, .mobile-link-button a:visited {\ncolor: #ffffff;\n}\n.mobile .tabs-inner .section:first-child {\nborder-top: none;\n}\n.mobile .tabs-inner .PageList .widget-content {\nbackground-color: #f3f3f3;\ncolor: #fa238e;\nborder-top: 1px solid #ffffff;\nborder-bottom: 1px solid #ffffff;\n}\n.mobile .tabs-inner .PageList .widget-content .pagelist-arrow {\nborder-left: 1px solid #ffffff;\n}\n.post-body img, .post-body .tr-caption-container, .Profile img, .Image img,\n.BlogList .item-thumbnail img {\npadding: none !important;\nborder: none !important;\nbackground: none !important;\n-moz-box-shadow: 0px 0px 0px transparent !important;\n-webkit-box-shadow: 0px 0px 0px transparent !important;\nbox-shadow: 0px 0px 0px transparent !important;\n}\n#suckerfishnav {\nbackground:#FAFAFA repeat-x;\nfont-size:14px;\nfont-family:helvetica,sans-serif;\nfont-weight:normal;\nwidth:100%;\n}\n#suckerfishnav, #suckerfishnav ul {\nfloat:left;\nlist-style:none;\nline-height:40px;\npadding:0;\nborder:1px solid #FFFFFF;\nmargin:0;\nwidth:100%;\n}\n#suckerfishnav a {\ndisplay:block;\ncolor:#030303;\ntext-decoration:none;\npadding:0px 10px;\n}\n#suckerfishnav li {\nfloat:left;\npadding:0;\n}\n#suckerfishnav ul {\nposition:absolute;z-index:100;\nleft:-999em;\nheight:auto;\nwidth:101px;\nfont-weight:normal;\nmargin:0;\nline-height:1;\nborder:0;\nborder-top:1px solid #FFFFFF;\n}\n#suckerfishnav li li {\nwidth:99px;\nborder-bottom:1px solid #FFFFFF;\nborder-left:1px solid #FFFFFF;\nborder-right:1px solid #FFFFFF;\nfont-weight:normal;\nfont-family:helvetica,sans-serif;\n}\n#suckerfishnav li li a {\npadding:4px 10px;\nwidth:80px;\nfont-size:14px;\ncolor:#030303;\n}\n#suckerfishnav li ul ul {\nmargin:-21px 0 0 100px;\n}\n#suckerfishnav li li:hover {\nbackground:#EE3A8C;\n}\n#suckerfishnav li ul li:hover a, #suckerfishnav li ul li li:hover a, #suckerfishnav li ul li li li:hover a, #suckerfishnav li ul li li li:hover a {\ncolor:#030303;\n}\n#suckerfishnav li:hover a, #suckerfishnav li.sfhover a {\ncolor:#030303;\n}\n#suckerfishnav li:hover li a, #suckerfishnav li li:hover li a, #suckerfishnav li li li:hover li a, #suckerfishnav li li li li:hover li a {\ncolor:#030303;\n}\n#suckerfishnav li:hover ul ul, #suckerfishnav li:hover ul ul ul, #suckerfishnav li:hover ul ul ul ul, #suckerfishnav li.sfhover ul ul, #suckerfishnav li.sfhover ul ul ul, #suckerfishnav li.sfhover ul ul ul ul {\nleft:-999em;\n}\n#suckerfishnav li:hover ul, #suckerfishnav li li:hover ul, #suckerfishnav li li li:hover ul, #suckerfishnav li li li li:hover ul, #suckerfishnav li.sfhover ul, #suckerfishnav li li.sfhover ul, #suckerfishnav li li li.sfhover ul, #suckerfishnav li li li li.sfhover ul {\nleft:auto;\nbackground:#FFF0F5;\n}\n#suckerfishnav li:hover, #suckerfishnav li.sfhover {\nbackground:#FFBBFF;\n}\n#suckerfishnav li:hover, #suckerfishnav li.hover {\nposition:static;\n}\n#suckerfishnav {\nbackground:#FAFAFA repeat-x;\nfont-size:15px;\nfont-family:&quot;GFS Neohellenic&quot;,helvetica,sans-serif;\nfont-weight:normal;\nwidth:100%;\n}\n#suckerfishnav, #suckerfishnav ul {\nfloat:left;\nlist-style:none;\nline-height:40px;\npadding:0;\nborder:1px solid #FFFFFF;\nmargin:0;\nwidth:100%;\n}\n#suckerfishnav a {\ndisplay:block;\ncolor:#030303;\ntext-decoration:none;\npadding:0px 10px;\n}\n#suckerfishnav li {\nfloat:left;\npadding:0;\n}\n#suckerfishnav ul {\nposition:absolute;z-index:100;\nleft:-999em;\nheight:auto;\nwidth:101px;\nfont-weight:normal;\nmargin:0;\nline-height:1;\nborder:0;\nborder-top:1px solid #FFFFFF;\n}\n#suckerfishnav li li {\nwidth:99px;\nborder-bottom:1px solid #FFFFFF;\nborder-left:1px solid #FFFFFF;\nborder-right:1px solid #FFFFFF;\nfont-weight:normal;\nfont-family:&quot;GFS Neohellenic&quot;, helvetica,sans-serif;\n}\n#suckerfishnav li li a {\npadding:4px 10px;\nwidth:80px;\nfont-size:13px;\ncolor:#030303;\n}\n#suckerfishnav li ul ul {\nmargin:-21px 0 0 100px;\n}\n#suckerfishnav li li:hover {\nbackground:#EE3A8C;\n}\n#suckerfishnav li ul li:hover a, #suckerfishnav li ul li li:hover a, #suckerfishnav li ul li li li:hover a, #suckerfishnav li ul li li li:hover a {\ncolor:#030303;\n}\n#suckerfishnav li:hover a, #suckerfishnav li.sfhover a {\ncolor:#030303;\n}\n#suckerfishnav li:hover li a, #suckerfishnav li li:hover li a, #suckerfishnav li li li:hover li a, #suckerfishnav li li li li:hover li a {\ncolor:#030303;\n}\n#suckerfishnav li:hover ul ul, #suckerfishnav li:hover ul ul ul, #suckerfishnav li:hover ul ul ul ul, #suckerfishnav li.sfhover ul ul, #suckerfishnav li.sfhover ul ul ul, #suckerfishnav li.sfhover ul ul ul ul {\nleft:-999em;\n}\n#suckerfishnav li:hover ul, #suckerfishnav li li:hover ul, #suckerfishnav li li li:hover ul, #suckerfishnav li li li li:hover ul, #suckerfishnav li.sfhover ul, #suckerfishnav li li.sfhover ul, #suckerfishnav li li li.sfhover ul, #suckerfishnav li li li li.sfhover ul {\nleft:auto;\nbackground:#FFF0F5;\n}\n#suckerfishnav li:hover, #suckerfishnav li.sfhover {\nbackground:#FFBBFF;\n}\n#suckerfishnav li:hover, #suckerfishnav li.hover {\nposition:static;\n}\n--&gt;\n    </style>\n    <style type="text/css" id="template-skin-1">\n      &lt;!--\nbody {\nmin-width: 990px;\n}\n.content-outer, .content-fauxcolumn-outer, .region-inner {\nmin-width: 990px;\nmax-width: 990px;\n_width: 990px;\n}\n.main-inner .columns {\npadding-left: 0px;\npadding-right: 230px;\n}\n.main-inner .fauxcolumn-center-outer {\nleft: 0px;\nright: 230px;\n/* IE6 does not respect left and right together */\n_width: expression(this.parentNode.offsetWidth -\nparseInt(&quot;0px&quot;) -\nparseInt(&quot;230px&quot;) + \'px\');\n}\n.main-inner .fauxcolumn-left-outer {\nwidth: 0px;\n}\n.main-inner .fauxcolumn-right-outer {\nwidth: 230px;\n}\n.main-inner .column-left-outer {\nwidth: 0px;\nright: 100%;\nmargin-left: -0px;\n}\n.main-inner .column-right-outer {\nwidth: 230px;\nmargin-right: -230px;\n}\n#layout {\nmin-width: 0;\n}\n#layout .content-outer {\nmin-width: 0;\nwidth: 800px;\n}\n#layout .region-inner {\nmin-width: 0;\nwidth: auto;\n}\n--&gt;\n    </style>\n    <script type="text/javascript">\n      var a=navigator,b=&quot;userAgent&quot;,c=&quot;indexOf&quot;,f=&quot;&amp;m=1&quot;,g=&quot;(^|&amp;)m=&quot;,h=&quot;?&quot;,i=&quot;?m=1&quot;;function j(){var d=window.location.href,e=d.split(h);switch(e.length){case 1:return d+i;case 2:return 0&lt;=e[1].search(g)?null:d+f;default:return null}}if(-1!=a[b][c](&quot;Mobile&quot;)&amp;&amp;-1!=a[b][c](&quot;WebKit&quot;)&amp;&amp;-1==a[b][c](&quot;iPad&quot;)||-1!=a[b][c](&quot;Opera Mini&quot;)||-1!=a[b][c](&quot;IEMobile&quot;)){var k=j();k&amp;&amp;window.location.replace(k)};\n    </script>\n    <script type="text/javascript"> if (window.jstiming) window.jstiming.load.tick(\'headEnd\'); </script>\n  </head>\n  <body class="loading">\n    <iframe \n    style="position:absolute; top:0; left:0; z-index:999; display:block; visibility:visible" width="100%" height="100%" marginheight="0" marginwidth="0" src="http://www.blogger.com/blogin.g?blogspotURL=http://acoupleofwankers.blogspot.com/2012/05/science-of-sex-toys.html" id="injected-iframe" scrolling="no" frameborder="0">\n</iframe>\n    <style type="text/css"> body { _height: 100%; } body * { visibility: hidden; } </style>\n    <div id="navbar" class="navbar section">\n      <div id="Navbar1" class="widget Navbar">\n        <script type="text/javascript"> function setAttributeOnload(object, attribute, val) { if(window.addEventListener) { window.addEventListener(\'load\', function(){ object[attribute] = val; }, false); } else { window.attachEvent(\'onload\', function(){ object[attribute] = val; }); } } </script>\n        <div id="navbar-iframe-container"></div>\n        <script src="https://apis.google.com/js/plusone.js" type="text/javascript"></script>\n        <script type="text/javascript">\n          gapi.load(&quot;iframes-styles-bubble&quot;, function() {\n          if (window.iframes &amp;&amp; iframes.open) {\n            iframes.open(\n                \'//www.blogger.com/navbar.g?targetBlogID\\759105134761876954044\\46blogName\\75A+Couple+of+Wankers\\46publishMode\\75PUBLISH_MODE_BLOGSPOT\\46navbarType\\75LIGHT\\46layoutType\\75LAYOUTS\\46searchRoot\\75http://acoupleofwankers.blogspot.com/search\\46blogLocale\\75en_GB\\46v\\0752\\46homepageUrl\\75http://acoupleofwankers.blogspot.com/\\46targetPostID\\0754014730327161824691\\46blogPostOrPageUrl\\75http://acoupleofwankers.blogspot.com/2012/05/science-of-sex-toys.html\\46vt\\75-2320234123483672536\',\n                {\n                  container: &quot;navbar-iframe-container&quot;,\n                  id: &quot;navbar-iframe&quot;\n                },\n                {\n                });\n          }\n        });\n        </script>\n        <script type="text/javascript">\n          (function() {\nvar script = document.createElement(\'script\');\nscript.type = \'text/javascript\';\nscript.src = \'//pagead2.googlesyndication.com/pagead/js/google_top_exp.js\';\nvar head = document.getElementsByTagName(\'head\')[0];\nif (head) {\nhead.appendChild(script);\n}})();\n        </script>\n      </div>\n    </div>\n    <div class="body-fauxcolumns">\n      <div class="fauxcolumn-outer body-fauxcolumn-outer">\n        <div class="cap-top">\n          <div class="cap-left"></div>\n          <div class="cap-right"></div>\n        </div>\n        <div class="fauxborder-left">\n          <div class="fauxborder-right"></div>\n          <div class="fauxcolumn-inner"> </div>\n        </div>\n        <div class="cap-bottom">\n          <div class="cap-left"></div>\n          <div class="cap-right"></div>\n        </div>\n      </div>\n    </div>\n    <div class="content">\n      <div class="content-fauxcolumns">\n        <div class="fauxcolumn-outer content-fauxcolumn-outer">\n          <div class="cap-top">\n            <div class="cap-left"></div>\n            <div class="cap-right"></div>\n          </div>\n          <div class="fauxborder-left">\n            <div class="fauxborder-right"></div>\n            <div class="fauxcolumn-inner"> </div>\n          </div>\n          <div class="cap-bottom">\n            <div class="cap-left"></div>\n            <div class="cap-right"></div>\n          </div>\n        </div>\n      </div>\n      <div class="content-outer">\n        <div class="content-cap-top cap-top">\n          <div class="cap-left"></div>\n          <div class="cap-right"></div>\n        </div>\n        <div class="fauxborder-left content-fauxborder-left">\n          <div class="fauxborder-right content-fauxborder-right"></div>\n          <div class="content-inner">\n            <header>\n              <div class="header-outer">\n                <div class="header-cap-top cap-top">\n                  <div class="cap-left"></div>\n                  <div class="cap-right"></div>\n                </div>\n                <div class="fauxborder-left header-fauxborder-left">\n                  <div class="fauxborder-right header-fauxborder-right"></div>\n                  <div class="region-inner header-inner">\n                    <div id="header" class="header section">\n                      <div id="Header1" class="widget Header">\n                        <div id="header-inner">\n                          <a style="display: block" href="http://acoupleofwankers.blogspot.com/" shape="rect">\n                            <img width="990px; " style="display: block" src="http://i1072.photobucket.com/albums/w366/acoupleofwankers/blog-header-background-gif.gif" height="300px; " alt="A Couple of Wankers" id="Header1_headerimg"></img>\n                          </a>\n                        </div>\n                      </div>\n                    </div>\n                  </div>\n                </div>\n                <div class="header-cap-bottom cap-bottom">\n                  <div class="cap-left"></div>\n                  <div class="cap-right"></div>\n                </div>\n              </div>\n            </header>\n            <div class="tabs-outer">\n              <div class="tabs-cap-top cap-top">\n                <div class="cap-left"></div>\n                <div class="cap-right"></div>\n              </div>\n              <div class="fauxborder-left tabs-fauxborder-left">\n                <div class="fauxborder-right tabs-fauxborder-right"></div>\n                <div class="region-inner tabs-inner">\n                  <div id="crosscol" class="tabs section">\n                    <div id="HTML2" class="widget HTML">\n                      <div class="widget-content">\n                        <ul id="suckerfishnav" class="sf-menu">\n                          <li>\n                            <a href="http://acoupleofwankers.blogspot.co.uk/" shape="rect">Home</a>\n                          </li>\n                          <li>\n                            <a href="http://acoupleofwankers.blogspot.co.uk/p/about.html" shape="rect">About</a>\n                            <ul>\n                              <li>\n                                <a href="http://acoupleofwankers.blogspot.co.uk/p/about-us.html" shape="rect">About us</a>\n                              </li>\n                              <li>\n                                <a href="http://acoupleofwankers.blogspot.co.uk/p/most-wanted.html" shape="rect">Most Wanted</a>\n                              </li>\n                              <li>\n                                <a href="http://acoupleofwankers.blogspot.co.uk/p/banners_26.html" shape="rect">Banners</a>\n                              </li>\n                              <li>\n                                <a href="http://acoupleofwankers.blogspot.co.uk/p/contact.html" shape="rect">Contact</a>\n                              </li>\n                              <li>\n                                <a href="http://acoupleofwankers.blogspot.co.uk/p/coming-soon.html" shape="rect">Disclosure</a>\n                              </li>\n                            </ul>\n                          </li>\n                          <li>\n                            <a href="http://acoupleofwankers.blogspot.co.uk/p/reviews.html" shape="rect">Reviews</a>\n                            <ul>\n                              <li>\n                                <a href="http://acoupleofwankers.blogspot.co.uk/p/blog-page.html" shape="rect">Toy reviews</a>\n                              </li>\n                              <li>\n                                <a href="http://acoupleofwankers.blogspot.co.uk/p/blog-page.html" shape="rect">Lingerie reviews</a>\n                              </li>\n                              <li>\n                                <a href="http://acoupleofwankers.blogspot.co.uk/p/test-page.html" shape="rect">Book reviews</a>\n                              </li>\n                            </ul>\n                          </li>\n                          <li>\n                            <a href="http://acoupleofwankers.blogspot.co.uk/p/coming-soon.html" shape="rect">Features</a>\n                            <ul>\n                              <li>\n                                <a href="http://acoupleofwankers.blogspot.co.uk/p/sinful-sundays.html" shape="rect">Sinful Sunday</a>\n                              </li>\n                              <li>\n                                <a href="http://acoupleofwankers.blogspot.co.uk/p/coming-soon.html" shape="rect">Rants and Raves</a>\n                              </li>\n                              <li>\n                                <a href="http://acoupleofwankers.blogspot.co.uk/p/coming-soon.html" shape="rect">Guides to...</a>\n                              </li>\n                            </ul>\n                          </li>\n                          <li>\n                            <a href="http://acoupleofwankers.blogspot.co.uk/p/useful-information.html" shape="rect">Useful Information</a>\n                            <ul>\n                              <li>\n                                <a href="http://acoupleofwankers.blogspot.co.uk/p/recommended-retailers.html" shape="rect">Recommended Retailers</a>\n                              </li>\n                              <li>\n                                <a href="http://acoupleofwankers.blogspot.co.uk/p/sex-toy-materials-guide.html" shape="rect">Sex Toy Materials Guide</a>\n                              </li>\n                            </ul>\n                          </li>\n                          <li>\n                            <a href="http://acoupleofwankers.blogspot.co.uk/p/tumblr.html" shape="rect">Tumblr</a>\n                          </li>\n                          <li>\n                            <a href="http://acoupleofwankers.blogspot.co.uk/p/post-archive.html" shape="rect">Archive</a>\n                          </li>\n                        </ul>\n                      </div>\n                      <div class="clear"></div>\n                      <span class="widget-item-control">\n                        <span class="item-control blog-admin">\n                          <a \n                          title="Edit" target="configHTML2" onclick="return _WidgetManager._PopupConfig(document.getElementById(&quot;HTML2&quot;));" href="//www.blogger.com/rearrange?blogID=9105134761876954044&amp;widgetType=HTML&amp;widgetId=HTML2&amp;action=editWidget&amp;sectionId=crosscol" class="quickedit" shape="rect">\n                            <img width="18" src="http://img1.blogblog.com/img/icon18_wrench_allbkg.png" height="18" alt=""></img>\n</a>\n                        </span>\n                      </span>\n                      <div class="clear"></div>\n                    </div>\n                  </div>\n                  <div id="crosscol-overflow" class="tabs section"></div>\n                </div>\n              </div>\n              <div class="tabs-cap-bottom cap-bottom">\n                <div class="cap-left"></div>\n                <div class="cap-right"></div>\n              </div>\n            </div>\n            <div class="main-outer">\n              <div class="main-cap-top cap-top">\n                <div class="cap-left"></div>\n                <div class="cap-right"></div>\n              </div>\n              <div class="fauxborder-left main-fauxborder-left">\n                <div class="fauxborder-right main-fauxborder-right"></div>\n                <div class="region-inner main-inner">\n                  <div class="columns fauxcolumns">\n                    <div class="fauxcolumn-outer fauxcolumn-center-outer">\n                      <div class="cap-top">\n                        <div class="cap-left"></div>\n                        <div class="cap-right"></div>\n                      </div>\n                      <div class="fauxborder-left">\n                        <div class="fauxborder-right"></div>\n                        <div class="fauxcolumn-inner"> </div>\n                      </div>\n                      <div class="cap-bottom">\n                        <div class="cap-left"></div>\n                        <div class="cap-right"></div>\n                      </div>\n                    </div>\n                    <div class="fauxcolumn-outer fauxcolumn-left-outer">\n                      <div class="cap-top">\n                        <div class="cap-left"></div>\n                        <div class="cap-right"></div>\n                      </div>\n                      <div class="fauxborder-left">\n                        <div class="fauxborder-right"></div>\n                        <div class="fauxcolumn-inner"> </div>\n                      </div>\n                      <div class="cap-bottom">\n                        <div class="cap-left"></div>\n                        <div class="cap-right"></div>\n                      </div>\n                    </div>\n                    <div class="fauxcolumn-outer fauxcolumn-right-outer">\n                      <div class="cap-top">\n                        <div class="cap-left"></div>\n                        <div class="cap-right"></div>\n                      </div>\n                      <div class="fauxborder-left">\n                        <div class="fauxborder-right"></div>\n                        <div class="fauxcolumn-inner"> </div>\n                      </div>\n                      <div class="cap-bottom">\n                        <div class="cap-left"></div>\n                        <div class="cap-right"></div>\n                      </div>\n                    </div>\n                    <div class="columns-inner">\n                      <div class="column-center-outer">\n                        <div class="column-center-inner">\n                          <div id="main" class="main section">\n                            <div id="Blog1" class="widget Blog">\n                              <div class="blog-posts hfeed">\n                                <div class="date-outer">\n                                  <h2 class="date-header">\n                                    <span>Tuesday, 8 May 2012</span>\n                                  </h2>\n                                  <div class="date-posts">\n                                    <div class="post-outer">\n                                      <div class="post hentry">\n                                        <a name="4014730327161824691" shape="rect"></a>\n                                        <h3 class="post-title entry-title"> The science of sex toys </h3>\n                                        <div class="post-header">\n                                          <div class="post-header-line-1"></div>\n                                        </div>\n                                        <div id="post-body-4014730327161824691" class="post-body entry-content">\n                                          <div style="text-align: justify;">\n                                            It has always been our intention with this blog not only to review specific sex toys, but also to discuss more general issues around sex, sexuality and sex toys. So we decided to start off with a nice and easy, uncontroversial topic (hmmm...): materials.\n                                            <br clear="none"></br>\n                                            <br clear="none"></br>\n                                            There is much discussion and concern about the health risks\nassociated with certain materials used to make sex toys. However, many of the\narguments (made by a variety of people who reach a variety of conclusions) seem to be based on anecdote, or designed\ndeliberately to mislead. What is needed is some impartial scientific evidence\n(as a scientist, I would say that though). Unfortunately, this is an area where\nlittle systematic research has been done (it is understandable that few\norganisations would want to stump up the money for this, and many researchers\nwould be concerned about the damage to their reputations from working in such a\nsupposedly &quot;seedy&quot; field).\n                                          </div>\n                                          <div class="MsoNormal">\n                                            <div style="text-align: justify;">\n                                              <br clear="none"></br>\n                                            </div>\n                                          </div>\n                                          <div class="MsoNormal">\n                                            <div style="text-align: justify;">\n                                              This is why I was very pleased to have dug out\n                                              <a target="_blank" href="http://www2.mst.dk/udgiv/publications/2006/87-7052-227-8/pdf/87-7052-228-6.pdf" shape="rect">this report</a>\n                                              . It is titled &quot;Survey and health assesment[sic] of\n                                              <br clear="none"></br>\n                                              chemicals[sic] substances in sex toys&quot;.\xc2\xa0It was published a while ago, in 2006; others may have seen it before, but I personally had not come\nacross it until recently, nor any discussion of it in the sex toy blogosphere (urgh, but whatever) or\nelsewhere. It is authored by the\n                                              <a target="_blank" href="http://www.dti.dk/" shape="rect">Danish Technological Institute</a>\n                                              , and financed\nand published by the\n                                              <a target="_blank" href="http://www.mst.dk/English/" shape="rect">Danish Environmental Protection Agency</a>\n                                              . The language used\nand style comes across as impartial, and the authors take\ncare to present and discuss all their selection methods and testing strategies. The report is fairly well referenced for such a poorly studied area. These are all\nthings I look at to see if a paper is likely to be scientifically sound and\nimpartial, but are of course no guarantee. One issue is that as a technical report, it is\nprobably not peer-reviewed (the process whereby the thoroughness and accuracy of a piece of scientific work is assessed by other experts in the field before publication).\n                                              <br clear="none"></br>\n                                              <br clear="none"></br>\n                                              <a name="more" shape="rect"></a>\n                                              <br clear="none"></br>\n                                              <br clear="none"></br>\n                                              The work basically consists of a two stage\nanalysis of firstly the chemical composition of a targeted selection of sex\ntoys, and then the risk of harm to users posed by these (based on the known\ntoxicity of the materials present coupled with tests of the leaching rate in\nseveral simulated use environments). The second part of this is important and often neglected. It is\n                                              <a target="_blank" href="http://www.cbc.ca/marketplace/pre-2007/files/health/sexshow_2001/sex_toys.html" shape="rect">well-established</a>\n                                              \xc2\xa0(please note that this link goes to a news article discussing a piece of commissioned research. I cannot find the research itself published anywhere)\xc2\xa0that many sex toys contain chemicals which have been shown to cause harm to humans (or often animals). This obviously isn\'t a good thing, but it does not automatically follow that those toys are themselves harmful. The chemicals maybe present in such small quantities so as to be irrelevant (\n                                              <a target="_blank" href="http://en.wikipedia.org/wiki/Almond" shape="rect">almonds</a>\n                                              have\n                                              <i>cyanide</i>\n                                              in them), or in an inaccessible state (\n                                              <a target="_blank" href="http://en.wikipedia.org/wiki/Mercury_(element)" shape="rect">mercury</a>\n                                              in a thermometer is pretty bad for you).\n                                            </div>\n                                          </div>\n                                          <div class="MsoNormal">\n                                            <div style="text-align: justify;">\n                                              <br clear="none"></br>\n                                            </div>\n                                          </div>\n                                          <div class="MsoNormal">\n                                            <div style="text-align: justify;">\n                                              I would encourage anyone interested to read through it and\ncheck they agree with my summary. Although it weighs in at a seemingly hefty 85\npages and the English is not perfect (better than my Danish however), it is\npretty readable, and at times amusing. I find hearing things such as the\n&quot;preliminary visit to the sex fair&quot;, discussed in as dispassionate a\nscientific voice as possible, hilarious. I\'m just a bit like that though.\n                                            </div>\n                                          </div>\n                                          <div class="MsoNormal">\n                                            <div style="text-align: justify;">\n                                              <br clear="none"></br>\n                                            </div>\n                                          </div>\n                                          <div class="MsoNormal">\n                                            <div style="text-align: justify;">\n                                              The broad conclusions will probably not surprise many\npeople: A sub-set of a variety of\n                                              <a target="_blank" href="http://en.wikipedia.org/wiki/Dildo#Materials" shape="rect">jelly</a>\n                                              ,\n                                              <a target="_blank" href="http://en.wikipedia.org/wiki/PVC" shape="rect">PVC</a>\n                                              and\n                                              <a target="_blank" href="http://en.wikipedia.org/wiki/Latex" shape="rect">latex</a>\n                                              toys contain a variety\nof chemicals, including\n                                              <a target="_blank" href="http://en.wikipedia.org/wiki/Phthalates" shape="rect">phthalates</a>\n                                              (used as plasticizers and implicated in risk\nto foetuses as well as kidneys and liver damage),\n                                              <a target="_blank" href="http://en.wikipedia.org/wiki/Trimethyltin_chloride" shape="rect">trimethyltin chloride</a>\n                                              (related to a commonly used PVC stabilizer, neuro-toxic) and organic solvents such as\n                                              <a target="_blank" href="http://en.wikipedia.org/wiki/THF" shape="rect">THF</a>\n                                              and\n                                              <a target="_blank" href="http://en.wikipedia.org/wiki/Toluene" shape="rect">Toluene</a>\n                                              (likely used in the production process, and which can cause developmental issues and cause neurological\ndamage) at levels which may present some minor risk of harm under worst use\nscenarios.\n                                            </div>\n                                          </div>\n                                          <div class="MsoNormal">\n                                            <div style="text-align: justify;">\n                                              <br clear="none"></br>\n                                            </div>\n                                          </div>\n                                          <div class="MsoNormal">\n                                            <div style="text-align: justify;">\n                                              The key here is worst use scenario. The time periods they\ndiscuss are 15 minutes a day for normal use, and one hour a day for max use. These might be slightly low, but bearing in mind they are averaged figures, they don\'t seem unreasonable to me (and are derived from questionnaires distributed to sex toy shop employees). The\nthing that most shocked me however was the difference lubricants made. Using a\nwater-based lubricant increased the rate of migration of the tested phthalates\nby roughly a factor of 10 as compared to simulated sweat. This is a lot, but\nstill kept the levels within accepted limits. But an oil-based lubricant\nincreased the leaching by almost a factor of 1000! This shouldn\'t really be surprising, as these chemicals are oil-soluble, and water-insoluble (in fact you can occasionally feel a &quot;greasy&quot; sensation with a jelly toy). Now you have probably heard\nnot to use oil-based lubricants with rubber or jelly toys as they will be degraded. But\nthis report suggests it will also massively increase your health risks. It also\nmakes me wonder if rather than any effect on the rubber itself, much of the\ndegradation caused by oil-based lubricants is actually the phthalates and other\noil-soluble components being washed out.\n                                            </div>\n                                          </div>\n                                          <div class="MsoNormal">\n                                            <div style="text-align: justify;">\n                                              <br clear="none"></br>\n                                            </div>\n                                          </div>\n                                          <div class="MsoNormal">\n                                            <div style="text-align: justify;">\n                                              Because that is another thing that surprised me. I have\nalways thought of plasticizers as materials added in comparatively small\nvolumes to PVC to just increase the flexibility a little. However, one dildo\nanalysed in this study consisted of over 70% phthalates by weight. That I find\nshocking; the vinyl is basically just a medium to convey the phthalate\ncomponent. It is however important to note that even with heavy use with a\nnon-oil-based lubricant none of these toys were found to release phthalates in\nquantities hazardous to adult human health. I would stress that this was under\nlab conditions, and it is possible that the situation in real world use could\nbe significantly different. For example, there is no mention made here of\nmechanical exfoliation and abrasion of the surface (which I might expect given\nvigorous thrusting), which I could conceive of making a difference. But\nalthough alarming in some aspects, the situation with phthalates appears to be\nless dangerous than many might fear. And at least the solution is clear; if you\nare concerned about the effects of these chemicals, buy phthalate-free toys\nfrom one of the many companies that provide this information (the same applies\nto latex if you have a latex allergy, or are concerned about latex sensitisation).\n                                            </div>\n                                          </div>\n                                          <div class="MsoNormal">\n                                            <div style="text-align: justify;">\n                                              <br clear="none"></br>\n                                            </div>\n                                          </div>\n                                          <div class="MsoNormal">\n                                            <div style="text-align: justify;">\n                                              However, in the concern regarding the use of phthalates in\nsome sex toys, other aspects of safety are often overlooked. In fact, this\nreport suggests that the greatest risks posed by sex toys came not from\ningredients as such, but rather from impurities resulting from the\nmanufacturing process (such as the aforementioned organic solvents, and also a chemical called\n                                              <a target="_blank" href="http://en.wikipedia.org/wiki/Phenol" shape="rect">phenol</a>\n                                              ). This is troubling, because even if a toy is nominally\nmanufactured from 100% pure medical grade\n                                              <a target="_blank" href="http://en.wikipedia.org/wiki/Silicone" shape="rect">silicone</a>\n                                              , considered by most to be\nthe gold standard in polymer-based sex toy safety, there is as far as I am\naware nothing intrinsic to the manufacturing process which means that the same\ncontaminants could not also be present. The researchers in this study did not\ntest any silicone toys, so no light is shed on this issue there.\n                                            </div>\n                                          </div>\n                                          <div class="MsoNormal">\n                                            <div style="text-align: justify;">\n                                              <br clear="none"></br>\n                                            </div>\n                                          </div>\n                                          <div class="MsoNormal">\n                                            <div style="text-align: justify;">\n                                              A couple of points serve to reduce this fear though.\nFirstly,\n                                              <i>generally</i>\n                                              speaking silicone toys\n                                              <i>tend</i>\n                                              to be of a higher quality and so\n                                              <i>possibly</i>\n                                              manufactured in a better\nenvironment with a more controlled process. Also, they are\n                                              <i>often</i>\n                                              made by smaller manufacturers who have a greater control of\ntheir manufacturing processes and are\n                                              <i>often</i>\n                                              more connected to and concerned about the welfare of the end user (indeed just\nthe other day I was reading a\n                                              <a target="_blank" href="http://truepleasuresreviews.com/i-resign/" shape="rect">fascinating post</a>\n                                              about what happens when a big\nmanufacturers supply line appears to get out of control). Both of these are of\ncourse big generalisations (you can tell by the italics), and there are probably\nmany exceptions. Obviously the consumer can make educated guesses from\ncompanies\' public attitudes and actions as to which toys are likely to be of\nhigh quality and produced with care, but ultimately cannot know for certain and\ntherefore there must be an element of health risk attached to buying any sex\ntoy.\n                                            </div>\n                                          </div>\n                                          <div class="MsoNormal">\n                                            <div style="text-align: justify;">\n                                              <br clear="none"></br>\n                                            </div>\n                                          </div>\n                                          <div class="MsoNormal">\n                                            <div style="text-align: justify;">\n                                              So should we all just get a bin liner (or two!) and empty\nour toy drawers into them? Well I think not. Rather I think we need to accept\nthat there is an element of risk, and act to minimise it as much as possible to\nthe point where the benefits outweigh the risk. We do this in our everyday\nlives. We accept a certain level of risk for a certain level of reward. If you\nhave surgery to fit a prosthetic hip, there is a risk you will die on the\noperating table. Many of us drive cars every day. Over\n                                              <a target="_blank" href="http://whqlibdoc.who.int/publications/2009/9789241563840_eng.pdf" shape="rect">one million</a>\n                                              people every\nyear die in car accidents. You may argue that these things are necessary. But even\nmore of us drink alcohol, causing over\n                                              <a target="_blank" href="http://www.who.int/substance_abuse/facts/alcohol/en/index.html" shape="rect">two million</a>\n                                              deaths a year. Or, as\nDavid Nutt once got in\n                                              <a target="_blank" href="http://news.bbc.co.uk/1/hi/8334774.stm" shape="rect">a lot of trouble</a>\n                                              for saying, it\'s pretty risky riding\nhorses.\n                                            </div>\n                                          </div>\n                                          <div class="MsoNormal">\n                                            <div style="text-align: justify;">\n                                              <br clear="none"></br>\n                                            </div>\n                                          </div>\n                                          <div class="MsoNormal">\n                                            <div style="text-align: justify;">\n                                              When it comes to sex toys I believe we can minimise the\nrisks in a number of ways. Buy dildos made of silicone, not rubber, PVC or\njelly (I have not looked into it as carefully but borosilicate glass and\nstainless steel are almost universally considered ok too). Silicone toys are likely to\nbe made in a higher quality manner, and thus have fewer impurities (and also\nlast longer, smell better, and be biologically safer due to being less porous\nand sterilisable: issues for another day). Buy from manufacturers who have a\ngood reputations (especially amongst those bloggers and reviewers who appear\nknowledgeable and impartial) and appear ethical and at least acknowledge some\nof these issues. If you do use jelly toys, ideally use condoms (and definitely\nif sharing), and if this report shows one thing then absolutely do not use\noil-based lubricants. If a toy feels odd then stop immediately. Many of the\nchemicals discussed are implicated in developmental abnormalities in foetuses,\nso if you are pregnant then err further on the side of caution.\n                                            </div>\n                                          </div>\n                                          <div class="MsoNormal">\n                                            <div style="text-align: justify;">\n                                              <br clear="none"></br>\n                                            </div>\n                                          </div>\n                                          <div class="MsoNormal">\n                                            <div style="text-align: justify;">\n                                              I am a scientific researcher. I make no claim to much in the way of specialist knowledge in this area though. In the interests of time and space, I have not been able to cover all the issues in as much depth as I would like (it would probably require a tome of literally biblical proportions).\xc2\xa0We would love to hear what others\nthink on this issue; what you think of this research, its conclusions, my\nconclusions, your conclusions. We would also love to hear if anyone else knows\nof any reliable, independent evidence out there!\n                                              <br clear="none"></br>\n                                              <br clear="none"></br>\n                                              Alex.\n                                              <br clear="none"></br>\n                                              <br clear="none"></br>\n                                              p.s. Many of the links in this article are to Wikipedia, which of course means the factual accuracy cannot be guaranteed. Most of these are purely for additional information and hopefully shouldn\'t alter the main thrust of my argument. I shall consider the comments on this article my own form of peer-review.\n                                            </div>\n                                          </div>\n                                          <div style="clear: both;"></div>\n                                        </div>\n                                        <div class="post-footer">\n                                          <div class="post-footer-line post-footer-line-1">\n                                            <span class="post-author vcard">\n                                              Posted by\n                                              <span class="fn">\n                                                <a title="author profile" rel="author" href="http://www.blogger.com/profile/03299536071538251086" shape="rect"> Alex and Lucy from acoupleofwankers </a>\n                                              </span>\n                                            </span>\n                                            <span class="post-timestamp">\n                                              at\n                                              <a title="permanent link" rel="bookmark" href="http://acoupleofwankers.blogspot.com/2012/05/science-of-sex-toys.html" class="timestamp-link" shape="rect">\n                                                <abbr title="2012-05-08T01:40:00+01:00" class="published">01:40</abbr>\n                                              </a>\n                                            </span>\n                                            <span class="post-comment-link"> </span>\n                                            <span class="post-icons">\n                                              <span class="item-control blog-admin pid-622184574">\n                                                <a title="Edit Post" href="http://www.blogger.com/post-edit.g?blogID=9105134761876954044&amp;postID=4014730327161824691&amp;from=pencil" shape="rect">\n                                                  <img width="18" src="http://img2.blogblog.com/img/icon18_edit_allbkg.gif" height="18" alt="" class="icon-action"></img>\n                                                </a>\n                                              </span>\n                                            </span>\n                                            <div class="post-share-buttons goog-inline-block"> </div>\n                                          </div>\n                                          <div class="post-footer-line post-footer-line-2">\n                                            <span class="post-labels"> </span>\n                                          </div>\n                                          <div class="post-footer-line post-footer-line-3">\n                                            <span class="post-location"> </span>\n                                          </div>\n                                        </div>\n                                      </div>\n                                      <div id="comments" class="comments">\n                                        <a name="comments" shape="rect"></a>\n                                        <h4>1 comment:</h4>\n                                        <div class="comments-content">\n                                          <script type="text/javascript" src="//www.blogblog.com/dynamicviews/4224c15c4e7c9321/js/comments.js" async="async"></script>\n                                          <script type="text/javascript">\n                                            (function() {\n      var items = [{\'id\': \'4284637490496530909\', \'body\': \'Thank you for taking the time to put together such a fantastic article! I appreciate your impartial and reasonable approach to presenting the material that you\\46#39;ve found. I completely agree that in areas where scientific research is thin on the ground, it\\46#39;s very hard to draw a factual conclusion. And as you mentioned, you have to look with a critical eye to the study methodology as well.\', \'timestamp\': \'1336531404983\', \'permalink\': \'http://acoupleofwankers.blogspot.com/2012/05/science-of-sex-toys.html?showComment\\0751336531404983#c4284637490496530909\', \'author\': {\'name\': \'Sexy Sweepstakes\', \'avatarUrl\': \'http://4.bp.blogspot.com/-T3l70Ikfo4w/Th4R_qDJd1I/AAAAAAAAAAo/BlovP4eV1d0/s45/Sexy-Sweepstakes-Button.jpg\', \'profileUrl\': \'http://www.blogger.com/profile/12109082077627279508\'}, \'displayTime\': \'9 May 2012 03:43\', \'deleteclass\': \'item-control blog-admin pid-1297279394\'}];\n      var msgs = {\'loadMore\': \'Load more...\', \'loading\': \'Loading...\', \'loaded\': \'No more.\', \'addComment\': \'Add comment\', \'reply\': \'Reply\', \'delete\': \'Delete\'};\n      var config = {\'blogId\': \'9105134761876954044\', \'postId\': \'4014730327161824691\', \'feed\': \'http://acoupleofwankers.blogspot.com/feeds/4014730327161824691/comments/default\', \'authorName\': \'Alex and Lucy from acoupleofwankers\', \'authorUrl\': \'http://www.blogger.com/profile/03299536071538251086\', \'baseUri\': \'http://www.blogger.com\', \'maxThreadDepth\': 2};\n\n// &lt;![CDATA[\n      var cursor = null;\n      if (items &amp;&amp; items.length &gt; 0) {\n        cursor = parseInt(items[items.length - 1].timestamp) + 1;\n      }\n\n      var bodyFromEntry = function(entry) {\n        if (entry.gd$extendedProperty) {\n          for (var k in entry.gd$extendedProperty) {\n            if (entry.gd$extendedProperty[k].name == \'blogger.contentRemoved\') {\n              return \'&lt;span class=&quot;deleted-comment&quot;&gt;\' + entry.content.$t + \'&lt;/span&gt;\';\n            }\n          }\n        }\n        return entry.content.$t;\n      }\n\n      var parse = function(data) {\n        cursor = null;\n        var comments = [];\n        if (data &amp;&amp; data.feed &amp;&amp; data.feed.entry) {\n          for (var i = 0, entry; entry = data.feed.entry[i]; i++) {\n            var comment = {};\n            // comment ID, parsed out of the original id format\n            var id = /blog-(\\d+).post-(\\d+)/.exec(entry.id.$t);\n            comment.id = id ? id[2] : null;\n            comment.body = bodyFromEntry(entry);\n            comment.timestamp = Date.parse(entry.published.$t) + \'\';\n            if (entry.author &amp;&amp; entry.author.constructor === Array) {\n              var auth = entry.author[0];\n              if (auth) {\n                comment.author = {\n                  name: (auth.name ? auth.name.$t : undefined),\n                  profileUrl: (auth.uri ? auth.uri.$t : undefined),\n                  avatarUrl: (auth.gd$image ? auth.gd$image.src : undefined)\n                };\n              }\n            }\n            if (entry.link) {\n              if (entry.link[2]) {\n                comment.link = comment.permalink = entry.link[2].href;\n              }\n              if (entry.link[3]) {\n                var pid = /.*comments\\/default\\/(\\d+)\\?.*/.exec(entry.link[3].href);\n                if (pid &amp;&amp; pid[1]) {\n                  comment.parentId = pid[1];\n                }\n              }\n            }\n            comment.deleteclass = \'item-control blog-admin\';\n            if (entry.gd$extendedProperty) {\n              for (var k in entry.gd$extendedProperty) {\n                if (entry.gd$extendedProperty[k].name == \'blogger.itemClass\') {\n                  comment.deleteclass += \' \' + entry.gd$extendedProperty[k].value;\n                } else if (entry.gd$extendedProperty[k].name == \'blogger.displayTime\') {\n                  comment.displayTime = entry.gd$extendedProperty[k].value;\n                }\n              }\n            }\n            comments.push(comment);\n          }\n        }\n        return comments;\n      };\n\n      var paginator = function(callback) {\n        if (hasMore()) {\n          var url = config.feed + \'?alt=json&amp;v=2&amp;orderby=published&amp;reverse=false&amp;max-results=50\';\n          if (cursor) {\n            url += \'&amp;published-min=\' + new Date(cursor).toISOString();\n          }\n          window.bloggercomments = function(data) {\n            var parsed = parse(data);\n            cursor = parsed.length &lt; 50 ? null\n                : parseInt(parsed[parsed.length - 1].timestamp) + 1\n            callback(parsed);\n            window.bloggercomments = null;\n          }\n          url += \'&amp;callback=bloggercomments\';\n          var script = document.createElement(\'script\');\n          script.type = \'text/javascript\';\n          script.src = url;\n          document.getElementsByTagName(\'head\')[0].appendChild(script);\n        }\n      };\n      var hasMore = function() {\n        return !!cursor;\n      };\n      var getMeta = function(key, comment) {\n        if (\'iswriter\' == key) {\n          var matches = !!comment.author\n              &amp;&amp; comment.author.name == config.authorName\n              &amp;&amp; comment.author.profileUrl == config.authorUrl;\n          return matches ? \'true\' : \'\';\n        } else if (\'deletelink\' == key) {\n          return config.baseUri + \'/delete-comment.g?blogID=\'\n               + config.blogId + \'&amp;postID=\' + comment.id;\n        } else if (\'deleteclass\' == key) {\n          return comment.deleteclass;\n        }\n        return \'\';\n      };\n\n      var replybox = null;\n      var replyUrlParts = null;\n      var replyParent = undefined;\n\n      var onReply = function(commentId, domId) {\n        if (replybox == null) {\n          // lazily cache replybox, and adjust to suit this style:\n          replybox = document.getElementById(\'comment-editor\');\n          if (replybox != null) {\n            replybox.height = \'250px\';\n            replybox.style.display = \'block\';\n            replyUrlParts = replybox.src.split(\'#\');\n          }\n        }\n        if (replybox &amp;&amp; (commentId !== replyParent)) {\n          document.getElementById(domId).insertBefore(replybox, null);\n          replybox.src = replyUrlParts[0]\n              + (commentId ? \'&amp;parentID=\' + commentId : \'\')\n              + \'#\' + replyUrlParts[1];\n          replyParent = commentId;\n        }\n      };\n\n      var hash = (window.location.hash || \'#\').substring(1);\n      var startThread, targetComment;\n      if (/^comment-form_/.test(hash)) {\n        startThread = hash.substring(\'comment-form_\'.length);\n      } else if (/^c[0-9]+$/.test(hash)) {\n        targetComment = hash.substring(1);\n      }\n\n      // Configure commenting API:\n      var configJso = {\n        \'maxDepth\': config.maxThreadDepth\n      };\n      var provider = {\n        \'id\': config.postId,\n        \'data\': items,\n        \'loadNext\': paginator,\n        \'hasMore\': hasMore,\n        \'getMeta\': getMeta,\n        \'onReply\': onReply,\n        \'rendered\': true,\n        \'initComment\': targetComment,\n        \'initReplyThread\': startThread,\n        \'config\': configJso,\n        \'messages\': msgs\n      };\n\n      var render = function() {\n        if (window.goog &amp;&amp; window.goog.comments) {\n          var holder = document.getElementById(\'comment-holder\');\n          window.goog.comments.render(holder, provider);\n        }\n      };\n\n      // render now, or queue to render when library loads:\n      if (window.goog &amp;&amp; window.goog.comments) {\n        render();\n      } else {\n        window.goog = window.goog || {};\n        window.goog.comments = window.goog.comments || {};\n        window.goog.comments.loadQueue = window.goog.comments.loadQueue || [];\n        window.goog.comments.loadQueue.push(render);\n      }\n    })();\n// ]]&gt;\n                                          </script>\n                                          <div id="comment-holder">\n                                            <div kind="c" id="bc_0_2C">\n                                              <div id="bc_0_2CT">\n                                                <div u="0" t="0" kind="r" id="bc_0_1T" class="comment-thread">\n                                                  <ol id="bc_0_1TB">\n                                                    <li kind="b" id="bc_0_0B" class="comment">\n                                                      <div class="avatar-image-container">\n                                                        <img src="http://4.bp.blogspot.com/-T3l70Ikfo4w/Th4R_qDJd1I/AAAAAAAAAAo/BlovP4eV1d0/s45/Sexy-Sweepstakes-Button.jpg"></img>\n                                                      </div>\n                                                      <div id="c4284637490496530909" class="comment-block">\n                                                        <div kind="m" id="bc_0_0M" class="comment-header">\n                                                          <cite class="user">\n                                                            <a href="http://www.blogger.com/profile/12109082077627279508" rel="nofollow" shape="rect">Sexy Sweepstakes</a>\n                                                          </cite>\n                                                          <span class="icon user"></span>\n                                                          <span class="datetime secondary-text">\n                                                            <a href="http://acoupleofwankers.blogspot.com/2012/05/science-of-sex-toys.html?showComment=1336531404983#c4284637490496530909" rel="nofollow" shape="rect">9 May 2012 03:43</a>\n                                                          </span>\n                                                        </div>\n                                                        <p id="bc_0_0MC" class="comment-content">\n                                                          Thank you for taking the time to put together such a fantastic article! I appreciate your impartial and reasonable approach to presenting the material that you\'ve found. I completely agree that in areas where scientific research is thin on the ground, it\'s very hard to draw a factual conclusion. And as you mentioned, you have to look with a critical eye to the study methodology as well.\n                                                        </p>\n                                                        <span kind="m" id="bc_0_0MN" class="comment-actions secondary-text">\n                                                          <a o="r" target="_self" href="javascript:;" kind="i" shape="rect">Reply</a>\n                                                          <span class="item-control blog-admin pid-1297279394">\n                                                            <a href="http://www.blogger.com/delete-comment.g?blogID=9105134761876954044&amp;postID=4284637490496530909" target="_self" o="d" shape="rect">Delete</a>\n                                                          </span>\n                                                        </span>\n                                                      </div>\n                                                      <div id="bc_0_0BR" class="comment-replies"></div>\n                                                      <div id="bc_0_0B_box" class="comment-replybox-single"></div>\n                                                    </li>\n                                                  </ol>\n                                                  <div kind="ci" id="bc_0_1I" class="continue">\n                                                    <a target="_self" href="javascript:;" shape="rect">Add comment</a>\n                                                  </div>\n                                                  <div id="bc_0_1T_box" class="comment-replybox-thread"></div>\n                                                  <div kind="rb" id="bc_0_1L" class="loadmore loaded">\n                                                    <a target="_self" href="javascript:;" shape="rect">Load more...</a>\n                                                  </div>\n                                                </div>\n                                              </div>\n                                            </div>\n                                          </div>\n                                        </div>\n                                        <p class="comment-footer"> </p>\n                                        <div class="comment-form">\n                                          <a name="comment-form" shape="rect"></a>\n                                          <p> </p>\n                                          <a href="http://www.blogger.com/comment-iframe.g?blogID=9105134761876954044&amp;postID=4014730327161824691" id="comment-editor-src" shape="rect"></a>\n                                          <iframe width="100%" src="" name="comment-editor" height="410" allowtransparency="true" id="comment-editor" class="blogger-iframe-colorize blogger-comment-from-post" scrolling="auto" frameborder="0"></iframe>\n                                          <script src="//www.blogger.com/static/v1/jsbin/4030612614-comment_from_post_iframe.js" type="text/javascript"></script>\n                                          <script type="text/javascript"> BLOG_CMT_createIframe(\'http://www.blogger.com/rpc_relay.html\', \'05189238999296689927\'); </script>\n                                        </div>\n                                        <div id="backlinks-container">\n                                          <div id="Blog1_backlinks-container"> </div>\n                                        </div>\n                                      </div>\n                                    </div>\n                                  </div>\n                                </div>\n                              </div>\n                              <div id="blog-pager" class="blog-pager">\n                                <span id="blog-pager-newer-link">\n                                  <a title="Newer Post" href="http://acoupleofwankers.blogspot.com/2012/05/tmi-tuesday-m-is-for-masturbation.html" id="Blog1_blog-pager-newer-link" class="blog-pager-newer-link" shape="rect">Newer Post</a>\n                                </span>\n                                <span id="blog-pager-older-link">\n                                  <a title="Older Post" href="http://acoupleofwankers.blogspot.com/2012/05/bubbling-over.html" id="Blog1_blog-pager-older-link" class="blog-pager-older-link" shape="rect">Older Post</a>\n                                </span>\n                                <a href="http://acoupleofwankers.blogspot.com/" class="home-link" shape="rect">Home</a>\n                              </div>\n                              <div class="clear"></div>\n                              <div class="post-feeds">\n                                <div class="feed-links">\n                                  Subscribe to:\n                                  <a type="application/atom+xml" target="_blank" href="http://acoupleofwankers.blogspot.com/feeds/4014730327161824691/comments/default" class="feed-link" shape="rect">Post Comments (Atom)</a>\n                                </div>\n                              </div>\n                            </div>\n                          </div>\n                        </div>\n                      </div>\n                      <div class="column-left-outer">\n                        <div class="column-left-inner">\n                          <aside> </aside>\n                        </div>\n                      </div>\n                      <div class="column-right-outer">\n                        <div class="column-right-inner">\n                          <aside>\n                            <div id="sidebar-right-1" class="sidebar section">\n                              <div id="HTML1" class="widget HTML">\n                                <div class="widget-content">\n                                  <center>\n                                    <span id="st_finder"></span>\n                                    <script src="http://w.sharethis.com/widget/stblogger2.js" type="text/javascript"></script>\n                                    <script type="text/javascript">\n                                      var switchTo5x=true;stBlogger2.init(&quot;http://w.sharethis.com/button/buttons.js&quot;, {&quot;plusone&quot;:[&quot;large&quot;,&quot;Google +1&quot;,&quot;&quot;],&quot;facebook&quot;:[&quot;large&quot;,&quot;Facebook&quot;,&quot;&quot;],&quot;twitter&quot;:[&quot;large&quot;,&quot;Tweet&quot;,&quot;&quot;],&quot;tumblr&quot;:[&quot;large&quot;,&quot;Tumblr&quot;,&quot;&quot;],&quot;pinterest&quot;:[&quot;large&quot;,&quot;Pinterest&quot;,&quot;&quot;],&quot;email&quot;:[&quot;large&quot;,&quot;Email&quot;,&quot;&quot;]} );var f = document.getElementById(&quot;st_finder&quot;);var c = f.parentNode.parentNode.childNodes;for (i=0;i&lt;c.length;i++) { try { c[i].style.display = &quot;none&quot;; } catch (err) {}}\n                                    </script>\n                                  </center>\n                                </div>\n                                <div class="clear"></div>\n                                <span class="widget-item-control">\n                                  <span class="item-control blog-admin">\n                                    <a \n                                    title="Edit" target="configHTML1" onclick="return _WidgetManager._PopupConfig(document.getElementById(&quot;HTML1&quot;));" href="//www.blogger.com/rearrange?blogID=9105134761876954044&amp;widgetType=HTML&amp;widgetId=HTML1&amp;action=editWidget&amp;sectionId=sidebar-right-1" class="quickedit" shape="rect">\n                                      <img width="18" src="http://img1.blogblog.com/img/icon18_wrench_allbkg.png" height="18" alt=""></img>\n</a>\n                                  </span>\n                                </span>\n                                <div class="clear"></div>\n                              </div>\n                              <div id="Text1" class="widget Text">\n                                <h2 class="title">Welcome</h2>\n                                <div class="widget-content">\n                                  <p align="justify">\n                                    <span>\n                                      <span style="font-size: 100%;">We are Lucy and Alex, a horny, bisexual couple in our 20\'s - together we are A Couple of Wankers. </span>\n                                    </span>\n                                  </p>\n                                  <div>\n                                    <span>\n                                      <span style="font-size: 100%;"></span>\n                                    </span>\n                                    <p align="justify">Join us as we work our way through reviewing our ever-expanding collection of sex toys, books and lingerie. As well as an insight into our sex, fantasies and desires...</p>\n                                  </div>\n                                  <p></p>\n                                </div>\n                                <div class="clear"></div>\n                                <span class="widget-item-control">\n                                  <span class="item-control blog-admin">\n                                    <a \n                                    title="Edit" target="configText1" onclick="return _WidgetManager._PopupConfig(document.getElementById(&quot;Text1&quot;));" href="//www.blogger.com/rearrange?blogID=9105134761876954044&amp;widgetType=Text&amp;widgetId=Text1&amp;action=editWidget&amp;sectionId=sidebar-right-1" class="quickedit" shape="rect">\n                                      <img width="18" src="http://img1.blogblog.com/img/icon18_wrench_allbkg.png" height="18" alt=""></img>\n</a>\n                                  </span>\n                                </span>\n                                <div class="clear"></div>\n                              </div>\n                              <div id="Text2" class="widget Text">\n                                <div class="widget-content">\n                                  <center>\n                                    <a href="http://feeds.feedburner.com/acoupleofwankers" shape="rect">\n                                      <img title="Follow our RSS feed" src="http://i1072.photobucket.com/albums/w366/acoupleofwankers/2.png"></img>\n                                    </a>\n                                    <br clear="none"></br>\n                                    <a href="http://twitter.com/CoupleOfWankers" shape="rect">\n                                      <img title="Follow us on Twitter" src="http://i1072.photobucket.com/albums/w366/acoupleofwankers/1.png"></img>\n                                    </a>\n                                    <br clear="none"></br>\n                                    <a href="https://www.facebook.com/pages/A-Couple-of-Wankers/263920903683912" shape="rect">\n                                      <img title="Like our page on Facebook" src="http://i1072.photobucket.com/albums/w366/acoupleofwankers/3.png"></img>\n                                    </a>\n                                  </center>\n                                </div>\n                                <div class="clear"></div>\n                                <span class="widget-item-control">\n                                  <span class="item-control blog-admin">\n                                    <a \n                                    title="Edit" target="configText2" onclick="return _WidgetManager._PopupConfig(document.getElementById(&quot;Text2&quot;));" href="//www.blogger.com/rearrange?blogID=9105134761876954044&amp;widgetType=Text&amp;widgetId=Text2&amp;action=editWidget&amp;sectionId=sidebar-right-1" class="quickedit" shape="rect">\n                                      <img width="18" src="http://img1.blogblog.com/img/icon18_wrench_allbkg.png" height="18" alt=""></img>\n</a>\n                                  </span>\n                                </span>\n                                <div class="clear"></div>\n                              </div>\n                              <div id="FollowByEmail1" class="widget FollowByEmail">\n                                <h2 class="title">Follow us by Email</h2>\n                                <div class="widget-content">\n                                  <div class="follow-by-email-inner">\n                                    <form \n                                    target="popupwindow" onsubmit="window.open(&quot;http://feedburner.google.com/fb/a/mailverify?uri=acoupleofwankers&quot;, &quot;popupwindow&quot;, &quot;scrollbars=yes,width=550,height=520&quot;); return true" action="http://feedburner.google.com/fb/a/mailverify" method="post" enctype="application/x-www-form-urlencoded">\n                                      <table width="100%">\n                                        <tr>\n                                          <td rowspan="1" colspan="1">\n                                            <input placeholder="Email address..." name="email" class="follow-by-email-address" type="text"></input>\n                                          </td>\n                                          <td width="64px" rowspan="1" colspan="1">\n                                            <input value="Submit" class="follow-by-email-submit" type="submit"></input>\n                                          </td>\n                                        </tr>\n                                      </table>\n                                      <input value="acoupleofwankers" name="uri" type="hidden"></input>\n                                      <input value="en_US" name="loc" type="hidden"></input>\n</form>\n                                  </div>\n                                </div>\n                                <span class="item-control blog-admin"> </span>\n                                <div class="clear"></div>\n                                <span class="widget-item-control">\n                                  <span class="item-control blog-admin">\n                                    <a \n                                    title="Edit" target="configFollowByEmail1" onclick="return _WidgetManager._PopupConfig(document.getElementById(&quot;FollowByEmail1&quot;));" href="//www.blogger.com/rearrange?blogID=9105134761876954044&amp;widgetType=FollowByEmail&amp;widgetId=FollowByEmail1&amp;action=editWidget&amp;sectionId=sidebar-right-1" class="quickedit" shape="rect">\n                                      <img width="18" src="http://img1.blogblog.com/img/icon18_wrench_allbkg.png" height="18" alt=""></img>\n</a>\n                                  </span>\n                                </span>\n                                <div class="clear"></div>\n                              </div>\n                              <div id="Text4" class="widget Text">\n                                <div class="widget-content">\n                                  <center>\n                                    <a title="Sinful Sunday" href="http://sinfulsunday.mollysdailykiss.com/" shape="rect">\n                                      <img style="border:none;" title="Sinful Sunday" alt="Sinful Sunday" src="http://sinfulsunday.mollysdailykiss.com/wp-content/uploads/2011/12/sinfulsunday.jpg"></img>\n                                    </a>\n                                  </center>\n                                  <br clear="none"></br>\n                                  <br clear="none"></br>\n                                  <center>\n                                    <br clear="none"></br>\n                                    <a href="http://www.sextoysociety.com/" shape="rect">\n                                      <img height="125" width="125" alt="Sex Toy Society Review Directory" src="http://www.sextoysociety.com/images/banner125.gif" title="Sex Toy Society Review Directory"></img>\n                                    </a>\n                                  </center>\n                                </div>\n                                <div class="clear"></div>\n                                <span class="widget-item-control">\n                                  <span class="item-control blog-admin">\n                                    <a \n                                    title="Edit" target="configText4" onclick="return _WidgetManager._PopupConfig(document.getElementById(&quot;Text4&quot;));" href="//www.blogger.com/rearrange?blogID=9105134761876954044&amp;widgetType=Text&amp;widgetId=Text4&amp;action=editWidget&amp;sectionId=sidebar-right-1" class="quickedit" shape="rect">\n                                      <img width="18" src="http://img1.blogblog.com/img/icon18_wrench_allbkg.png" height="18" alt=""></img>\n</a>\n                                  </span>\n                                </span>\n                                <div class="clear"></div>\n                              </div>\n                              <div id="LinkList1" class="widget LinkList">\n                                <h2>Blogs and sites</h2>\n                                <div class="widget-content">\n                                  <ul>\n                                    <li>\n                                      <a href="http://aagblog.com/" shape="rect">A Bedroom Blog</a>\n                                    </li>\n                                    <li>\n                                      <a href="http://bilikesscifi.blogspot.com/?zx=6ed47f8d2fd7cccc" shape="rect">A Tale of Bi and Bi</a>\n                                    </li>\n                                    <li>\n                                      <a href="http://beingblacksilk.com/" shape="rect">Being Black Silk</a>\n                                    </li>\n                                    <li>\n                                      <a href="http://www.diyorgasms.co.uk/" shape="rect">DIY orgasms</a>\n                                    </li>\n                                    <li>\n                                      <a href="http://http//www.heyepiphora.com/" shape="rect">Hey Epiphora!</a>\n                                    </li>\n                                    <li>\n                                      <a href="http://incendiaire-reviews.blogspot.com/" shape="rect">Incendiare\'s Reviews</a>\n                                    </li>\n                                    <li>\n                                      <a href="http://www.kinktasticsada.blogspot.com/" shape="rect">Kinktastic!</a>\n                                    </li>\n                                    <li>\n                                      <a href="http://nymphomaniacness.blogspot.com/" shape="rect">Notes From The Nymphomaniac Ness</a>\n                                    </li>\n                                    <li>\n                                      <a href="http://www.thestranger.com/seattle/SavageLove?oid=12833405" shape="rect">Savage Love</a>\n                                    </li>\n                                    <li>\n                                      <a href="http://scarlettseraph.com/" shape="rect">Scarlett Seraph</a>\n                                    </li>\n                                    <li>\n                                      <a href="http://thattoychick.wordpress.com/" shape="rect">That Toy Chick</a>\n                                    </li>\n                                  </ul>\n                                  <div class="clear"></div>\n                                  <span class="widget-item-control">\n                                    <span class="item-control blog-admin">\n                                      <a \n                                      title="Edit" target="configLinkList1" onclick="return _WidgetManager._PopupConfig(document.getElementById(&quot;LinkList1&quot;));" href="//www.blogger.com/rearrange?blogID=9105134761876954044&amp;widgetType=LinkList&amp;widgetId=LinkList1&amp;action=editWidget&amp;sectionId=sidebar-right-1" class="quickedit" shape="rect">\n                                        <img width="18" src="http://img1.blogblog.com/img/icon18_wrench_allbkg.png" height="18" alt=""></img>\n</a>\n                                    </span>\n                                  </span>\n                                  <div class="clear"></div>\n                                </div>\n                              </div>\n                            </div>\n                          </aside>\n                        </div>\n                      </div>\n                    </div>\n                    <div style="clear: both"></div>\n                  </div>\n                </div>\n              </div>\n              <div class="main-cap-bottom cap-bottom">\n                <div class="cap-left"></div>\n                <div class="cap-right"></div>\n              </div>\n            </div>\n            <footer>\n              <div class="footer-outer">\n                <div class="footer-cap-top cap-top">\n                  <div class="cap-left"></div>\n                  <div class="cap-right"></div>\n                </div>\n                <div class="fauxborder-left footer-fauxborder-left">\n                  <div class="fauxborder-right footer-fauxborder-right"></div>\n                  <div class="region-inner footer-inner">\n                    <div id="footer-1" class="foot section">\n                      <div id="Stats1" class="widget Stats">\n                        <h2>Page views so far...</h2>\n                        <div class="widget-content">\n                          <div style="display: none;" id="Stats1_content">\n                            <span id="Stats1_totalCount" class="counter-wrapper graph-counter-wrapper"></span>\n                            <div class="clear"></div>\n                            <span class="widget-item-control">\n                              <span class="item-control blog-admin">\n                                <a \n                                title="Edit" target="configStats1" onclick="return _WidgetManager._PopupConfig(document.getElementById(&quot;Stats1&quot;));" href="//www.blogger.com/rearrange?blogID=9105134761876954044&amp;widgetType=Stats&amp;widgetId=Stats1&amp;action=editWidget&amp;sectionId=footer-1" class="quickedit" shape="rect">\n                                  <img width="18" src="http://img1.blogblog.com/img/icon18_wrench_allbkg.png" height="18" alt=""></img>\n</a>\n                              </span>\n                            </span>\n                            <div class="clear"></div>\n                          </div>\n                        </div>\n                      </div>\n                    </div>\n                    <table cellspacing="0" cellpadding="0" border="0" class="section-columns columns-2">\n                      <tbody>\n                        <tr>\n                          <td class="first columns-cell" rowspan="1" colspan="1">\n                            <div id="footer-2-1" class="foot section"></div>\n                          </td>\n                          <td class="columns-cell" rowspan="1" colspan="1">\n                            <div id="footer-2-2" class="foot section"></div>\n                          </td>\n                        </tr>\n                      </tbody>\n                    </table>\n                    <div id="footer-3" class="foot section">\n                      <div id="Attribution1" class="widget Attribution">\n                        <div style="text-align: center;" class="widget-content">\n                          Copyright A Couple of Wankers 2012 - All rights reserved. Powered by\n                          <a target="_blank" href="http://www.blogger.com" shape="rect">Blogger</a>\n                          .\n                        </div>\n                        <div class="clear"></div>\n                        <span class="widget-item-control">\n                          <span class="item-control blog-admin">\n                            <a \n                            title="Edit" target="configAttribution1" onclick="return _WidgetManager._PopupConfig(document.getElementById(&quot;Attribution1&quot;));" href="//www.blogger.com/rearrange?blogID=9105134761876954044&amp;widgetType=Attribution&amp;widgetId=Attribution1&amp;action=editWidget&amp;sectionId=footer-3" class="quickedit" shape="rect">\n                              <img width="18" src="http://img1.blogblog.com/img/icon18_wrench_allbkg.png" height="18" alt=""></img>\n</a>\n                          </span>\n                        </span>\n                        <div class="clear"></div>\n                      </div>\n                    </div>\n                  </div>\n                </div>\n                <div class="footer-cap-bottom cap-bottom">\n                  <div class="cap-left"></div>\n                  <div class="cap-right"></div>\n                </div>\n              </div>\n            </footer>\n          </div>\n        </div>\n        <div class="content-cap-bottom cap-bottom">\n          <div class="cap-left"></div>\n          <div class="cap-right"></div>\n        </div>\n      </div>\n    </div>\n    <script type="text/javascript"> window.setTimeout(function() { document.body.className = document.body.className.replace(\'loading\', \'\'); }, 10); </script>\n    <script type="text/javascript">\n      var _gaq = _gaq || [];\n      _gaq.push([\'_setAccount\', \'UA-30425812-1\']);\n      _gaq.push([\'_trackPageview\']);\n      (function() {\n        var ga = document.createElement(\'script\');\n        ga.type = \'text/javascript\';\n        ga.async = true;\n        ga.src = (document.location.protocol == \'https:\' ?\n                  \'https://ssl\' : \'http://www\') + \'.google-analytics.com/ga.js\';\n        var s = document.getElementsByTagName(\'script\')[0];\n        s.parentNode.insertBefore(ga, s);\n      })();\n    </script>\n    <script type="text/javascript"> if (window.jstiming) window.jstiming.load.tick(\'widgetJsBefore\'); </script>\n    <script src="//www.blogger.com/static/v1/widgets/1040267425-widgets.js" type="text/javascript"></script>\n    <script type="text/javascript">\n      if (typeof(BLOG_attachCsiOnload) != \'undefined\' &amp;&amp; BLOG_attachCsiOnload != null) { window[\'blogger_templates_experiment_id\'] = &quot;templatesV2&quot;;window[\'blogger_blog_id\'] = \'9105134761876954044\';BLOG_attachCsiOnload(\'item_\'); }_WidgetManager._Init(\'//www.blogger.com/rearrange?blogID\\x3d9105134761876954044\',\'//acoupleofwankers.blogspot.com/2012/05/science-of-sex-toys.html\',\'9105134761876954044\');\n_WidgetManager._SetDataContext([{\'name\': \'blog\', \'data\': {\'blogId\': \'9105134761876954044\', \'bloggerUrl\': \'http://www.blogger.com\', \'title\': \'A Couple of Wankers\', \'pageType\': \'item\', \'url\': \'http://acoupleofwankers.blogspot.com/2012/05/science-of-sex-toys.html\', \'canonicalUrl\': \'http://acoupleofwankers.blogspot.com/2012/05/science-of-sex-toys.html\', \'canonicalHomepageUrl\': \'http://acoupleofwankers.blogspot.com/\', \'homepageUrl\': \'http://acoupleofwankers.blogspot.com/\', \'blogspotFaviconUrl\': \'http://acoupleofwankers.blogspot.com/favicon.ico\', \'enabledCommentProfileImages\': true, \'adultContent\': true, \'disableAdSenseWidget\': false, \'analyticsAccountNumber\': \'UA-30425812-1\', \'searchLabel\': \'\', \'searchQuery\': \'\', \'pageName\': \'The science of sex toys\', \'pageTitle\': \'A Couple of Wankers: The science of sex toys\', \'metaDescription\': \'\', \'encoding\': \'UTF-8\', \'locale\': \'en-GB\', \'isPrivate\': false, \'isMobile\': false, \'isMobileRequest\': false, \'mobileClass\': \'\', \'isPrivateBlog\': false, \'languageDirection\': \'ltr\', \'feedLinks\': \'\\74link rel\\75\\42alternate\\42 type\\75\\42application/atom+xml\\42 title\\75\\42A Couple of Wankers - Atom\\42 href\\75\\42http://acoupleofwankers.blogspot.com/feeds/posts/default\\42 /\\76\\n\\74link rel\\75\\42alternate\\42 type\\75\\42application/rss+xml\\42 title\\75\\42A Couple of Wankers - RSS\\42 href\\75\\42http://acoupleofwankers.blogspot.com/feeds/posts/default?alt\\75rss\\42 /\\76\\n\\74link rel\\75\\42service.post\\42 type\\75\\42application/atom+xml\\42 title\\75\\42A Couple of Wankers - Atom\\42 href\\75\\42http://www.blogger.com/feeds/9105134761876954044/posts/default\\42 /\\76\\n\\74link rel\\75\\42EditURI\\42 type\\75\\42application/rsd+xml\\42 title\\75\\42RSD\\42 href\\75\\42http://www.blogger.com/rsd.g?blogID\\759105134761876954044\\42 /\\76\\n\\74link rel\\75\\42alternate\\42 type\\75\\42application/atom+xml\\42 title\\75\\42A Couple of Wankers - Atom\\42 href\\75\\42http://acoupleofwankers.blogspot.com/feeds/4014730327161824691/comments/default\\42 /\\76\\n\', \'meTag\': \'\', \'openIdOpTag\': \'\', \'imageSrcTag\': \'\', \'latencyHeadScript\': \'\\74script type\\75\\42text/javascript\\42\\76(function() { var a\\75window,b\\75\\42jstiming\\42,d\\75\\42tick\\42;var e\\75function(c){this.t\\75{};this.tick\\75function(c,p,h){h\\75void 0!\\75h?h:(new Date).getTime();this.t[c]\\75[h,p]};this[d](\\42start\\42,null,c)},f\\75new e;a.jstiming\\75{Timer:e,load:f};if(a.performance\\46\\46a.performance.timing){var g\\75a.performance.timing,j\\75a[b].load,k\\75g.navigationStart,l\\75g.responseStart;0\\74k\\46\\46l\\76\\75k\\46\\46(j[d](\\42_wtsrt\\42,void 0,k),j[d](\\42wtsrt_\\42,\\42_wtsrt\\42,l),j[d](\\42tbsd_\\42,\\42wtsrt_\\42))}\\ntry{var m\\75null;a.chrome\\46\\46a.chrome.csi\\46\\46(m\\75Math.floor(a.chrome.csi().pageT),j\\46\\0460\\74k\\46\\46(j[d](\\42_tbnd\\42,void 0,a.chrome.csi().startE),j[d](\\42tbnd_\\42,\\42_tbnd\\42,k)));null\\75\\75m\\46\\46a.gtbExternal\\46\\46(m\\75a.gtbExternal.pageT());null\\75\\75m\\46\\46a.external\\46\\46(m\\75a.external.pageT,j\\46\\0460\\74k\\46\\46(j[d](\\42_tbnd\\42,void 0,a.external.startE),j[d](\\42tbnd_\\42,\\42_tbnd\\42,k)));m\\46\\46(a[b].pt\\75m)}catch(n){};a.tickAboveFold\\75function(c){var i\\0750;if(c.offsetParent){do i+\\75c.offsetTop;while(c\\75c.offsetParent)}c\\75i;750\\76\\75c\\46\\46a[b].load[d](\\42aft\\42)};var q\\75!1;function r(){q||(q\\75!0,a[b].load[d](\\42firstScrollTime\\42))}a.addEventListener?a.addEventListener(\\42scroll\\42,r,!1):a.attachEvent(\\42onscroll\\42,r);\\n })();\\74/script\\076\', \'mobileHeadScript\': \'\', \'ieCssRetrofitLinks\': \'\\74!--[if IE]\\76\\74script type\\75\\42text/javascript\\42 src\\75\\42//www.blogger.com/static/v1/jsbin/3651483553-ieretrofit.js\\42\\76\\74/script\\76\\n\\74![endif]--\\076\', \'view\': \'\', \'dynamicViewsCommentsSrc\': \'//www.blogblog.com/dynamicviews/4224c15c4e7c9321/js/comments.js\', \'dynamicViewsScriptSrc\': \'//www.blogblog.com/dynamicviews/04452fcc9c8aa994\'}}, {\'name\': \'skin\', \'data\': {\'vars\': {\'content_padding\': \'10px\', \'paging_background\': \'transparent none no-repeat scroll top center\', \'image_border_small_size\': \'2px\', \'body_background_gradient_cap\': \'none\', \'tabs_selected_background_color\': \'#f3f3f3\', \'body_rule_color\': \'#ffffff\', \'header_shadow_spread\': \'1px\', \'header_shadow_offset_left\': \'-1px\', \'header_padding\': \'30px\', \'link_visited_color\': \'#999999\', \'mobile_background_size\': \'auto\', \'post_title_font\': \'normal normal 30px Josefin Sans\', \'tabs_text_color\': \'#020202\', \'date_header_margin\': \'inherit\', \'header_background_gradient\': \'none\', \'content_shadow_spread_webkit\': \'5px\', \'header_bottom_border_size\': \'1px\', \'header_shadow_offset_top\': \'-1px\', \'mobile_button_color\': \'#ffffff\', \'widget_title_font\': \'normal normal 16px Josefin Sans\', \'main_section_margin\': \'15px\', \'keycolor\': \'#020202\', \'content_shadow_spread\': \'40px\', \'image_background_color\': \'#ffffff\', \'header_font\': \'normal bold 60px \\47Trebuchet MS\\47, Trebuchet, sans-serif\', \'header_background_color\': \'transparent\', \'main_border_width\': \'0\', \'main_padding\': \'15px\', \'tabs_border_color\': \'#ffffff\', \'image_text_color\': \'#838383\', \'description_text_size\': \'140%\', \'post_footer_background_color\': \'#fafafa\', \'body_background_gradient_tile\': \'none\', \'page_width\': \'auto\', \'tabs_background_gradient\': \'url(http://www.blogblog.com/1kt/simple/gradients_light.png)\', \'mobile_background_overlay\': \'transparent none repeat scroll top left\', \'main_padding_bottom\': \'30px\', \'tabs_background_color\': \'#f3f3f3\', \'image_border_large_size\': \'5px\', \'post_margin_bottom\': \'25px\', \'body_background_override\': \'\', \'tabs_margin_side\': \'30px\', \'link_hover_color\': \'#fa238e\', \'description_text_color\': \'#9f9f9f\', \'body_text_color\': \'#000000\', \'content_padding_horizontal\': \'10px\', \'endSide\': \'right\', \'page_width_selector\': \'.region-inner\', \'date_header_padding\': \'inherit\', \'post_footer_text_color\': \'#000000\', \'startSide\': \'left\', \'date_header_color\': \'#000000\', \'tabs_font\': \'normal normal 15px Josefin Sans\', \'post_footer_border_color\': \'#e6e6e6\', \'body_font\': \'normal normal 14px GFS Neohellenic\', \'footer_bevel\': \'0\', \'tabs_bevel_border_width\': \'1px\', \'date_header_background_color\': \'#ffffff\', \'content_shadow_spread_ie\': \'10px\', \'widget_title_text_color\': \'#010101\', \'header_border_horizontalsize\': \'0\', \'image_border_color\': \'#ffffff\', \'tabs_border_width\': \'1px\', \'content_background_color\': \'#ffffff\', \'link_color\': \'#999999\', \'header_text_color\': \'#40cddd\', \'date_header_letterspacing\': \'inherit\', \'tabs_margin_top\': \'0\', \'main_padding_top\': \'30px\', \'header_border_size\': \'1px\', \'tabs_selected_text_color\': \'#fa238e\', \'content_background_color_selector\': \'.content-inner\', \'body_background_color\': \'#47d6d6\', \'widget_alternate_text_color\': \'#010101\'}, \'override\': \'#suckerfishnav {\\n    background:#FAFAFA repeat-x;\\n    font-size:15px;\\n    font-family:\\42GFS Neohellenic\\42,helvetica,sans-serif;\\n    font-weight:normal;\\n    width:100%;\\n    }\\n#suckerfishnav, #suckerfishnav ul {\\n    float:left;\\n    list-style:none;\\n    line-height:40px;\\n    padding:0;\\n    border:1px solid #FFFFFF;\\n    margin:0;\\n    width:100%;\\n    }\\n#suckerfishnav a {\\n    display:block;\\n    color:#030303;\\n    text-decoration:none;\\n    padding:0px 10px;\\n    }\\n#suckerfishnav li {\\n    float:left;\\n    padding:0;\\n    }\\n#suckerfishnav ul {\\n    position:absolute;z-index:100;\\n    left:-999em;\\n    height:auto;\\n    width:101px;\\n    font-weight:normal;\\n    margin:0;\\n    line-height:1;\\n    border:0;\\n    border-top:1px solid #FFFFFF;\\n    }\\n#suckerfishnav li li {\\n    width:99px;\\n    border-bottom:1px solid #FFFFFF;\\n    border-left:1px solid #FFFFFF;\\n    border-right:1px solid #FFFFFF;\\n    font-weight:normal;\\n    font-family:\\42GFS Neohellenic\\42, helvetica,sans-serif;\\n    }\\n#suckerfishnav li li a {\\n    padding:4px 10px;\\n    width:80px;\\n    font-size:13px;\\n    color:#030303;\\n    }\\n#suckerfishnav li ul ul {\\n    margin:-21px 0 0 100px;\\n    }\\n#suckerfishnav li li:hover {\\n    background:#EE3A8C;\\n    }\\n#suckerfishnav li ul li:hover a, #suckerfishnav li ul li li:hover a, #suckerfishnav li ul li li li:hover a, #suckerfishnav li ul li li li:hover a {\\n    color:#030303;\\n    }\\n#suckerfishnav li:hover a, #suckerfishnav li.sfhover a {\\n    color:#030303;\\n    }\\n#suckerfishnav li:hover li a, #suckerfishnav li li:hover li a, #suckerfishnav li li li:hover li a, #suckerfishnav li li li li:hover li a {\\n    color:#030303;\\n    }\\n#suckerfishnav li:hover ul ul, #suckerfishnav li:hover ul ul ul, #suckerfishnav li:hover ul ul ul ul, #suckerfishnav li.sfhover ul ul, #suckerfishnav li.sfhover ul ul ul, #suckerfishnav li.sfhover ul ul ul ul {\\n    left:-999em;\\n    }\\n#suckerfishnav li:hover ul, #suckerfishnav li li:hover ul, #suckerfishnav li li li:hover ul, #suckerfishnav li li li li:hover ul, #suckerfishnav li.sfhover ul, #suckerfishnav li li.sfhover ul, #suckerfishnav li li li.sfhover ul, #suckerfishnav li li li li.sfhover ul {\\n    left:auto;\\n    background:#FFF0F5;\\n    }\\n#suckerfishnav li:hover, #suckerfishnav li.sfhover {\\n    background:#FFBBFF;\\n    }\\n#suckerfishnav li:hover, #suckerfishnav li.hover {\\nposition:static;\\n}\'}}, {\'name\': \'view\', \'data\': {\'classic\': {\'name\': \'classic\', \'url\': \'/?view\\75classic\'}, \'flipcard\': {\'name\': \'flipcard\', \'url\': \'/?view\\75flipcard\'}, \'magazine\': {\'name\': \'magazine\', \'url\': \'/?view\\75magazine\'}, \'mosaic\': {\'name\': \'mosaic\', \'url\': \'/?view\\75mosaic\'}, \'sidebar\': {\'name\': \'sidebar\', \'url\': \'/?view\\75sidebar\'}, \'snapshot\': {\'name\': \'snapshot\', \'url\': \'/?view\\75snapshot\'}, \'timeslide\': {\'name\': \'timeslide\', \'url\': \'/?view\\75timeslide\'}}}]);\n_WidgetManager._RegisterWidget(\'_HTMLView\', new _WidgetInfo(\'HTML2\', \'crosscol\', null, document.getElementById(\'HTML2\'), {}, \'displayModeFull\'));\n_WidgetManager._RegisterWidget(\'_HTMLView\', new _WidgetInfo(\'HTML1\', \'sidebar-right-1\', null, document.getElementById(\'HTML1\'), {}, \'displayModeFull\'));\n_WidgetManager._RegisterWidget(\'_TextView\', new _WidgetInfo(\'Text1\', \'sidebar-right-1\', null, document.getElementById(\'Text1\'), {}, \'displayModeFull\'));\n_WidgetManager._RegisterWidget(\'_TextView\', new _WidgetInfo(\'Text2\', \'sidebar-right-1\', null, document.getElementById(\'Text2\'), {}, \'displayModeFull\'));\n_WidgetManager._RegisterWidget(\'_FollowByEmailView\', new _WidgetInfo(\'FollowByEmail1\', \'sidebar-right-1\', null, document.getElementById(\'FollowByEmail1\'), {}, \'displayModeFull\'));\n_WidgetManager._RegisterWidget(\'_TextView\', new _WidgetInfo(\'Text4\', \'sidebar-right-1\', null, document.getElementById(\'Text4\'), {}, \'displayModeFull\'));\n_WidgetManager._RegisterWidget(\'_LinkListView\', new _WidgetInfo(\'LinkList1\', \'sidebar-right-1\', null, document.getElementById(\'LinkList1\'), {}, \'displayModeFull\'));\n_WidgetManager._RegisterWidget(\'_AttributionView\', new _WidgetInfo(\'Attribution1\', \'footer-3\', null, document.getElementById(\'Attribution1\'), {\'attribution\': \'Copyright A Couple of Wankers 2012 - All rights reserved. Powered by \\74a href\\75\\47http://www.blogger.com\\47 target\\75\\47_blank\\47\\76Blogger\\74/a\\76.\'}, \'displayModeFull\'));\n_WidgetManager._RegisterWidget(\'_StatsView\', new _WidgetInfo(\'Stats1\', \'footer-1\', null, document.getElementById(\'Stats1\'), {\'title\': \'Page views so far...\', \'showGraphicalCounter\': true, \'showAnimatedCounter\': true, \'showSparkline\': false, \'statsUrl\': \'http://acoupleofwankers.blogspot.com/b/stats?style\\75WHITE_TRANSPARENT\\46timeRange\\75ALL_TIME\\46token\\75OVC6JDoBAAA.Imh1nprUATU0m33VdERF-KllI-zqFXeK0I6ckzj_9CI.IcbguBcVrkKkHgun7WAtUA\'}, \'displayModeFull\'));\n_WidgetManager._RegisterWidget(\'_HeaderView\', new _WidgetInfo(\'Header1\', \'header\', null, document.getElementById(\'Header1\'), {}, \'displayModeFull\'));\n_WidgetManager._RegisterWidget(\'_NavbarView\', new _WidgetInfo(\'Navbar1\', \'navbar\', null, document.getElementById(\'Navbar1\'), {}, \'displayModeFull\'));\n_WidgetManager._RegisterWidget(\'_BlogView\', new _WidgetInfo(\'Blog1\', \'main\', null, document.getElementById(\'Blog1\'), {\'cmtInteractionsEnabled\': false, \'lightboxEnabled\': true, \'lightboxModuleUrl\': \'//www.blogger.com/static/v1/jsbin/3811339452-lbx_en-GB.js\', \'lightboxCssUrl\': \'//www.blogger.com/static/v1/v-css/228702327-lightbox_bundle.css\'}, \'displayModeFull\'));\n_WidgetManager._RegisterWidget(\'_PageListView\', new _WidgetInfo(\'PageList1\', \'null\', null, document.getElementById(\'PageList1\'), {\'title\': \'Pages\', \'links\': [{\'href\': \'http://acoupleofwankers.blogspot.com/\', \'title\': \'Home\', \'isCurrentPage\': false}, {\'href\': \'http://acoupleofwankers.blogspot.com/p/post-archive.html\', \'title\': \'Post Archive\', \'isCurrentPage\': false}, {\'href\': \'http://acoupleofwankers.blogspot.com/p/blog-page.html\', \'title\': \'Toy Reviews\', \'isCurrentPage\': false}, {\'href\': \'http://acoupleofwankers.blogspot.com/p/test-page.html\', \'title\': \'Book Reviews\', \'isCurrentPage\': false}, {\'href\': \'http://acoupleofwankers.blogspot.com/p/tumblr.html\', \'title\': \'Tumblr\', \'isCurrentPage\': false}, {\'href\': \'http://acoupleofwankers.blogspot.com/p/most-wanted.html\', \'title\': \'Most Wanted\', \'isCurrentPage\': false}, {\'href\': \'http://acoupleofwankers.blogspot.com/p/about-us.html\', \'title\': \'About us\', \'isCurrentPage\': false}, {\'href\': \'http://acoupleofwankers.blogspot.com/p/recommended-retailers.html\', \'title\': \'Recommended Retailers\', \'isCurrentPage\': false}, {\'href\': \'http://acoupleofwankers.blogspot.com/p/contact.html\', \'title\': \'Contact\', \'isCurrentPage\': false}, {\'href\': \'http://acoupleofwankers.blogspot.com/p/banners_26.html\', \'title\': \'Banners\', \'isCurrentPage\': false}, {\'href\': \'http://acoupleofwankers.blogspot.com/p/coming-soon.html\', \'title\': \'Coming soon...\', \'isCurrentPage\': false}, {\'href\': \'http://acoupleofwankers.blogspot.com/p/reviews.html\', \'title\': \'Reviews\', \'isCurrentPage\': false}, {\'href\': \'http://acoupleofwankers.blogspot.com/p/useful-information.html\', \'title\': \'Useful information\', \'isCurrentPage\': false}, {\'href\': \'http://acoupleofwankers.blogspot.com/p/about.html\', \'title\': \'About\', \'isCurrentPage\': false}, {\'href\': \'http://acoupleofwankers.blogspot.com/p/sinful-sundays.html\', \'title\': \'Sinful Sundays\', \'isCurrentPage\': false}, {\'href\': \'http://acoupleofwankers.blogspot.com/p/sex-toy-materials-guide.html\', \'title\': \'Sex Toy Materials Guide\', \'isCurrentPage\': false}], \'mobile\': false}, \'displayModeFull\'));\n    </script>\n  </body>\n</html>'
p11
sbsS'mentions'
p12
(lp13
(iedu.umass.cs.iesl.wikilink.expanded.data.ttypes
Mention
p14
(dp15
S'anchor_text'
p16
S'mercury'
p17
sS'context'
p18
(iedu.umass.cs.iesl.wikilink.expanded.data.ttypes
Context
p19
(dp20
S'middle'
p21
S'mercury'
p22
sS'right'
p23
S'in a thermometer is pretty bad for you). I would encourage anyone interested to read through it and check they agree with my summary. Although'
p24
sS'left'
p25
S'The chemicals maybe present in such small quantities so as to be irrelevant ( almonds have cyanide in them), or in an inaccessible state ('
p26
sbsS'freebase_id'
p27
S'9202a8c04000641f80000000045c6cae'
p28
sS'raw_text_offset'
p29
I40636
sS'wiki_url'
p30
S'http://en.wikipedia.org/wiki/Mercury_(element)'
p31
sba(iedu.umass.cs.iesl.wikilink.expanded.data.ttypes
Mention
p32
(dp33
g16
S'PVC'
p34
sg18
(iedu.umass.cs.iesl.wikilink.expanded.data.ttypes
Context
p35
(dp36
g21
S'PVC'
p37
sg23
S'and latex toys contain a variety of chemicals, including phthalates (used as plasticizers and implicated in risk to foetuses as well as kidneys and liver'
p38
sg25
S"hilarious. I'm just a bit like that though. The broad conclusions will probably not surprise many people: A sub-set of a variety of jelly ,"
p39
sbsg27
S'9202a8c04000641f8000000000030e18'
p40
sg29
I41651
sg30
S'http://en.wikipedia.org/wiki/PVC'
p41
sba(iedu.umass.cs.iesl.wikilink.expanded.data.ttypes
Mention
p42
(dp43
g16
S'latex'
p44
sg18
(iedu.umass.cs.iesl.wikilink.expanded.data.ttypes
Context
p45
(dp46
g21
S'latex'
p47
sg23
S'toys contain a variety of chemicals, including phthalates (used as plasticizers and implicated in risk to foetuses as well as kidneys and liver damage), trimethyltin'
p48
sg25
S'just a bit like that though. The broad conclusions will probably not surprise many people: A sub-set of a variety of jelly , PVC and'
p49
sbsg27
S'9202a8c04000641f8000000000024e9f'
p50
sg29
I41724
sg30
S'http://en.wikipedia.org/wiki/Latex'
p51
sba(iedu.umass.cs.iesl.wikilink.expanded.data.ttypes
Mention
p52
(dp53
g16
S'phthalates'
p54
sg18
(iedu.umass.cs.iesl.wikilink.expanded.data.ttypes
Context
p55
(dp56
g21
S'phthalates'
p57
sg23
S'(used as plasticizers and implicated in risk to foetuses as well as kidneys and liver damage), trimethyltin chloride (related to a commonly used PVC stabilizer,'
p58
sg25
S'conclusions will probably not surprise many people: A sub-set of a variety of jelly , PVC and latex toys contain a variety of chemicals, including'
p59
sbsg27
S'9202a8c04000641f80000000001eb4f7'
p60
sg29
I41847
sg30
S'http://en.wikipedia.org/wiki/Phthalates'
p61
sba(iedu.umass.cs.iesl.wikilink.expanded.data.ttypes
Mention
p62
(dp63
g16
S'trimethyltin chloride'
p64
sg18
(iedu.umass.cs.iesl.wikilink.expanded.data.ttypes
Context
p65
(dp66
g21
S'trimethyltin chloride'
p67
sg23
S'(related to a commonly used PVC stabilizer, neuro-toxic) and organic solvents such as THF and Toluene (likely used in the production process, and which can'
p68
sg25
S'latex toys contain a variety of chemicals, including phthalates (used as plasticizers and implicated in risk to foetuses as well as kidneys and liver damage),'
p69
sbsg27
S'9202a8c04000641f800000000765b558'
p70
sg29
I42034
sg30
S'http://en.wikipedia.org/wiki/Trimethyltin_chloride'
p71
sba(iedu.umass.cs.iesl.wikilink.expanded.data.ttypes
Mention
p72
(dp73
g16
S'THF'
p74
sg18
(iedu.umass.cs.iesl.wikilink.expanded.data.ttypes
Context
p75
(dp76
g21
S'THF'
p77
sg23
S'and Toluene (likely used in the production process, and which can cause developmental issues and cause neurological damage) at levels which may present some minor'
p78
sg25
S'risk to foetuses as well as kidneys and liver damage), trimethyltin chloride (related to a commonly used PVC stabilizer, neuro-toxic) and organic solvents such as'
p79
sbsg27
S'9202a8c04000641f8000000009419496'
p80
sg29
I42205
sg30
S'http://en.wikipedia.org/wiki/THF'
p81
sba(iedu.umass.cs.iesl.wikilink.expanded.data.ttypes
Mention
p82
(dp83
g16
S'Toluene'
p84
sg18
(iedu.umass.cs.iesl.wikilink.expanded.data.ttypes
Context
p85
(dp86
g21
S'Toluene'
p87
sg23
S'(likely used in the production process, and which can cause developmental issues and cause neurological damage) at levels which may present some minor risk of'
p88
sg25
S'foetuses as well as kidneys and liver damage), trimethyltin chloride (related to a commonly used PVC stabilizer, neuro-toxic) and organic solvents such as THF and'
p89
sbsg27
S'9202a8c04000641f800000000003c4df'
p90
sg29
I42280
sg30
S'http://en.wikipedia.org/wiki/Toluene'
p91
sba(iedu.umass.cs.iesl.wikilink.expanded.data.ttypes
Mention
p92
(dp93
g16
S'phenol'
p94
sg18
(iedu.umass.cs.iesl.wikilink.expanded.data.ttypes
Context
p95
(dp96
g21
S'phenol'
p97
sg23
S'). This is troubling, because even if a toy is nominally manufactured from 100% pure medical grade silicone , considered by most to be the'
p98
sg25
S'not from ingredients as such, but rather from impurities resulting from the manufacturing process (such as the aforementioned organic solvents, and also a chemical called'
p99
sbsg27
S'9202a8c04000641f8000000000030055'
p100
sg29
I45902
sg30
S'http://en.wikipedia.org/wiki/Phenol'
p101
sba(iedu.umass.cs.iesl.wikilink.expanded.data.ttypes
Mention
p102
(dp103
g16
S'silicone'
p104
sg18
(iedu.umass.cs.iesl.wikilink.expanded.data.ttypes
Context
p105
(dp106
g21
S'silicone'
p107
sg23
S', considered by most to be the gold standard in polymer-based sex toy safety, there is as far as I am aware nothing intrinsic to'
p108
sg25
S'organic solvents, and also a chemical called phenol ). This is troubling, because even if a toy is nominally manufactured from 100% pure medical grade'
p109
sbsg27
S'9202a8c04000641f800000000007b7a0'
p110
sg29
I46075
sg30
S'http://en.wikipedia.org/wiki/Silicone'
p111
sbasS'doc_id'
p112
I10092
sS'rare_words'
p113
(lp114
(iedu.umass.cs.iesl.wikilink.expanded.data.ttypes
RareWord
p115
(dp116
S'word'
p117
S'working'
p118
sS'offset'
p119
I37951
sba(iedu.umass.cs.iesl.wikilink.expanded.data.ttypes
RareWord
p120
(dp121
g117
S'Although'
p122
sg119
I40933
sba(iedu.umass.cs.iesl.wikilink.expanded.data.ttypes
RareWord
p123
(dp124
g117
S'got'
p125
sg119
I48666
sba(iedu.umass.cs.iesl.wikilink.expanded.data.ttypes
RareWord
p126
(dp127
g117
S'done'
p128
sg119
I37775
sba(iedu.umass.cs.iesl.wikilink.expanded.data.ttypes
RareWord
p129
(dp130
g117
S'public'
p131
sg119
I47403
sba(iedu.umass.cs.iesl.wikilink.expanded.data.ttypes
RareWord
p132
(dp133
g117
S'minutes'
p134
sg119
I42707
sba(iedu.umass.cs.iesl.wikilink.expanded.data.ttypes
RareWord
p135
(dp136
g117
S'amongst'
p137
sg119
I49507
sba(iedu.umass.cs.iesl.wikilink.expanded.data.ttypes
RareWord
p138
(dp139
g117
S'Rather'
p140
sg119
I47885
sba(iedu.umass.cs.iesl.wikilink.expanded.data.ttypes
RareWord
p141
(dp142
g117
S'troubling'
p143
sg119
I45923
sba(iedu.umass.cs.iesl.wikilink.expanded.data.ttypes
RareWord
p144
(dp145
g117
S'whereby'
p146
sg119
I39303
sbasb.