(iedu.umass.cs.iesl.wikilink.expanded.data.ttypes
WikiLinkItem
p0
(dp1
S'url'
p2
S'http://1000words1000days.com/tag/world-war-ii/'
p3
sS'content'
p4
(iedu.umass.cs.iesl.wikilink.expanded.data.ttypes
PageContentItem
p5
(dp6
S'articleText'
p7
NsS'raw'
p8
NsS'fullText'
p9
NsS'dom'
p10
S'<html>\n  <head>\n    <meta content="text/html; charset=UTF-8" http-equiv="Content-Type"></meta>\n    <title> World War II - 1000 Words, 1000 Days</title>\n    <link href="http://1000words1000days.com/wp-content/themes/typominima/style.css" media="screen" rel="stylesheet" type="text/css"></link>\n    <link href="http://1000words1000days.com/feed/" title="RSS 2.0" type="application/rss+xml" rel="alternate"></link>\n    <link href="http://1000words1000days.com/xmlrpc.php" rel="pingback"></link>\n    <script type="text/javascript" src="http://ajax.googleapis.com/ajax/libs/jquery/1/jquery.min.js"></script>\n    <script type="text/javascript" src="http://1000words1000days.com/wp-content/themes/typominima/js/cufon/cufon-yui.js"></script>\n    <script type="text/javascript" src="http://1000words1000days.com/wp-content/themes/typominima/js/cufon/typoslabserif-light-300.font.js"></script>\n    <script type="text/javascript" src="http://1000words1000days.com/wp-content/themes/typominima/js/cufon/cufon-replace.js"></script>\n    <link href="http://1000words1000days.com/tag/world-war-ii/feed/" title="1000 Words, 1000 Days \xc2\xbb World War II Tag Feed" type="application/rss+xml" rel="alternate"></link>\n    <link media="all" type="text/css" href="http://1000words1000days.com/wp-content/plugins/contact-form-7/includes/css/styles.css?ver=3.3" rel="stylesheet" id="contact-form-7-css"></link>\n    <link media="all" type="text/css" href="http://1000words1000days.com/wp-content/plugins/jetpack/modules/widgets/widgets.css?ver=20120924" rel="stylesheet" id="jetpack-widgets-css"></link>\n    <script src="http://1000words1000days.com/wp-includes/js/prototype.js?ver=1.6.1" type="text/javascript"></script>\n    <script src="http://1000words1000days.com/wp-includes/js/scriptaculous/wp-scriptaculous.js?ver=1.8.3" type="text/javascript"></script>\n    <script src="http://1000words1000days.com/wp-includes/js/scriptaculous/effects.js?ver=1.8.3" type="text/javascript"></script>\n    <script src="http://1000words1000days.com/wp-content/plugins/lightbox-2/lightbox.js?ver=1.8" type="text/javascript"></script>\n    <script src="http://1000words1000days.com/wp-includes/js/jquery/jquery.js?ver=1.7.2" type="text/javascript"></script>\n    <link href="http://1000words1000days.com/xmlrpc.php?rsd" title="RSD" type="application/rsd+xml" rel="EditURI"></link>\n    <link href="http://1000words1000days.com/wp-includes/wlwmanifest.xml" type="application/wlwmanifest+xml" rel="wlwmanifest"></link>\n    <meta content="WordPress 3.4.2" name="generator"></meta>\n    <script src="http://1000words1000days.com/wp-content/plugins/audio-player/assets/audio-player.js?ver=2.0.4.1" type="text/javascript"></script>\n    <script type="text/javascript">\n      AudioPlayer.setup(&quot;http://1000words1000days.com/wp-content/plugins/audio-player/assets/player.swf?ver=2.0.4.1&quot;, {width:&quot;290&quot;,animation:&quot;yes&quot;,encode:&quot;yes&quot;,initialvolume:&quot;60&quot;,remaining:&quot;no&quot;,noinfo:&quot;no&quot;,buffer:&quot;5&quot;,checkpolicy:&quot;no&quot;,rtl:&quot;no&quot;,bg:&quot;E5E5E5&quot;,text:&quot;333333&quot;,leftbg:&quot;CCCCCC&quot;,lefticon:&quot;333333&quot;,volslider:&quot;666666&quot;,voltrack:&quot;FFFFFF&quot;,rightbg:&quot;B4B4B4&quot;,rightbghover:&quot;999999&quot;,righticon:&quot;333333&quot;,righticonhover:&quot;FFFFFF&quot;,track:&quot;FFFFFF&quot;,loader:&quot;009900&quot;,border:&quot;CCCCCC&quot;,tracker:&quot;DDDDDD&quot;,skip:&quot;666666&quot;,pagebg:&quot;FFFFFF&quot;,transparentpagebg:&quot;yes&quot;});\n    </script>\n    <script type="text/javascript"> //&lt;![CDATA[ document.write(\'&lt;link rel=&quot;stylesheet&quot; href=&quot;http://1000words1000days.com/wp-content/plugins/lightbox-2/Themes/Black/lightbox.css&quot; type=&quot;text/css&quot; media=&quot;screen&quot; /&gt;\'); //]]&gt; </script>\n  </head>\n  <body class="archive tag tag-world-war-ii tag-1673">\n    <div id="wrap">\n      <div id="header">\n        <div class="top-options">\n          <div class="rss-link left">\n            <a title="Subscribe to feed" href="http://1000words1000days.com/feed/" shape="rect">Subscribe to RSS Feed</a>\n          </div>\n          <div class="fb-link left">\n            <a title="Facebook" href="http://www.facebook.com/1000words1000days" shape="rect">Facebook</a>\n          </div>\n          <div class="twitter-link left">\n            <a title="Subscribe to feed" href="http://twitter.com/#!/The1000Words" shape="rect">Twitter</a>\n          </div>\n          <div class="search-wrap right">\n            <form action="http://1000words1000days.com/" name="searchform" id="searchform" method="get" enctype="application/x-www-form-urlencoded">\n              <input onfocus="if (this.value == \'Site Search\') {this.value = \'\';}" onblur="if (this.value == \'\') {this.value = \'Site Search\';}" name="s" value="Site Search" id="s" type="text"></input>\n              <button class="searchsubmit" type="submit">Go</button>\n            </form>\n          </div>\n          <div class="clear"></div>\n        </div>\n        <div id="nav">\n          <ul id="menu-nav" class="menu">\n            <li id="menu-item-59" class="menu-item menu-item-type-custom menu-item-object-custom menu-item-59">\n              <a href="http://www.1000words1000days.com" shape="rect">Home</a>\n            </li>\n            <li id="menu-item-57" class="menu-item menu-item-type-post_type menu-item-object-page menu-item-57">\n              <a href="http://1000words1000days.com/about/" shape="rect">What Is This?</a>\n            </li>\n            <li id="menu-item-58" class="menu-item menu-item-type-post_type menu-item-object-page menu-item-58">\n              <a href="http://1000words1000days.com/contact/" shape="rect">Contact</a>\n            </li>\n            <li id="menu-item-56" class="menu-item menu-item-type-post_type menu-item-object-page menu-item-56">\n              <a href="http://1000words1000days.com/my-inner-monologue/" shape="rect">My Inner Monologue</a>\n            </li>\n          </ul>\n        </div>\n        <div id="sitename"> </div>\n      </div>\n      <div id="content">\n        <div class="archive-title">\n          <h5>Tag: World War II</h5>\n        </div>\n        <div \n        id="post-3706" class="post-3706 post type-post status-publish format-standard hentry category-1000categories category-history-2 category-politics-2 category-war-2 tag-allies tag-arthur-zimmerman tag-austro-serbia tag-axis tag-bad-ems tag-british-intelligence tag-carla-markell tag-casualties tag-delaware tag-diplomacy tag-ems-dispatch tag-england tag-final-solution tag-france tag-franco-prussian-war tag-friendship tag-germany tag-hague-conference tag-invasion tag-jack-markell tag-jews tag-kaiser-wilhelm-ii tag-king-wilhelm-i tag-kruger-telegram tag-mexico tag-nazi tag-politics tag-prince-leopold tag-prussia tag-queen-victoria tag-riegner-telegram tag-russia tag-secretary-of-state tag-snooki tag-south-africa tag-spain tag-telegram tag-the-big-bang-theory tag-transvaal-republic tag-tsar-nicholas-ii tag-twitter tag-united-states tag-war tag-willy-nicky-telegrams tag-world-war-i tag-world-war-ii tag-zimmerman-telegram">\n          <div class="post-title">\n            <h2>\n              <a title="Permanent Link to Day 256: _ _ _ / _ _ / _ _ . (OMG \xe2\x80\x93 The Famous Telegrams)" href="http://1000words1000days.com/2012/09/day-256-_-_-_-_-_-_-_-omg-the-famous-telegrams/" shape="rect">Day 256: _ _ _ / _ _ / _ _ . (OMG \xe2\x80\x93 The Famous Telegrams)</a>\n            </h2>\n          </div>\n          <div class="post-content">\n            <div addthis:title="Day 256: _ _ _  /  _ _  /  _ _ .  (OMG \xe2\x80\x93 The Famous Telegrams) " addthis:url="http://1000words1000days.com/2012/09/day-256-_-_-_-_-_-_-_-omg-the-famous-telegrams/" class="addthis_toolbox addthis_default_style">\n              <a fb:likelayout="button_count" class="addthis_button_facebook_like" shape="rect"></a>\n              <a class="addthis_button_tweet" shape="rect"></a>\n              <a class="addthis_counter addthis_pill_style" shape="rect"></a>\n            </div>\n            <p>\n              <a rel="lightbox[3706]" href="http://1000words1000days.com/wp-content/uploads/2012/09/Header10.jpg" shape="rect">\n                <img height="300" width="238" alt="" src="http://1000words1000days.com/wp-content/uploads/2012/09/Header10-238x300.jpg" title="Header" class="aligncenter size-medium wp-image-3707"></img>\n              </a>\n            </p>\n            <p>\n              Sure, social media has become a powerful force for communication and social change. Yes, I can use it to stalk ex-girlfriends, tend an electronic farm for hundreds of hours with no palpable rewards, or follow the thoughts and musings of some guy who writes for\n              <em>The Big Bang Theory. </em>\n              But can I start a war?\n            </p>\n            <p>\n              Back when dots and dashes were the entire message, not simply a way of adding a winky-face to the end of an obvious come-on to let you know that I didn\xc3\xa2\xe2\x82\xac\xe2\x84\xa2t mean it like an obvious come-on, a single act of communication could evoke a shit-storm of political poopery. These are the infamous\n              <a href="http://en.wikipedia.org/wiki/Category:Telegrams" shape="rect">telegrams</a>\n              that did what ten thousand tweets about Snooki\xc3\xa2\xe2\x82\xac\xe2\x84\xa2s baby have yet to accomplish: basically, anything.\n            </p>\n            <p>\n              <a rel="lightbox[3706]" href="http://1000words1000days.com/wp-content/uploads/2012/09/EmsDispatch.jpg" shape="rect">\n                <img height="173" width="220" alt="" src="http://1000words1000days.com/wp-content/uploads/2012/09/EmsDispatch.jpg" title="EmsDispatch" class="aligncenter size-full wp-image-3708"></img>\n              </a>\n            </p>\n            <p>\n              In 1870, German Prince Leopold had been offered the Spanish throne. He declined, but the French were freaked out about a German-Spanish alliance. France was (and probably still is, though I haven\xc3\xa2\xe2\x82\xac\xe2\x84\xa2t checked today) stuck right between these two powers. In a panic, the local French ambassador wandered up to King Wilhelm I, the head honcho of Prussia, and demanded that there never be another German Prince offered to the Spanish throne. Wilhelm, not one to make promises on forever-ness, said no.\n            </p>\n            <p>\n              A report of this conversation was sent from Bad Ems, the vacation spa where Wilhelm had been relaxing when all this took place, back to Otto von Bismarck in Berlin. The \xc3\xa2\xe2\x82\xac\xcb\x9cEms Dispatch\xc3\xa2\xe2\x82\xac\xe2\x84\xa2 was poorly translated by the French media, and France, mistakenly believing some snarky insult had taken place, invented the Franco-Prussian War. That\xc3\xa2\xe2\x82\xac\xe2\x84\xa2s over 850,000 casualties because of one telegram.\n              <a href="http://1000words1000days.com/2012/09/day-256-_-_-_-_-_-_-_-omg-the-famous-telegrams/#more-3706" class="more-link" shape="rect">Read more\xe2\x80\xa6</a>\n            </p>\n          </div>\n          <div class="post-metas">\n            <dl>\n              <dt>\n                <span>Author name:</span>\n              </dt>\n              <dd>\n                <a rel="author" title="Posts by Marty" href="http://1000words1000days.com/author/marty/" shape="rect">Marty</a>\n              </dd>\n              <dt>\n                <span>Discussion:</span>\n              </dt>\n              <dd>\n                <a href="http://1000words1000days.com/2012/09/day-256-_-_-_-_-_-_-_-omg-the-famous-telegrams/#respond" shape="rect">No Comments</a>\n              </dd>\n            </dl>\n          </div>\n          <div class="clear"></div>\n</div>\n        <div \n        id="post-3642" class="post-3642 post type-post status-publish format-standard hentry category-1000categories category-music category-visual-arts tag-abazu-district tag-air-guitar tag-artist tag-barbara-walters tag-beatles tag-bottoms tag-brian-de-palma tag-bulldog tag-carrie-fisher tag-central-park tag-chicago tag-church-of-the-living-word tag-cult tag-cut-piece tag-dragon-lady tag-education tag-emperor-ahikito tag-emperor-hirohito tag-england tag-gakushuin tag-germany tag-grapefruit tag-j-j-abrams tag-japan tag-john-lennon tag-kyoko tag-leslie-gore tag-music tag-new-york tag-painting-to-be-stepped-on tag-performance-art tag-ringo-starr tag-saigon tag-sarah-lawrence-college tag-star-wars tag-tattooine tag-tea-leoni tag-tokyo tag-tony-cox tag-tosche-station tag-toshi-ichiyangi tag-twitter tag-usa tag-win-butler tag-world-war-ii tag-yasuda-zaibatsu tag-yasuda-zenjiro tag-yoko-ono tag-yuko-mishima">\n          <div class="post-title">\n            <h2>\n              <a title="Permanent Link to Day 251: Yoko, Pre-John" href="http://1000words1000days.com/2012/09/day-251-yoko-pre-john/" shape="rect">Day 251: Yoko, Pre-John</a>\n            </h2>\n          </div>\n          <div class="post-content">\n            <div addthis:title="Day 251: Yoko, Pre-John " addthis:url="http://1000words1000days.com/2012/09/day-251-yoko-pre-john/" class="addthis_toolbox addthis_default_style">\n              <a fb:likelayout="button_count" class="addthis_button_facebook_like" shape="rect"></a>\n              <a class="addthis_button_tweet" shape="rect"></a>\n              <a class="addthis_counter addthis_pill_style" shape="rect"></a>\n            </div>\n            <p>\n              <a rel="lightbox[3642]" href="http://1000words1000days.com/wp-content/uploads/2012/09/Header5.jpg" shape="rect">\n                <img height="191" width="264" alt="" src="http://1000words1000days.com/wp-content/uploads/2012/09/Header5.jpg" title="Header" class="aligncenter size-full wp-image-3643"></img>\n              </a>\n            </p>\n            <p>\n              <a href="http://en.wikipedia.org/wiki/Yoko_Ono" shape="rect">Yoko Ono</a>\n              has been called many things: an artist, a philanthropist, the anti-Beatle, and several terms I don\xc3\xa2\xe2\x82\xac\xe2\x84\xa2t care to use in mixed company, unless I\xc3\xa2\xe2\x82\xac\xe2\x84\xa2m dealing with traffic. I never bought into the Dragon-Lady angle. It\xc3\xa2\xe2\x82\xac\xe2\x84\xa2s a cop-out to say that she broke up the Beatles, when clearly the reasons behind their demise were far more layered and complex.\n            </p>\n            <div style="width: 266px" id="attachment_3644" class="wp-caption aligncenter">\n              <a rel="lightbox[3642]" href="http://1000words1000days.com/wp-content/uploads/2012/09/RingosMoustache.jpg" shape="rect">\n                <img height="192" width="256" alt="" src="http://1000words1000days.com/wp-content/uploads/2012/09/RingosMoustache.jpg" title="Ringo\'sMoustache" class="size-full wp-image-3644"></img>\n              </a>\n              <p class="wp-caption-text">Mostly it had to do with Ringo\xe2\x80\x99s 1969 \xe2\x80\x98stache.</p>\n            </div>\n            <p>I will say this. Yoko is a terrible singer. I know, I know\xc3\xa2\xe2\x82\xac\xc5\xa0 \xc3\xa2\xe2\x82\xac\xc5\x93art\xc3\xa2\xe2\x82\xac\xef\xbf\xbd. But forget it, her singing voice is simply not aesthetically pleasing to my ears. We used to flip Lennon 45\xc3\xa2\xe2\x82\xac\xe2\x84\xa2s over and play the Yoko songs on 33 1/3 RPM so that she sounded more demonic and less\xc3\xa2\xe2\x82\xac\xc5\xa0 shrieky.</p>\n            <p>\n              Rather than pen a thousand-word diatribe about why John should not have insisted on including her in his musical exploits, I\xc3\xa2\xe2\x82\xac\xe2\x84\xa2m going to take a more positive approach and try to learn about the lady. She is notoriously generous, caretaker of my favorite corner of Central Park, and hosts one of the most fantastical\n              <a href="http://www.thepaltrysapien.com/2011/01/twitter-spotlight-yoko-ono-the-fountain-of-wisdom-2/" shape="rect">Twitter feeds</a>\n              you\xc3\xa2\xe2\x82\xac\xe2\x84\xa2ll ever read.\n            </p>\n            <p>\n              And she had a life before she met John Lennon.\n              <a href="http://1000words1000days.com/2012/09/day-251-yoko-pre-john/#more-3642" class="more-link" shape="rect">Read more\xe2\x80\xa6</a>\n            </p>\n          </div>\n          <div class="post-metas">\n            <dl>\n              <dt>\n                <span>Author name:</span>\n              </dt>\n              <dd>\n                <a rel="author" title="Posts by Marty" href="http://1000words1000days.com/author/marty/" shape="rect">Marty</a>\n              </dd>\n              <dt>\n                <span>Discussion:</span>\n              </dt>\n              <dd>\n                <a href="http://1000words1000days.com/2012/09/day-251-yoko-pre-john/#comments" shape="rect">3 Comments</a>\n              </dd>\n            </dl>\n          </div>\n          <div class="clear"></div>\n</div>\n        <div \n        id="post-3336" class="post-3336 post type-post status-publish format-standard hentry category-1000categories category-places category-politics-2 tag-austro-hungary tag-coat-of-arms tag-czechoslovakia tag-dunajska-streda tag-europe tag-horny-bar tag-housing tag-hungary tag-mad-magazine tag-miriam-bartal tag-paris-peace-treaties tag-reparations tag-romania tag-sap tag-slovakia tag-soviet-union tag-translation tag-treaty-of-trianon tag-village tag-world-war-i tag-world-war-ii tag-yugoslavia">\n          <div class="post-title">\n            <h2>\n              <a title="Permanent Link to Day 229: A Drizzle Of Sap" href="http://1000words1000days.com/2012/08/day-229-a-drizzle-of-sap/" shape="rect">Day 229: A Drizzle Of Sap</a>\n            </h2>\n          </div>\n          <div class="post-content">\n            <div addthis:title="Day 229: A Drizzle Of Sap " addthis:url="http://1000words1000days.com/2012/08/day-229-a-drizzle-of-sap/" class="addthis_toolbox addthis_default_style">\n              <a fb:likelayout="button_count" class="addthis_button_facebook_like" shape="rect"></a>\n              <a class="addthis_button_tweet" shape="rect"></a>\n              <a class="addthis_counter addthis_pill_style" shape="rect"></a>\n            </div>\n            <p>\n              <a rel="lightbox[3336]" href="http://1000words1000days.com/wp-content/uploads/2012/08/Header16.jpg" shape="rect">\n                <img height="194" width="260" alt="" src="http://1000words1000days.com/wp-content/uploads/2012/08/Header16.jpg" title="Header" class="aligncenter size-full wp-image-3337"></img>\n              </a>\n            </p>\n            <p>\n              Over the course of the past 229 days, I have Wiki\xc3\xa2\xe2\x82\xac\xe2\x84\xa2ed my way through hundreds of European villages. Once I actually paused to pen a kilograph on one of these villages, but that was back on\n              <a href="http://1000words1000days.com/2012/01/day-5-leckhampstead-berkshire-home-of-the-gun-clock-and-the-supersheep/" shape="rect">Day #5</a>\n              when I actually feared I might run out of subject ideas. Today I\xc3\xa2\xe2\x82\xac\xe2\x84\xa2m 224 days wiser, and no longer willing to spill a day\xc3\xa2\xe2\x82\xac\xe2\x84\xa2s worth of writing on a mostly uninteresting gaggle of a few hundred people.\n            </p>\n            <p>\n              Except I totally am. Welcome to the tiny\n              <a href="http://en.wikipedia.org/wiki/Sap_(village)" shape="rect">village of Sap</a>\n              , tucked into the southwestern corner \xc3\xa2\xe2\x82\xac\xe2\x80\x9c the geographic anus, if you will \xc3\xa2\xe2\x82\xac\xe2\x80\x9c of Slovakia. Why bother to write about a village of 535 people? Was it just so I could coin the phrase \xc3\xa2\xe2\x82\xac\xcb\x9cgeographic anus\xc3\xa2\xe2\x82\xac\xe2\x84\xa2? Was I hoping I could milk an article\xc3\xa2\xe2\x82\xac\xe2\x84\xa2s worth of laughs out of calling the residents of Sap a bunch of saps? No, that\xc3\xa2\xe2\x82\xac\xe2\x84\xa2s not even funny once. But this little village\xc3\xa2\xe2\x82\xac\xe2\x84\xa2s history intrigued me.\n            </p>\n            <p>It starts with the village\xc3\xa2\xe2\x82\xac\xe2\x84\xa2s original name.</p>\n            <p>\n              <a rel="lightbox[3336]" href="http://1000words1000days.com/wp-content/uploads/2012/08/Zap.jpg" shape="rect">\n                <img height="182" width="187" alt="" src="http://1000words1000days.com/wp-content/uploads/2012/08/Zap.jpg" title="Zap" class="aligncenter size-full wp-image-3338"></img>\n              </a>\n            </p>\n            <p>\n              Okay, that\xc3\xa2\xe2\x82\xac\xe2\x84\xa2s somewhat less than inspiring. The village shows up first on record back in 1255. A hundred years ago, it was a part of Hungary. This was right before Hungary pulled a crucial Jenga block from the tower of geographic consistency and caused boundaries to be redrawn after WWI. Czech soldiers wandered into the little village, and with a wave of the diplomatic wand, Sap became a part of Czechoslovakia.\n            </p>\n            <p>\n              The Treaty of Trianon really messed things up for a lot of Hungarians after the war. Some found themselves citizens of Romania, some became Czechs, and others went to the kingdom that would come to be known as Yugoslavia. In 1938 the village was given back to Hungary just in time for the next war. The Soviets marched in to plant their flag in 1945, then the Czechs regained control in 1947. When Czechoslovakia broke up over creative differences in 1992, Slovakia grabbed hold of Sap.\n              <a href="http://1000words1000days.com/2012/08/day-229-a-drizzle-of-sap/#more-3336" class="more-link" shape="rect">Read more\xe2\x80\xa6</a>\n            </p>\n          </div>\n          <div class="post-metas">\n            <dl>\n              <dt>\n                <span>Author name:</span>\n              </dt>\n              <dd>\n                <a rel="author" title="Posts by Marty" href="http://1000words1000days.com/author/marty/" shape="rect">Marty</a>\n              </dd>\n              <dt>\n                <span>Discussion:</span>\n              </dt>\n              <dd>\n                <a href="http://1000words1000days.com/2012/08/day-229-a-drizzle-of-sap/#respond" shape="rect">No Comments</a>\n              </dd>\n            </dl>\n          </div>\n          <div class="clear"></div>\n</div>\n        <div \n        id="post-3071" class="post-3071 post type-post status-publish format-standard hentry category-1000categories category-sports-2 tag-angling tag-auto-racing tag-beijing tag-berlin tag-croquet tag-cycle-polo tag-demonstration-sport tag-england tag-football tag-gliding tag-gold-medal tag-hungary tag-hurling tag-ioc tag-japan tag-jennie-finch tag-jeu-de-paume tag-kiel tag-kite-flying tag-korfball tag-la-canne tag-lajos-rotter tag-lawn-tennis tag-london-2012 tag-longue-paume tag-olympics tag-paris tag-police tag-rangsdorf tag-real-tennis tag-roque tag-savate tag-softball tag-st-louis tag-stephen-king tag-sweden tag-the-shining tag-tokyo tag-tug-of-war tag-united-states tag-waterskiing tag-wax-bullets tag-weightlifting tag-wimbledon tag-wipeout tag-world-war-ii">\n          <div class="post-title">\n            <h2>\n              <a title="Permanent Link to Day 209: The Olympic Junk Drawer" href="http://1000words1000days.com/2012/07/day-209-the-olympic-junk-drawer/" shape="rect">Day 209: The Olympic Junk Drawer</a>\n            </h2>\n          </div>\n          <div class="post-content">\n            <div addthis:title="Day 209: The Olympic Junk Drawer " addthis:url="http://1000words1000days.com/2012/07/day-209-the-olympic-junk-drawer/" class="addthis_toolbox addthis_default_style">\n              <a fb:likelayout="button_count" class="addthis_button_facebook_like" shape="rect"></a>\n              <a class="addthis_button_tweet" shape="rect"></a>\n              <a class="addthis_counter addthis_pill_style" shape="rect"></a>\n            </div>\n            <p>\n              <a rel="lightbox[3071]" href="http://1000words1000days.com/wp-content/uploads/2012/07/Header23.jpg" shape="rect">\n                <img height="195" width="259" alt="" src="http://1000words1000days.com/wp-content/uploads/2012/07/Header23.jpg" title="Header" class="aligncenter size-full wp-image-3072"></img>\n              </a>\n            </p>\n            <p>Unless you\xc3\xa2\xe2\x82\xac\xe2\x84\xa2ve spent the last few months bolted to a large slug\xc3\xa2\xe2\x82\xac\xe2\x84\xa2s wall, awaiting a princess disguised as a bounty hunter to liberate you from your carbonite enclosure, you are probably aware that the 2012 Olympics are kicking off today in London.</p>\n            <p>\n              I\xc3\xa2\xe2\x82\xac\xe2\x84\xa2m not sure if Ms. Wiki\xc3\xa2\xe2\x82\xac\xe2\x84\xa2s Random Article button is bursting with global pride or merely a slave to the happy chuckle of coincidence, but she invited me to check out the results for softball at the 2008 Beijing Games this morning. I was impressed; after winning gold in three consecutive Olympics, the Americans were upset by Japan by a score of 3-1 in the gold-medal game. I hope the two teams meet again this year for a thrilling revenge match.\n            </p>\n            <p>Except they won\xc3\xa2\xe2\x82\xac\xe2\x84\xa2t. Softball was dropped from Olympic competition and won\xc3\xa2\xe2\x82\xac\xe2\x84\xa2t be played in London. This is a shame, because that means we won\xc3\xa2\xe2\x82\xac\xe2\x84\xa2t get to see the high-speed skills of Jennie Finch, and she was truly an inspiring pitcher.</p>\n            <div style="width: 285px" id="attachment_3073" class="wp-caption aligncenter">\n              <a rel="lightbox[3071]" href="http://1000words1000days.com/wp-content/uploads/2012/07/JennieFinch.jpg" shape="rect">\n                <img height="183" width="275" alt="" src="http://1000words1000days.com/wp-content/uploads/2012/07/JennieFinch.jpg" title="JennieFinch" class="size-full wp-image-3073"></img>\n              </a>\n              <p class="wp-caption-text">I\xe2\x80\x99m inspired.</p>\n            </div>\n            <p>\n              Media coverage will no doubt drench you in stories and statistics for every sport offering a juicy gold medal to its champion this year. I\xc3\xa2\xe2\x82\xac\xe2\x84\xa2m going to follow Wikipedia\xc3\xa2\xe2\x82\xac\xe2\x84\xa2s advice and have a look at some\n              <a href="file:///E:/en.wikipedia.org/wiki/Category:Former_Olympic_sports" shape="rect">former Olympic events</a>\n              for which athletes sacrificed and struggled their entire lives to achieve world dominance. Sports that, for the next two and a half weeks, don\xc3\xa2\xe2\x82\xac\xe2\x84\xa2t officially matter.\n            </p>\n            <p>\n              <a rel="lightbox[3071]" href="http://1000words1000days.com/wp-content/uploads/2012/07/TugOfWar.jpg" shape="rect">\n                <img height="217" width="232" alt="" src="http://1000words1000days.com/wp-content/uploads/2012/07/TugOfWar.jpg" title="TugOfWar" class="aligncenter size-full wp-image-3074"></img>\n              </a>\n            </p>\n            <p>\n              So many Olympic sports are centered on pure speed. A few, like weightlifting and \xc3\xa2\xe2\x82\xac\xe2\x80\x9c if they accept my application \xc3\xa2\xe2\x82\xac\xe2\x80\x9c manatee-dragging, are all about brute strength. Between 1900 and 1920 strength was embodied by the manly game of Tug of War.\n              <a href="http://1000words1000days.com/2012/07/day-209-the-olympic-junk-drawer/#more-3071" class="more-link" shape="rect">Read more\xe2\x80\xa6</a>\n            </p>\n          </div>\n          <div class="post-metas">\n            <dl>\n              <dt>\n                <span>Author name:</span>\n              </dt>\n              <dd>\n                <a rel="author" title="Posts by Marty" href="http://1000words1000days.com/author/marty/" shape="rect">Marty</a>\n              </dd>\n              <dt>\n                <span>Discussion:</span>\n              </dt>\n              <dd>\n                <a href="http://1000words1000days.com/2012/07/day-209-the-olympic-junk-drawer/#comments" shape="rect">2 Comments</a>\n              </dd>\n            </dl>\n          </div>\n          <div class="clear"></div>\n</div>\n        <div \n        id="post-2991" class="post-2991 post type-post status-publish format-standard hentry category-1000categories category-history-2 category-war-2 tag-1941 tag-1st-avg tag-1st-pursuit-group tag-23rd-fighter-group tag-air-america tag-army-air-corps tag-asia tag-baoshan tag-burma tag-charles-bond tag-chiang-kai-shek tag-china tag-chinese-air-force tag-claire-chennault tag-curtiss-p-40 tag-erik-shilling tag-flying-tigers tag-ford tag-franklin-d-roosevelt tag-gregory-boyington tag-james-h-howard tag-japan tag-john-belushi tag-kunming tag-magwe tag-medal-of-honor tag-mel-gibson tag-mingaladon tag-pacific-ocean tag-pearl-harbor tag-rangoon tag-robert-downy-jr tag-royal-air-force tag-steven-spielberg tag-thailand tag-us-air-force tag-us-marine-corps tag-us-navy tag-world-war-ii">\n          <div class="post-title">\n            <h2>\n              <a title="Permanent Link to Day 203: The Skies Light Up Over China \xe2\x80\x93 The Flying Tigers\xe2\x80\x99 Story" href="http://1000words1000days.com/2012/07/day-203-the-skies-light-up-over-china-the-flying-tigers-story/" shape="rect">Day 203: The Skies Light Up Over China \xe2\x80\x93 The Flying Tigers\xe2\x80\x99 Story</a>\n            </h2>\n          </div>\n          <div class="post-content">\n            <div addthis:title="Day 203: The Skies Light Up Over China \xe2\x80\x93 The Flying Tigers\xe2\x80\x99 Story " addthis:url="http://1000words1000days.com/2012/07/day-203-the-skies-light-up-over-china-the-flying-tigers-story/" class="addthis_toolbox addthis_default_style">\n              <a fb:likelayout="button_count" class="addthis_button_facebook_like" shape="rect"></a>\n              <a class="addthis_button_tweet" shape="rect"></a>\n              <a class="addthis_counter addthis_pill_style" shape="rect"></a>\n            </div>\n            <p>\n              <a rel="lightbox[2991]" href="http://1000words1000days.com/wp-content/uploads/2012/07/Header17.jpg" shape="rect">\n                <img height="165" width="240" alt="" src="http://1000words1000days.com/wp-content/uploads/2012/07/Header17.jpg" title="Header" class="aligncenter size-full wp-image-2992"></img>\n              </a>\n            </p>\n            <p>\n              Inside that gristly cloud prior to an imminent war, men have been known to indulge in some strange undertakings. Those iron-grey months before the Japanese squirted their rage onto the US Navy base at Pearl Harbor carried the distant flugel-blasts of impending battle, and for a group of American servicemen, this meant acting, not waiting.\n            </p>\n            <p>\n              <a rel="lightbox[2991]" href="http://1000words1000days.com/wp-content/uploads/2012/07/ClaireChennault.jpg" shape="rect">\n                <img height="262" width="192" alt="" src="http://1000words1000days.com/wp-content/uploads/2012/07/ClaireChennault.jpg" title="ClaireChennault" class="aligncenter size-full wp-image-2993"></img>\n              </a>\n            </p>\n            <p>\n              Colonel Claire L. Chennault, whose jawline could cut through the air and cause it to shriek in agony, had been working in China since 1937 as the director of a Chinese Air Force flight school. Generalissimo Chiang Kai-shek, not liking his army\xc3\xa2\xe2\x82\xac\xe2\x84\xa2s chances against a hungry Japanese empire, called up Chennault and asked him if he\xc3\xa2\xe2\x82\xac\xe2\x84\xa2d use some pull to snag a little American support for their cause.\n            </p>\n            <p>\n              The Americans were doing their best to stay out of the mess in the Far East, but FDR was tuned in. He knew that a Day of Infamy was very likely on the horizon, so in 1940 he (allegedly) gave the okay for Chennault to scoop up some volunteers and head over to China to provide some air support. Unofficially, of course.\n            </p>\n            <p>\n              Chennault spent that winter securing the purchase of 100 Curtiss P-40 fighter planes, the recruitment of 100 pilots, 200 ground crew personnel and a workable office staff. And so was born the 1\n              <sup>st</sup>\n              American Volunteer Group, also known as the\n              <a href="file:///C:/Users/Strabbo/Documents/en.wikipedia.org/wiki/Flying_tigers" shape="rect">Flying Tigers</a>\n              .\n            </p>\n            <p>\n              <a rel="lightbox[2991]" href="http://1000words1000days.com/wp-content/uploads/2012/07/1stAVC.jpg" shape="rect">\n                <img height="212" width="238" alt="" src="http://1000words1000days.com/wp-content/uploads/2012/07/1stAVC.jpg" title="1stAVC" class="aligncenter size-full wp-image-2994"></img>\n              </a>\n            </p>\n            <p>\n              You\xc3\xa2\xe2\x82\xac\xe2\x84\xa2ve heard of a rag-tag group \xc3\xa2\xe2\x82\xac\xe2\x80\x9c these guys aspired to reach that level. 60 pilots joined up from the Navy and Marine Corps, another 40 from the Air Force. The problem was, a lot of these pilots were a lot less qualified than they\xc3\xa2\xe2\x82\xac\xe2\x84\xa2d claimed to be. Some had claimed combat experience but really had only flown bombers. Some had flown even less-powerful planes. One or two had only ever actually flown a kite.\n              <a href="http://1000words1000days.com/2012/07/day-203-the-skies-light-up-over-china-the-flying-tigers-story/#more-2991" class="more-link" shape="rect">Read more\xe2\x80\xa6</a>\n            </p>\n          </div>\n          <div class="post-metas">\n            <dl>\n              <dt>\n                <span>Author name:</span>\n              </dt>\n              <dd>\n                <a rel="author" title="Posts by Marty" href="http://1000words1000days.com/author/marty/" shape="rect">Marty</a>\n              </dd>\n              <dt>\n                <span>Discussion:</span>\n              </dt>\n              <dd>\n                <a href="http://1000words1000days.com/2012/07/day-203-the-skies-light-up-over-china-the-flying-tigers-story/#respond" shape="rect">No Comments</a>\n              </dd>\n            </dl>\n          </div>\n          <div class="clear"></div>\n</div>\n        <div \n        id="post-1857" class="post-1857 post type-post status-publish format-standard hentry category-1000categories category-places tag-arctic tag-beer tag-canada tag-deserted tag-ellef-ringnes-island tag-environment-canada tag-fungus tag-gilligans-island tag-government tag-greenland tag-iceland tag-inuit tag-isachsen tag-jamaica tag-magnetic-north-pole tag-norway tag-plane-crash tag-rcaf tag-santa tag-usa tag-usaf tag-weather-station tag-world-war-ii">\n          <div class="post-title">\n            <h2>\n              <a title="Permanent Link to Day 124: Where Hell Froze Over \xe2\x80\x93 Ellef Ringnes Island" href="http://1000words1000days.com/2012/05/day-124-where-hell-froze-over-ellef-ringnes-island/" shape="rect">Day 124: Where Hell Froze Over \xe2\x80\x93 Ellef Ringnes Island</a>\n            </h2>\n          </div>\n          <div class="post-content">\n            <div addthis:title="Day 124: Where Hell Froze Over \xe2\x80\x93 Ellef Ringnes Island " addthis:url="http://1000words1000days.com/2012/05/day-124-where-hell-froze-over-ellef-ringnes-island/" class="addthis_toolbox addthis_default_style">\n              <a fb:likelayout="button_count" class="addthis_button_facebook_like" shape="rect"></a>\n              <a class="addthis_button_tweet" shape="rect"></a>\n              <a class="addthis_counter addthis_pill_style" shape="rect"></a>\n            </div>\n            <p>\n              <a rel="lightbox[1857]" href="http://1000words1000days.com/wp-content/uploads/2012/05/InsideStation.jpg" shape="rect">\n                <img height="187" width="300" alt="" src="http://1000words1000days.com/wp-content/uploads/2012/05/InsideStation-300x187.jpg" title="InsideStation" class="aligncenter size-medium wp-image-1858"></img>\n              </a>\n            </p>\n            <p>\n              Today\xc3\xa2\xe2\x82\xac\xe2\x84\xa2s challenge is to write a thousand words about an uninhabited slab of land that almost nobody wants to visit and even the gods seem to hate. For this task Ms. Wiki has deserted me upon\n              <a target="_blank" href="http://en.wikipedia.org/wiki/Ellef_Ringnes_Island" shape="rect">Ellef Ringnes Island</a>\n              , located in the northwestern quadrant of that hideous near-dead tundra of the Canadian arctic.\n            </p>\n            <p>\n              With over 4300 square miles of grey desolation, Ellef Ringnes is the 69\n              <sup>th</sup>\n              largest island in the world, just a smidge larger than Jamaica. That said, it\xc3\xa2\xe2\x82\xac\xe2\x84\xa2s not the size of the island that counts, but rather what you can do with it. The answer here is \xc3\xa2\xe2\x82\xac\xc5\x93not much\xc3\xa2\xe2\x82\xac\xef\xbf\xbd.\n            </p>\n            <p>\n              The total confirmed flora on the island includes 49 species of moss and about 85 types of fungus. You\xc3\xa2\xe2\x82\xac\xe2\x84\xa2ll see the occasional muskox, caribou and polar bear living (somehow) among all this nothingness, but not much more. Ten species of mammals and fifteen types of birds have been spotted here. That\xc3\xa2\xe2\x82\xac\xe2\x84\xa2s it. One of those mammal species was \xc3\xa2\xe2\x82\xac\xe2\x80\x9c at one time \xc3\xa2\xe2\x82\xac\xe2\x80\x9c humans. More on that below.\n            </p>\n            <p>\n              A pair of Norwegian explorers were first to chart the island back in 1901. They named the island after Norwegian entrepreneur Ellef Ringnes, possibly because he financed their expedition, or maybe because he was a successful Norwegian brewer, and they thought they could score some free beer by naming an island after him.\n            </p>\n            <div style="width: 310px" id="attachment_1864" class="wp-caption aligncenter">\n              <a rel="lightbox[1857]" href="http://1000words1000days.com/wp-content/uploads/2012/05/StationToday1.jpg" shape="rect">\n                <img height="187" width="300" alt="" src="http://1000words1000days.com/wp-content/uploads/2012/05/StationToday1-300x187.jpg" title="StationToday" class="size-medium wp-image-1864"></img>\n              </a>\n              <p class="wp-caption-text">Even if it was a hell-hole.</p>\n            </div>\n            <p>\n              \xc3\x82\xc2\xa0Because this was a Norwegian discovery, that nation held a territorial claim on the deserted slab of rock until 1930, when it was passed over to Canada. When the second World War came to an end a High Arctic Weather Station was installed as a joint Canada-US venture on the west coast of the island.\n            </p>\n            <p>\n              This was a lucky break for eight science-y hermits who yearned to get away from civilization. The down-side was that they\xc3\xa2\xe2\x82\xac\xe2\x84\xa2d be stuck there together. It could have been a sitcom \xc3\xa2\xe2\x82\xac\xe2\x80\x9c like Gilligan\xc3\xa2\xe2\x82\xac\xe2\x84\xa2s Island, except with rotten weather, no goofy shenanigans, and everyone is the Professor.\n              <a href="http://1000words1000days.com/2012/05/day-124-where-hell-froze-over-ellef-ringnes-island/#more-1857" class="more-link" shape="rect">Read more\xe2\x80\xa6</a>\n            </p>\n          </div>\n          <div class="post-metas">\n            <dl>\n              <dt>\n                <span>Author name:</span>\n              </dt>\n              <dd>\n                <a rel="author" title="Posts by Marty" href="http://1000words1000days.com/author/marty/" shape="rect">Marty</a>\n              </dd>\n              <dt>\n                <span>Discussion:</span>\n              </dt>\n              <dd>\n                <a href="http://1000words1000days.com/2012/05/day-124-where-hell-froze-over-ellef-ringnes-island/#comments" shape="rect">2 Comments</a>\n              </dd>\n            </dl>\n          </div>\n          <div class="clear"></div>\n</div>\n        <div \n        id="post-1635" class="post-1635 post type-post status-publish format-standard hentry category-1000categories category-crime-2 category-history-2 category-politics-2 category-war-2 tag-albert-speer tag-burger-king tag-germany tag-hitler tag-hitler-youth tag-karl-donitz tag-life-sentence tag-nazi tag-nuremberg tag-raeder tag-rudolf-hess tag-scotland tag-spandau-prison tag-tower-of-london tag-von-neurath tag-von-schirach tag-walter-funk tag-war tag-war-criminal tag-world-war-ii">\n          <div class="post-title">\n            <h2>\n              <a title="Permanent Link to Day 108: This Much Is True \xe2\x80\x93 The Story Of Spandau Prison" href="http://1000words1000days.com/2012/04/day-108-this-much-is-true-the-story-of-spandau-prison/" shape="rect">Day 108: This Much Is True \xe2\x80\x93 The Story Of Spandau Prison</a>\n            </h2>\n          </div>\n          <div class="post-content">\n            <div addthis:title="Day 108: This Much Is True \xe2\x80\x93 The Story Of Spandau Prison " addthis:url="http://1000words1000days.com/2012/04/day-108-this-much-is-true-the-story-of-spandau-prison/" class="addthis_toolbox addthis_default_style">\n              <a fb:likelayout="button_count" class="addthis_button_facebook_like" shape="rect"></a>\n              <a class="addthis_button_tweet" shape="rect"></a>\n              <a class="addthis_counter addthis_pill_style" shape="rect"></a>\n            </div>\n            <p>\n              <a rel="lightbox[1635]" href="http://1000words1000days.com/wp-content/uploads/2012/04/Spandau.jpg" shape="rect">\n                <img height="219" width="300" alt="" src="http://1000words1000days.com/wp-content/uploads/2012/04/Spandau-300x219.jpg" title="Spandau" class="aligncenter size-medium wp-image-1636"></img>\n              </a>\n            </p>\n            <p>\n              In 1876, the Germans completed construction on\n              <a target="_blank" href="http://en.wikipedia.org/wiki/Spandau_Prison" shape="rect">Spandau Prison</a>\n              , designed to hold up to 600 prisoners. It was a brick fortress, surrounded by a 15-foot wall, then a 30-foot wall, then a 10-foot wall topped with electrified wire, and lastly a wall of barbed wire.\n            </p>\n            <p>\n              In 1946, due to some notable misbehavior over the previous 13 years, Germany lost control of Spandau Prison, and it was turned over to the occupying Allied forces for use as a place to stash Nazi war criminals. The four nations in charge, the Soviets, the Americans, the British, and the French, took monthly turns overseeing the prison. At any given time, there were about sixty soldiers on duty, teams of civilian warders, four prison directors, their deputies, medical officers, translators, cooks, waiters, and probably a tennis pro on staff.\n            </p>\n            <p>There were seven prisoners.</p>\n            <p>On July 18, 1947, the prisoners were brought to Spandau and numbered off:</p>\n            <p>\n              <a rel="lightbox[1635]" href="http://1000words1000days.com/wp-content/uploads/2012/04/BaldurVonSchirach.jpg" shape="rect">\n                <img height="300" width="204" alt="" src="http://1000words1000days.com/wp-content/uploads/2012/04/BaldurVonSchirach-204x300.jpg" title="BaldurVonSchirach" class="aligncenter size-medium wp-image-1637"></img>\n              </a>\n            </p>\n            <p>\n              Prisoner #1, Baldur von Schirach. Leader of the Hitler Youth and alleged bisexual. He was one of only two men on trial at the Nuremberg hearings to denounce Hitler, claiming he\xc3\xa2\xe2\x82\xac\xe2\x84\xa2d been ignorant of the extermination camps, and he provided evidence that he registered a complaint about the inhuman treatment of the Jews. Sentence: 20 years.\n            </p>\n            <p>\n              <a rel="lightbox[1635]" href="http://1000words1000days.com/wp-content/uploads/2012/04/ErichRaeder.jpg" shape="rect">\n                <img height="300" width="196" alt="" src="http://1000words1000days.com/wp-content/uploads/2012/04/ErichRaeder-196x300.jpg" title="ErichRaeder" class="aligncenter size-medium wp-image-1638"></img>\n              </a>\n            </p>\n            <p>Prisoner #2, Erich Raeder. Grand Admiral, the highest rank in the German Navy. He wanted to invade Norway, but was voted down by his staff. After a handful of screw-ups, he was demoted in 1943. He resigned, but was convicted for waging a war of aggression. Sentence: Life.</p>\n            <p>\n              <a rel="lightbox[1635]" href="http://1000words1000days.com/wp-content/uploads/2012/04/KonstantinVonNeurath.jpg" shape="rect">\n                <img height="300" width="229" alt="" src="http://1000words1000days.com/wp-content/uploads/2012/04/KonstantinVonNeurath-229x300.jpg" title="KonstantinVonNeurath" class="aligncenter size-medium wp-image-1639"></img>\n              </a>\n            </p>\n            <p>\n              Prisoner #3, Konstantin von Neurath. German foreign minister at the start of Hitler\xc3\xa2\xe2\x82\xac\xe2\x84\xa2s reign, but he lacked the cajones to live up to Hitler\xc3\xa2\xe2\x82\xac\xe2\x84\xa2s standard of asshole-ness. Hitler fired him in 1938, but his actions during his tenure were enough to get a conviction. Sentence: 15 years.\n              <a href="http://1000words1000days.com/2012/04/day-108-this-much-is-true-the-story-of-spandau-prison/#more-1635" class="more-link" shape="rect">Read more\xe2\x80\xa6</a>\n            </p>\n          </div>\n          <div class="post-metas">\n            <dl>\n              <dt>\n                <span>Author name:</span>\n              </dt>\n              <dd>\n                <a rel="author" title="Posts by Marty" href="http://1000words1000days.com/author/marty/" shape="rect">Marty</a>\n              </dd>\n              <dt>\n                <span>Discussion:</span>\n              </dt>\n              <dd>\n                <a href="http://1000words1000days.com/2012/04/day-108-this-much-is-true-the-story-of-spandau-prison/#comments" shape="rect">2 Comments</a>\n              </dd>\n            </dl>\n          </div>\n          <div class="clear"></div>\n</div>\n        <div class="page-navigation">\n          <div class="left"></div>\n          <div class="right"></div>\n          <div class="clear"></div>\n        </div>\n      </div>\n      <div class="widget-area">\n        <div class="widgets-wrap">\n          <div id="widget-box-1" class="footer-widget-box">\n            <ul>\n              <li class="widget">\n                <h2 class="widgettitle">Tags</h2>\n                <div class="tagcloud">\n                  <a style="font-size: 11.272727272727pt;" title="11 topics" href="http://1000words1000days.com/tag/1980s/" class="tag-link-1085" shape="rect">1980s</a>\n                  <a style="font-size: 8.9090909090909pt;" title="8 topics" href="http://1000words1000days.com/tag/america/" class="tag-link-1930" shape="rect">America</a>\n                  <a style="font-size: 8.9090909090909pt;" title="8 topics" href="http://1000words1000days.com/tag/arrested-development/" class="tag-link-85" shape="rect">arrested development</a>\n                  <a style="font-size: 11.272727272727pt;" title="11 topics" href="http://1000words1000days.com/tag/australia/" class="tag-link-72" shape="rect">australia</a>\n                  <a style="font-size: 14.545454545455pt;" title="17 topics" href="http://1000words1000days.com/tag/bacon/" class="tag-link-1527" shape="rect">Bacon</a>\n                  <a style="font-size: 8pt;" title="7 topics" href="http://1000words1000days.com/tag/baseball/" class="tag-link-48" shape="rect">baseball</a>\n                  <a style="font-size: 10.545454545455pt;" title="10 topics" href="http://1000words1000days.com/tag/batman/" class="tag-link-1177" shape="rect">Batman</a>\n                  <a style="font-size: 14pt;" title="16 topics" href="http://1000words1000days.com/tag/beatles/" class="tag-link-58" shape="rect">Beatles</a>\n                  <a style="font-size: 8pt;" title="7 topics" href="http://1000words1000days.com/tag/bulldog/" class="tag-link-44" shape="rect">bulldog</a>\n                  <a style="font-size: 17.090909090909pt;" title="24 topics" href="http://1000words1000days.com/tag/canada/" class="tag-link-734" shape="rect">Canada</a>\n                  <a style="font-size: 11.272727272727pt;" title="11 topics" href="http://1000words1000days.com/tag/chicago/" class="tag-link-961" shape="rect">Chicago</a>\n                  <a style="font-size: 8pt;" title="7 topics" href="http://1000words1000days.com/tag/civil-war/" class="tag-link-251" shape="rect">Civil War</a>\n                  <a style="font-size: 11.272727272727pt;" title="11 topics" href="http://1000words1000days.com/tag/crime/" class="tag-link-145" shape="rect">crime</a>\n                  <a style="font-size: 10.545454545455pt;" title="10 topics" href="http://1000words1000days.com/tag/edmonton/" class="tag-link-762" shape="rect">Edmonton</a>\n                  <a style="font-size: 22pt;" title="46 topics" href="http://1000words1000days.com/tag/england/" class="tag-link-231" shape="rect">England</a>\n                  <a style="font-size: 11.272727272727pt;" title="11 topics" href="http://1000words1000days.com/tag/europe/" class="tag-link-801" shape="rect">Europe</a>\n                  <a style="font-size: 8pt;" title="7 topics" href="http://1000words1000days.com/tag/food/" class="tag-link-373" shape="rect">food</a>\n                  <a style="font-size: 11.818181818182pt;" title="12 topics" href="http://1000words1000days.com/tag/football/" class="tag-link-4" shape="rect">football</a>\n                  <a style="font-size: 16pt;" title="21 topics" href="http://1000words1000days.com/tag/france/" class="tag-link-39" shape="rect">france</a>\n                  <a style="font-size: 14.545454545455pt;" title="17 topics" href="http://1000words1000days.com/tag/germany/" class="tag-link-500" shape="rect">Germany</a>\n                  <a style="font-size: 11.272727272727pt;" title="11 topics" href="http://1000words1000days.com/tag/history/" class="tag-link-282" shape="rect">history</a>\n                  <a style="font-size: 11.818181818182pt;" title="12 topics" href="http://1000words1000days.com/tag/hollywood/" class="tag-link-80" shape="rect">hollywood</a>\n                  <a style="font-size: 14.545454545455pt;" title="17 topics" href="http://1000words1000days.com/tag/japan/" class="tag-link-345" shape="rect">Japan</a>\n                  <a style="font-size: 11.272727272727pt;" title="11 topics" href="http://1000words1000days.com/tag/las-vegas/" class="tag-link-522" shape="rect">Las Vegas</a>\n                  <a style="font-size: 12.545454545455pt;" title="13 topics" href="http://1000words1000days.com/tag/london/" class="tag-link-703" shape="rect">London</a>\n                  <a style="font-size: 13.090909090909pt;" title="14 topics" href="http://1000words1000days.com/tag/los-angeles/" class="tag-link-590" shape="rect">Los Angeles</a>\n                  <a style="font-size: 9.8181818181818pt;" title="9 topics" href="http://1000words1000days.com/tag/movies/" class="tag-link-81" shape="rect">movies</a>\n                  <a style="font-size: 15.636363636364pt;" title="20 topics" href="http://1000words1000days.com/tag/music/" class="tag-link-57" shape="rect">Music</a>\n                  <a style="font-size: 8.9090909090909pt;" title="8 topics" href="http://1000words1000days.com/tag/nazis/" class="tag-link-35" shape="rect">nazis</a>\n                  <a style="font-size: 8.9090909090909pt;" title="8 topics" href="http://1000words1000days.com/tag/nbc/" class="tag-link-1421" shape="rect">NBC</a>\n                  <a style="font-size: 15.636363636364pt;" title="20 topics" href="http://1000words1000days.com/tag/new-york/" class="tag-link-122" shape="rect">new york</a>\n                  <a style="font-size: 8.9090909090909pt;" title="8 topics" href="http://1000words1000days.com/tag/new-york-city/" class="tag-link-2573" shape="rect">New York City</a>\n                  <a style="font-size: 8pt;" title="7 topics" href="http://1000words1000days.com/tag/nfl/" class="tag-link-293" shape="rect">NFL</a>\n                  <a style="font-size: 8.9090909090909pt;" title="8 topics" href="http://1000words1000days.com/tag/politics/" class="tag-link-386" shape="rect">politics</a>\n                  <a style="font-size: 8pt;" title="7 topics" href="http://1000words1000days.com/tag/religion/" class="tag-link-570" shape="rect">Religion</a>\n                  <a style="font-size: 8pt;" title="7 topics" href="http://1000words1000days.com/tag/russia/" class="tag-link-126" shape="rect">russia</a>\n                  <a style="font-size: 8.9090909090909pt;" title="8 topics" href="http://1000words1000days.com/tag/scotland/" class="tag-link-567" shape="rect">Scotland</a>\n                  <a style="font-size: 9.8181818181818pt;" title="9 topics" href="http://1000words1000days.com/tag/seinfeld/" class="tag-link-275" shape="rect">Seinfeld</a>\n                  <a style="font-size: 8.9090909090909pt;" title="8 topics" href="http://1000words1000days.com/tag/star-trek/" class="tag-link-943" shape="rect">Star Trek</a>\n                  <a style="font-size: 13.090909090909pt;" title="14 topics" href="http://1000words1000days.com/tag/star-wars/" class="tag-link-1507" shape="rect">Star Wars</a>\n                  <a style="font-size: 8.9090909090909pt;" title="8 topics" href="http://1000words1000days.com/tag/texas/" class="tag-link-483" shape="rect">Texas</a>\n                  <a style="font-size: 9.8181818181818pt;" title="9 topics" href="http://1000words1000days.com/tag/tv/" class="tag-link-15" shape="rect">tv</a>\n                  <a style="font-size: 8.9090909090909pt;" title="8 topics" href="http://1000words1000days.com/tag/united-states/" class="tag-link-1917" shape="rect">United States</a>\n                  <a style="font-size: 9.8181818181818pt;" title="9 topics" href="http://1000words1000days.com/tag/usa/" class="tag-link-841" shape="rect">USA</a>\n                  <a style="font-size: 8.9090909090909pt;" title="8 topics" href="http://1000words1000days.com/tag/war/" class="tag-link-347" shape="rect">war</a>\n                </div>\n              </li>\n            </ul>\n          </div>\n          <div id="widget-box-2" class="footer-widget-box">\n            <ul>\n              <li class="widget">\n                <h2 class="widgettitle">Categories</h2>\n                <select name="cat" id="cat" class="postform">\n                  <option value="-1">Select Category</option>\n                  <option value="408" class="level-0">\xe2\x80\x93Atypical Style\xe2\x80\x93</option>\n                  <option value="1" class="level-0">1000 Words</option>\n                  <option value="416" class="level-0">Entertainment &amp; Arts</option>\n                  <option value="422" class="level-1">\xc2\xa0\xc2\xa0\xc2\xa0Comics</option>\n                  <option value="411" class="level-1">\xc2\xa0\xc2\xa0\xc2\xa0Games</option>\n                  <option value="413" class="level-1">\xc2\xa0\xc2\xa0\xc2\xa0Literature</option>\n                  <option value="399" class="level-1">\xc2\xa0\xc2\xa0\xc2\xa0Movies &amp; TV</option>\n                  <option value="57" class="level-1">\xc2\xa0\xc2\xa0\xc2\xa0Music</option>\n                  <option value="242" class="level-1">\xc2\xa0\xc2\xa0\xc2\xa0Radio</option>\n                  <option value="247" class="level-1">\xc2\xa0\xc2\xa0\xc2\xa0Theatre</option>\n                  <option value="421" class="level-1">\xc2\xa0\xc2\xa0\xc2\xa0Visual Arts</option>\n                  <option value="417" class="level-0">Happenings</option>\n                  <option value="412" class="level-1">\xc2\xa0\xc2\xa0\xc2\xa0Crime</option>\n                  <option value="420" class="level-1">\xc2\xa0\xc2\xa0\xc2\xa0Current Events</option>\n                  <option value="401" class="level-1">\xc2\xa0\xc2\xa0\xc2\xa0History</option>\n                  <option value="404" class="level-1">\xc2\xa0\xc2\xa0\xc2\xa0Lifestyle</option>\n                  <option value="403" class="level-1">\xc2\xa0\xc2\xa0\xc2\xa0Politics</option>\n                  <option value="402" class="level-1">\xc2\xa0\xc2\xa0\xc2\xa0Science &amp; Medicine</option>\n                  <option value="409" class="level-1">\xc2\xa0\xc2\xa0\xc2\xa0Sports</option>\n                  <option value="410" class="level-1">\xc2\xa0\xc2\xa0\xc2\xa0War</option>\n                  <option value="407" class="level-0">Miscellaneous</option>\n                  <option value="418" class="level-0">Stuff</option>\n                  <option value="406" class="level-1">\xc2\xa0\xc2\xa0\xc2\xa0Advertising</option>\n                  <option value="499" class="level-1">\xc2\xa0\xc2\xa0\xc2\xa0Architecture</option>\n                  <option value="392" class="level-1">\xc2\xa0\xc2\xa0\xc2\xa0Computers</option>\n                  <option value="950" class="level-1">\xc2\xa0\xc2\xa0\xc2\xa0Food &amp; Drink</option>\n                  <option value="405" class="level-1">\xc2\xa0\xc2\xa0\xc2\xa0Mathematics</option>\n                  <option value="414" class="level-1">\xc2\xa0\xc2\xa0\xc2\xa0Nature</option>\n                  <option value="423" class="level-1">\xc2\xa0\xc2\xa0\xc2\xa0Places</option>\n                  <option value="419" class="level-1">\xc2\xa0\xc2\xa0\xc2\xa0Random Stuff</option>\n                </select>\n                <script type="text/javascript">\n                  /* &lt;![CDATA[ */\n\tvar dropdown = document.getElementById(&quot;cat&quot;);\n\tfunction onCatChange() {\n\t\tif ( dropdown.options[dropdown.selectedIndex].value &gt; 0 ) {\n\t\t\tlocation.href = &quot;http://1000words1000days.com/?cat=&quot;+dropdown.options[dropdown.selectedIndex].value;\n\t\t}\n\t}\n\tdropdown.onchange = onCatChange;\n/* ]]&gt; */\n                </script>\n              </li>\n            </ul>\n          </div>\n          <div id="widget-box-3" class="footer-widget-box">\n            <ul>\n              <li class="widget">\n                <h2 class="widgettitle">Recent Posts</h2>\n                <ul>\n                  <li>\n                    <a title="Day 277: Humming A Tune Of Paraguay" href="http://1000words1000days.com/2012/10/day-277-humming-a-tune-of-paraguay/" shape="rect">Day 277: Humming A Tune Of Paraguay</a>\n                  </li>\n                  <li>\n                    <a title="Day 276: Mnany Mnemonics To Remnemnber" href="http://1000words1000days.com/2012/10/day-276-mnany-mnemonics-to-remnemnber/" shape="rect">Day 276: Mnany Mnemonics To Remnemnber</a>\n                  </li>\n                  <li>\n                    <a title="Day 275: Skimming The Crud \xe2\x80\x93 Worst Video Games Part 1" href="http://1000words1000days.com/2012/10/day-275-skimming-the-crud-worst-video-games-part-1/" shape="rect">Day 275: Skimming The Crud \xe2\x80\x93 Worst Video Games Part 1</a>\n                  </li>\n                  <li>\n                    <a title="Day 274: Slumming On Cinema\xe2\x80\x99s Poverty Row" href="http://1000words1000days.com/2012/09/day-274-slumming-on-cinemas-poverty-row/" shape="rect">Day 274: Slumming On Cinema\xe2\x80\x99s Poverty Row</a>\n                  </li>\n                  <li>\n                    <a title="Day 273: WUUW-FM Public Radio Presents \xe2\x80\x9cSaturday Clanking\xe2\x80\x9d" href="http://1000words1000days.com/2012/09/day-273-wuuw-fm-public-radio-presents-saturday-clanking/" shape="rect">Day 273: WUUW-FM Public Radio Presents \xe2\x80\x9cSaturday Clanking\xe2\x80\x9d</a>\n                  </li>\n                </ul>\n              </li>\n            </ul>\n          </div>\n        </div>\n      </div>\n      <div id="footer">\n        <div class="left">\n          \xc2\xa92012 Copyright by 1000 Words, 1000 Days\n          <br clear="none"></br>\n          All rights reserved\n        </div>\n        <div class="right">\n          <a target="_blank" title="Typominima WordPress Theme" href="http://blogsessive.com/blogging-tools/typominima-typography-minimal-wordpress-theme/" shape="rect">Typominima</a>\n          theme by\n          <a title="Blog design studio" target="_blank" href="http://qbkl.net" shape="rect">QBKL</a>\n          &amp;\n          <a title="Blog tips" target="_blank" href="http://blogsessive.com" shape="rect">Blogsessive</a>\n          <br clear="none"></br>\n          Built with\n          <a target="_blank" href="http://cufon.shoqolate.com/" shape="rect">Cuf\xc3\xb3n</a>\n          &amp;\n          <a target="_blank" href="http://www.fontsquirrel.com/fonts/TypoSlabserif-Light" shape="rect">TypoSlabserif</a>\n        </div>\n        <div class="clear"></div>\n      </div>\n    </div>\n    <script type="text/javascript">\n      var gaJsHost = ((&quot;https:&quot; == document.location.protocol) ? &quot;https://ssl.&quot; : &quot;http://www.&quot;);\ndocument.write(unescape(&quot;%3Cscript src=\'&quot; + gaJsHost + &quot;google-analytics.com/ga.js\' type=\'text/javascript\'%3E%3C/script%3E&quot;));\n    </script>\n    <script type="text/javascript"> try { var pageTracker = _gat._getTracker(&quot;UA-29077950-1&quot;); pageTracker._trackPageview(); } catch(err) {}</script>\n    <script src="http://s.gravatar.com/js/gprofiles.js?ver=2012Octaa" type="text/javascript"></script>\n    <script type="text/javascript"> /* &lt;![CDATA[ */ var WPGroHo = {&quot;my_hash&quot;:&quot;&quot;}; /* ]]&gt; */ </script>\n    <script src="http://1000words1000days.com/wp-content/plugins/jetpack/modules/wpgroho.js?ver=3.4.2" type="text/javascript"></script>\n    <div style="display:none"> </div>\n    <script type="text/javascript"> var addthis_config = {&quot;data_track_clickback&quot;:true,&quot;data_track_addressbar&quot;:false,&quot;data_track_textcopy&quot;:false,&quot;ui_atversion&quot;:&quot;300&quot;}; var addthis_product = \'wpp-2.5.1\'; </script>\n    <script src="//s7.addthis.com/js/300/addthis_widget.js#pubid=Marty" type="text/javascript"></script>\n    <script type="text/javascript"></script>\n    <script src="http://1000words1000days.com/wp-content/plugins/contact-form-7/includes/js/jquery.form.min.js?ver=3.15" type="text/javascript"></script>\n    <script type="text/javascript"> /* &lt;![CDATA[ */ var _wpcf7 = {&quot;loaderUrl&quot;:&quot;http:\\/\\/1000words1000days.com\\/wp-content\\/plugins\\/contact-form-7\\/images\\/ajax-loader.gif&quot;,&quot;sending&quot;:&quot;Sending ...&quot;,&quot;cached&quot;:&quot;1&quot;}; /* ]]&gt; */ </script>\n    <script src="http://1000words1000days.com/wp-content/plugins/contact-form-7/includes/js/scripts.js?ver=3.3" type="text/javascript"></script>\n    <script src="http://s0.wp.com/wp-content/js/devicepx-jetpack.js?ver=201240" type="text/javascript"></script>\n    <script type="text/javascript" src="http://stats.wordpress.com/e-201240.js"></script>\n    <script type="text/javascript"> st_go({v:\'ext\',j:\'1:1.8.1\',blog:\'27806462\',post:\'0\'}); var load_cmc = function(){linktracker_init(27806462,0,2);}; if ( typeof addLoadEvent != \'undefined\' ) addLoadEvent(load_cmc); else load_cmc(); </script>\n  </body>\n</html>'
p11
sbsS'mentions'
p12
(lp13
(iedu.umass.cs.iesl.wikilink.expanded.data.ttypes
Mention
p14
(dp15
S'anchor_text'
p16
S'telegrams'
p17
sS'context'
p18
(iedu.umass.cs.iesl.wikilink.expanded.data.ttypes
Context
p19
(dp20
S'middle'
p21
S'telegrams'
p22
sS'right'
p23
S'that did what ten thousand tweets about Snooki\xc3\xa2\xe2\x82\xac\xe2\x84\xa2s baby have yet to accomplish: basically, anything. In 1870, German Prince Leopold had been offered the Spanish'
p24
sS'left'
p25
S'that I didn\xc3\xa2\xe2\x82\xac\xe2\x84\xa2t mean it like an obvious come-on, a single act of communication could evoke a shit-storm of political poopery. These are the infamous'
p26
sbsS'freebase_id'
p27
NsS'raw_text_offset'
p28
I8327
sS'wiki_url'
p29
S'http://en.wikipedia.org/wiki/Category:Telegrams'
p30
sba(iedu.umass.cs.iesl.wikilink.expanded.data.ttypes
Mention
p31
(dp32
g16
S'Yoko Ono'
p33
sg18
(iedu.umass.cs.iesl.wikilink.expanded.data.ttypes
Context
p34
(dp35
g21
S'Yoko Ono'
p36
sg23
S'has been called many things: an artist, a philanthropist, the anti-Beatle, and several terms I don\xc3\xa2\xe2\x82\xac\xe2\x84\xa2t care to use in mixed company, unless I\xc3\xa2\xe2\x82\xac\xe2\x84\xa2m dealing'
p37
sg25
S'place, invented the Franco-Prussian War. That\xc3\xa2\xe2\x82\xac\xe2\x84\xa2s over 850,000 casualties because of one telegram. Read more\xe2\x80\xa6 Author name: Marty Discussion: No Comments Day 251: Yoko, Pre-John'
p38
sbsg27
S'9202a8c04000641f80000000034f06c6'
p39
sg28
I12154
sg29
S'http://en.wikipedia.org/wiki/Yoko_Ono'
p40
sba(iedu.umass.cs.iesl.wikilink.expanded.data.ttypes
Mention
p41
(dp42
g16
S'village of Sap'
p43
sg18
(iedu.umass.cs.iesl.wikilink.expanded.data.ttypes
Context
p44
(dp45
g21
S'village of Sap'
p46
sg23
S', tucked into the southwestern corner \xc3\xa2\xe2\x82\xac\xe2\x80\x9c the geographic anus, if you will \xc3\xa2\xe2\x82\xac\xe2\x80\x9c of Slovakia. Why bother to write about a village of 535'
p47
sg25
S'to spill a day\xc3\xa2\xe2\x82\xac\xe2\x84\xa2s worth of writing on a mostly uninteresting gaggle of a few hundred people. Except I totally am. Welcome to the tiny'
p48
sbsg27
S'9202a8c04000641f80000000046843d8'
p49
sg28
I16418
sg29
S'http://en.wikipedia.org/wiki/Sap_(village)'
p50
sba(iedu.umass.cs.iesl.wikilink.expanded.data.ttypes
Mention
p51
(dp52
g16
S'Ellef Ringnes Island'
p53
sg18
(iedu.umass.cs.iesl.wikilink.expanded.data.ttypes
Context
p54
(dp55
g21
S'Ellef Ringnes Island'
p56
sg23
S', located in the northwestern quadrant of that hideous near-dead tundra of the Canadian arctic. With over 4300 square miles of grey desolation, Ellef Ringnes'
p57
sg25
S'slab of land that almost nobody wants to visit and even the gods seem to hate. For this task Ms. Wiki has deserted me upon'
p58
sbsg27
S'9202a8c04000641f8000000000391aa8'
p59
sg28
I30270
sg29
S'http://en.wikipedia.org/wiki/Ellef_Ringnes_Island'
p60
sba(iedu.umass.cs.iesl.wikilink.expanded.data.ttypes
Mention
p61
(dp62
g16
S'Spandau Prison'
p63
sg18
(iedu.umass.cs.iesl.wikilink.expanded.data.ttypes
Context
p64
(dp65
g21
S'Spandau Prison'
p66
sg23
S', designed to hold up to 600 prisoners. It was a brick fortress, surrounded by a 15-foot wall, then a 30-foot wall, then a 10-foot'
p67
sg25
S'Author name: Marty Discussion: 2 Comments Day 108: This Much Is True \xe2\x80\x93 The Story Of Spandau Prison In 1876, the Germans completed construction on'
p68
sbsg27
S'9202a8c04000641f800000000011a7fa'
p69
sg28
I34793
sg29
S'http://en.wikipedia.org/wiki/Spandau_Prison'
p70
sbasS'doc_id'
p71
I1132
sS'rare_words'
p72
(lp73
(iedu.umass.cs.iesl.wikilink.expanded.data.ttypes
RareWord
p74
(dp75
S'word'
p76
S'dots'
p77
sS'offset'
p78
I7990
sba(iedu.umass.cs.iesl.wikilink.expanded.data.ttypes
RareWord
p79
(dp80
g76
S'exploits'
p81
sg78
I13385
sba(iedu.umass.cs.iesl.wikilink.expanded.data.ttypes
RareWord
p82
(dp83
g76
S'visit'
p84
sg78
I30112
sba(iedu.umass.cs.iesl.wikilink.expanded.data.ttypes
RareWord
p85
(dp86
g76
S'joined'
p87
sg78
I27444
sba(iedu.umass.cs.iesl.wikilink.expanded.data.ttypes
RareWord
p88
(dp89
g76
S'Prussian'
p90
sg78
I9570
sba(iedu.umass.cs.iesl.wikilink.expanded.data.ttypes
RareWord
p91
(dp92
g76
S'softball'
p93
sg78
I20846
sba(iedu.umass.cs.iesl.wikilink.expanded.data.ttypes
RareWord
p94
(dp95
g76
S'tiny'
p96
sg78
I16360
sba(iedu.umass.cs.iesl.wikilink.expanded.data.ttypes
RareWord
p97
(dp98
g76
S'spotted'
p99
sg78
I30963
sba(iedu.umass.cs.iesl.wikilink.expanded.data.ttypes
RareWord
p100
(dp101
g76
S'happy'
p102
sg78
I20768
sba(iedu.umass.cs.iesl.wikilink.expanded.data.ttypes
RareWord
p103
(dp104
g76
S'enclosure'
p105
sg78
I20563
sbasb.