(iedu.umass.cs.iesl.wikilink.expanded.data.ttypes
WikiLinkItem
p0
(dp1
S'url'
p2
S'http://adventuresinvanna.blogspot.com/2011/08/and-were-off-its-long-one.html'
p3
sS'content'
p4
(iedu.umass.cs.iesl.wikilink.expanded.data.ttypes
PageContentItem
p5
(dp6
S'articleText'
p7
NsS'raw'
p8
NsS'fullText'
p9
NsS'dom'
p10
S'<html b:version="2" dir="ltr" class="v2">\n  <head>\n    <meta content="IE=EmulateIE7" http-equiv="X-UA-Compatible"></meta>\n    <meta content="width=1100" name="viewport"></meta>\n    <meta content="text/html; charset=UTF-8" http-equiv="Content-Type"></meta>\n    <script type="text/javascript">\n      (function() { var a=window,b=&quot;jstiming&quot;,d=&quot;tick&quot;;var e=function(c){this.t={};this.tick=function(c,p,h){h=void 0!=h?h:(new Date).getTime();this.t[c]=[h,p]};this[d](&quot;start&quot;,null,c)},f=new e;a.jstiming={Timer:e,load:f};if(a.performance&amp;&amp;a.performance.timing){var g=a.performance.timing,j=a[b].load,k=g.navigationStart,l=g.responseStart;0&lt;k&amp;&amp;l&gt;=k&amp;&amp;(j[d](&quot;_wtsrt&quot;,void 0,k),j[d](&quot;wtsrt_&quot;,&quot;_wtsrt&quot;,l),j[d](&quot;tbsd_&quot;,&quot;wtsrt_&quot;))}\ntry{var m=null;a.chrome&amp;&amp;a.chrome.csi&amp;&amp;(m=Math.floor(a.chrome.csi().pageT),j&amp;&amp;0&lt;k&amp;&amp;(j[d](&quot;_tbnd&quot;,void 0,a.chrome.csi().startE),j[d](&quot;tbnd_&quot;,&quot;_tbnd&quot;,k)));null==m&amp;&amp;a.gtbExternal&amp;&amp;(m=a.gtbExternal.pageT());null==m&amp;&amp;a.external&amp;&amp;(m=a.external.pageT,j&amp;&amp;0&lt;k&amp;&amp;(j[d](&quot;_tbnd&quot;,void 0,a.external.startE),j[d](&quot;tbnd_&quot;,&quot;_tbnd&quot;,k)));m&amp;&amp;(a[b].pt=m)}catch(n){};a.tickAboveFold=function(c){var i=0;if(c.offsetParent){do i+=c.offsetTop;while(c=c.offsetParent)}c=i;750&gt;=c&amp;&amp;a[b].load[d](&quot;aft&quot;)};var q=!1;function r(){q||(q=!0,a[b].load[d](&quot;firstScrollTime&quot;))}a.addEventListener?a.addEventListener(&quot;scroll&quot;,r,!1):a.attachEvent(&quot;onscroll&quot;,r);\n })();\n    </script>\n    <meta content="true" name="MSSmartTagsPreventParsing"></meta>\n    <meta content="blogger" name="generator"></meta>\n    <link type="image/x-icon" rel="icon" href="http://adventuresinvanna.blogspot.com/favicon.ico"></link>\n    <link rel="canonical" href="http://adventuresinvanna.blogspot.com/2011/08/and-were-off-its-long-one.html"></link>\n    <link href="http://adventuresinvanna.blogspot.com/feeds/posts/default" title="Adventures with Vanna Beige - Atom" type="application/atom+xml" rel="alternate"></link>\n    <link href="http://adventuresinvanna.blogspot.com/feeds/posts/default?alt=rss" title="Adventures with Vanna Beige - RSS" type="application/rss+xml" rel="alternate"></link>\n    <link href="http://www.blogger.com/feeds/7084047803873092694/posts/default" title="Adventures with Vanna Beige - Atom" type="application/atom+xml" rel="service.post"></link>\n    <link href="http://www.blogger.com/rsd.g?blogID=7084047803873092694" title="RSD" type="application/rsd+xml" rel="EditURI"></link>\n    <link href="http://adventuresinvanna.blogspot.com/feeds/5829421200030358541/comments/default" title="Adventures with Vanna Beige - Atom" type="application/atom+xml" rel="alternate"></link>\n    <link href="http://4.bp.blogspot.com/-QgI2wPnFceA/TkPic2qFPTI/AAAAAAAAAAs/hrBD47MiPvE/s72-c/IMG_0773.JPG" rel="image_src"></link>\n    <title>Adventures with Vanna Beige: And we\'re off! It\'s a long one!</title>\n    <link href="//www.blogger.com/static/v1/widgets/4219271310-widget_css_2_bundle.css" rel="stylesheet" type="text/css"></link>\n    <link href="//www.blogger.com/dyn-css/authorization.css?targetBlogID=7084047803873092694&amp;zx=515a96c8-cd44-4eb3-abf2-1d62432b7d34" rel="stylesheet" type="text/css"></link>\n    <style type="text/css" id="page-skin-1">\n      &lt;!--\n/*\n-----------------------------------------------\nBlogger Template Style\nName:     Watermark\nDesigner: Josh Peterson\nURL:      www.noaesthetic.com\n----------------------------------------------- */\n/* Variable definitions\n====================\n&lt;Variable name=&quot;keycolor&quot; description=&quot;Main Color&quot; type=&quot;color&quot; default=&quot;#c0a154&quot;/&gt;\n&lt;Group description=&quot;Page Text&quot; selector=&quot;body&quot;&gt;\n&lt;Variable name=&quot;body.font&quot; description=&quot;Font&quot; type=&quot;font&quot;\ndefault=&quot;normal normal 14px Arial, Tahoma, Helvetica, FreeSans, sans-serif&quot;/&gt;\n&lt;Variable name=&quot;body.text.color&quot; description=&quot;Text Color&quot; type=&quot;color&quot; default=&quot;#333333&quot;/&gt;\n&lt;/Group&gt;\n&lt;Group description=&quot;Backgrounds&quot; selector=&quot;.main-inner&quot;&gt;\n&lt;Variable name=&quot;body.background.color&quot; description=&quot;Outer Background&quot; type=&quot;color&quot; default=&quot;#c0a154&quot;/&gt;\n&lt;Variable name=&quot;footer.background.color&quot; description=&quot;Footer Background&quot; type=&quot;color&quot; default=&quot;transparent&quot;/&gt;\n&lt;/Group&gt;\n&lt;Group description=&quot;Links&quot; selector=&quot;.main-inner&quot;&gt;\n&lt;Variable name=&quot;link.color&quot; description=&quot;Link Color&quot; type=&quot;color&quot; default=&quot;#cc3300&quot;/&gt;\n&lt;Variable name=&quot;link.visited.color&quot; description=&quot;Visited Color&quot; type=&quot;color&quot; default=&quot;#993322&quot;/&gt;\n&lt;Variable name=&quot;link.hover.color&quot; description=&quot;Hover Color&quot; type=&quot;color&quot; default=&quot;#ff3300&quot;/&gt;\n&lt;/Group&gt;\n&lt;Group description=&quot;Blog Title&quot; selector=&quot;.header h1&quot;&gt;\n&lt;Variable name=&quot;header.font&quot; description=&quot;Title Font&quot; type=&quot;font&quot;\ndefault=&quot;normal normal 60px Georgia, Utopia, \'Palatino Linotype\', Palatino, serif&quot;/&gt;\n&lt;Variable name=&quot;header.text.color&quot; description=&quot;Title Color&quot; type=&quot;color&quot; default=&quot;#ffffff&quot; /&gt;\n&lt;/Group&gt;\n&lt;Group description=&quot;Blog Description&quot; selector=&quot;.header .description&quot;&gt;\n&lt;Variable name=&quot;description.text.color&quot; description=&quot;Description Color&quot; type=&quot;color&quot;\ndefault=&quot;#997755&quot; /&gt;\n&lt;/Group&gt;\n&lt;Group description=&quot;Tabs Text&quot; selector=&quot;.tabs-inner .widget li a&quot;&gt;\n&lt;Variable name=&quot;tabs.font&quot; description=&quot;Font&quot; type=&quot;font&quot;\ndefault=&quot;normal normal 20px Georgia, Utopia, \'Palatino Linotype\', Palatino, serif&quot;/&gt;\n&lt;Variable name=&quot;tabs.text.color&quot; description=&quot;Text Color&quot; type=&quot;color&quot; default=&quot;#77aaff&quot;/&gt;\n&lt;Variable name=&quot;tabs.selected.text.color&quot; description=&quot;Selected Color&quot; type=&quot;color&quot; default=&quot;#000000&quot;/&gt;\n&lt;/Group&gt;\n&lt;Group description=&quot;Tabs Background&quot; selector=&quot;.tabs-outer .PageList&quot;&gt;\n&lt;Variable name=&quot;tabs.background.color&quot; description=&quot;Background Color&quot; type=&quot;color&quot; default=&quot;transparent&quot;/&gt;\n&lt;Variable name=&quot;tabs.separator.color&quot; description=&quot;Separator Color&quot; type=&quot;color&quot; default=&quot;#002f44&quot;/&gt;\n&lt;/Group&gt;\n&lt;Group description=&quot;Date Header&quot; selector=&quot;h2.date-header&quot;&gt;\n&lt;Variable name=&quot;date.font&quot; description=&quot;Font&quot; type=&quot;font&quot;\ndefault=&quot;normal normal 16px Arial, Tahoma, Helvetica, FreeSans, sans-serif&quot;/&gt;\n&lt;Variable name=&quot;date.text.color&quot; description=&quot;Text Color&quot; type=&quot;color&quot; default=&quot;#997755&quot;/&gt;\n&lt;/Group&gt;\n&lt;Group description=&quot;Post&quot; selector=&quot;h3.post-title, .comments h4&quot;&gt;\n&lt;Variable name=&quot;post.title.font&quot; description=&quot;Title Font&quot; type=&quot;font&quot;\ndefault=&quot;normal normal 30px Georgia, Utopia, \'Palatino Linotype\', Palatino, serif&quot;/&gt;\n&lt;Variable name=&quot;post.background.color&quot; description=&quot;Background Color&quot; type=&quot;color&quot; default=&quot;transparent&quot;/&gt;\n&lt;Variable name=&quot;post.border.color&quot; description=&quot;Border Color&quot; type=&quot;color&quot; default=&quot;#ccbb99&quot; /&gt;\n&lt;/Group&gt;\n&lt;Group description=&quot;Post Footer&quot; selector=&quot;.post-footer&quot;&gt;\n&lt;Variable name=&quot;post.footer.text.color&quot; description=&quot;Text Color&quot; type=&quot;color&quot; default=&quot;#997755&quot;/&gt;\n&lt;/Group&gt;\n&lt;Group description=&quot;Gadgets&quot; selector=&quot;h2&quot;&gt;\n&lt;Variable name=&quot;widget.title.font&quot; description=&quot;Title Font&quot; type=&quot;font&quot;\ndefault=&quot;normal normal 20px Georgia, Utopia, \'Palatino Linotype\', Palatino, serif&quot;/&gt;\n&lt;Variable name=&quot;widget.title.text.color&quot; description=&quot;Title Color&quot; type=&quot;color&quot; default=&quot;#000000&quot;/&gt;\n&lt;Variable name=&quot;widget.alternate.text.color&quot; description=&quot;Alternate Color&quot; type=&quot;color&quot; default=&quot;#777777&quot;/&gt;\n&lt;/Group&gt;\n&lt;Group description=&quot;Footer&quot; selector=&quot;.footer-inner&quot;&gt;\n&lt;Variable name=&quot;footer.text.color&quot; description=&quot;Text Color&quot; type=&quot;color&quot; default=&quot;#ddeeff&quot;/&gt;\n&lt;Variable name=&quot;footer.widget.title.text.color&quot; description=&quot;Gadget Title Color&quot; type=&quot;color&quot; default=&quot;#ffffff&quot;/&gt;\n&lt;/Group&gt;\n&lt;Group description=&quot;Footer Links&quot; selector=&quot;.footer-inner&quot;&gt;\n&lt;Variable name=&quot;footer.link.color&quot; description=&quot;Link Color&quot; type=&quot;color&quot; default=&quot;#77aaff&quot;/&gt;\n&lt;Variable name=&quot;footer.link.visited.color&quot; description=&quot;Visited Color&quot; type=&quot;color&quot; default=&quot;#66ddff&quot;/&gt;\n&lt;Variable name=&quot;footer.link.hover.color&quot; description=&quot;Hover Color&quot; type=&quot;color&quot; default=&quot;#ccddff&quot;/&gt;\n&lt;/Group&gt;\n&lt;Variable name=&quot;body.background&quot; description=&quot;Body Background&quot; type=&quot;background&quot;\ncolor=&quot;#002f44&quot; default=&quot;$(color) url(//www.blogblog.com/1kt/watermark/body_background_birds.png) repeat scroll top left&quot;/&gt;\n&lt;Variable name=&quot;body.background.overlay&quot; description=&quot;Overlay Background&quot; type=&quot;background&quot; color=&quot;#002f44&quot;\ndefault=&quot;transparent url(//www.blogblog.com/1kt/watermark/body_overlay_birds.png) no-repeat scroll top right&quot;/&gt;\n&lt;Variable name=&quot;body.background.overlay.height&quot; description=&quot;Overlay Background Height&quot; type=&quot;length&quot; default=&quot;121px&quot;/&gt;\n&lt;Variable name=&quot;tabs.background.inner&quot; description=&quot;Tabs Background Inner&quot; type=&quot;url&quot; default=&quot;none&quot;/&gt;\n&lt;Variable name=&quot;tabs.background.outer&quot; description=&quot;Tabs Background Outer&quot; type=&quot;url&quot; default=&quot;none&quot;/&gt;\n&lt;Variable name=&quot;tabs.border.size&quot; description=&quot;Tabs Border Size&quot; type=&quot;length&quot; default=&quot;0&quot;/&gt;\n&lt;Variable name=&quot;tabs.shadow.spread&quot; description=&quot;Tabs Shadow Spread&quot; type=&quot;length&quot; default=&quot;0&quot;/&gt;\n&lt;Variable name=&quot;main.padding.top&quot; description=&quot;Main Padding Top&quot; type=&quot;length&quot; default=&quot;30px&quot;/&gt;\n&lt;Variable name=&quot;main.cap.height&quot; description=&quot;Main Cap Height&quot; type=&quot;length&quot; default=&quot;0&quot;/&gt;\n&lt;Variable name=&quot;main.cap.image&quot; description=&quot;Main Cap Image&quot; type=&quot;url&quot; default=&quot;none&quot;/&gt;\n&lt;Variable name=&quot;main.cap.overlay&quot; description=&quot;Main Cap Overlay&quot; type=&quot;url&quot; default=&quot;none&quot;/&gt;\n&lt;Variable name=&quot;main.background&quot; description=&quot;Main Background&quot; type=&quot;background&quot;\ndefault=&quot;transparent none no-repeat scroll top left&quot;/&gt;\n&lt;Variable name=&quot;post.background.url&quot; description=&quot;Post Background URL&quot; type=&quot;url&quot;\ndefault=&quot;url(//www.blogblog.com/1kt/watermark/post_background_birds.png)&quot;/&gt;\n&lt;Variable name=&quot;post.border.size&quot; description=&quot;Post Border Size&quot; type=&quot;length&quot; default=&quot;1px&quot;/&gt;\n&lt;Variable name=&quot;post.border.style&quot; description=&quot;Post Border Style&quot; type=&quot;string&quot; default=&quot;dotted&quot;/&gt;\n&lt;Variable name=&quot;post.shadow.spread&quot; description=&quot;Post Shadow Spread&quot; type=&quot;length&quot; default=&quot;0&quot;/&gt;\n&lt;Variable name=&quot;footer.background&quot; description=&quot;Footer Background&quot; type=&quot;background&quot;\ncolor=&quot;#001111&quot; default=&quot;$(color) url(//www.blogblog.com/1kt/watermark/body_background_navigator.png) repeat scroll top left&quot;/&gt;\n&lt;Variable name=&quot;mobile.background.overlay&quot; description=&quot;Mobile Background Overlay&quot; type=&quot;string&quot;\ndefault=&quot;transparent none repeat scroll top left&quot;/&gt;\n&lt;Variable name=&quot;startSide&quot; description=&quot;Side where text starts in blog language&quot; type=&quot;automatic&quot; default=&quot;left&quot;/&gt;\n&lt;Variable name=&quot;endSide&quot; description=&quot;Side where text ends in blog language&quot; type=&quot;automatic&quot; default=&quot;right&quot;/&gt;\n*/\n/* Use this with templates/1ktemplate-*.html */\n/* Content\n----------------------------------------------- */\nbody {\nfont: normal normal 14px Arial, Tahoma, Helvetica, FreeSans, sans-serif;\ncolor: #ddeeff;\nbackground: #002f44 url(http://www.blogblog.com/1kt/watermark/body_background_navigator.png) repeat scroll top left;\n}\nhtml body .content-outer {\nmin-width: 0;\nmax-width: 100%;\nwidth: 100%;\n}\n.content-outer {\nfont-size: 92%;\n}\na:link {\ntext-decoration:none;\ncolor: #77aaff;\n}\na:visited {\ntext-decoration:none;\ncolor: #66ddff;\n}\na:hover {\ntext-decoration:underline;\ncolor: #ccddff;\n}\n.body-fauxcolumns .cap-top {\nmargin-top: 30px;\nbackground: transparent url(http://www.blogblog.com/1kt/watermark/body_overlay_navigator.png) no-repeat scroll top center;\nheight: 256px;\n}\n.content-inner {\npadding: 0;\n}\n/* Header\n----------------------------------------------- */\n.header-inner .Header .titlewrapper,\n.header-inner .Header .descriptionwrapper {\npadding-left: 20px;\npadding-right: 20px;\n}\n.Header h1 {\nfont: normal normal 60px Georgia, Utopia, \'Palatino Linotype\', Palatino, serif;\ncolor: #ffffff;\ntext-shadow: 2px 2px rgba(0, 0, 0, .1);\n}\n.Header h1 a {\ncolor: #ffffff;\n}\n.Header .description {\nfont-size: 140%;\ncolor: #8899aa;\n}\n/* Tabs\n----------------------------------------------- */\n.tabs-inner .section {\nmargin: 0 20px;\n}\n.tabs-inner .PageList, .tabs-inner .LinkList, .tabs-inner .Labels {\nmargin-left: -11px;\nmargin-right: -11px;\nbackground-color: transparent;\nborder-top: 0 solid #ffffff;\nborder-bottom: 0 solid #ffffff;\n-moz-box-shadow: 0 0 0 rgba(0, 0, 0, .3);\n-webkit-box-shadow: 0 0 0 rgba(0, 0, 0, .3);\n-goog-ms-box-shadow: 0 0 0 rgba(0, 0, 0, .3);\nbox-shadow: 0 0 0 rgba(0, 0, 0, .3);\n}\n.tabs-inner .PageList .widget-content,\n.tabs-inner .LinkList .widget-content,\n.tabs-inner .Labels .widget-content {\nmargin: -3px -11px;\nbackground: transparent none  no-repeat scroll right;\n}\n.tabs-inner .widget ul {\npadding: 2px 25px;\nmax-height: 34px;\nbackground: transparent none no-repeat scroll left;\n}\n.tabs-inner .widget li {\nborder: none;\n}\n.tabs-inner .widget li a {\ndisplay: inline-block;\npadding: .25em 1em;\nfont: normal normal 20px Georgia, Utopia, \'Palatino Linotype\', Palatino, serif;\ncolor: #77aaff;\nborder-right: 1px solid #556677;\n}\n.tabs-inner .widget li:first-child a {\nborder-left: 1px solid #556677;\n}\n.tabs-inner .widget li.selected a, .tabs-inner .widget li a:hover {\ncolor: #ffffff;\n}\n/* Headings\n----------------------------------------------- */\nh2 {\nfont: normal normal 20px Georgia, Utopia, \'Palatino Linotype\', Palatino, serif;\ncolor: #ffffff;\nmargin: 0 0 .5em;\n}\nh2.date-header {\nfont: normal normal 16px Arial, Tahoma, Helvetica, FreeSans, sans-serif;\ncolor: #8899aa;\n}\n/* Main\n----------------------------------------------- */\n.main-inner .column-center-inner,\n.main-inner .column-left-inner,\n.main-inner .column-right-inner {\npadding: 0 5px;\n}\n.main-outer {\nmargin-top: 0;\nbackground: transparent none no-repeat scroll top left;\n}\n.main-inner {\npadding-top: 30px;\n}\n.main-cap-top {\nposition: relative;\n}\n.main-cap-top .cap-right {\nposition: absolute;\nheight: 0;\nwidth: 100%;\nbottom: 0;\nbackground: transparent none repeat-x scroll bottom center;\n}\n.main-cap-top .cap-left {\nposition: absolute;\nheight: 245px;\nwidth: 280px;\nright: 0;\nbottom: 0;\nbackground: transparent none no-repeat scroll bottom left;\n}\n/* Posts\n----------------------------------------------- */\n.post-outer {\npadding: 15px 20px;\nmargin: 0 0 25px;\nbackground: transparent url(http://www.blogblog.com/1kt/watermark/post_background_navigator.png) repeat scroll top left;\n_background-image: none;\nborder: dotted 1px #112233;\n-moz-box-shadow: 0 0 0 rgba(0, 0, 0, .1);\n-webkit-box-shadow: 0 0 0 rgba(0, 0, 0, .1);\n-goog-ms-box-shadow: 0 0 0 rgba(0, 0, 0, .1);\nbox-shadow: 0 0 0 rgba(0, 0, 0, .1);\n}\nh3.post-title {\nfont: normal normal 30px Georgia, Utopia, \'Palatino Linotype\', Palatino, serif;\nmargin: 0;\n}\n.comments h4 {\nfont: normal normal 30px Georgia, Utopia, \'Palatino Linotype\', Palatino, serif;\nmargin: 1em 0 0;\n}\n.post-body {\nfont-size: 105%;\nline-height: 1.5;\nposition: relative;\n}\n.post-header {\nmargin: 0 0 1em;\ncolor: #8899aa;\n}\n.post-footer {\nmargin: 10px 0 0;\npadding: 10px 0 0;\ncolor: #8899aa;\nborder-top: dashed 1px #778899;\n}\n#blog-pager {\nfont-size: 140%\n}\n#comments .comment-author {\npadding-top: 1.5em;\nborder-top: dashed 1px #778899;\nbackground-position: 0 1.5em;\n}\n#comments .comment-author:first-child {\npadding-top: 0;\nborder-top: none;\n}\n.avatar-image-container {\nmargin: .2em 0 0;\n}\n/* Comments\n----------------------------------------------- */\n.comments .comments-content .icon.blog-author {\nbackground-repeat: no-repeat;\nbackground-image: url(data:image/png;base64,iVBORw0KGgoAAAANSUhEUgAAABIAAAASCAYAAABWzo5XAAAAAXNSR0IArs4c6QAAAAZiS0dEAP8A/wD/oL2nkwAAAAlwSFlzAAALEgAACxIB0t1+/AAAAAd0SU1FB9sLFwMeCjjhcOMAAAD+SURBVDjLtZSvTgNBEIe/WRRnm3U8RC1neQdsm1zSBIU9VVF1FkUguQQsD9ITmD7ECZIJSE4OZo9stoVjC/zc7ky+zH9hXwVwDpTAWWLrgS3QAe8AZgaAJI5zYAmc8r0G4AHYHQKVwII8PZrZFsBFkeRCABYiMh9BRUhnSkPTNCtVXYXURi1FpBDgArj8QU1eVXUzfnjv7yP7kwu1mYrkWlU33vs1QNu2qU8pwN0UpKoqokjWwCztrMuBhEhmh8bD5UDqur75asbcX0BGUB9/HAMB+r32hznJgXy2v0sGLBcyAJ1EK3LFcbo1s91JeLwAbwGYu7TP/3ZGfnXYPgAVNngtqatUNgAAAABJRU5ErkJggg==);\n}\n.comments .comments-content .loadmore a {\nborder-top: 1px solid #778899;\nborder-bottom: 1px solid #778899;\n}\n.comments .continue {\nborder-top: 2px solid #778899;\n}\n/* Widgets\n----------------------------------------------- */\n.widget ul, .widget #ArchiveList ul.flat {\npadding: 0;\nlist-style: none;\n}\n.widget ul li, .widget #ArchiveList ul.flat li {\npadding: .35em 0;\ntext-indent: 0;\nborder-top: dashed 1px #778899;\n}\n.widget ul li:first-child, .widget #ArchiveList ul.flat li:first-child {\nborder-top: none;\n}\n.widget .post-body ul {\nlist-style: disc;\n}\n.widget .post-body ul li {\nborder: none;\n}\n.widget .zippy {\ncolor: #778899;\n}\n.post-body img, .post-body .tr-caption-container, .Profile img, .Image img,\n.BlogList .item-thumbnail img {\npadding: 5px;\nbackground: #fff;\n-moz-box-shadow: 1px 1px 5px rgba(0, 0, 0, .5);\n-webkit-box-shadow: 1px 1px 5px rgba(0, 0, 0, .5);\n-goog-ms-box-shadow: 1px 1px 5px rgba(0, 0, 0, .5);\nbox-shadow: 1px 1px 5px rgba(0, 0, 0, .5);\n}\n.post-body img, .post-body .tr-caption-container {\npadding: 8px;\n}\n.post-body .tr-caption-container {\ncolor: #333333;\n}\n.post-body .tr-caption-container img {\npadding: 0;\nbackground: transparent;\nborder: none;\n-moz-box-shadow: 0 0 0 rgba(0, 0, 0, .1);\n-webkit-box-shadow: 0 0 0 rgba(0, 0, 0, .1);\n-goog-ms-box-shadow: 0 0 0 rgba(0, 0, 0, .1);\nbox-shadow: 0 0 0 rgba(0, 0, 0, .1);\n}\n/* Footer\n----------------------------------------------- */\n.footer-outer {\ncolor:#ddeeff;\nbackground: #001111 url(//www.blogblog.com/1kt/watermark/body_background_navigator.png) repeat scroll top left;\n}\n.footer-outer a {\ncolor: #77aaff;\n}\n.footer-outer a:visited {\ncolor: #66ddff;\n}\n.footer-outer a:hover {\ncolor: #ccddff;\n}\n.footer-outer .widget h2 {\ncolor: #ffffff;\n}\n/* Mobile\n----------------------------------------------- */\nbody.mobile  {\nbackground-size: 100% auto;\n}\n.mobile .body-fauxcolumn-outer {\nbackground: transparent none repeat scroll top left;\n}\nhtml .mobile .mobile-date-outer {\nborder-bottom: none;\nbackground: transparent url(http://www.blogblog.com/1kt/watermark/post_background_navigator.png) repeat scroll top left;\n_background-image: none;\nmargin-bottom: 10px;\n}\n.mobile .main-cap-top {\nz-index: -1;\n}\n.mobile .content-outer {\nfont-size: 100%;\n}\n.mobile .post-outer {\npadding: 10px;\n}\n.mobile .main-cap-top .cap-left {\nbackground: transparent none no-repeat scroll bottom left;\n}\n.mobile .body-fauxcolumns .cap-top {\nmargin: 0;\n}\n.mobile-link-button {\nbackground: transparent url(http://www.blogblog.com/1kt/watermark/post_background_navigator.png) repeat scroll top left;\n}\n.mobile-link-button a:link, .mobile-link-button a:visited {\ncolor: #77aaff;\n}\n.mobile-index-date .date-header {\ncolor: #8899aa;\n}\n.mobile-index-contents {\ncolor: #ddeeff;\n}\n.mobile .tabs-inner .section {\nmargin: 0;\n}\n.mobile .tabs-inner .PageList {\nmargin-left: 0;\nmargin-right: 0;\n}\n.mobile .tabs-inner .PageList .widget-content {\nmargin: 0;\ncolor: #ffffff;\nbackground: transparent url(http://www.blogblog.com/1kt/watermark/post_background_navigator.png) repeat scroll top left;\n}\n.mobile .tabs-inner .PageList .widget-content .pagelist-arrow {\nborder-left: 1px solid #556677;\n}\n\n--&gt;\n    </style>\n    <style type="text/css" id="template-skin-1">\n      &lt;!--\nbody {\nmin-width: 860px;\n}\n.content-outer, .content-fauxcolumn-outer, .region-inner {\nmin-width: 860px;\nmax-width: 860px;\n_width: 860px;\n}\n.main-inner .columns {\npadding-left: 0px;\npadding-right: 260px;\n}\n.main-inner .fauxcolumn-center-outer {\nleft: 0px;\nright: 260px;\n/* IE6 does not respect left and right together */\n_width: expression(this.parentNode.offsetWidth -\nparseInt(&quot;0px&quot;) -\nparseInt(&quot;260px&quot;) + \'px\');\n}\n.main-inner .fauxcolumn-left-outer {\nwidth: 0px;\n}\n.main-inner .fauxcolumn-right-outer {\nwidth: 260px;\n}\n.main-inner .column-left-outer {\nwidth: 0px;\nright: 100%;\nmargin-left: -0px;\n}\n.main-inner .column-right-outer {\nwidth: 260px;\nmargin-right: -260px;\n}\n#layout {\nmin-width: 0;\n}\n#layout .content-outer {\nmin-width: 0;\nwidth: 800px;\n}\n#layout .region-inner {\nmin-width: 0;\nwidth: auto;\n}\n--&gt;\n    </style>\n    <script type="text/javascript">\n      var a=navigator,b=&quot;userAgent&quot;,c=&quot;indexOf&quot;,f=&quot;&amp;m=1&quot;,g=&quot;(^|&amp;)m=&quot;,h=&quot;?&quot;,i=&quot;?m=1&quot;;function j(){var d=window.location.href,e=d.split(h);switch(e.length){case 1:return d+i;case 2:return 0&lt;=e[1].search(g)?null:d+f;default:return null}}if(-1!=a[b][c](&quot;Mobile&quot;)&amp;&amp;-1!=a[b][c](&quot;WebKit&quot;)&amp;&amp;-1==a[b][c](&quot;iPad&quot;)||-1!=a[b][c](&quot;Opera Mini&quot;)||-1!=a[b][c](&quot;IEMobile&quot;)){var k=j();k&amp;&amp;window.location.replace(k)};\n    </script>\n    <script type="text/javascript"> if (window.jstiming) window.jstiming.load.tick(\'headEnd\'); </script>\n  </head>\n  <body class="loading">\n    <div id="navbar" class="navbar section">\n      <div id="Navbar1" class="widget Navbar">\n        <script type="text/javascript"> function setAttributeOnload(object, attribute, val) { if(window.addEventListener) { window.addEventListener(\'load\', function(){ object[attribute] = val; }, false); } else { window.attachEvent(\'onload\', function(){ object[attribute] = val; }); } } </script>\n        <div id="navbar-iframe-container"></div>\n        <script src="https://apis.google.com/js/plusone.js" type="text/javascript"></script>\n        <script type="text/javascript">\n          gapi.load(&quot;iframes-styles-bubble&quot;, function() {\n          if (window.iframes &amp;&amp; iframes.open) {\n            iframes.open(\n                \'//www.blogger.com/navbar.g?targetBlogID\\0757084047803873092694\\46blogName\\75Adventures+with+Vanna+Beige\\46publishMode\\75PUBLISH_MODE_BLOGSPOT\\46navbarType\\75BLUE\\46layoutType\\75LAYOUTS\\46searchRoot\\75http://adventuresinvanna.blogspot.com/search\\46blogLocale\\75en_GB\\46v\\0752\\46homepageUrl\\75http://adventuresinvanna.blogspot.com/\\46targetPostID\\0755829421200030358541\\46blogPostOrPageUrl\\75http://adventuresinvanna.blogspot.com/2011/08/and-were-off-its-long-one.html\\46vt\\075612574636784534501\',\n                {\n                  container: &quot;navbar-iframe-container&quot;,\n                  id: &quot;navbar-iframe&quot;\n                },\n                {\n                });\n          }\n        });\n        </script>\n        <script type="text/javascript">\n          (function() {\nvar script = document.createElement(\'script\');\nscript.type = \'text/javascript\';\nscript.src = \'//pagead2.googlesyndication.com/pagead/js/google_top_exp.js\';\nvar head = document.getElementsByTagName(\'head\')[0];\nif (head) {\nhead.appendChild(script);\n}})();\n        </script>\n      </div>\n    </div>\n    <div class="body-fauxcolumns">\n      <div class="fauxcolumn-outer body-fauxcolumn-outer">\n        <div class="cap-top">\n          <div class="cap-left"></div>\n          <div class="cap-right"></div>\n        </div>\n        <div class="fauxborder-left">\n          <div class="fauxborder-right"></div>\n          <div class="fauxcolumn-inner"> </div>\n        </div>\n        <div class="cap-bottom">\n          <div class="cap-left"></div>\n          <div class="cap-right"></div>\n        </div>\n      </div>\n    </div>\n    <div class="content">\n      <div class="content-fauxcolumns">\n        <div class="fauxcolumn-outer content-fauxcolumn-outer">\n          <div class="cap-top">\n            <div class="cap-left"></div>\n            <div class="cap-right"></div>\n          </div>\n          <div class="fauxborder-left">\n            <div class="fauxborder-right"></div>\n            <div class="fauxcolumn-inner"> </div>\n          </div>\n          <div class="cap-bottom">\n            <div class="cap-left"></div>\n            <div class="cap-right"></div>\n          </div>\n        </div>\n      </div>\n      <div class="content-outer">\n        <div class="content-cap-top cap-top">\n          <div class="cap-left"></div>\n          <div class="cap-right"></div>\n        </div>\n        <div class="fauxborder-left content-fauxborder-left">\n          <div class="fauxborder-right content-fauxborder-right"></div>\n          <div class="content-inner">\n            <header>\n              <div class="header-outer">\n                <div class="header-cap-top cap-top">\n                  <div class="cap-left"></div>\n                  <div class="cap-right"></div>\n                </div>\n                <div class="fauxborder-left header-fauxborder-left">\n                  <div class="fauxborder-right header-fauxborder-right"></div>\n                  <div class="region-inner header-inner">\n                    <div id="header" class="header section">\n                      <div id="Header1" class="widget Header">\n                        <div id="header-inner">\n                          <a style="display: block" href="http://adventuresinvanna.blogspot.com/" shape="rect">\n                            <img width="600px; " style="display: block" src="http://2.bp.blogspot.com/-AQDxH0rVyLs/TjN319LpFXI/AAAAAAAAAAQ/LQNy1b_Zj9I/s1600/IMG_0814.JPG" height="600px; " alt="Adventures with Vanna Beige" id="Header1_headerimg"></img>\n                          </a>\n                          <div class="descriptionwrapper">\n                            <p class="description">\n                              <span>We bought a \'77 Dodge Sportsman Van. We fixed her up and she\'s taking us places.</span>\n                            </p>\n                          </div>\n                        </div>\n                      </div>\n                    </div>\n                  </div>\n                </div>\n                <div class="header-cap-bottom cap-bottom">\n                  <div class="cap-left"></div>\n                  <div class="cap-right"></div>\n                </div>\n              </div>\n            </header>\n            <div class="tabs-outer">\n              <div class="tabs-cap-top cap-top">\n                <div class="cap-left"></div>\n                <div class="cap-right"></div>\n              </div>\n              <div class="fauxborder-left tabs-fauxborder-left">\n                <div class="fauxborder-right tabs-fauxborder-right"></div>\n                <div class="region-inner tabs-inner">\n                  <div id="crosscol" class="tabs section"></div>\n                  <div id="crosscol-overflow" class="tabs section"></div>\n                </div>\n              </div>\n              <div class="tabs-cap-bottom cap-bottom">\n                <div class="cap-left"></div>\n                <div class="cap-right"></div>\n              </div>\n            </div>\n            <div class="main-outer">\n              <div class="main-cap-top cap-top">\n                <div class="cap-left"></div>\n                <div class="cap-right"></div>\n              </div>\n              <div class="fauxborder-left main-fauxborder-left">\n                <div class="fauxborder-right main-fauxborder-right"></div>\n                <div class="region-inner main-inner">\n                  <div class="columns fauxcolumns">\n                    <div class="fauxcolumn-outer fauxcolumn-center-outer">\n                      <div class="cap-top">\n                        <div class="cap-left"></div>\n                        <div class="cap-right"></div>\n                      </div>\n                      <div class="fauxborder-left">\n                        <div class="fauxborder-right"></div>\n                        <div class="fauxcolumn-inner"> </div>\n                      </div>\n                      <div class="cap-bottom">\n                        <div class="cap-left"></div>\n                        <div class="cap-right"></div>\n                      </div>\n                    </div>\n                    <div class="fauxcolumn-outer fauxcolumn-left-outer">\n                      <div class="cap-top">\n                        <div class="cap-left"></div>\n                        <div class="cap-right"></div>\n                      </div>\n                      <div class="fauxborder-left">\n                        <div class="fauxborder-right"></div>\n                        <div class="fauxcolumn-inner"> </div>\n                      </div>\n                      <div class="cap-bottom">\n                        <div class="cap-left"></div>\n                        <div class="cap-right"></div>\n                      </div>\n                    </div>\n                    <div class="fauxcolumn-outer fauxcolumn-right-outer">\n                      <div class="cap-top">\n                        <div class="cap-left"></div>\n                        <div class="cap-right"></div>\n                      </div>\n                      <div class="fauxborder-left">\n                        <div class="fauxborder-right"></div>\n                        <div class="fauxcolumn-inner"> </div>\n                      </div>\n                      <div class="cap-bottom">\n                        <div class="cap-left"></div>\n                        <div class="cap-right"></div>\n                      </div>\n                    </div>\n                    <div class="columns-inner">\n                      <div class="column-center-outer">\n                        <div class="column-center-inner">\n                          <div id="main" class="main section">\n                            <div id="Blog1" class="widget Blog">\n                              <div class="blog-posts hfeed">\n                                <div class="date-outer">\n                                  <h2 class="date-header">\n                                    <span>Thursday, 18 August 2011</span>\n                                  </h2>\n                                  <div class="date-posts">\n                                    <div class="post-outer">\n                                      <div itemtype="http://schema.org/BlogPosting" itemscope="itemscope" class="post hentry"> </div>\n                                    </div>\n                                  </div>\n                                </div>\n                              </div>\n                            </div>\n                          </div>\n                        </div>\n                      </div>\n                    </div>\n                  </div>\n                </div>\n              </div>\n            </div>\n          </div>\n        </div>\n      </div>\n    </div>\n  </body>\n  <head>\n    <meta itemprop="image_url" content="http://4.bp.blogspot.com/-QgI2wPnFceA/TkPic2qFPTI/AAAAAAAAAAs/hrBD47MiPvE/s72-c/IMG_0773.JPG"></meta>\n  </head>\n  <body>\n    <a name="5829421200030358541" shape="rect"></a>\n    <h3 itemprop="name" class="post-title entry-title"> And we\'re off! It\'s a long one! </h3>\n    <div class="post-header">\n      <div class="post-header-line-1"></div>\n    </div>\n    <div itemprop="description articleBody" id="post-body-5829421200030358541" class="post-body entry-content">\n      <div style="clear: both; text-align: center;" class="separator">\n        I can\'t believe we\'re leaving TONIGHT for our 3 week journey. Ultimately Vanna will take us to the\n        <a href="http://en.wikipedia.org/wiki/Black_Rock_Desert" shape="rect">Black Rock Desert</a>\n        \xc2\xa0for\n        <a href="http://www.burningman.com/" shape="rect">Burning Man</a>\n        where she\'ll take care of us for a total of 12 days on playa. We\'ve put a lot of blood, sweat and tears into transforming our \'77 Dodge Tradesman van into something livable (and not just by hunters and fishermen). \xc2\xa0When we bought this van in April we really had to strain to see the possibilities. Aesthetically it was terrible. And smelly. Structurally it was amazing and throughout the months we have seen 4 different mechanics who are quite surprised at the (great) shape it\'s in. \xc2\xa0She\'s got a huge V8 engine (very thirsty girl!!) and she drives beautifully if kept around the 110-120km/h range.\xc2\xa0\n      </div>\n      <br clear="none"></br>\n      This drive will be quite different than when we drove in 2008 (with our Audi). Audi\'s love the open road and will go forever. The big difference, of course, is that we\'re sleeping/eating/living in our van for a full 3 weeks. No hotels, no restaurants, no nothing.\n      <br clear="none"></br>\n      <br clear="none"></br>\n      The purpose of this blog was mostly to ensure we capture the photos and the moments of our trips and to have a platform to share with friends and family. We also wanted to give ourselves a challenge- eating well in the US of A. If you\'ve ever stopped for breakfast off a major interstate, you\'ll know that for 5 bucks you\'ll get a plate the size of a small TV and you may actually feel your cholesterol levels rising as you eat. We will photograph the food we make and TRY to meet our nutritional requirements by shopping at grocery stores and making healthy things to eat on the go.\n      <br clear="none"></br>\n      <br clear="none"></br>\n      Orginally we were planning on doing this trip by boondocking- which is essentially any off road \'site\' without water, electricity or toilet facilities. For example- a Walmart parking lot. \xc2\xa0Upon further investigation, we realize there are many ACTUAL camp sites along our route and for $10 or less, we can have our own campground with fire, toilets and maybe even *gasp* showers and laundry.\n      <br clear="none"></br>\n      <br clear="none"></br>\n      We\'ll try to post daily until we actually get on the playa at burning man (August 25- Sept 5), where there may or may not be internet connection. to be honest- Part of the draw of this event is unplugging entirely and it\'s important for us to do so, so we can experience this event in it\'s fullest.\n      <br clear="none"></br>\n      <br clear="none"></br>\n      Another reason for this blog was safety. We\'re travelling through some\n      <i>interesting</i>\n      parts of the US- hugging the mormon trail all the way out west. Our travels take us through St. Louis Missouri, Topeka Kansas (home of the famous\n      <a href="http://www.godhatesfags.com/schedule.html" shape="rect">Westboro Baptist Church &amp; Fred Phelps</a>\n      ) - did you notice their website name? yipes.,\n      <br clear="none"></br>\n      Denver Colorado, up through Utah and across\n      <a href="http://en.wikipedia.org/wiki/U.S._Route_50" shape="rect"> Hwy 50</a>\n      which is known as the loneliest highway in America and on to Reno, Nevada which is our staging ground for Burning Man. Then another 2 hour drive due North up into nowhere land. \xc2\xa0One way\xc2\xa0is 4360 miles and will take around 44 hours.\n      <br clear="none"></br>\n      <br clear="none"></br>\n      Here\'s a few \'get to know you\' pictures of Vanna Beige. We don\'t have any pictures from our little Ontario getaways, but we\'ve already had 7 nights in her and it\'s been great. Hope you enjoy and thanks for following us on our big Adventure with Vanna!\n      <br clear="none"></br>\n      <br clear="none"></br>\n      <table style="float: left; margin-right: 1em; text-align: left;" cellspacing="0" cellpadding="0" class="tr-caption-container">\n        <tbody>\n          <tr>\n            <td style="text-align: center;" rowspan="1" colspan="1">\n              <a style="clear: left; margin-bottom: 1em; margin-left: auto; margin-right: auto;" imageanchor="1" href="http://4.bp.blogspot.com/-QgI2wPnFceA/TkPic2qFPTI/AAAAAAAAAAs/hrBD47MiPvE/s1600/IMG_0773.JPG" shape="rect">\n                <img width="240" src="http://4.bp.blogspot.com/-QgI2wPnFceA/TkPic2qFPTI/AAAAAAAAAAs/hrBD47MiPvE/s320/IMG_0773.JPG" height="320" border="0"></img>\n              </a>\n            </td>\n          </tr>\n          <tr>\n            <td style="text-align: center;" class="tr-caption" rowspan="1" colspan="1">Day 1. Welcome to the family Vanna!</td>\n          </tr>\n        </tbody>\n      </table>\n      <table style="float: right; margin-left: 1em; text-align: right;" cellspacing="0" cellpadding="0" class="tr-caption-container">\n        <tbody>\n          <tr>\n            <td style="text-align: center;" rowspan="1" colspan="1">\n              <a style="clear: right; margin-bottom: 1em; margin-left: auto; margin-right: auto;" imageanchor="1" href="http://1.bp.blogspot.com/--Y7inqTiouw/TkPiZHnJ5cI/AAAAAAAAAAo/VgCUHPxpehE/s1600/IMG_0772.jpg" shape="rect">\n                <img width="240" src="http://1.bp.blogspot.com/--Y7inqTiouw/TkPiZHnJ5cI/AAAAAAAAAAo/VgCUHPxpehE/s320/IMG_0772.jpg" height="320" border="0"></img>\n              </a>\n            </td>\n          </tr>\n          <tr>\n            <td style="text-align: center;" class="tr-caption" rowspan="1" colspan="1">\n              Begging for storage in Cobourg.\n              <br clear="none"></br>\n              <br clear="none"></br>\n            </td>\n          </tr>\n        </tbody>\n      </table>\n      <div style="clear: both; text-align: center;" class="separator"></div>\n      <br clear="none"></br>\n      <table style="float: right; margin-left: 1em; text-align: right;" cellspacing="0" cellpadding="0" class="tr-caption-container">\n        <tbody>\n          <tr>\n            <td style="text-align: center;" rowspan="1" colspan="1">\n              <a style="clear: left; margin-bottom: 1em; margin-left: auto; margin-right: auto;" imageanchor="1" href="http://2.bp.blogspot.com/-hFPtV2KdQiI/TkPOdD3s2MI/AAAAAAAAAAY/xvvevwEVGMQ/s1600/IMG_4937.JPG" shape="rect">\n                <img width="320" src="http://2.bp.blogspot.com/-hFPtV2KdQiI/TkPOdD3s2MI/AAAAAAAAAAY/xvvevwEVGMQ/s320/IMG_4937.JPG" height="213" border="0"></img>\n              </a>\n            </td>\n          </tr>\n          <tr>\n            <td style="text-align: center;" class="tr-caption" rowspan="1" colspan="1">Inside *ick*</td>\n          </tr>\n        </tbody>\n      </table>\n      <table style="float: right; margin-left: 1em; text-align: right;" cellspacing="0" cellpadding="0" class="tr-caption-container" align="center">\n        <tbody>\n          <tr>\n            <td style="text-align: center;" rowspan="1" colspan="1">\n              <a style="margin-left: auto; margin-right: auto;" imageanchor="1" href="http://4.bp.blogspot.com/-XQPMEwr_x0E/TkPj3lwtsII/AAAAAAAAAA8/r8MN5mmP8S0/s1600/IMG_4943.JPG" shape="rect">\n                <img width="320" src="http://4.bp.blogspot.com/-XQPMEwr_x0E/TkPj3lwtsII/AAAAAAAAAA8/r8MN5mmP8S0/s320/IMG_4943.JPG" height="213" border="0"></img>\n              </a>\n            </td>\n          </tr>\n          <tr>\n            <td style="text-align: center;" class="tr-caption" rowspan="1" colspan="1">I know. Obviously toilet area. *vom*</td>\n          </tr>\n        </tbody>\n      </table>\n      <table style="margin-bottom: 0.5em; margin-left: auto; margin-right: auto; padding-bottom: 6px; padding-left: 6px; padding-right: 6px; padding-top: 6px; text-align: center;" cellspacing="0" cellpadding="0" class="tr-caption-container" align="center">\n        <tbody>\n          <tr>\n            <td style="text-align: center;" rowspan="1" colspan="1">\n              <a style="margin-left: auto; margin-right: auto;" imageanchor="1" href="http://2.bp.blogspot.com/-8nwULF0013c/TkPisqlD5OI/AAAAAAAAAAw/1Clq-4lNSe8/s1600/IMG_4938.JPG" shape="rect">\n                <img width="320" style="cursor: move;" src="http://2.bp.blogspot.com/-8nwULF0013c/TkPisqlD5OI/AAAAAAAAAAw/1Clq-4lNSe8/s320/IMG_4938.JPG" height="213" border="0"></img>\n              </a>\n            </td>\n          </tr>\n          <tr>\n            <td style="font-size: 13px; padding-top: 4px; text-align: center;" class="tr-caption" rowspan="1" colspan="1">My 6\'3&quot; father and brother can stand straight up.\xc2\xa0</td>\n          </tr>\n        </tbody>\n      </table>\n      <table style="margin-left: auto; margin-right: auto; text-align: center;" cellspacing="0" cellpadding="0" class="tr-caption-container" align="center">\n        <tbody>\n          <tr>\n            <td style="text-align: center;" rowspan="1" colspan="1">\n              <a style="margin-left: auto; margin-right: auto;" imageanchor="1" href="http://1.bp.blogspot.com/-VwFtcP7NX_E/TkPkkS-b0KI/AAAAAAAAABE/DbFT2ffEJ9Y/s1600/IMG_4945.jpg" shape="rect">\n                <img width="213" src="http://1.bp.blogspot.com/-VwFtcP7NX_E/TkPkkS-b0KI/AAAAAAAAABE/DbFT2ffEJ9Y/s320/IMG_4945.jpg" height="320" border="0"></img>\n              </a>\n            </td>\n          </tr>\n          <tr>\n            <td style="text-align: center;" class="tr-caption" rowspan="1" colspan="1">\n              Everything worked but was *so* gross and had to go.\n              <br clear="none"></br>\n              We also tore out the 5 foot propane canister underneath the van\n              <br clear="none"></br>\n              (which has NO safety bars). Not good for canyon land driving.\n              <br clear="none"></br>\n              <br clear="none"></br>\n            </td>\n          </tr>\n        </tbody>\n      </table>\n      <table style="margin-left: auto; margin-right: auto; text-align: center;" cellspacing="0" cellpadding="0" class="tr-caption-container" align="center">\n        <tbody>\n          <tr>\n            <td style="text-align: center;" rowspan="1" colspan="1">\n              <a style="margin-left: auto; margin-right: auto;" imageanchor="1" href="http://4.bp.blogspot.com/-gWNtC8L9Fcg/TkPjHtCm0-I/AAAAAAAAAA0/tCXY-xYkt8o/s1600/IMG_4940.jpg" shape="rect">\n                <img width="213" src="http://4.bp.blogspot.com/-gWNtC8L9Fcg/TkPjHtCm0-I/AAAAAAAAAA0/tCXY-xYkt8o/s320/IMG_4940.jpg" height="320" border="0"></img>\n              </a>\n            </td>\n          </tr>\n          <tr>\n            <td style="text-align: center;" class="tr-caption" rowspan="1" colspan="1">\n              Overhead is another double bed that fold out on rails.\n              <br clear="none"></br>\n              We will keep it like this and use it for linens and clothes and bags.\n              <br clear="none"></br>\n              It\'s about 3 feet deep over the seats to the front.\n              <br clear="none"></br>\n              <br clear="none"></br>\n              <span style="font-size: small;" class="Apple-style-span"></span>\n            </td>\n          </tr>\n        </tbody>\n      </table>\n      <table style="margin-left: auto; margin-right: auto; text-align: center;" cellspacing="0" cellpadding="0" class="tr-caption-container" align="center">\n        <tbody>\n          <tr>\n            <td style="text-align: center;" rowspan="1" colspan="1">\n              <a style="margin-left: auto; margin-right: auto;" imageanchor="1" href="http://4.bp.blogspot.com/-Uk2FwVodGdA/TkPk1cCZ2EI/AAAAAAAAABI/gxQ0xo6Ry8g/s1600/IMG_4947.JPG" shape="rect">\n                <img width="320" src="http://4.bp.blogspot.com/-Uk2FwVodGdA/TkPk1cCZ2EI/AAAAAAAAABI/gxQ0xo6Ry8g/s320/IMG_4947.JPG" height="213" border="0"></img>\n              </a>\n            </td>\n          </tr>\n          <tr>\n            <td style="text-align: center;" class="tr-caption" rowspan="1" colspan="1">\n              Ya- it\'s a beast. We are about 3 feet away from each other.\n              <br clear="none"></br>\n              <br clear="none"></br>\n              <br clear="none"></br>\n            </td>\n          </tr>\n        </tbody>\n      </table>\n      <table style="margin-left: auto; margin-right: auto; text-align: center;" cellspacing="0" cellpadding="0" class="tr-caption-container" align="center">\n        <tbody>\n          <tr>\n            <td style="text-align: center;" rowspan="1" colspan="1">\n              <a style="margin-left: auto; margin-right: auto;" imageanchor="1" href="http://4.bp.blogspot.com/-0Lisg7AYwA4/Tk0bgglYlpI/AAAAAAAAAC4/Bq7tKma9h30/s1600/IMG_0811.jpg" shape="rect">\n                <img width="240" src="http://4.bp.blogspot.com/-0Lisg7AYwA4/Tk0bgglYlpI/AAAAAAAAAC4/Bq7tKma9h30/s320/IMG_0811.jpg" height="320" border="0"></img>\n              </a>\n            </td>\n          </tr>\n          <tr>\n            <td style="text-align: center;" class="tr-caption" rowspan="1" colspan="1">\n              Let the demo begin! We had to do it in two big parts\n              <br clear="none"></br>\n              because we had to wait to have the propane tank taken out before\n              <br clear="none"></br>\n              we took out the stove (which is attached to the fridge, which is attached to the sink)...\n              <br clear="none"></br>\n              <br clear="none"></br>\n            </td>\n          </tr>\n        </tbody>\n      </table>\n      <table style="margin-left: auto; margin-right: auto; text-align: center;" cellspacing="0" cellpadding="0" class="tr-caption-container" align="center">\n        <tbody>\n          <tr>\n            <td style="text-align: center;" rowspan="1" colspan="1">\n              <a style="margin-left: auto; margin-right: auto;" imageanchor="1" href="http://2.bp.blogspot.com/-1rqT9ojW69s/Tk0b-KxZXlI/AAAAAAAAADE/OWOA0JQYAII/s1600/IMG_0975.jpg" shape="rect">\n                <img width="240" src="http://2.bp.blogspot.com/-1rqT9ojW69s/Tk0b-KxZXlI/AAAAAAAAADE/OWOA0JQYAII/s320/IMG_0975.jpg" height="320" border="0"></img>\n              </a>\n            </td>\n          </tr>\n          <tr>\n            <td style="text-align: center;" class="tr-caption" rowspan="1" colspan="1">\n              Floor were bad. We took it right down the shell. \xc2\xa0And sanded, and blasted.\n              <br clear="none"></br>\n              <br clear="none"></br>\n            </td>\n          </tr>\n        </tbody>\n      </table>\n      <div style="clear: both; text-align: center;" class="separator">\n        <a style="margin-left: 1em; margin-right: 1em;" imageanchor="1" href="http://3.bp.blogspot.com/-DsUdFpaWfJY/Tk0cUz3bjGI/AAAAAAAAADM/Sw7G-NF4Kxk/s1600/IMG_0977.jpg" shape="rect">\n          <img width="240" src="http://3.bp.blogspot.com/-DsUdFpaWfJY/Tk0cUz3bjGI/AAAAAAAAADM/Sw7G-NF4Kxk/s320/IMG_0977.jpg" height="320" border="0"></img>\n        </a>\n        <a style="margin-left: 1em; margin-right: 1em;" imageanchor="1" href="http://4.bp.blogspot.com/-R4cKWxnQ0jE/Tk0cKMIQkPI/AAAAAAAAADI/sIr5DRrx03g/s1600/IMG_0976.jpg" shape="rect">\n          <img width="240" src="http://4.bp.blogspot.com/-R4cKWxnQ0jE/Tk0cKMIQkPI/AAAAAAAAADI/sIr5DRrx03g/s320/IMG_0976.jpg" height="320" border="0"></img>\n        </a>\n      </div>\n      <table style="margin-left: auto; margin-right: auto; text-align: center;" cellspacing="0" cellpadding="0" class="tr-caption-container" align="center">\n        <tbody>\n          <tr>\n            <td style="text-align: center;" rowspan="1" colspan="1">\n              <a style="margin-left: auto; margin-right: auto;" imageanchor="1" href="http://1.bp.blogspot.com/-g3LM2qiZ72o/Tk0crQQyZAI/AAAAAAAAADU/Hoh2RBS7zQc/s1600/IMG_0984.jpg" shape="rect">\n                <img width="240" src="http://1.bp.blogspot.com/-g3LM2qiZ72o/Tk0crQQyZAI/AAAAAAAAADU/Hoh2RBS7zQc/s320/IMG_0984.jpg" height="320" border="0"></img>\n              </a>\n            </td>\n          </tr>\n          <tr>\n            <td style="text-align: center;" class="tr-caption" rowspan="1" colspan="1">Took out the old battery. Tied it off. We won\'t use it for this trip.\xc2\xa0</td>\n          </tr>\n        </tbody>\n      </table>\n      <br clear="none"></br>\n      <table style="float: right; margin-left: 1em; text-align: right;" cellspacing="0" cellpadding="0" class="tr-caption-container">\n        <tbody>\n          <tr>\n            <td style="text-align: center;" rowspan="1" colspan="1">\n              <a style="clear: right; margin-bottom: 1em; margin-left: auto; margin-right: auto;" imageanchor="1" href="http://2.bp.blogspot.com/-E3_-XqohHqM/Tk0dAdPfrLI/AAAAAAAAADc/idIF6zv_Yq0/s1600/IMG_0987.jpg" shape="rect">\n                <img width="240" src="http://2.bp.blogspot.com/-E3_-XqohHqM/Tk0dAdPfrLI/AAAAAAAAADc/idIF6zv_Yq0/s320/IMG_0987.jpg" height="320" border="0"></img>\n              </a>\n              <br clear="none"></br>\n              <br clear="none"></br>\n            </td>\n          </tr>\n          <tr>\n            <td style="text-align: center;" class="tr-caption" rowspan="1" colspan="1">\n              <br clear="none"></br>\n            </td>\n          </tr>\n        </tbody>\n      </table>\n      <a style="margin-left: 1em; margin-right: 1em;" imageanchor="1" href="http://3.bp.blogspot.com/-Mg5E5WewJWY/Tk0cemHdUaI/AAAAAAAAADQ/2GMN8mlkrJg/s1600/IMG_0978.jpg" shape="rect">\n        <img width="240" style="cursor: move;" src="http://3.bp.blogspot.com/-Mg5E5WewJWY/Tk0cemHdUaI/AAAAAAAAADQ/2GMN8mlkrJg/s320/IMG_0978.jpg" height="320" border="0"></img>\n      </a>\n      <br clear="none"></br>\n      <div style="clear: both; text-align: center;" class="separator">\n        <a style="clear: left; float: left; margin-bottom: 1em; margin-right: 1em;" imageanchor="1" href="http://3.bp.blogspot.com/-7HugPQejXWo/Tk0dmMez0eI/AAAAAAAAADs/rZ_PQ6lZggM/s1600/IMG_0992.jpg" shape="rect">\n          <img width="240" src="http://3.bp.blogspot.com/-7HugPQejXWo/Tk0dmMez0eI/AAAAAAAAADs/rZ_PQ6lZggM/s320/IMG_0992.jpg" height="320" border="0"></img>\n        </a>\n        <a style="margin-left: 1em; margin-right: 1em;" imageanchor="1" href="http://2.bp.blogspot.com/-nMJ_V9m5JwY/Tk0dvJ4tVGI/AAAAAAAAADw/uAJZm2bGo4I/s1600/IMG_0993.jpg" shape="rect">\n          <img width="240" src="http://2.bp.blogspot.com/-nMJ_V9m5JwY/Tk0dvJ4tVGI/AAAAAAAAADw/uAJZm2bGo4I/s320/IMG_0993.jpg" height="320" border="0"></img>\n        </a>\n      </div>\n      <table style="float: left; margin-right: 1em; text-align: left;" cellspacing="0" cellpadding="0" class="tr-caption-container">\n        <tbody>\n          <tr>\n            <td style="text-align: center;" rowspan="1" colspan="1">\n              <a style="clear: left; margin-bottom: 1em; margin-left: auto; margin-right: auto;" imageanchor="1" href="http://3.bp.blogspot.com/-6kSaW27ZD5o/Tk0d6CGWRHI/AAAAAAAAAD0/wuca5wBX5GI/s1600/IMG_0997.jpg" shape="rect">\n                <img width="240" src="http://3.bp.blogspot.com/-6kSaW27ZD5o/Tk0d6CGWRHI/AAAAAAAAAD0/wuca5wBX5GI/s320/IMG_0997.jpg" height="320" border="0"></img>\n              </a>\n            </td>\n          </tr>\n          <tr>\n            <td style="text-align: center;" class="tr-caption" rowspan="1" colspan="1">\n              Moisture barrier, sub floor, roll out insulation foam, \xc2\xa0plywood, vinyl.\n              <br clear="none"></br>\n              <br clear="none"></br>\n            </td>\n          </tr>\n        </tbody>\n      </table>\n      <div style="clear: both; text-align: center;" class="separator">\n        <a style="clear: left; float: left; margin-bottom: 1em; margin-right: 1em;" imageanchor="1" href="http://1.bp.blogspot.com/-kvogVTeIv0s/Tk0eaIutXZI/AAAAAAAAAEA/EzhGc4mJ2MM/s1600/IMG_1022.jpg" shape="rect">\n          <img width="240" src="http://1.bp.blogspot.com/-kvogVTeIv0s/Tk0eaIutXZI/AAAAAAAAAEA/EzhGc4mJ2MM/s320/IMG_1022.jpg" height="320" border="0"></img>\n        </a>\n        <a style="margin-left: 1em; margin-right: 1em;" imageanchor="1" href="http://3.bp.blogspot.com/-Hry71fmsgGE/Tk0ePVnvsgI/AAAAAAAAAD8/iHVzRFRIXoM/s1600/IMG_1019.jpg" shape="rect">\n          <img width="240" src="http://3.bp.blogspot.com/-Hry71fmsgGE/Tk0ePVnvsgI/AAAAAAAAAD8/iHVzRFRIXoM/s320/IMG_1019.jpg" height="320" border="0"></img>\n        </a>\n      </div>\n      <div style="clear: both; text-align: center;" class="separator"></div>\n      <div style="clear: both; text-align: center;" class="separator">\n        <a style="clear: left; float: left; margin-bottom: 1em; margin-right: 1em;" imageanchor="1" href="http://4.bp.blogspot.com/-gjbzqd7G3H4/Tk0ekd5CMpI/AAAAAAAAAEE/pn9uUU9O9lE/s1600/IMG_1032.jpg" shape="rect">\n          <img width="240" src="http://4.bp.blogspot.com/-gjbzqd7G3H4/Tk0ekd5CMpI/AAAAAAAAAEE/pn9uUU9O9lE/s320/IMG_1032.jpg" height="320" border="0"></img>\n        </a>\n      </div>\n      <div style="clear: both; text-align: center;" class="separator"></div>\n      <a style="margin-left: 1em; margin-right: 1em;" imageanchor="1" href="http://1.bp.blogspot.com/-aQIa3Zt5V5g/Tk06l-P152I/AAAAAAAAAFw/xsa6-8NWVko/s1600/IMG_1177.jpg" shape="rect">\n        <img width="240" style="cursor: move;" src="http://1.bp.blogspot.com/-aQIa3Zt5V5g/Tk06l-P152I/AAAAAAAAAFw/xsa6-8NWVko/s320/IMG_1177.jpg" height="320" border="0"></img>\n      </a>\n      <a style="margin-left: 1em; margin-right: 1em;" imageanchor="1" href="http://2.bp.blogspot.com/-HEAT5yNtLmQ/Tk0giLMK36I/AAAAAAAAAE0/KLRKxwG3snQ/s1600/IMG_0976.jpg" shape="rect">\n        <img width="240" src="http://2.bp.blogspot.com/-HEAT5yNtLmQ/Tk0giLMK36I/AAAAAAAAAE0/KLRKxwG3snQ/s320/IMG_0976.jpg" height="320" border="0"></img>\n      </a>\n      <br clear="none"></br>\n      <div style="clear: both; text-align: center;" class="separator">\n        <br clear="none"></br>\n      </div>\n      <div style="clear: both; text-align: center;" class="separator">\n        <a style="clear: left; float: left; margin-bottom: 1em; margin-right: 1em;" imageanchor="1" href="http://1.bp.blogspot.com/-JuWnPLhW8vw/Tk0fEJ-3OAI/AAAAAAAAAEQ/xn2QdI3KTec/s1600/IMG_1126.jpg" shape="rect">\n          <img width="240" src="http://1.bp.blogspot.com/-JuWnPLhW8vw/Tk0fEJ-3OAI/AAAAAAAAAEQ/xn2QdI3KTec/s320/IMG_1126.jpg" height="320" border="0"></img>\n        </a>\n      </div>\n      <a style="margin-left: 1em; margin-right: 1em;" imageanchor="1" href="http://4.bp.blogspot.com/-TYOTcHNgkC8/Tk0fi1Qvo-I/AAAAAAAAAEc/DodD70Z2mn4/s1600/IMG_1132.jpg" shape="rect">\n        <img width="240" src="http://4.bp.blogspot.com/-TYOTcHNgkC8/Tk0fi1Qvo-I/AAAAAAAAAEc/DodD70Z2mn4/s320/IMG_1132.jpg" height="320" border="0"></img>\n      </a>\n      <br clear="none"></br>\n      <div style="clear: both; text-align: center;" class="separator">\n        <a style="clear: left; float: left; margin-bottom: 1em; margin-right: 1em;" imageanchor="1" href="http://2.bp.blogspot.com/-lPCVR4Oxa1U/Tk0fXmdo_sI/AAAAAAAAAEY/jcs208WP6V0/s1600/IMG_1130.jpg" shape="rect">\n          <img width="240" src="http://2.bp.blogspot.com/-lPCVR4Oxa1U/Tk0fXmdo_sI/AAAAAAAAAEY/jcs208WP6V0/s320/IMG_1130.jpg" height="320" border="0"></img>\n        </a>\n      </div>\n      <a style="margin-left: 1em; margin-right: 1em;" imageanchor="1" href="http://4.bp.blogspot.com/-ag0SNCF2DHk/Tk0fPcd19iI/AAAAAAAAAEU/nNlqwULGkZ0/s1600/IMG_1127.jpg" shape="rect">\n        <img width="240" src="http://4.bp.blogspot.com/-ag0SNCF2DHk/Tk0fPcd19iI/AAAAAAAAAEU/nNlqwULGkZ0/s320/IMG_1127.jpg" height="320" border="0"></img>\n      </a>\n      <br clear="none"></br>\n      <div style="clear: both; text-align: center;" class="separator"></div>\n      <div style="clear: both; text-align: center;" class="separator"></div>\n      <div style="clear: both; text-align: center;" class="separator"></div>\n      <div style="clear: both; text-align: center;" class="separator"></div>\n      <div style="clear: both; text-align: center;" class="separator">\n        <a style="clear: left; float: left; margin-bottom: 1em; margin-right: 1em;" imageanchor="1" href="http://3.bp.blogspot.com/-N_O-SvRs_tc/Tk0hc6s-PkI/AAAAAAAAAFM/PcPw3kYr8WY/s1600/IMG_0983.jpg" shape="rect">\n          <img width="240" src="http://3.bp.blogspot.com/-N_O-SvRs_tc/Tk0hc6s-PkI/AAAAAAAAAFM/PcPw3kYr8WY/s320/IMG_0983.jpg" height="320" border="0"></img>\n        </a>\n      </div>\n      <a style="clear: left; float: left; margin-bottom: 1em; margin-right: 1em;" imageanchor="1" href="http://3.bp.blogspot.com/-9xydYEQ_y-A/Tk0grtIvzmI/AAAAAAAAAE4/0kzo8mSc3LQ/s1600/IMG_0977.jpg" shape="rect">\n        <img width="240" src="http://3.bp.blogspot.com/-9xydYEQ_y-A/Tk0grtIvzmI/AAAAAAAAAE4/0kzo8mSc3LQ/s320/IMG_0977.jpg" height="320" border="0"></img>\n      </a>\n      <a style="margin-left: 1em; margin-right: 1em;" imageanchor="1" href="http://1.bp.blogspot.com/-3knmZKQGWh0/Tk0gCrVdm7I/AAAAAAAAAEo/U6kgpK8chnw/s1600/IMG_0970.jpg" shape="rect">\n        <img width="300" src="http://1.bp.blogspot.com/-3knmZKQGWh0/Tk0gCrVdm7I/AAAAAAAAAEo/U6kgpK8chnw/s400/IMG_0970.jpg" height="400" border="0"></img>\n      </a>\n      <a style="margin-left: 1em; margin-right: 1em;" imageanchor="1" href="http://3.bp.blogspot.com/-xgcF--HwISA/Tk0hTxLv41I/AAAAAAAAAFI/fbviLlCplDw/s1600/IMG_0982.jpg" shape="rect">\n        <img width="240" src="http://3.bp.blogspot.com/-xgcF--HwISA/Tk0hTxLv41I/AAAAAAAAAFI/fbviLlCplDw/s320/IMG_0982.jpg" height="320" border="0"></img>\n      </a>\n      <a style="margin-left: 1em; margin-right: 1em;" imageanchor="1" href="http://4.bp.blogspot.com/-J5NgENlNRuo/Tk0g3I4FV0I/AAAAAAAAAE8/aG7RHnF2xdg/s1600/IMG_0979.jpg" shape="rect">\n        <img width="240" src="http://4.bp.blogspot.com/-J5NgENlNRuo/Tk0g3I4FV0I/AAAAAAAAAE8/aG7RHnF2xdg/s320/IMG_0979.jpg" height="320" border="0"></img>\n      </a>\n      <br clear="none"></br>\n      <div style="clear: both; text-align: center;" class="separator">\n        <a style="clear: right; float: right; margin-bottom: 1em; margin-left: 1em;" imageanchor="1" href="http://2.bp.blogspot.com/-2nQJFiEtVkQ/Tk0hJdCtCkI/AAAAAAAAAFE/Ic7Fry8nL1o/s1600/IMG_0981.jpg" shape="rect">\n          <img width="240" src="http://2.bp.blogspot.com/-2nQJFiEtVkQ/Tk0hJdCtCkI/AAAAAAAAAFE/Ic7Fry8nL1o/s320/IMG_0981.jpg" height="320" border="0"></img>\n        </a>\n      </div>\n      <a style="clear: left; float: left; margin-bottom: 1em; margin-right: 1em;" imageanchor="1" href="http://4.bp.blogspot.com/-AVGTIYY-Ppg/Tk0gYZK92nI/AAAAAAAAAEw/h3JjDseljUE/s1600/IMG_0973.jpg" shape="rect">\n        <img width="240" src="http://4.bp.blogspot.com/-AVGTIYY-Ppg/Tk0gYZK92nI/AAAAAAAAAEw/h3JjDseljUE/s320/IMG_0973.jpg" height="320" border="0"></img>\n      </a>\n      <br clear="none"></br>\n      <a style="clear: right; float: right; margin-bottom: 1em; margin-left: 1em;" imageanchor="1" href="http://1.bp.blogspot.com/-3knmZKQGWh0/Tk0gCrVdm7I/AAAAAAAAAEo/U6kgpK8chnw/s1600/IMG_0970.jpg" shape="rect">\n        <br clear="none"></br>\n      </a>\n      <a style="clear: right; float: right; margin-bottom: 1em; margin-left: 1em;" imageanchor="1" href="http://1.bp.blogspot.com/-3knmZKQGWh0/Tk0gCrVdm7I/AAAAAAAAAEo/U6kgpK8chnw/s1600/IMG_0970.jpg" shape="rect">\n        <br clear="none"></br>\n      </a>\n      <br clear="none"></br>\n      <br clear="none"></br>\n      <br clear="none"></br>\n      <table style="margin-left: auto; margin-right: auto; text-align: center;" cellspacing="0" cellpadding="0" class="tr-caption-container">\n        <tbody>\n          <tr>\n            <td style="text-align: center;" rowspan="1" colspan="1">\n              <a style="clear: left; margin-bottom: 1em; margin-left: auto; margin-right: auto;" imageanchor="1" href="http://4.bp.blogspot.com/-J5NgENlNRuo/Tk0g3I4FV0I/AAAAAAAAAE8/aG7RHnF2xdg/s1600/IMG_0979.jpg" shape="rect">\n                <img width="240" src="http://4.bp.blogspot.com/-J5NgENlNRuo/Tk0g3I4FV0I/AAAAAAAAAE8/aG7RHnF2xdg/s320/IMG_0979.jpg" height="320" border="0"></img>\n              </a>\n            </td>\n          </tr>\n          <tr>\n            <td style="text-align: center;" class="tr-caption" rowspan="1" colspan="1">\n              The foam covers and blinds are a king sheet set\n              <br clear="none"></br>\n              from Costco...\n            </td>\n          </tr>\n        </tbody>\n      </table>\n      <div style="clear: both; text-align: center;" class="separator">\n        <br clear="none"></br>\n      </div>\n      <div style="clear: both; text-align: center;" class="separator"></div>\n      <div style="clear: both; text-align: center;" class="separator">\n        <a style="clear: right; float: right; margin-bottom: 1em; margin-left: 1em;" imageanchor="1" href="http://4.bp.blogspot.com/-FLEsBjfIJdE/Tk06Hq09eqI/AAAAAAAAAFk/Uy9-_e0PRnI/s1600/IMG_1168.jpg" shape="rect">\n          <img width="240" src="http://4.bp.blogspot.com/-FLEsBjfIJdE/Tk06Hq09eqI/AAAAAAAAAFk/Uy9-_e0PRnI/s320/IMG_1168.jpg" height="320" border="0"></img>\n        </a>\n      </div>\n      <div style="clear: both; text-align: center;" class="separator">\n        <br clear="none"></br>\n      </div>\n      <div style="clear: both; text-align: center;" class="separator"></div>\n      <div style="clear: both; text-align: center;" class="separator">\n        <a style="margin-left: 1em; margin-right: 1em;" imageanchor="1" href="http://2.bp.blogspot.com/-9CGTXBE3r4c/Tk06baLhpeI/AAAAAAAAAFs/gkvup6S6pXM/s1600/IMG_1176.jpg" shape="rect">\n          <img width="240" src="http://2.bp.blogspot.com/-9CGTXBE3r4c/Tk06baLhpeI/AAAAAAAAAFs/gkvup6S6pXM/s320/IMG_1176.jpg" height="320" border="0"></img>\n        </a>\n      </div>\n      <a style="clear: right; float: right; margin-bottom: 1em; margin-left: 1em;" imageanchor="1" href="http://3.bp.blogspot.com/-Esg5dA2tFpg/Tk058IMh0dI/AAAAAAAAAFg/pm2c0W_rLkk/s1600/IMG_1167.jpg" shape="rect"></a>\n      <a style="clear: left; float: left; margin-bottom: 1em; margin-right: 1em;" imageanchor="1" href="http://1.bp.blogspot.com/-aQIa3Zt5V5g/Tk06l-P152I/AAAAAAAAAFw/xsa6-8NWVko/s1600/IMG_1177.jpg" shape="rect">\n        <img width="240" src="http://1.bp.blogspot.com/-aQIa3Zt5V5g/Tk06l-P152I/AAAAAAAAAFw/xsa6-8NWVko/s320/IMG_1177.jpg" height="320" border="0"></img>\n      </a>\n      <img width="240" src="http://3.bp.blogspot.com/-Esg5dA2tFpg/Tk058IMh0dI/AAAAAAAAAFg/pm2c0W_rLkk/s320/IMG_1167.jpg" height="320" border="0"></img>\n      <span style="-webkit-text-decorations-in-effect: none; color: black;" class="Apple-style-span"></span>\n      <span style="font-size: x-small;" class="Apple-style-span">\n        <br clear="none"></br>\n      </span>\n      <br clear="none"></br>\n      <div style="clear: both; text-align: center;" class="separator">\n        <a style="margin-left: 1em; margin-right: 1em;" imageanchor="1" href="http://4.bp.blogspot.com/-t_be0n9q_tA/Tk07MzZaQhI/AAAAAAAAAGA/Q07orxQRPTg/s1600/IMG_1181.jpg" shape="rect">\n          <img width="240" src="http://4.bp.blogspot.com/-t_be0n9q_tA/Tk07MzZaQhI/AAAAAAAAAGA/Q07orxQRPTg/s320/IMG_1181.jpg" height="320" border="0"></img>\n        </a>\n      </div>\n      <div style="clear: both; text-align: center;" class="separator">\n        <br clear="none"></br>\n      </div>\n      <div style="clear: both; text-align: center;" class="separator">\n        <a style="margin-left: 1em; margin-right: 1em;" imageanchor="1" href="http://4.bp.blogspot.com/-QgdmsScxUzE/Tk07iceUl6I/AAAAAAAAAGI/mInYv0Lsixs/s1600/IMG_1183.jpg" shape="rect">\n          <img width="240" src="http://4.bp.blogspot.com/-QgdmsScxUzE/Tk07iceUl6I/AAAAAAAAAGI/mInYv0Lsixs/s320/IMG_1183.jpg" height="320" border="0"></img>\n        </a>\n      </div>\n      <div style="clear: both; text-align: center;" class="separator">\n        <br clear="none"></br>\n      </div>\n      <div style="clear: both; text-align: center;" class="separator">\n        <br clear="none"></br>\n      </div>\n      <div style="clear: both; text-align: center;" class="separator">\n        I basically *just* finished the entire van- packing and all. We are shoving off around 3:00am tonight/Fri. Our first destination is\n        <a href="http://maps.google.ca/maps?client=safari&amp;rls=en&amp;q=Toronto+to+St.+Louis&amp;oe=UTF-8&amp;redir_esc=&amp;um=1&amp;ie=UTF-8&amp;sa=N&amp;hl=en&amp;tab=wl" shape="rect">St. Louis Missouri</a>\n        ! (14 hours)\n      </div>\n      <div style="clear: both; text-align: center;" class="separator">We\'re crossing at Buffalo and basically once we clear the boarder, we\'re off!</div>\n      <div style="clear: both; text-align: center;" class="separator">Wish us luck and we look forward to sharing this adventure with you!</div>\n      <div style="clear: both; text-align: center;" class="separator">\n        <br clear="none"></br>\n      </div>\n      <div style="clear: both; text-align: center;" class="separator">\n        <br clear="none"></br>\n      </div>\n      <div style="clear: both; text-align: center;" class="separator">\n        <br clear="none"></br>\n      </div>\n      <div style="clear: both; text-align: center;" class="separator">\n        <span style="font-size: x-small;" class="Apple-style-span">\n          <br clear="none"></br>\n        </span>\n      </div>\n      <div style="clear: both;"></div>\n    </div>\n    <div class="post-footer">\n      <div class="post-footer-line post-footer-line-1">\n        <span class="post-author vcard">\n          Posted by\n          <span itemtype="http://schema.org/Person" itemscope="itemscope" itemprop="author" class="fn"> </span>\n        </span>\n      </div>\n    </div>\n  </body>\n  <head>\n    <meta itemprop="url" content="http://www.blogger.com/profile/14218562044599783534"></meta>\n    <meta itemprop="articleBody/aiaBlogId" content="7084047803873092694"></meta>\n    <meta itemprop="articleBody/aiaPostId" content="5829421200030358541"></meta>\n  </head>\n  <body>\n    <a title="author profile" rel="author" href="http://www.blogger.com/profile/14218562044599783534" shape="rect">\n      <span itemprop="name">Sarah &amp; Betty</span>\n    </a>\n    <span class="post-timestamp"> at </span>\n  </body>\n  <head>\n    <meta itemprop="url" content="http://adventuresinvanna.blogspot.com/2011/08/and-were-off-its-long-one.html"></meta>\n  </head>\n  <body>\n    <a title="permanent link" rel="bookmark" href="http://adventuresinvanna.blogspot.com/2011/08/and-were-off-its-long-one.html" class="timestamp-link" shape="rect">\n      <abbr title="2011-08-18T09:42:00-07:00" itemprop="datePublished" class="published">09:42</abbr>\n    </a>\n    <span class="post-comment-link"> </span>\n    <span class="post-icons">\n      <span class="item-control blog-admin pid-1540682254">\n        <a title="Edit Post" href="http://www.blogger.com/post-edit.g?blogID=7084047803873092694&amp;postID=5829421200030358541&amp;from=pencil" shape="rect">\n          <img width="18" src="http://img2.blogblog.com/img/icon18_edit_allbkg.gif" height="18" alt="" class="icon-action"></img>\n        </a>\n      </span>\n    </span>\n    <div class="post-share-buttons goog-inline-block">\n      <a title="Email This" target="_blank" href="http://www.blogger.com/share-post.g?blogID=7084047803873092694&amp;postID=5829421200030358541&amp;target=email" class="goog-inline-block share-button sb-email" shape="rect">\n        <span class="share-button-link-text">Email This</span>\n      </a>\n      <a \n      title="BlogThis!" target="_blank" onclick="window.open(this.href, &quot;_blank&quot;, &quot;height=270,width=475&quot;); return false;" href="http://www.blogger.com/share-post.g?blogID=7084047803873092694&amp;postID=5829421200030358541&amp;target=blog" class="goog-inline-block share-button sb-blog" shape="rect">\n        <span class="share-button-link-text">BlogThis!</span>\n</a>\n      <a title="Share to Twitter" target="_blank" href="http://www.blogger.com/share-post.g?blogID=7084047803873092694&amp;postID=5829421200030358541&amp;target=twitter" class="goog-inline-block share-button sb-twitter" shape="rect">\n        <span class="share-button-link-text">Share to Twitter</span>\n      </a>\n      <a \n      title="Share to Facebook" target="_blank" onclick="window.open(this.href, &quot;_blank&quot;, &quot;height=430,width=640&quot;); return false;" href="http://www.blogger.com/share-post.g?blogID=7084047803873092694&amp;postID=5829421200030358541&amp;target=facebook" class="goog-inline-block share-button sb-facebook" shape="rect">\n        <span class="share-button-link-text">Share to Facebook</span>\n</a>\n      <div class="goog-inline-block dummy-container">\n        <g:plusone annotation="inline" width="300" size="medium" href="http://adventuresinvanna.blogspot.com/2011/08/and-were-off-its-long-one.html" source="blogger:blog:plusone"></g:plusone>\n      </div>\n    </div>\n    <div class="post-footer-line post-footer-line-2">\n      <span class="post-labels">\n        Labels:\n        <a rel="tag" href="http://adventuresinvanna.blogspot.com/search/label/Campervans" shape="rect">Campervans</a>\n        ,\n        <a rel="tag" href="http://adventuresinvanna.blogspot.com/search/label/Reno." shape="rect">Reno.</a>\n        ,\n        <a rel="tag" href="http://adventuresinvanna.blogspot.com/search/label/Road%20trip" shape="rect">Road trip</a>\n      </span>\n    </div>\n    <div class="post-footer-line post-footer-line-3">\n      <span class="post-location"> </span>\n    </div>\n    <div id="comments" class="comments">\n      <a name="comments" shape="rect"></a>\n      <h4>1 comment:</h4>\n      <div class="comments-content">\n        <script type="text/javascript" src="//www.blogblog.com/dynamicviews/4224c15c4e7c9321/js/comments.js" async="async"></script>\n        <script type="text/javascript">\n          (function() {\n      var items = [{\'id\': \'6764819727316777745\', \'body\': \'whoa!  Sarah, I had no idea how epic the overhaul was.  Happy travels ladies!\', \'timestamp\': \'1313705819043\', \'permalink\': \'http://adventuresinvanna.blogspot.com/2011/08/and-were-off-its-long-one.html?showComment\\0751313705819043#c6764819727316777745\', \'author\': {\'name\': \'softmechanic\', \'avatarUrl\': \'http://img1.blogblog.com/img/openid16-rounded.gif\', \'profileUrl\': \'http://softmechanic.wordpress.com/\'}, \'displayTime\': \'18 August 2011 15:16\', \'deleteclass\': \'item-control blog-admin pid-225902315\'}];\n      var msgs = {\'loadMore\': \'Load more...\', \'loading\': \'Loading...\', \'loaded\': \'No more.\', \'addComment\': \'Add comment\', \'reply\': \'Reply\', \'delete\': \'Delete\'};\n      var config = {\'blogId\': \'7084047803873092694\', \'postId\': \'5829421200030358541\', \'feed\': \'http://adventuresinvanna.blogspot.com/feeds/5829421200030358541/comments/default\', \'authorName\': \'Sarah \\46amp; Betty\', \'authorUrl\': \'http://www.blogger.com/profile/14218562044599783534\', \'baseUri\': \'http://www.blogger.com\', \'maxThreadDepth\': 2};\n\n// &lt;![CDATA[\n      var cursor = null;\n      if (items &amp;&amp; items.length &gt; 0) {\n        cursor = parseInt(items[items.length - 1].timestamp) + 1;\n      }\n\n      var bodyFromEntry = function(entry) {\n        if (entry.gd$extendedProperty) {\n          for (var k in entry.gd$extendedProperty) {\n            if (entry.gd$extendedProperty[k].name == \'blogger.contentRemoved\') {\n              return \'&lt;span class=&quot;deleted-comment&quot;&gt;\' + entry.content.$t + \'&lt;/span&gt;\';\n            }\n          }\n        }\n        return entry.content.$t;\n      }\n\n      var parse = function(data) {\n        cursor = null;\n        var comments = [];\n        if (data &amp;&amp; data.feed &amp;&amp; data.feed.entry) {\n          for (var i = 0, entry; entry = data.feed.entry[i]; i++) {\n            var comment = {};\n            // comment ID, parsed out of the original id format\n            var id = /blog-(\\d+).post-(\\d+)/.exec(entry.id.$t);\n            comment.id = id ? id[2] : null;\n            comment.body = bodyFromEntry(entry);\n            comment.timestamp = Date.parse(entry.published.$t) + \'\';\n            if (entry.author &amp;&amp; entry.author.constructor === Array) {\n              var auth = entry.author[0];\n              if (auth) {\n                comment.author = {\n                  name: (auth.name ? auth.name.$t : undefined),\n                  profileUrl: (auth.uri ? auth.uri.$t : undefined),\n                  avatarUrl: (auth.gd$image ? auth.gd$image.src : undefined)\n                };\n              }\n            }\n            if (entry.link) {\n              if (entry.link[2]) {\n                comment.link = comment.permalink = entry.link[2].href;\n              }\n              if (entry.link[3]) {\n                var pid = /.*comments\\/default\\/(\\d+)\\?.*/.exec(entry.link[3].href);\n                if (pid &amp;&amp; pid[1]) {\n                  comment.parentId = pid[1];\n                }\n              }\n            }\n            comment.deleteclass = \'item-control blog-admin\';\n            if (entry.gd$extendedProperty) {\n              for (var k in entry.gd$extendedProperty) {\n                if (entry.gd$extendedProperty[k].name == \'blogger.itemClass\') {\n                  comment.deleteclass += \' \' + entry.gd$extendedProperty[k].value;\n                } else if (entry.gd$extendedProperty[k].name == \'blogger.displayTime\') {\n                  comment.displayTime = entry.gd$extendedProperty[k].value;\n                }\n              }\n            }\n            comments.push(comment);\n          }\n        }\n        return comments;\n      };\n\n      var paginator = function(callback) {\n        if (hasMore()) {\n          var url = config.feed + \'?alt=json&amp;v=2&amp;orderby=published&amp;reverse=false&amp;max-results=50\';\n          if (cursor) {\n            url += \'&amp;published-min=\' + new Date(cursor).toISOString();\n          }\n          window.bloggercomments = function(data) {\n            var parsed = parse(data);\n            cursor = parsed.length &lt; 50 ? null\n                : parseInt(parsed[parsed.length - 1].timestamp) + 1\n            callback(parsed);\n            window.bloggercomments = null;\n          }\n          url += \'&amp;callback=bloggercomments\';\n          var script = document.createElement(\'script\');\n          script.type = \'text/javascript\';\n          script.src = url;\n          document.getElementsByTagName(\'head\')[0].appendChild(script);\n        }\n      };\n      var hasMore = function() {\n        return !!cursor;\n      };\n      var getMeta = function(key, comment) {\n        if (\'iswriter\' == key) {\n          var matches = !!comment.author\n              &amp;&amp; comment.author.name == config.authorName\n              &amp;&amp; comment.author.profileUrl == config.authorUrl;\n          return matches ? \'true\' : \'\';\n        } else if (\'deletelink\' == key) {\n          return config.baseUri + \'/delete-comment.g?blogID=\'\n               + config.blogId + \'&amp;postID=\' + comment.id;\n        } else if (\'deleteclass\' == key) {\n          return comment.deleteclass;\n        }\n        return \'\';\n      };\n\n      var replybox = null;\n      var replyUrlParts = null;\n      var replyParent = undefined;\n\n      var onReply = function(commentId, domId) {\n        if (replybox == null) {\n          // lazily cache replybox, and adjust to suit this style:\n          replybox = document.getElementById(\'comment-editor\');\n          if (replybox != null) {\n            replybox.height = \'250px\';\n            replybox.style.display = \'block\';\n            replyUrlParts = replybox.src.split(\'#\');\n          }\n        }\n        if (replybox &amp;&amp; (commentId !== replyParent)) {\n          document.getElementById(domId).insertBefore(replybox, null);\n          replybox.src = replyUrlParts[0]\n              + (commentId ? \'&amp;parentID=\' + commentId : \'\')\n              + \'#\' + replyUrlParts[1];\n          replyParent = commentId;\n        }\n      };\n\n      var hash = (window.location.hash || \'#\').substring(1);\n      var startThread, targetComment;\n      if (/^comment-form_/.test(hash)) {\n        startThread = hash.substring(\'comment-form_\'.length);\n      } else if (/^c[0-9]+$/.test(hash)) {\n        targetComment = hash.substring(1);\n      }\n\n      // Configure commenting API:\n      var configJso = {\n        \'maxDepth\': config.maxThreadDepth\n      };\n      var provider = {\n        \'id\': config.postId,\n        \'data\': items,\n        \'loadNext\': paginator,\n        \'hasMore\': hasMore,\n        \'getMeta\': getMeta,\n        \'onReply\': onReply,\n        \'rendered\': true,\n        \'initComment\': targetComment,\n        \'initReplyThread\': startThread,\n        \'config\': configJso,\n        \'messages\': msgs\n      };\n\n      var render = function() {\n        if (window.goog &amp;&amp; window.goog.comments) {\n          var holder = document.getElementById(\'comment-holder\');\n          window.goog.comments.render(holder, provider);\n        }\n      };\n\n      // render now, or queue to render when library loads:\n      if (window.goog &amp;&amp; window.goog.comments) {\n        render();\n      } else {\n        window.goog = window.goog || {};\n        window.goog.comments = window.goog.comments || {};\n        window.goog.comments.loadQueue = window.goog.comments.loadQueue || [];\n        window.goog.comments.loadQueue.push(render);\n      }\n    })();\n// ]]&gt;\n        </script>\n        <div id="comment-holder">\n          <div kind="c" id="bc_0_2C">\n            <div id="bc_0_2CT">\n              <div u="0" t="0" kind="r" id="bc_0_1T" class="comment-thread">\n                <ol id="bc_0_1TB">\n                  <li kind="b" id="bc_0_0B" class="comment">\n                    <div class="avatar-image-container">\n                      <img src="http://img1.blogblog.com/img/openid36-rounded.png"></img>\n                    </div>\n                    <div id="c6764819727316777745" class="comment-block">\n                      <div kind="m" id="bc_0_0M" class="comment-header">\n                        <cite class="user">\n                          <a href="http://softmechanic.wordpress.com/" rel="nofollow" shape="rect">softmechanic</a>\n                        </cite>\n                        <span class="icon user"></span>\n                        <span class="datetime secondary-text">\n                          <a href="http://adventuresinvanna.blogspot.com/2011/08/and-were-off-its-long-one.html?showComment=1313705819043#c6764819727316777745" rel="nofollow" shape="rect">18 August 2011 15:16</a>\n                        </span>\n                      </div>\n                      <p id="bc_0_0MC" class="comment-content">whoa! Sarah, I had no idea how epic the overhaul was. Happy travels ladies!</p>\n                      <span kind="m" id="bc_0_0MN" class="comment-actions secondary-text">\n                        <a o="r" target="_self" href="javascript:;" kind="i" shape="rect">Reply</a>\n                        <span class="item-control blog-admin pid-225902315">\n                          <a href="http://www.blogger.com/delete-comment.g?blogID=7084047803873092694&amp;postID=6764819727316777745" target="_self" o="d" shape="rect">Delete</a>\n                        </span>\n                      </span>\n                    </div>\n                    <div id="bc_0_0BR" class="comment-replies"></div>\n                    <div id="bc_0_0B_box" class="comment-replybox-single"></div>\n                  </li>\n                </ol>\n                <div kind="ci" id="bc_0_1I" class="continue">\n                  <a target="_self" href="javascript:;" shape="rect">Add comment</a>\n                </div>\n                <div id="bc_0_1T_box" class="comment-replybox-thread"></div>\n                <div kind="rb" id="bc_0_1L" class="loadmore loaded">\n                  <a target="_self" href="javascript:;" shape="rect">Load more...</a>\n                </div>\n              </div>\n            </div>\n          </div>\n        </div>\n      </div>\n      <p class="comment-footer"> </p>\n      <div class="comment-form">\n        <a name="comment-form" shape="rect"></a>\n        <p> </p>\n        <a href="http://www.blogger.com/comment-iframe.g?blogID=7084047803873092694&amp;postID=5829421200030358541" id="comment-editor-src" shape="rect"></a>\n        <iframe width="100%" src="" name="comment-editor" height="410" allowtransparency="true" id="comment-editor" class="blogger-iframe-colorize blogger-comment-from-post" scrolling="auto" frameborder="0"></iframe>\n        <script src="//www.blogger.com/static/v1/jsbin/4030612614-comment_from_post_iframe.js" type="text/javascript"></script>\n        <script type="text/javascript"> BLOG_CMT_createIframe(\'http://www.blogger.com/rpc_relay.html\', \'03163363080907133822\'); </script>\n      </div>\n      <div id="backlinks-container">\n        <div id="Blog1_backlinks-container"> </div>\n      </div>\n    </div>\n    <div id="blog-pager" class="blog-pager">\n      <span id="blog-pager-newer-link">\n        <a title="Newer Post" href="http://adventuresinvanna.blogspot.com/2011/08/night-one-posting-from-porch-in.html" id="Blog1_blog-pager-newer-link" class="blog-pager-newer-link" shape="rect">Newer Post</a>\n      </span>\n      <a href="http://adventuresinvanna.blogspot.com/" class="home-link" shape="rect">Home</a>\n    </div>\n    <div class="clear"></div>\n    <div class="post-feeds">\n      <div class="feed-links">\n        Subscribe to:\n        <a type="application/atom+xml" target="_blank" href="http://adventuresinvanna.blogspot.com/feeds/5829421200030358541/comments/default" class="feed-link" shape="rect">Post Comments (Atom)</a>\n      </div>\n    </div>\n    <script type="text/javascript">\n      window.___gcfg = {\'lang\': \'en_GB\'};window.___gapisync = false;(function() {var po = document.createElement(\'script\');po.type = \'text/javascript\';po.async = true;po.src = \'https://apis.google.com/js/plusone.js\';var s = document.body.getElementsByTagName(\'script\')[0];s.parentNode.insertBefore(po, s);})();\n    </script>\n    <div class="column-left-outer">\n      <div class="column-left-inner">\n        <aside> </aside>\n      </div>\n    </div>\n    <div class="column-right-outer">\n      <div class="column-right-inner">\n        <aside>\n          <div id="sidebar-right-1" class="sidebar section">\n            <div id="Followers1" class="widget Followers">\n              <h2 class="title">Followers</h2>\n              <div class="widget-content">\n                <div id="Followers1-wrapper">\n                  <div style="margin-right:2px;">\n                    <script type="text/javascript"> if (!window.google || !google.friendconnect) { document.write(\'&lt;script type=&quot;text/javascript&quot;\' + \'src=&quot;http://www.google.com/friendconnect/script/friendconnect.js&quot;&gt;\' + \'&lt;/scr\'+\'ipt&gt;\'); } </script>\n                    <script type="text/javascript">\n                      if (!window.registeredBloggerCallbacks) {\n        window.registeredBloggerCallbacks = true;\n\n        \n\n        \n        gadgets.rpc.register(\'requestReload\', function() {\n          document.location.reload();\n        });\n\n        \n        gadgets.rpc.register(\'requestSignOut\', function(siteId) {\n          \n          google.friendconnect.container.openSocialSiteId = siteId;\n          google.friendconnect.requestSignOut();\n        });\n      }\n                    </script>\n                    <script type="text/javascript">\n                      function registerGetBlogUrls() {\n      gadgets.rpc.register(\'getBlogUrls\', function() {\n        var holder = {};\n        \n          \n            \n            \n              holder.currentPost = &quot;http://www.blogger.com/feeds/7084047803873092694/posts/default/5829421200030358541&quot;;\n            \n            \n            \n              holder.currentComments = &quot;http://www.blogger.com/feeds/7084047803873092694/5829421200030358541/comments/default&quot;;\n            \n            holder.currentPostUrl = &quot;&quot;;\n            holder.currentPostId = 5829421200030358541\n          \n          \n          \n            holder.postFeed = &quot;http://www.blogger.com/feeds/7084047803873092694/posts/default&quot;;\n          \n          \n          \n            holder.commentFeed = &quot;http://www.blogger.com/feeds/7084047803873092694/comments/default&quot;;\n          \n          holder.currentBlogUrl = &quot;http://adventuresinvanna.blogspot.com/&quot;;\n          holder.currentBlogId = &quot;7084047803873092694&quot;;\n        \n        return holder;\n      });\n    }\n                    </script>\n                    <script type="text/javascript">\n                      if (!window.registeredCommonBloggerCallbacks) {\n    window.registeredCommonBloggerCallbacks = true;\n\n    gadgets.rpc.register(\'resize_iframe\', function(height) {\n      var el = document.getElementById(this[\'f\']);\n      if (el) {\n        el.style.height = height + \'px\';\n      }\n    });\n\n    \n    gadgets.rpc.register(\'set_pref\', function() {});\n\n    registerGetBlogUrls();\n  }\n                    </script>\n                    <div style="width: 100%; " id="div-1lk359kpddsvt"></div>\n                    <script type="text/javascript">\n                      var skin = {};\n    skin[\'FACE_SIZE\'] = \'32\';\n    skin[\'HEIGHT\'] = &quot;260&quot;;\n    skin[\'TITLE\'] = &quot;Followers&quot;;\n    skin[\'BORDER_COLOR\'] = &quot;transparent&quot;;\n    skin[\'ENDCAP_BG_COLOR\'] = &quot;transparent&quot;;\n    skin[\'ENDCAP_TEXT_COLOR\'] = &quot;#ddeeff&quot;;\n    skin[\'ENDCAP_LINK_COLOR\'] = &quot;#77aaff&quot;;\n    skin[\'ALTERNATE_BG_COLOR\'] = &quot;transparent&quot;;\n    \n    skin[\'CONTENT_BG_COLOR\'] = &quot;transparent&quot;;\n    skin[\'CONTENT_LINK_COLOR\'] = &quot;#77aaff&quot;;\n    skin[\'CONTENT_TEXT_COLOR\'] = &quot;#ddeeff&quot;;\n    skin[\'CONTENT_SECONDARY_LINK_COLOR\'] = &quot;#77aaff&quot;;\n    skin[\'CONTENT_SECONDARY_TEXT_COLOR\'] = &quot;#778899&quot;;\n    skin[\'CONTENT_HEADLINE_COLOR\'] = &quot;#ffffff&quot;;\n    skin[\'FONT_FACE\'] = &quot;normal normal 14px Arial, Tahoma, Helvetica, FreeSans, sans-serif&quot;;\n    google.friendconnect.container.setParentUrl(&quot;/&quot;);\n    google.friendconnect.container[&quot;renderMembersGadget&quot;](\n    {id: &quot;div-1lk359kpddsvt&quot;,\n     height: 260,\n     \n     \n     \n     site: &quot;03163363080907133822&quot;,\n     \n     locale: \'en_GB\' },\n     skin);\n                    </script>\n                  </div>\n                </div>\n                <div class="clear"></div>\n                <span class="widget-item-control">\n                  <span class="item-control blog-admin">\n                    <a \n                    title="Edit" target="configFollowers1" onclick="return _WidgetManager._PopupConfig(document.getElementById(&quot;Followers1&quot;));" href="//www.blogger.com/rearrange?blogID=7084047803873092694&amp;widgetType=Followers&amp;widgetId=Followers1&amp;action=editWidget&amp;sectionId=sidebar-right-1" class="quickedit" shape="rect">\n                      <img width="18" src="http://img1.blogblog.com/img/icon18_wrench_allbkg.png" height="18" alt=""></img>\n</a>\n                  </span>\n                </span>\n                <div class="clear"></div>\n              </div>\n            </div>\n            <div id="BlogArchive1" class="widget BlogArchive">\n              <h2>Blog Archive</h2>\n              <div class="widget-content">\n                <div id="ArchiveList">\n                  <div id="BlogArchive1_ArchiveList">\n                    <ul class="hierarchy">\n                      <li class="archivedate expanded">\n                        <a href="javascript:void(0)" class="toggle" shape="rect">\n                          <span class="zippy toggle-open">\xe2\x96\xbc\xc2\xa0</span>\n                        </a>\n                        <a href="http://adventuresinvanna.blogspot.com/search?updated-min=2011-01-01T00:00:00-08:00&amp;updated-max=2012-01-01T00:00:00-08:00&amp;max-results=14" class="post-count-link" shape="rect">2011</a>\n                        <span dir="ltr" class="post-count">(14)</span>\n                        <ul class="hierarchy">\n                          <li class="archivedate collapsed">\n                            <a href="javascript:void(0)" class="toggle" shape="rect">\n                              <span class="zippy"> \xe2\x96\xba\xc2\xa0 </span>\n                            </a>\n                            <a href="http://adventuresinvanna.blogspot.com/2011_09_01_archive.html" class="post-count-link" shape="rect">September</a>\n                            <span dir="ltr" class="post-count">(8)</span>\n                          </li>\n                        </ul>\n                        <ul class="hierarchy">\n                          <li class="archivedate expanded">\n                            <a href="javascript:void(0)" class="toggle" shape="rect">\n                              <span class="zippy toggle-open">\xe2\x96\xbc\xc2\xa0</span>\n                            </a>\n                            <a href="http://adventuresinvanna.blogspot.com/2011_08_01_archive.html" class="post-count-link" shape="rect">August</a>\n                            <span dir="ltr" class="post-count">(6)</span>\n                            <ul class="posts">\n                              <li>\n                                <a href="http://adventuresinvanna.blogspot.com/2011/08/today-we-are-playaside.html" shape="rect">Today we are playaside!</a>\n                              </li>\n                              <li>\n                                <a href="http://adventuresinvanna.blogspot.com/2011/08/day-4-finish-colorado-utah-nevada.html" shape="rect">Day 4! Finish Colorado, Utah, NEVADA!</a>\n                              </li>\n                              <li>\n                                <a href="http://adventuresinvanna.blogspot.com/2011/08/day-3-kansas-colorado-but-it-was-lot.html" shape="rect">Day 3! Kansas, Colorado (but it was a lot!)</a>\n                              </li>\n                              <li>\n                                <a href="http://adventuresinvanna.blogspot.com/2011/08/day-2-indiana-illinois-missouri-kansas.html" shape="rect">Day 2! Indiana, Illinois, Missouri, Kansas</a>\n                              </li>\n                              <li>\n                                <a href="http://adventuresinvanna.blogspot.com/2011/08/night-one-posting-from-porch-in.html" shape="rect">Night one! posting from a porch in a Christian cam...</a>\n                              </li>\n                              <li>\n                                <a href="http://adventuresinvanna.blogspot.com/2011/08/and-were-off-its-long-one.html" shape="rect">And we\'re off! It\'s a long one!</a>\n                              </li>\n                            </ul>\n                          </li>\n                        </ul>\n                      </li>\n                    </ul>\n                  </div>\n                </div>\n                <div class="clear"></div>\n                <span class="widget-item-control">\n                  <span class="item-control blog-admin">\n                    <a \n                    title="Edit" target="configBlogArchive1" onclick="return _WidgetManager._PopupConfig(document.getElementById(&quot;BlogArchive1&quot;));" href="//www.blogger.com/rearrange?blogID=7084047803873092694&amp;widgetType=BlogArchive&amp;widgetId=BlogArchive1&amp;action=editWidget&amp;sectionId=sidebar-right-1" class="quickedit" shape="rect">\n                      <img width="18" src="http://img1.blogblog.com/img/icon18_wrench_allbkg.png" height="18" alt=""></img>\n</a>\n                  </span>\n                </span>\n                <div class="clear"></div>\n              </div>\n            </div>\n            <div id="Profile1" class="widget Profile">\n              <h2>About Me</h2>\n              <div class="widget-content">\n                <dl class="profile-datablock">\n                  <dt class="profile-data">\n                    <a style="background-image: url(//www.blogger.com/img/logo-16.png);" rel="author" href="http://www.blogger.com/profile/14218562044599783534" class="profile-name-link" shape="rect"> Sarah &amp; Betty </a>\n                  </dt>\n                  <dd class="profile-textblock">We are a couple of gals who like to travel &amp; Vanna is going to take us places.</dd>\n                </dl>\n                <a rel="author" href="http://www.blogger.com/profile/14218562044599783534" class="profile-link" shape="rect">View my complete profile</a>\n                <div class="clear"></div>\n                <span class="widget-item-control">\n                  <span class="item-control blog-admin">\n                    <a \n                    title="Edit" target="configProfile1" onclick="return _WidgetManager._PopupConfig(document.getElementById(&quot;Profile1&quot;));" href="//www.blogger.com/rearrange?blogID=7084047803873092694&amp;widgetType=Profile&amp;widgetId=Profile1&amp;action=editWidget&amp;sectionId=sidebar-right-1" class="quickedit" shape="rect">\n                      <img width="18" src="http://img1.blogblog.com/img/icon18_wrench_allbkg.png" height="18" alt=""></img>\n</a>\n                  </span>\n                </span>\n                <div class="clear"></div>\n              </div>\n            </div>\n          </div>\n        </aside>\n      </div>\n    </div>\n    <div style="clear: both"></div>\n    <div class="main-cap-bottom cap-bottom">\n      <div class="cap-left"></div>\n      <div class="cap-right"></div>\n    </div>\n    <footer>\n      <div class="footer-outer">\n        <div class="footer-cap-top cap-top">\n          <div class="cap-left"></div>\n          <div class="cap-right"></div>\n        </div>\n        <div class="fauxborder-left footer-fauxborder-left">\n          <div class="fauxborder-right footer-fauxborder-right"></div>\n          <div class="region-inner footer-inner">\n            <div id="footer-1" class="foot section"></div>\n            <div id="footer-3" class="foot section">\n              <div id="Attribution1" class="widget Attribution">\n                <div style="text-align: center;" class="widget-content">\n                  Watermark template. Powered by\n                  <a target="_blank" href="http://www.blogger.com" shape="rect">Blogger</a>\n                  .\n                </div>\n                <div class="clear"></div>\n                <span class="widget-item-control">\n                  <span class="item-control blog-admin">\n                    <a \n                    title="Edit" target="configAttribution1" onclick="return _WidgetManager._PopupConfig(document.getElementById(&quot;Attribution1&quot;));" href="//www.blogger.com/rearrange?blogID=7084047803873092694&amp;widgetType=Attribution&amp;widgetId=Attribution1&amp;action=editWidget&amp;sectionId=footer-3" class="quickedit" shape="rect">\n                      <img width="18" src="http://img1.blogblog.com/img/icon18_wrench_allbkg.png" height="18" alt=""></img>\n</a>\n                  </span>\n                </span>\n                <div class="clear"></div>\n              </div>\n            </div>\n          </div>\n        </div>\n        <div class="footer-cap-bottom cap-bottom">\n          <div class="cap-left"></div>\n          <div class="cap-right"></div>\n        </div>\n      </div>\n    </footer>\n    <div class="content-cap-bottom cap-bottom">\n      <div class="cap-left"></div>\n      <div class="cap-right"></div>\n    </div>\n    <script type="text/javascript"> window.setTimeout(function() { document.body.className = document.body.className.replace(\'loading\', \'\'); }, 10); </script>\n    <script type="text/javascript"> if (window.jstiming) window.jstiming.load.tick(\'widgetJsBefore\'); </script>\n    <script src="//www.blogger.com/static/v1/widgets/1040267425-widgets.js" type="text/javascript"></script>\n    <script type="text/javascript">\n      if (typeof(BLOG_attachCsiOnload) != \'undefined\' &amp;&amp; BLOG_attachCsiOnload != null) { window[\'blogger_templates_experiment_id\'] = &quot;templatesV2&quot;;window[\'blogger_blog_id\'] = \'7084047803873092694\';BLOG_attachCsiOnload(\'item_\'); }_WidgetManager._Init(\'//www.blogger.com/rearrange?blogID\\x3d7084047803873092694\',\'//adventuresinvanna.blogspot.com/2011/08/and-were-off-its-long-one.html\',\'7084047803873092694\');\n_WidgetManager._SetDataContext([{\'name\': \'blog\', \'data\': {\'blogId\': \'7084047803873092694\', \'bloggerUrl\': \'http://www.blogger.com\', \'title\': \'Adventures with Vanna Beige\', \'pageType\': \'item\', \'url\': \'http://adventuresinvanna.blogspot.com/2011/08/and-were-off-its-long-one.html\', \'canonicalUrl\': \'http://adventuresinvanna.blogspot.com/2011/08/and-were-off-its-long-one.html\', \'canonicalHomepageUrl\': \'http://adventuresinvanna.blogspot.com/\', \'homepageUrl\': \'http://adventuresinvanna.blogspot.com/\', \'blogspotFaviconUrl\': \'http://adventuresinvanna.blogspot.com/favicon.ico\', \'enabledCommentProfileImages\': true, \'adultContent\': false, \'disableAdSenseWidget\': false, \'analyticsAccountNumber\': \'\', \'searchLabel\': \'\', \'searchQuery\': \'\', \'pageName\': \'And we\\47re off! It\\47s a long one!\', \'pageTitle\': \'Adventures with Vanna Beige: And we\\47re off! It\\47s a long one!\', \'encoding\': \'UTF-8\', \'locale\': \'en-GB\', \'isPrivate\': false, \'isMobile\': false, \'isMobileRequest\': false, \'mobileClass\': \'\', \'isPrivateBlog\': false, \'languageDirection\': \'ltr\', \'feedLinks\': \'\\74link rel\\75\\42alternate\\42 type\\75\\42application/atom+xml\\42 title\\75\\42Adventures with Vanna Beige - Atom\\42 href\\75\\42http://adventuresinvanna.blogspot.com/feeds/posts/default\\42 /\\76\\n\\74link rel\\75\\42alternate\\42 type\\75\\42application/rss+xml\\42 title\\75\\42Adventures with Vanna Beige - RSS\\42 href\\75\\42http://adventuresinvanna.blogspot.com/feeds/posts/default?alt\\75rss\\42 /\\76\\n\\74link rel\\75\\42service.post\\42 type\\75\\42application/atom+xml\\42 title\\75\\42Adventures with Vanna Beige - Atom\\42 href\\75\\42http://www.blogger.com/feeds/7084047803873092694/posts/default\\42 /\\76\\n\\74link rel\\75\\42EditURI\\42 type\\75\\42application/rsd+xml\\42 title\\75\\42RSD\\42 href\\75\\42http://www.blogger.com/rsd.g?blogID\\0757084047803873092694\\42 /\\76\\n\\74link rel\\75\\42alternate\\42 type\\75\\42application/atom+xml\\42 title\\75\\42Adventures with Vanna Beige - Atom\\42 href\\75\\42http://adventuresinvanna.blogspot.com/feeds/5829421200030358541/comments/default\\42 /\\76\\n\', \'meTag\': \'\', \'openIdOpTag\': \'\', \'postImageThumbnailUrl\': \'http://4.bp.blogspot.com/-QgI2wPnFceA/TkPic2qFPTI/AAAAAAAAAAs/hrBD47MiPvE/s72-c/IMG_0773.JPG\', \'imageSrcTag\': \'\\74link rel\\75\\42image_src\\42 href\\75\\42http://4.bp.blogspot.com/-QgI2wPnFceA/TkPic2qFPTI/AAAAAAAAAAs/hrBD47MiPvE/s72-c/IMG_0773.JPG\\42 /\\76\\n\', \'latencyHeadScript\': \'\\74script type\\75\\42text/javascript\\42\\76(function() { var a\\75window,b\\75\\42jstiming\\42,d\\75\\42tick\\42;var e\\75function(c){this.t\\75{};this.tick\\75function(c,p,h){h\\75void 0!\\75h?h:(new Date).getTime();this.t[c]\\75[h,p]};this[d](\\42start\\42,null,c)},f\\75new e;a.jstiming\\75{Timer:e,load:f};if(a.performance\\46\\46a.performance.timing){var g\\75a.performance.timing,j\\75a[b].load,k\\75g.navigationStart,l\\75g.responseStart;0\\74k\\46\\46l\\76\\75k\\46\\46(j[d](\\42_wtsrt\\42,void 0,k),j[d](\\42wtsrt_\\42,\\42_wtsrt\\42,l),j[d](\\42tbsd_\\42,\\42wtsrt_\\42))}\\ntry{var m\\75null;a.chrome\\46\\46a.chrome.csi\\46\\46(m\\75Math.floor(a.chrome.csi().pageT),j\\46\\0460\\74k\\46\\46(j[d](\\42_tbnd\\42,void 0,a.chrome.csi().startE),j[d](\\42tbnd_\\42,\\42_tbnd\\42,k)));null\\75\\75m\\46\\46a.gtbExternal\\46\\46(m\\75a.gtbExternal.pageT());null\\75\\75m\\46\\46a.external\\46\\46(m\\75a.external.pageT,j\\46\\0460\\74k\\46\\46(j[d](\\42_tbnd\\42,void 0,a.external.startE),j[d](\\42tbnd_\\42,\\42_tbnd\\42,k)));m\\46\\46(a[b].pt\\75m)}catch(n){};a.tickAboveFold\\75function(c){var i\\0750;if(c.offsetParent){do i+\\75c.offsetTop;while(c\\75c.offsetParent)}c\\75i;750\\76\\75c\\46\\46a[b].load[d](\\42aft\\42)};var q\\75!1;function r(){q||(q\\75!0,a[b].load[d](\\42firstScrollTime\\42))}a.addEventListener?a.addEventListener(\\42scroll\\42,r,!1):a.attachEvent(\\42onscroll\\42,r);\\n })();\\74/script\\076\', \'mobileHeadScript\': \'\', \'ieCssRetrofitLinks\': \'\\74!--[if IE]\\76\\74script type\\75\\42text/javascript\\42 src\\75\\42//www.blogger.com/static/v1/jsbin/3651483553-ieretrofit.js\\42\\76\\74/script\\76\\n\\74![endif]--\\076\', \'view\': \'\', \'dynamicViewsCommentsSrc\': \'//www.blogblog.com/dynamicviews/4224c15c4e7c9321/js/comments.js\', \'dynamicViewsScriptSrc\': \'//www.blogblog.com/dynamicviews/04452fcc9c8aa994\'}}, {\'name\': \'skin\', \'data\': {\'vars\': {\'tabs_border_size\': \'0\', \'tabs_shadow_spread\': \'0\', \'link_visited_color\': \'#66ddff\', \'post_title_font\': \'normal normal 30px Georgia, Utopia, \\47Palatino Linotype\\47, Palatino, serif\', \'tabs_separator_color\': \'#556677\', \'tabs_text_color\': \'#77aaff\', \'post_shadow_spread\': \'0\', \'body_background_overlay_height\': \'256px\', \'main_cap_height\': \'0\', \'widget_title_font\': \'normal normal 20px Georgia, Utopia, \\47Palatino Linotype\\47, Palatino, serif\', \'body_background_overlay\': \'transparent url(http://www.blogblog.com/1kt/watermark/body_overlay_navigator.png) no-repeat scroll top center\', \'tabs_background_outer\': \'none\', \'body_background\': \'#002f44 url(http://www.blogblog.com/1kt/watermark/body_background_navigator.png) repeat scroll top left\', \'keycolor\': \'#002f44\', \'main_background\': \'transparent none no-repeat scroll top left\', \'header_font\': \'normal normal 60px Georgia, Utopia, \\47Palatino Linotype\\47, Palatino, serif\', \'post_border_style\': \'dotted\', \'footer_link_visited_color\': \'#66ddff\', \'post_background_url\': \'url(http://www.blogblog.com/1kt/watermark/post_background_navigator.png)\', \'footer_link_hover_color\': \'#ccddff\', \'mobile_background_overlay\': \'transparent none repeat scroll top left\', \'tabs_background_color\': \'transparent\', \'link_hover_color\': \'#ccddff\', \'footer_link_color\': \'#77aaff\', \'description_text_color\': \'#8899aa\', \'body_text_color\': \'#ddeeff\', \'post_border_color\': \'#112233\', \'footer_text_color\': \'#ddeeff\', \'post_background_color\': \'transparent\', \'endSide\': \'right\', \'post_footer_text_color\': \'#8899aa\', \'tabs_background_inner\': \'none\', \'tabs_font\': \'normal normal 20px Georgia, Utopia, \\47Palatino Linotype\\47, Palatino, serif\', \'startSide\': \'left\', \'body_font\': \'normal normal 14px Arial, Tahoma, Helvetica, FreeSans, sans-serif\', \'main_cap_overlay\': \'none\', \'date_text_color\': \'#8899aa\', \'widget_title_text_color\': \'#ffffff\', \'link_color\': \'#77aaff\', \'footer_widget_title_text_color\': \'#ffffff\', \'post_border_size\': \'1px\', \'main_cap_image\': \'none\', \'footer_background_color\': \'#001111\', \'header_text_color\': \'#ffffff\', \'date_font\': \'normal normal 16px Arial, Tahoma, Helvetica, FreeSans, sans-serif\', \'main_padding_top\': \'30px\', \'tabs_selected_text_color\': \'#ffffff\', \'body_background_color\': \'#002f44\', \'widget_alternate_text_color\': \'#778899\'}, \'override\': \'\'}}, {\'name\': \'view\', \'data\': {\'classic\': {\'name\': \'classic\', \'url\': \'/?view\\75classic\'}, \'flipcard\': {\'name\': \'flipcard\', \'url\': \'/?view\\75flipcard\'}, \'magazine\': {\'name\': \'magazine\', \'url\': \'/?view\\75magazine\'}, \'mosaic\': {\'name\': \'mosaic\', \'url\': \'/?view\\75mosaic\'}, \'sidebar\': {\'name\': \'sidebar\', \'url\': \'/?view\\75sidebar\'}, \'snapshot\': {\'name\': \'snapshot\', \'url\': \'/?view\\75snapshot\'}, \'timeslide\': {\'name\': \'timeslide\', \'url\': \'/?view\\75timeslide\'}}}]);\n_WidgetManager._RegisterWidget(\'_FollowersView\', new _WidgetInfo(\'Followers1\', \'sidebar-right-1\', null, document.getElementById(\'Followers1\'), {\'title\': \'Followers\', \'codeSnippet\': \'\\74script type\\75\\42text/javascript\\42\\76\\n        if (!window.google || !google.friendconnect) {\\n          document.write(\\47\\74script type\\75\\42text/javascript\\42\\47 +\\n              \\47src\\75\\42http://www.google.com/friendconnect/script/friendconnect.js\\42\\76\\47 +\\n              \\47\\74/scr\\47 + \\47ipt\\76\\47);\\n        }\\n      \\74/script\\76\\n\\74script type\\75\\42text/javascript\\42\\76\\n      if (!window.registeredBloggerCallbacks) {\\n        window.registeredBloggerCallbacks \\75 true;\\n\\n        \\n\\n        \\n        gadgets.rpc.register(\\47requestReload\\47, function() {\\n          document.location.reload();\\n        });\\n\\n        \\n        gadgets.rpc.register(\\47requestSignOut\\47, function(siteId) {\\n          \\n          google.friendconnect.container.openSocialSiteId \\75 siteId;\\n          google.friendconnect.requestSignOut();\\n        });\\n      }\\n    \\74/script\\76\\n\\74script type\\75\\42text/javascript\\42\\76\\n    \\n    function registerGetBlogUrls() {\\n      gadgets.rpc.register(\\47getBlogUrls\\47, function() {\\n        var holder \\75 {};\\n        \\n          \\n            \\n            \\n              holder.currentPost \\75 \\42http://www.blogger.com/feeds/7084047803873092694/posts/default/5829421200030358541\\42;\\n            \\n            \\n            \\n              holder.currentComments \\75 \\42http://www.blogger.com/feeds/7084047803873092694/5829421200030358541/comments/default\\42;\\n            \\n            holder.currentPostUrl \\75 \\42\\42;\\n            holder.currentPostId \\75 5829421200030358541\\n          \\n          \\n          \\n            holder.postFeed \\75 \\42http://www.blogger.com/feeds/7084047803873092694/posts/default\\42;\\n          \\n          \\n          \\n            holder.commentFeed \\75 \\42http://www.blogger.com/feeds/7084047803873092694/comments/default\\42;\\n          \\n          holder.currentBlogUrl \\75 \\42http://adventuresinvanna.blogspot.com/\\42;\\n          holder.currentBlogId \\75 \\0427084047803873092694\\42;\\n        \\n        return holder;\\n      });\\n    }\\n  \\74/script\\76\\n\\74script type\\75\\42text/javascript\\42\\76\\n  if (!window.registeredCommonBloggerCallbacks) {\\n    window.registeredCommonBloggerCallbacks \\75 true;\\n\\n    gadgets.rpc.register(\\47resize_iframe\\47, function(height) {\\n      var el \\75 document.getElementById(this[\\47f\\47]);\\n      if (el) {\\n        el.style.height \\75 height + \\47px\\47;\\n      }\\n    });\\n\\n    \\n    gadgets.rpc.register(\\47set_pref\\47, function() {});\\n\\n    registerGetBlogUrls();\\n  }\\n  \\74/script\\76\\n\\74div id\\75\\42div-176joqbih1o7k\\42 style\\75\\42width: 100%; \\42\\76\\74/div\\76\\n\\74script type\\75\\42text/javascript\\42\\76\\n    var skin \\75 {};\\n    skin[\\47FACE_SIZE\\47] \\75 \\04732\\47;\\n    skin[\\47HEIGHT\\47] \\75 \\042260\\42;\\n    skin[\\47TITLE\\47] \\75 \\42Followers\\42;\\n    skin[\\47BORDER_COLOR\\47] \\75 \\42transparent\\42;\\n    skin[\\47ENDCAP_BG_COLOR\\47] \\75 \\42transparent\\42;\\n    skin[\\47ENDCAP_TEXT_COLOR\\47] \\75 \\42#ddeeff\\42;\\n    skin[\\47ENDCAP_LINK_COLOR\\47] \\75 \\42#77aaff\\42;\\n    skin[\\47ALTERNATE_BG_COLOR\\47] \\75 \\42transparent\\42;\\n    \\n    skin[\\47CONTENT_BG_COLOR\\47] \\75 \\42transparent\\42;\\n    skin[\\47CONTENT_LINK_COLOR\\47] \\75 \\42#77aaff\\42;\\n    skin[\\47CONTENT_TEXT_COLOR\\47] \\75 \\42#ddeeff\\42;\\n    skin[\\47CONTENT_SECONDARY_LINK_COLOR\\47] \\75 \\42#77aaff\\42;\\n    skin[\\47CONTENT_SECONDARY_TEXT_COLOR\\47] \\75 \\42#778899\\42;\\n    skin[\\47CONTENT_HEADLINE_COLOR\\47] \\75 \\42#ffffff\\42;\\n    skin[\\47FONT_FACE\\47] \\75 \\42normal normal 14px Arial, Tahoma, Helvetica, FreeSans, sans-serif\\42;\\n    google.friendconnect.container.setParentUrl(\\42/\\42);\\n    google.friendconnect.container[\\42renderMembersGadget\\42](\\n    {id: \\42div-176joqbih1o7k\\42,\\n     height: 260,\\n     \\n     \\n     \\n     site: \\04203163363080907133822\\42,\\n     \\n     locale: \\47en_GB\\47 },\\n     skin);\\n  \\74/script\\076\'}, \'displayModeFull\'));\n_WidgetManager._RegisterWidget(\'_BlogArchiveView\', new _WidgetInfo(\'BlogArchive1\', \'sidebar-right-1\', null, document.getElementById(\'BlogArchive1\'), {\'languageDirection\': \'ltr\'}, \'displayModeFull\'));\n_WidgetManager._RegisterWidget(\'_ProfileView\', new _WidgetInfo(\'Profile1\', \'sidebar-right-1\', null, document.getElementById(\'Profile1\'), {}, \'displayModeFull\'));\n_WidgetManager._RegisterWidget(\'_AttributionView\', new _WidgetInfo(\'Attribution1\', \'footer-3\', null, document.getElementById(\'Attribution1\'), {\'attribution\': \'Watermark template. Powered by \\74a href\\75\\47http://www.blogger.com\\47 target\\75\\47_blank\\47\\76Blogger\\74/a\\76.\'}, \'displayModeFull\'));\n_WidgetManager._RegisterWidget(\'_HeaderView\', new _WidgetInfo(\'Header1\', \'header\', null, document.getElementById(\'Header1\'), {}, \'displayModeFull\'));\n_WidgetManager._RegisterWidget(\'_NavbarView\', new _WidgetInfo(\'Navbar1\', \'navbar\', null, document.getElementById(\'Navbar1\'), {}, \'displayModeFull\'));\n_WidgetManager._RegisterWidget(\'_BlogView\', new _WidgetInfo(\'Blog1\', \'main\', null, document.getElementById(\'Blog1\'), {\'cmtInteractionsEnabled\': false, \'lightboxEnabled\': true, \'lightboxModuleUrl\': \'//www.blogger.com/static/v1/jsbin/3811339452-lbx_en-GB.js\', \'lightboxCssUrl\': \'//www.blogger.com/static/v1/v-css/228702327-lightbox_bundle.css\'}, \'displayModeFull\'));\n    </script>\n  </body>\n</html>'
p11
sbsS'mentions'
p12
(lp13
(iedu.umass.cs.iesl.wikilink.expanded.data.ttypes
Mention
p14
(dp15
S'anchor_text'
p16
S'Black Rock Desert'
p17
sS'context'
p18
(iedu.umass.cs.iesl.wikilink.expanded.data.ttypes
Context
p19
(dp20
S'middle'
p21
S'Black Rock Desert'
p22
sS'right'
p23
S"\xc2\xa0for Burning Man where she'll take care of us for a total of 12 days on playa. We've put a lot of blood, sweat and"
p24
sS'left'
p25
S"And we're off! It's a long one! I can't believe we're leaving TONIGHT for our 3 week journey. Ultimately Vanna will take us to the"
p26
sbsS'freebase_id'
p27
S'9202a8c04000641f80000000001bdb58'
p28
sS'raw_text_offset'
p29
I26937
sS'wiki_url'
p30
S'http://en.wikipedia.org/wiki/Black_Rock_Desert'
p31
sba(iedu.umass.cs.iesl.wikilink.expanded.data.ttypes
Mention
p32
(dp33
g16
S'Hwy 50'
p34
sg18
(iedu.umass.cs.iesl.wikilink.expanded.data.ttypes
Context
p35
(dp36
g21
S'Hwy 50'
p37
sg23
S'which is known as the loneliest highway in America and on to Reno, Nevada which is our staging ground for Burning Man. Then another 2'
p38
sg25
S'of the famous Westboro Baptist Church & Fred Phelps ) - did you notice their website name? yipes., Denver Colorado, up through Utah and across'
p39
sbsg27
S'9202a8c04000641f8000000000243fe4'
p40
sg29
I29726
sg30
S'http://en.wikipedia.org/wiki/U.S._Route_50'
p41
sbasS'doc_id'
p42
I12695
sS'rare_words'
p43
(lp44
(iedu.umass.cs.iesl.wikilink.expanded.data.ttypes
RareWord
p45
(dp46
S'word'
p47
S'battery'
p48
sS'offset'
p49
I38858
sba(iedu.umass.cs.iesl.wikilink.expanded.data.ttypes
RareWord
p50
(dp51
g47
S'route'
p52
sg49
I28798
sba(iedu.umass.cs.iesl.wikilink.expanded.data.ttypes
RareWord
p53
(dp54
g47
S'daily'
p55
sg49
I28949
sba(iedu.umass.cs.iesl.wikilink.expanded.data.ttypes
RareWord
p56
(dp57
g47
S'Tradesman'
p58
sg49
I27157
sba(iedu.umass.cs.iesl.wikilink.expanded.data.ttypes
RareWord
p59
(dp60
g47
S'sub'
p61
sg49
I41238
sba(iedu.umass.cs.iesl.wikilink.expanded.data.ttypes
RareWord
p62
(dp63
g47
S"she's"
p64
sg49
I23795
sba(iedu.umass.cs.iesl.wikilink.expanded.data.ttypes
RareWord
p65
(dp66
g47
S'known'
p67
sg49
I29746
sba(iedu.umass.cs.iesl.wikilink.expanded.data.ttypes
RareWord
p68
(dp69
g47
S'interstate'
p70
sg49
I28202
sba(iedu.umass.cs.iesl.wikilink.expanded.data.ttypes
RareWord
p71
(dp72
g47
S'girl'
p73
sg49
I27557
sba(iedu.umass.cs.iesl.wikilink.expanded.data.ttypes
RareWord
p74
(dp75
g47
S'size'
p76
sg49
I28266
sbasb.