(iedu.umass.cs.iesl.wikilink.expanded.data.ttypes
WikiLinkItem
p0
(dp1
S'url'
p2
S'http://activerain.com/blogsview/668479/cleveland-browns-running-backs'
p3
sS'content'
p4
(iedu.umass.cs.iesl.wikilink.expanded.data.ttypes
PageContentItem
p5
(dp6
S'articleText'
p7
NsS'raw'
p8
NsS'fullText'
p9
NsS'dom'
p10
S'<html>\n  <head>\n    <title>Cleveland Browns Running backs</title>\n    <script>\n      (function() {\n    var cx = \'016474116467456296202:zcdp2tq_pxi\'\n    var gcse = document.createElement(\'script\'); gcse.type = \'text/javascript\'; gcse.async = true;\n    gcse.src = (document.location.protocol == \'https:\' ? \'https:\' : \'http:\') +\n        \'//www.google.com/cse/cse.js?cx=\' + cx;\n    var s = document.getElementsByTagName(\'script\')[0]; s.parentNode.insertBefore(gcse, s);\n  })();\n    </script>\n    <script charset="utf-8" type="text/javascript">\n      if (top != self ) {\n  var frame_whitelist = [document.location.hostname];\n  var frame_i;\n  var frame_test = frame_whitelist.length;\n  var frame_safe = false;\n  for (frame_i=0; frame_i &lt; frame_test ; frame_i++) {\n    if (document.referrer.indexOf(frame_whitelist[frame_i]) != -1 ) {\n      frame_safe = true;\n    }\n  }\n  if (frame_safe === false) {\n    top.location.replace(document.location);\n  } else {\n    document.write(&quot;&lt;link rel=\'stylesheet\' href=\'/stylesheets/tempest_scroll_bars.css\'&gt;&quot;)\n  }\n}\n    </script>\n    <meta content="I will give you that you have a starter and a great pick up from the Ravens last year. I have to ask who is behind him? I like the back up jerome harrison with a great catch ability. You need at least three solids\xc3\x82\xc2\xa0 and Jamal Lewis is and older, " name="description"></meta>\n    <meta content="http://activerain.com/blogsview/668479/cleveland-browns-running-backs" property="og:url"></meta>\n    <meta content="http://activerain.com/system/s3_buckets/activerain-image-store-2/agents/957/27957/huge/IMG_1417%20-%20Copy.jpg?1346036577" property="og:image"></meta>\n    <meta content="www.activerain.com" property="og:site_name"></meta>\n    <meta content="company" property="og:type"></meta>\n    <meta content="1239513501,1653307921" property="fb:admins"></meta>\n    <meta content="Business: Real Estate" name="classification"></meta>\n    <meta content="Business: Real Estate" name="category"></meta>\n    <meta content="4V8uxY1wliTUUps0MtNHCt8kaPckkPh7ElLu8u119GI=" name="verify-v1"></meta>\n    <link type="text/css" rel="stylesheet" media="screen" href="http://activeagent-prod-assets3.ar-img.com/stylesheets/style_and_forms.css?1348686621"></link>\n    <link type="text/css" rel="stylesheet" media="screen" href="http://activeagent-prod-assets1.ar-img.com/stylesheets/signup.css?1348686621"></link>\n    <link type="text/css" rel="stylesheet" media="screen" href="http://activeagent-prod-assets2.ar-img.com/plugin_assets/active_engine/stylesheets/ads.css?1348686638"></link>\n    <script type="text/javascript" src="http://activeagent-prod-assets1.ar-img.com/javascripts/active_engine_js.js?1348686638"></script>\n    <script type="text/javascript" src="http://activeagent-prod-assets1.ar-img.com/javascripts/app_and_iepngfix.js?1348686621"></script>\n    <link type="text/css" rel="stylesheet" media="screen" href="http://activeagent-prod-assets2.ar-img.com/stylesheets/sections.css?1348686621"></link>\n    <link href="/blogs/okaloosamls/rss" title="Northwest Florida Realtor" type="application/rss+xml" rel="alternate"></link>\n    <script type="text/javascript" src="/plugin_assets/active_engine/javascripts/tiny_mce/tiny_mce.js"></script>\n    <script type="text/javascript">\n      var _gaq = _gaq || [];\n  _gaq.push([\'_setAccount\', \'UA-15408048-1\']);\n  _gaq.push([\'_trackPageview\']);\n\n  (function() {\n    var ga = document.createElement(\'script\'); ga.type = \'text/javascript\'; ga.async = true;\n    ga.src = (\'https:\' == document.location.protocol ? \'https://ssl\' : \'http://www\') + \'.google-analytics.com/ga.js\';\n    var s = document.getElementsByTagName(\'script\')[0]; s.parentNode.insertBefore(ga, s);\n  })();\n    </script>\n  </head>\n  <body>\n    <div id="fancy_scrollbar">\n      <link type="text/css" rel="stylesheet" media="screen" href="http://activeagent-prod-assets3.ar-img.com/stylesheets/header.css?1348686621"></link>\n      <script charset="utf-8" type="text/javascript">\n        window.onload=function(){\n      $(\'header_search_selector\').observe(\'change\', function() {\n          if ($F(\'header_search_selector\') == &quot;google&quot;) {\n              $(&quot;hit_router_search_container&quot;).style.display = &quot;none&quot;;\n              $(&quot;header_google_search&quot;).style.display = &quot;block&quot;;\n          }\n          else {\n              $(&quot;header_google_search&quot;).style.display = &quot;none&quot;;\n              $(&quot;hit_router_search_container&quot;).style.display = &quot;block&quot;;\n          }\n      })\n    }\n\n  function toggle_header_sub_menu(link_id, sub_nav_id) {\n    if ($(sub_nav_id).style.display == &quot;block&quot;) {\n      $(sub_nav_id).style.display = &quot;none&quot;;\n      $(link_id).style.background = &quot;url(/images/blue_arrow_right.gif) no-repeat 0px 5px&quot;;\n    } else {\n      $(sub_nav_id).style.display = &quot;block&quot;;\n      $(link_id).style.background = &quot;url(/images/blue_down_arrow.gif) no-repeat 0px 5px&quot;;\n    }\n  }\n      </script>\n      <div style="position: relative; z-index: 9999">\n        <div id="header_top"></div>\n        <div style="text-align:left;" id="logo_wrapper">\n          <iframe \n          allowtransparency="true" src="https://www.facebook.com/plugins/like.php?href=http%3A%2F%2Fwww.activerain.com&amp;send=false&amp;layout=button_count&amp;width=450&amp;show_faces=false&amp;action=like&amp;colorscheme=light&amp;font&amp;height=35" id="fb_header_like_button" scrolling="no" frameborder="0">\n</iframe>\n          <div id="google_plus_container" class="google_plus_container">\n            <g:plusone href="http://www.activerain.com" size="medium"></g:plusone>\n          </div>\n          <div id="logo">\n            <a style="position:absolute; left:14px; top:-10px;" href="/" shape="rect">\n              <img src="http://activeagent-prod-assets2.ar-img.com/images/headers/ar_home_logo.png?1348686621" alt="ActiveRain real estate agent network"></img>\n            </a>\n          </div>\n          <div id="header_search_wrapper">\n            <div id="main_header_cloud"></div>\n            <select name="header_search_selector" id="header_search_selector">\n              <option value="hitrouter">Search Listings</option>\n              <option value="google">Search ActiveRain</option>\n            </select>\n            <div id="header_google_search">\n              <form action="/search" method="get" enctype="application/x-www-form-urlencoded">\n                <input value="blogs" name="more" id="more" type="hidden"></input>\n                <input value="016474116467456296202:zcdp2tq_pxi" name="cx" type="hidden"></input>\n                <input value="FORID:10" name="cof" type="hidden"></input>\n                <input value="ISO-8859-1" name="ie" type="hidden"></input>\n                <input name="q" id="header_google_search_text" type="text"></input>\n                <input value="Search" name="commit" id="header_google_search_submit" type="submit"></input>\n              </form>\n              <script src="https://www.google.com/cse/brand?form=cse-search-box&amp;lang=en" type="text/javascript"></script>\n            </div>\n            <div id="hit_router_search_container">\n              <form \n              onsubmit="new Ajax.Updater(\'clickbar_city_results\', \'/action/nav/city_search/okaloosamls\', {asynchronous:true, evalScripts:true, onComplete:function(request){$(\'clickbar_city_results\').style.display = \'block\'; currentIndex=-1}, parameters:Form.serialize(this)}); return false;" autocomplete="off" action="/action/nav/city_search/okaloosamls" id="results_form" method="post" enctype="application/x-www-form-urlencoded">\n                <input value="Find Homes for Sale in your city" style="" onkeydown="handle_keys(this, event)" onfocus="lr_focus(this)" onblur="lr_blur(this)" name="c_q" id="c_q" type="text"></input>\n                <img src="http://activeagent-prod-assets1.ar-img.com/images/headers/ar_home_b_search.png?1348686621" alt="Ar_home_b_search"></img>\n                <input value="Find Homes for Sale in your city" name="phrase" id="phrase" type="hidden"></input>\n                <input name="source" id="source" type="hidden"></input>\n                <input name="source_id" id="source_id" type="hidden"></input>\n                <div style="display:none" id="clickbar_city_results"></div>\n</form>\n              <script charset="utf-8" type="text/javascript">\n                var currentIndex = -1\n  var default_phrase = &quot;Find Homes for Sale in your city&quot;;\n  new Form.Element.Observer(&quot;c_q&quot;, 0.5, check_dropdown)\n  \n  function check_dropdown(el, value) {\n    if(value.blank() || value.length &lt; 3 || value == &quot;&quot; || value == default_phrase) { $(\'clickbar_city_results\').hide(); return }\n    $(\'results_form\').onsubmit()\n  }\n  \n  function lr_focus(e) {\n    if(e.value == default_phrase) { e.value = &quot;&quot;; return }\n    $(\'clickbar_city_results\').show()\n  }\n  function lr_blur(e) {\n    if(e.value.blank()) { e.value = default_phrase; }\n  }\n  \n  function handle_keys(elm, event) {\n    if(Event.KEY_ESC == event.keyCode) {\n      elm.value = &quot;&quot;\n      $(\'clickbar_city_results\').hide()\n    }\n    if(Event.KEY_DOWN == event.keyCode) {\n      return run_highlight(1)\n    }\n    if(Event.KEY_UP == event.keyCode) {\n      return run_highlight(-1)\n    }\n    if(Event.KEY_RETURN == event.keyCode &amp;&amp; currentIndex &gt; -1) {\n      $(\'c_q\').value = &quot;&quot;\n      $(\'clickbar_city_results\').hide()\n      window.location.href = $$(&quot;#clickbar_city_results li&quot;)[currentIndex].down().href\n      // window.open($$(&quot;#clickbar_city_results li&quot;)[currentIndex].down().href)\n    }\n  }\n  \n  function run_highlight(direction) {\n    clear_highlights()\n    max = $$(&quot;#clickbar_city_results li&quot;).length\n    currentIndex += direction\n    if(currentIndex &lt; 0) { currentIndex = max - 1; }\n    if(currentIndex &gt;= max) { currentIndex = 0 }\n    $$(&quot;#clickbar_city_results li&quot;)[currentIndex].addClassName(&quot;highlight&quot;)\n    return true\n  }\n  \n  function clear_highlights() {\n    $$(&quot;#clickbar_city_results li&quot;).invoke(&quot;removeClassName&quot;, &quot;highlight&quot;)\n  }\n              </script>\n            </div>\n            <div id="little_header_cloud"></div>\n          </div>\n        </div>\n        <div id="member_count">\n          <div class="layout">\n            <div class="auth_link"> </div>\n          </div>\n        </div>\n        <ul id="top_menu" class="top_level_menu">\n          <li>\n            <a href="http://www.activerainuniversity.com" shape="rect">University</a>\n          </li>\n          <li>\n            <a href="/search" shape="rect">Search</a>\n          </li>\n          <li>\n            <a href="/groups" shape="rect">Groups</a>\n          </li>\n          <li>\n            <a href="/bloghome" shape="rect">Blogs</a>\n          </li>\n          <li>\n            <a href="/groups/activeraincontests" shape="rect">Contests</a>\n          </li>\n          <li>\n            <a href="/action/question/list_questions" shape="rect">Q&amp;A</a>\n          </li>\n          <script type="text/javascript"> function go_to_state_page(state) { window.location.href = &quot;/states/&quot; + state; } function go_to_channel_page(channel) { window.location.href = &quot;/action/channels/&quot; + channel; } </script>\n          <li>\n            <span onclick="toggle_channel(\'consumer\')" class="fake_menu_item dropdown_link">\n              Channels\n              <img width="11" src="http://activeagent-prod-assets1.ar-img.com/images/headers/ar_home_nav_arrow_down.png?1348686621" height="9" alt="Ar_home_nav_arrow_down"></img>\n            </span>\n            <span style="display:none; width: 420px; margin-left: -300px" id="consumer_dropdown" class="top_dropdown"> </span>\n            <div style="padding: 5px;">\n              <div style="width: 200px; float: left; margin-right: 10px">\n                <span class="inner_menu_header">Consumer</span>\n                <ul>\n                  <li>\n                    <a onclick="go_to_channel_page(\'home_buying\'); return false;" href="#" shape="rect">Home Buying</a>\n                  </li>\n                  <li>\n                    <a onclick="go_to_channel_page(\'home_improvement\'); return false;" href="#" shape="rect">Home Improvement</a>\n                  </li>\n                  <li>\n                    <a onclick="go_to_channel_page(\'regional_localism\'); return false;" href="#" shape="rect">Regional (Localism)</a>\n                  </li>\n                  <li>\n                    <a onclick="go_to_channel_page(\'real_estate_investing_foreclosures\'); return false;" href="#" shape="rect">Real Estate Investing</a>\n                  </li>\n                  <li>\n                    <a onclick="go_to_channel_page(\'home_selling\'); return false;" href="#" shape="rect">Home Selling</a>\n                  </li>\n                  <li>\n                    <a onclick="go_to_channel_page(\'real_estate_market\'); return false;" href="#" shape="rect">Real Estate Market</a>\n                  </li>\n                  <li>\n                    <a onclick="go_to_channel_page(\'moving\'); return false;" href="#" shape="rect">Moving</a>\n                  </li>\n                  <li>\n                    <a onclick="go_to_channel_page(\'consumer_mortgage_finance\'); return false;" href="#" shape="rect">Mortgage / Finance</a>\n                  </li>\n                </ul>\n              </div>\n              <div style="width: 200px; float: left;">\n                <span class="inner_menu_header">Professional</span>\n                <ul>\n                  <li>\n                    <a onclick="go_to_channel_page(\'activerain\'); return false;" href="#" shape="rect">ActiveRain</a>\n                  </li>\n                  <li>\n                    <a onclick="go_to_channel_page(\'technology_and_tools\'); return false;" href="#" shape="rect">Technology and Tools</a>\n                  </li>\n                  <li>\n                    <a onclick="go_to_channel_page(\'training\'); return false;" href="#" shape="rect">Training</a>\n                  </li>\n                  <li>\n                    <a onclick="go_to_channel_page(\'professional_mortgage_finance\'); return false;" href="#" shape="rect">Mortgage / Finance</a>\n                  </li>\n                  <li>\n                    <a onclick="go_to_channel_page(\'sales_strategies_tactics\'); return false;" href="#" shape="rect">Sales Strategies / Tactics</a>\n                  </li>\n                  <li>\n                    <a onclick="go_to_channel_page(\'offline_marketing\'); return false;" href="#" shape="rect">Offline Marketing</a>\n                  </li>\n                  <li>\n                    <a onclick="go_to_channel_page(\'networking\'); return false;" href="#" shape="rect">Networking</a>\n                  </li>\n                  <li>\n                    <a onclick="go_to_channel_page(\'online_marketing\'); return false;" href="#" shape="rect">Online Marketing</a>\n                  </li>\n                </ul>\n              </div>\n              <br style="clear: both" clear="none"></br>\n            </div>\n          </li>\n          <li>\n            <span onclick="toggle_channel(\'state\');" class="fake_menu_item dropdown_link">\n              States\n              <img width="11" src="http://activeagent-prod-assets1.ar-img.com/images/headers/ar_home_nav_arrow_down.png?1348686621" height="9" alt="Ar_home_nav_arrow_down"></img>\n            </span>\n            <span style="display:none;" id="state_dropdown" class="top_dropdown"> </span>\n            <div style="padding: 5px">\n              <span style="text-align: left" class="inner_menu_header">USA</span>\n              <ul>\n                <li style="text-align: center">\n                  <a title="Alabama" onclick="go_to_state_page(\'AL\'); return false;" href="#" class="dropdown_link" shape="rect">AL</a>\n                </li>\n                <li style="text-align: center">\n                  <a title="Alaska" onclick="go_to_state_page(\'AK\'); return false;" href="#" class="dropdown_link" shape="rect">AK</a>\n                </li>\n                <li style="text-align: center">\n                  <a title="Arizona" onclick="go_to_state_page(\'AZ\'); return false;" href="#" class="dropdown_link" shape="rect">AZ</a>\n                </li>\n                <li style="text-align: center">\n                  <a title="Arkansas" onclick="go_to_state_page(\'AR\'); return false;" href="#" class="dropdown_link" shape="rect">AR</a>\n                </li>\n                <li style="text-align: center">\n                  <a title="California" onclick="go_to_state_page(\'CA\'); return false;" href="#" class="dropdown_link" shape="rect">CA</a>\n                </li>\n                <li style="text-align: center">\n                  <a title="Colorado" onclick="go_to_state_page(\'CO\'); return false;" href="#" class="dropdown_link" shape="rect">CO</a>\n                </li>\n                <li style="text-align: center">\n                  <a title="Connecticut" onclick="go_to_state_page(\'CT\'); return false;" href="#" class="dropdown_link" shape="rect">CT</a>\n                </li>\n                <li style="text-align: center">\n                  <a title="Delaware" onclick="go_to_state_page(\'DE\'); return false;" href="#" class="dropdown_link" shape="rect">DE</a>\n                </li>\n                <li style="text-align: center">\n                  <a title="District of Columbia" onclick="go_to_state_page(\'DC\'); return false;" href="#" class="dropdown_link" shape="rect">DC</a>\n                </li>\n                <li style="text-align: center">\n                  <a title="Florida" onclick="go_to_state_page(\'FL\'); return false;" href="#" class="dropdown_link" shape="rect">FL</a>\n                </li>\n                <li style="text-align: center">\n                  <a title="Georgia" onclick="go_to_state_page(\'GA\'); return false;" href="#" class="dropdown_link" shape="rect">GA</a>\n                </li>\n                <li style="text-align: center">\n                  <a title="Hawaii" onclick="go_to_state_page(\'HI\'); return false;" href="#" class="dropdown_link" shape="rect">HI</a>\n                </li>\n                <li style="text-align: center">\n                  <a title="Idaho" onclick="go_to_state_page(\'ID\'); return false;" href="#" class="dropdown_link" shape="rect">ID</a>\n                </li>\n                <li style="text-align: center">\n                  <a title="Illinois" onclick="go_to_state_page(\'IL\'); return false;" href="#" class="dropdown_link" shape="rect">IL</a>\n                </li>\n                <li style="text-align: center">\n                  <a title="Indiana" onclick="go_to_state_page(\'IN\'); return false;" href="#" class="dropdown_link" shape="rect">IN</a>\n                </li>\n                <li style="text-align: center">\n                  <a title="Iowa" onclick="go_to_state_page(\'IA\'); return false;" href="#" class="dropdown_link" shape="rect">IA</a>\n                </li>\n                <li style="text-align: center">\n                  <a title="Kansas" onclick="go_to_state_page(\'KS\'); return false;" href="#" class="dropdown_link" shape="rect">KS</a>\n                </li>\n                <li style="text-align: center">\n                  <a title="Kentucky" onclick="go_to_state_page(\'KY\'); return false;" href="#" class="dropdown_link" shape="rect">KY</a>\n                </li>\n                <li style="text-align: center">\n                  <a title="Louisiana" onclick="go_to_state_page(\'LA\'); return false;" href="#" class="dropdown_link" shape="rect">LA</a>\n                </li>\n                <li style="text-align: center">\n                  <a title="Maine" onclick="go_to_state_page(\'ME\'); return false;" href="#" class="dropdown_link" shape="rect">ME</a>\n                </li>\n                <li style="text-align: center">\n                  <a title="Maryland" onclick="go_to_state_page(\'MD\'); return false;" href="#" class="dropdown_link" shape="rect">MD</a>\n                </li>\n                <li style="text-align: center">\n                  <a title="Massachusetts" onclick="go_to_state_page(\'MA\'); return false;" href="#" class="dropdown_link" shape="rect">MA</a>\n                </li>\n                <li style="text-align: center">\n                  <a title="Michigan" onclick="go_to_state_page(\'MI\'); return false;" href="#" class="dropdown_link" shape="rect">MI</a>\n                </li>\n                <li style="text-align: center">\n                  <a title="Minnesota" onclick="go_to_state_page(\'MN\'); return false;" href="#" class="dropdown_link" shape="rect">MN</a>\n                </li>\n                <li style="text-align: center">\n                  <a title="Mississippi" onclick="go_to_state_page(\'MS\'); return false;" href="#" class="dropdown_link" shape="rect">MS</a>\n                </li>\n                <li style="text-align: center">\n                  <a title="Missouri" onclick="go_to_state_page(\'MO\'); return false;" href="#" class="dropdown_link" shape="rect">MO</a>\n                </li>\n                <li style="text-align: center">\n                  <a title="Montana" onclick="go_to_state_page(\'MT\'); return false;" href="#" class="dropdown_link" shape="rect">MT</a>\n                </li>\n                <li style="text-align: center">\n                  <a title="Nebraska" onclick="go_to_state_page(\'NE\'); return false;" href="#" class="dropdown_link" shape="rect">NE</a>\n                </li>\n                <li style="text-align: center">\n                  <a title="Nevada" onclick="go_to_state_page(\'NV\'); return false;" href="#" class="dropdown_link" shape="rect">NV</a>\n                </li>\n                <li style="text-align: center">\n                  <a title="New Hampshire" onclick="go_to_state_page(\'NH\'); return false;" href="#" class="dropdown_link" shape="rect">NH</a>\n                </li>\n                <li style="text-align: center">\n                  <a title="New Jersey" onclick="go_to_state_page(\'NJ\'); return false;" href="#" class="dropdown_link" shape="rect">NJ</a>\n                </li>\n                <li style="text-align: center">\n                  <a title="New Mexico" onclick="go_to_state_page(\'NM\'); return false;" href="#" class="dropdown_link" shape="rect">NM</a>\n                </li>\n                <li style="text-align: center">\n                  <a title="New York" onclick="go_to_state_page(\'NY\'); return false;" href="#" class="dropdown_link" shape="rect">NY</a>\n                </li>\n                <li style="text-align: center">\n                  <a title="North Carolina" onclick="go_to_state_page(\'NC\'); return false;" href="#" class="dropdown_link" shape="rect">NC</a>\n                </li>\n                <li style="text-align: center">\n                  <a title="North Dakota" onclick="go_to_state_page(\'ND\'); return false;" href="#" class="dropdown_link" shape="rect">ND</a>\n                </li>\n                <li style="text-align: center">\n                  <a title="Ohio" onclick="go_to_state_page(\'OH\'); return false;" href="#" class="dropdown_link" shape="rect">OH</a>\n                </li>\n                <li style="text-align: center">\n                  <a title="Oklahoma" onclick="go_to_state_page(\'OK\'); return false;" href="#" class="dropdown_link" shape="rect">OK</a>\n                </li>\n                <li style="text-align: center">\n                  <a title="Oregon" onclick="go_to_state_page(\'OR\'); return false;" href="#" class="dropdown_link" shape="rect">OR</a>\n                </li>\n                <li style="text-align: center">\n                  <a title="Pennsylvania" onclick="go_to_state_page(\'PA\'); return false;" href="#" class="dropdown_link" shape="rect">PA</a>\n                </li>\n                <li style="text-align: center">\n                  <a title="Rhode Island" onclick="go_to_state_page(\'RI\'); return false;" href="#" class="dropdown_link" shape="rect">RI</a>\n                </li>\n                <li style="text-align: center">\n                  <a title="South Carolina" onclick="go_to_state_page(\'SC\'); return false;" href="#" class="dropdown_link" shape="rect">SC</a>\n                </li>\n                <li style="text-align: center">\n                  <a title="South Dakota" onclick="go_to_state_page(\'SD\'); return false;" href="#" class="dropdown_link" shape="rect">SD</a>\n                </li>\n                <li style="text-align: center">\n                  <a title="Tennessee" onclick="go_to_state_page(\'TN\'); return false;" href="#" class="dropdown_link" shape="rect">TN</a>\n                </li>\n                <li style="text-align: center">\n                  <a title="Texas" onclick="go_to_state_page(\'TX\'); return false;" href="#" class="dropdown_link" shape="rect">TX</a>\n                </li>\n                <li style="text-align: center">\n                  <a title="US Virgin Islands" onclick="go_to_state_page(\'VI\'); return false;" href="#" class="dropdown_link" shape="rect">VI</a>\n                </li>\n                <li style="text-align: center">\n                  <a title="Utah" onclick="go_to_state_page(\'UT\'); return false;" href="#" class="dropdown_link" shape="rect">UT</a>\n                </li>\n                <li style="text-align: center">\n                  <a title="Vermont" onclick="go_to_state_page(\'VT\'); return false;" href="#" class="dropdown_link" shape="rect">VT</a>\n                </li>\n                <li style="text-align: center">\n                  <a title="Virginia" onclick="go_to_state_page(\'VA\'); return false;" href="#" class="dropdown_link" shape="rect">VA</a>\n                </li>\n                <li style="text-align: center">\n                  <a title="Washington" onclick="go_to_state_page(\'WA\'); return false;" href="#" class="dropdown_link" shape="rect">WA</a>\n                </li>\n                <li style="text-align: center">\n                  <a title="West Virginia" onclick="go_to_state_page(\'WV\'); return false;" href="#" class="dropdown_link" shape="rect">WV</a>\n                </li>\n                <li style="text-align: center">\n                  <a title="Wisconsin" onclick="go_to_state_page(\'WI\'); return false;" href="#" class="dropdown_link" shape="rect">WI</a>\n                </li>\n                <li style="text-align: center">\n                  <a title="Wyoming" onclick="go_to_state_page(\'WY\'); return false;" href="#" class="dropdown_link" shape="rect">WY</a>\n                </li>\n              </ul>\n              <span style="text-align: left" class="inner_menu_header">Canada</span>\n              <ul>\n                <li style="text-align: center">\n                  <a title="Alberta" onclick="go_to_state_page(\'AB\'); return false;" href="#" class="dropdown_link" shape="rect">AB</a>\n                </li>\n                <li style="text-align: center">\n                  <a title="British Columbia" onclick="go_to_state_page(\'BC\'); return false;" href="#" class="dropdown_link" shape="rect">BC</a>\n                </li>\n                <li style="text-align: center">\n                  <a title="Manitoba" onclick="go_to_state_page(\'MB\'); return false;" href="#" class="dropdown_link" shape="rect">MB</a>\n                </li>\n                <li style="text-align: center">\n                  <a title="New Brunswick" onclick="go_to_state_page(\'NB\'); return false;" href="#" class="dropdown_link" shape="rect">NB</a>\n                </li>\n                <li style="text-align: center">\n                  <a title="Newfoundland" onclick="go_to_state_page(\'NL\'); return false;" href="#" class="dropdown_link" shape="rect">NL</a>\n                </li>\n                <li style="text-align: center">\n                  <a title="North West Territories" onclick="go_to_state_page(\'NT\'); return false;" href="#" class="dropdown_link" shape="rect">NT</a>\n                </li>\n                <li style="text-align: center">\n                  <a title="Nova Scotia" onclick="go_to_state_page(\'NS\'); return false;" href="#" class="dropdown_link" shape="rect">NS</a>\n                </li>\n                <li style="text-align: center">\n                  <a title="Nunavut" onclick="go_to_state_page(\'NU\'); return false;" href="#" class="dropdown_link" shape="rect">NU</a>\n                </li>\n                <li style="text-align: center">\n                  <a title="Ontario" onclick="go_to_state_page(\'ON\'); return false;" href="#" class="dropdown_link" shape="rect">ON</a>\n                </li>\n                <li style="text-align: center">\n                  <a title="Prince Edward Island" onclick="go_to_state_page(\'PE\'); return false;" href="#" class="dropdown_link" shape="rect">PE</a>\n                </li>\n                <li style="text-align: center">\n                  <a title="Quebec" onclick="go_to_state_page(\'QC\'); return false;" href="#" class="dropdown_link" shape="rect">QC</a>\n                </li>\n                <li style="text-align: center">\n                  <a title="Saskatchewan" onclick="go_to_state_page(\'SK\'); return false;" href="#" class="dropdown_link" shape="rect">SK</a>\n                </li>\n                <li style="text-align: center">\n                  <a title="Yukon" onclick="go_to_state_page(\'YN\'); return false;" href="#" class="dropdown_link" shape="rect">YN</a>\n                </li>\n              </ul>\n              <br style="clear: both" clear="none"></br>\n            </div>\n          </li>\n        </ul>\n        <span id="my_home_link"> </span>\n        <ul>\n          <li style="float: right;">\n            <a href="/login" shape="rect">Login</a>\n          </li>\n          <li style="float: right; color: white; font-size: 130%;">|</li>\n          <li style="float: right;">\n            <a href="/action/signup" shape="rect">Sign Up</a>\n          </li>\n        </ul>\n      </div>\n      <table cellspacing="0" cellpadding="0" width="100%" id="blog_content">\n        <tr>\n          <td rowspan="1" colspan="1">\n            <div id="custom_blog_header"></div>\n          </td>\n        </tr>\n        <tr>\n          <td class="blog_content_td" valign="top" rowspan="1" colspan="1">\n            <table height="100%" width="100%">\n              <tr valign="top">\n                <td width="5px" rowspan="1" colspan="1">\xc2\xa0</td>\n                <td valign="top" rowspan="1" colspan="1">\n                  <div id="content_wrapper">\n                    <style media="screen" type="text/css">\n                      body {\n  background: ;\n  margin: 0;\n  padding: 0;\n}\ntable#blog_content {\n  width: 960px;\n  margin: 0 auto;\n}\ntd.blog_content_td {\n  background: #ffffff;\n}\n#top_menu {\n  border: none;\n}\n\n#top_menu li a, #top_menu li span.fake_menu_item {\n}\n\n#top_menu .top_dropdown ul li a:hover {\n  background: none !important;\n}\n\n#logo_wrapper {\n  background: white;\n}\n\n#header {\n  margin-top: 0;\n  padding-top: 0;\n  border: none !important;\n}\n.nav {\n  margin: 0 !important;\n  border-width: 0 !important;\n}\n\n#top_menu .top_dropdown {\n  border: none;\n  \n}\n#top_menu .top_dropdown a, #top_menu .top_dropdown .inner_menu_header {\n  \n}\n#top_menu .top_dropdown .inner_menu_header {\n  text-decoration: underline;\n}\n#top_menu .top_dropdown ul li a:hover {\n  \n  font-weight: bold;\n}\n.top_dropdown {\n  margin-top: 5px;\n}\n* html ul.top_level_menu {\n  display: inline-block;\n  position: relative;\n  z-index: 1000;\n}\n* + html ul.top_level_menu {\n  display: inline-block;\n  position: relative;\n  z-index: 1000;\n}\n* html .top_dropdown {\n\tmargin-top: 3px;\n\tz-index: 1000;\n}\n* + html .top_dropdown {\n  margin-top: 19px;\n  z-index: 1000;\n}\n                    </style>\n                    <div id="breadcrumbs">\n                      <a href="/" shape="rect">Home</a>\n                      :\n                      <a href="/bloghome" shape="rect">Blogs</a>\n                      :\n                      <a href="/okaloosamls" rel="author" shape="rect">Brandon Jordan</a>\n                      :\n                      <a href="/blogs/okaloosamls" shape="rect">Northwest Florida Realtor</a>\n                    </div>\n                    <div align="left">\n                      <table width="100%">\n                        <tr valign="top">\n                          <td valign="top" rowspan="1" colspan="1">\n                            <div class="blog_entry_wrapper">\n                              <style> .reblog { margin-left: 4px; } </style>\n                              <div id="blog_entry_668479" class="blog_entry">\n                                <div style="position:relative; overflow:auto; width:100%">\n                                  <div style="margin-left:0px; width: 222px; float: right; border: 0px solid red; height: 30px; position: relative;" id="blog_social_links_668479">\n                                    <span style="border: 0px solid green; position: absolute; top: 0px; right: 166px;">\n                                      <iframe \n                                      allowtransparency="true" style="border:none; overflow:hidden; width:52px; height:35px;" src="http://www.facebook.com/plugins/like.php?href=http://activerain.com/blogsview/668479/cleveland-browns-running-backs&amp;send=false&amp;layout=standard&amp;width=152&amp;show_faces=false&amp;action=like&amp;colorscheme=light&amp;font&amp;height=35" scrolling="no" frameborder="0">\n</iframe>\n                                    </span>\n                                    <span style="border: 0px solid red; position: absolute; top: 0px; right: 124px;">\n                                      <g:plusone href="http://activerain.com/blogsview/668479/cleveland-browns-running-backs" count="false"></g:plusone>\n                                    </span>\n                                    <span style="border: 0px solid red; position: absolute; top: 0px; right: 60px;">\n                                      <script src="http://platform.linkedin.com/in.js" type="text/javascript"></script>\n                                      <script data-url="http://activerain.com/blogsview/668479/cleveland-browns-running-backs" type="in/share"></script>\n                                    </span>\n                                    <span style="border: 0px solid red; position: absolute; top: 0px; right: 0px;">\n                                      <a data-count="none" data-url="http://activerain.com/blogsview/668479/cleveland-browns-running-backs" href="http://twitter.com/share" class="twitter-share-button" shape="rect">Tweet</a>\n                                      <script src="http://platform.twitter.com/widgets.js" type="text/javascript"></script>\n                                    </span>\n                                  </div>\n                                  <div>\n                                    <h1 style="margin-top:2px; font-size: 16px;">\n                                      <a rel="bookmark" href="http://activerain.com/blogsview/668479/cleveland-browns-running-backs" shape="rect">Cleveland Browns Running backs</a>\n                                    </h1>\n                                  </div>\n                                  <p>\n                                    I will give you that you have a starter and a great pick up from the Ravens last year. I have to ask who is behind him? I like the back up jerome harrison with a great catch ability. You need at least three solids\xc2\xa0 and Jamal Lewis is and older back and has played more years than most so you would want to limit over use. Travis Thomas is a great experiment but\n                                  </p>\n                                  <p>\xc2\xa0</p>\n                                  <p>There are some great options on the market .</p>\n                                  <p>\xc2\xa0</p>\n                                  <p>what a difference two years make. I ran across this story when looked up history on available running backs on the market. for Mike bell</p>\n                                  <p>\xc2\xa0</p>\n                                  <p>\n                                    \xc2\xa0\n                                    <img width="195" alt="Mike Bell" height="262" border="0" src="http://assets.espn.go.com/photo/2006/0807/nfl_mikebell_195.jpg"></img>\n                                  </p>\n                                  <p>\n                                    DENVER -- Broncos rookie running back\n                                    <a href="http://sports.espn.go.com/nfl/players/profile?statsId=8008" shape="rect">Mike Bell</a>\n                                    was told to see Mike Shanahan in his office Sunday evening.\n                                  </p>\n                                  <p>\xc2\xa0nervously climbed the stairs, different scenarios raced through his head.</p>\n                                  <p>All of them negative.</p>\n                                  <p>&quot;I was shaking,&quot; Bell said.</p>\n                                  <p>\n                                    Bell was shaking with excitement after Shanahan informed him he\'d been elevated to the top running back position. Bell couldn\'t believe he\'d bypassed\n                                    <a href="http://sports.espn.go.com/nfl/players/profile?statsId=5040" shape="rect">Ron Dayne</a>\n                                    and\n                                    <a href="http://sports.espn.go.com/nfl/players/profile?statsId=6800" shape="rect">Tatum Bell</a>\n                                    . On Monday, Mike Bell was running with the first-team offense. Tatum Bell is second on the depth chart and Dayne third.\n                                  </p>\n                                  <p>&quot;This is a dream come true,&quot; said Bell, an undrafted rookie out of Arizona who grew up a Broncos fan. &quot;For him [Shanahan] to give me the opportunity to be the starter [for] a great organization like this is a blessing.&quot;</p>\n                                  <p>\xc2\xa0</p>\n                                  <p>\xc2\xa0</p>\n                                  <p>\n                                    <strong>#2</strong>\n                                  </p>\n                                  <p>\n                                    Lorenzo \xc2\xa0Neal is best known as an exceptional blocking fullback, and has blocked for 1000 yard rushers in 11 straight seasons (\n                                    <a title="Adrian Murrell" href="http://en.wikipedia.org/wiki/Adrian_Murrell" shape="rect">Adrian Murrell</a>\n                                    in\n                                    <a title="1997" href="http://en.wikipedia.org/wiki/1997" shape="rect">1997</a>\n                                    ,\n                                    <a title="Warrick Dunn" href="http://en.wikipedia.org/wiki/Warrick_Dunn" shape="rect">Warrick Dunn</a>\n                                    in\n                                    <a title="1998" href="http://en.wikipedia.org/wiki/1998" shape="rect">1998</a>\n                                    ,\n                                    <a title="Eddie George" href="http://en.wikipedia.org/wiki/Eddie_George" shape="rect">Eddie George</a>\n                                    in\n                                    <a title="1999" href="http://en.wikipedia.org/wiki/1999" shape="rect">1999</a>\n                                    -\n                                    <a title="2000" href="http://en.wikipedia.org/wiki/2000" shape="rect">2000</a>\n                                    ,\n                                    <a title="Corey Dillon" href="http://en.wikipedia.org/wiki/Corey_Dillon" shape="rect">Corey Dillon</a>\n                                    from\n                                    <a title="2001" href="http://en.wikipedia.org/wiki/2001" shape="rect">2001</a>\n                                    -\n                                    <a title="2002" href="http://en.wikipedia.org/wiki/2002" shape="rect">2002</a>\n                                    , and\n                                    <a title="LaDainian Tomlinson" href="http://en.wikipedia.org/wiki/LaDainian_Tomlinson" shape="rect">LaDainian Tomlinson</a>\n                                    from\n                                    <a title="2003" href="http://en.wikipedia.org/wiki/2003" shape="rect">2003</a>\n                                    to\n                                    <a title="2007" href="http://en.wikipedia.org/wiki/2007" shape="rect">2007</a>\n                                    .)\n                                  </p>\n                                  <p>\n                                    <a \n                                    href="http://images.google.com/imgres?imgurl=http://broncotalk.net/wordpress/wp-content/uploads/2008/06/lorenzoneal.jpg&amp;imgrefurl=http://broncotalk.net/2008/06/lorenzo-neal-says-denver-is-on-his-radar/&amp;h=272&amp;w=330&amp;sz=30&amp;hl=en&amp;start=3&amp;um=1&amp;usg=__-ERWVOl0gNo2tW5Dt-cYRGNmRWg=&amp;tbnid=RqmfxkZgOWynYM:&amp;tbnh=98&amp;tbnw=119&amp;prev=/images%3Fq%3Dlorenzo%2Bneal%26um%3D1%26hl%3Den%26sa%3DN" shape="rect">\n                                      <img width="119" alt="" height="98" src="http://tbn0.google.com/images?q=tbn:RqmfxkZgOWynYM:http://broncotalk.net/wordpress/wp-content/uploads/2008/06/lorenzoneal.jpg"></img>\n</a>\n                                  </p>\n                                  <p>\xc2\xa0</p>\n                                  <p>#3</p>\n                                  <p>\n                                    <a \n                                    href="http://images.google.com/imgres?imgurl=http://i.a.cnn.net/si/2004/writers/peter_king/08/29/mmqb.fantasy/p1_johnson_rudi.jpg&amp;imgrefurl=http://phillybri.blogspot.com/2005_12_01_archive.html&amp;h=459&amp;w=300&amp;sz=41&amp;hl=en&amp;start=1&amp;um=1&amp;usg=__ioxs7T_gWbkJdOvT5llf0VfeMRU=&amp;tbnid=uvx2RNdC_kPkuM:&amp;tbnh=128&amp;tbnw=84&amp;prev=/images%3Fq%3Drudi%2Bjohnson%26um%3D1%26hl%3Den" shape="rect">\n                                      <img width="84" alt="" height="128" src="http://tbn0.google.com/images?q=tbn:uvx2RNdC_kPkuM:http://i.a.cnn.net/si/2004/writers/peter_king/08/29/mmqb.fantasy/p1_johnson_rudi.jpg"></img>\n</a>\n                                    \xc2\xa0\xc2\xa0\xc2\xa0\xc2\xa0\xc2\xa0\xc2\xa0\xc2\xa0\xc2\xa0\xc2\xa0\xc2\xa0\xc2\xa0\xc2\xa0\xc2\xa0 games\xc2\xa0\xc2\xa0\xc2\xa0\xc2\xa0\xc2\xa0\xc2\xa0 yards\xc2\xa0 per\n                                  </p>\n                                  <table border="0" cellspacing="0">\n                                    <tbody>\n                                      <tr class="rowAlt">\n                                        <td rowspan="1" colspan="1">2006</td>\n                                        <td rowspan="1" colspan="1">\n                                          <a href="http://www.nfl.com/teams/cincinnatibengals/profile?team=CIN" shape="rect">Cincinnati Bengals</a>\n                                        </td>\n                                        <td rowspan="1" colspan="1">16</td>\n                                        <td rowspan="1" colspan="1">15</td>\n                                        <td rowspan="1" colspan="1">341</td>\n                                        <td rowspan="1" colspan="1">1,309</td>\n                                        <td rowspan="1" colspan="1">3.8</td>\n                                        <td rowspan="1" colspan="1">22T</td>\n                                        <td rowspan="1" colspan="1">12</td>\n                                        <td rowspan="1" colspan="1">23</td>\n                                        <td rowspan="1" colspan="1">124</td>\n                                        <td rowspan="1" colspan="1">5.4</td>\n                                        <td rowspan="1" colspan="1">18</td>\n                                        <td rowspan="1" colspan="1">0</td>\n                                        <td rowspan="1" colspan="1">6</td>\n                                        <td rowspan="1" colspan="1">2</td>\n                                      </tr>\n                                      <tr>\n                                        <td rowspan="1" colspan="1">2005</td>\n                                        <td rowspan="1" colspan="1">\n                                          <a href="http://www.nfl.com/teams/cincinnatibengals/profile?team=CIN" shape="rect">Cincinnati Bengals</a>\n                                        </td>\n                                        <td rowspan="1" colspan="1">16</td>\n                                        <td rowspan="1" colspan="1">14</td>\n                                        <td rowspan="1" colspan="1">337</td>\n                                        <td rowspan="1" colspan="1">1,458</td>\n                                        <td rowspan="1" colspan="1">4.3</td>\n                                        <td rowspan="1" colspan="1">33</td>\n                                        <td rowspan="1" colspan="1">12</td>\n                                        <td rowspan="1" colspan="1">23</td>\n                                        <td rowspan="1" colspan="1">90</td>\n                                        <td rowspan="1" colspan="1">3.9</td>\n                                        <td rowspan="1" colspan="1">15</td>\n                                        <td rowspan="1" colspan="1">0</td>\n                                        <td rowspan="1" colspan="1">1</td>\n                                        <td rowspan="1" colspan="1">0</td>\n                                      </tr>\n                                      <tr>\n                                        <td rowspan="1" colspan="1">2004</td>\n                                        <td rowspan="1" colspan="1">\n                                          <a href="http://www.nfl.com/teams/cincinnatibengals/profile?team=CIN" shape="rect">Cincinnati Bengals</a>\n                                        </td>\n                                        <td rowspan="1" colspan="1">16</td>\n                                        <td rowspan="1" colspan="1">16</td>\n                                        <td rowspan="1" colspan="1">361</td>\n                                        <td rowspan="1" colspan="1">1,454</td>\n                                        <td rowspan="1" colspan="1">4.0</td>\n                                        <td rowspan="1" colspan="1">52</td>\n                                        <td rowspan="1" colspan="1">12</td>\n                                        <td rowspan="1" colspan="1">15</td>\n                                        <td rowspan="1" colspan="1">84</td>\n                                        <td rowspan="1" colspan="1">5.6</td>\n                                        <td rowspan="1" colspan="1">30</td>\n                                        <td rowspan="1" colspan="1">0</td>\n                                        <td rowspan="1" colspan="1">4</td>\n                                      </tr>\n                                    </tbody>\n                                  </table>\n                                  <p>\n                                    <a target="nwfr" href="http://www.northwestfloridarealtor.com" shape="rect">\n                                      Florida Real Estate with Brandon Jordan, your Northwest Florida Realtor and ActiveRain featured Realtor for Okaloosa County since 2007. We provide this information and much more on our site for you at no charge, so please remember us when you\'re looking to buy or sell real estate.\n                                    </a>\n                                  </p>\n                                  <div class="agent_signature">\n                                    <p>\n                                      <a \n                                      style="font-family: \'lucida grande\',tahoma,verdana,arial,sans-serif; font-size: 11px; font-variant: normal; font-style: normal; font-weight: normal; color: #3b5998; text-decoration: none;" target="_TOP" title="Brandon Jordan, Realtor,E-PRO,Coldwell Banker" href="https://www.facebook.com/pages/Brandon-Jordan-RealtorE-PROColdwell-Banker/109626093558" shape="rect">\n                                        Brandon Jordan, Realtor,E-PRO,Coldwell Banker\n</a>\n                                      <br clear="none"></br>\n                                      <a target="_TOP" title="Brandon Jordan, Realtor,E-PRO,Coldwell Banker" href="https://www.facebook.com/pages/Brandon-Jordan-RealtorE-PROColdwell-Banker/109626093558" shape="rect">\n                                        <img style="border: 0px;" alt="" src="https://badge.facebook.com/badge/109626093558.8507.465334160.png"></img>\n                                      </a>\n                                    </p>\n                                    <p>Thank you for adding me as a friend over the years on Facebook.</p>\n                                    <p>Now like my new business page on Facebook.</p>\n                                    <p>\n                                      <a href="http://www.linkedin.com/in/brandonjordan" shape="rect">\n                                        <img width="160" alt="View Brandon Jordan\'s profile on LinkedIn" height="33" border="0" src="http://www.linkedin.com/img/webpromo/btn_myprofile_160x33.gif"></img>\n                                      </a>\n                                    </p>\n                                    <p>\n                                      <a href="http://okaloosamls.wordpress.com/" shape="rect">\n                                        <img alt="" src="http://faq.files.wordpress.com/2006/07/comments-rss.png"></img>\n                                      </a>\n                                    </p>\n                                  </div>\n                                  <div class="clearer">\xc2\xa0</div>\n                                </div>\n                              </div>\n                            </div>\n                            <div id="divbei668479">\n                              <div style="width: 300px; float: right; margin-left: 15px" id="facebook">\n                                <iframe \n                                allowtransparency="true" style="border:none; overflow:hidden; width:300px; height:80px;" src="http://www.facebook.com/plugins/like.php?href=http%3A%2F%2Factiverain.com%2Fblogsview%2F668479%2Fcleveland-browns-running-backs&amp;layout=standard&amp;show_faces=true&amp;width=300&amp;action=like&amp;font=verdana&amp;colorscheme=light&amp;height=80" scrolling="no" frameborder="0">\n</iframe>\n                              </div>\n                              <div class="blog_footer">\n                                <table>\n                                  <tr valign="middle">\n                                    <td rowspan="1" colspan="1">\n                                      Posted by\n                                      <a href="/okaloosamls" shape="rect">Brandon Jordan</a>\n                                      on 08/31/2008 04:35 PM\n                                    </td>\n                                    <td style="border-right:solid 2px #888888;" rowspan="1" colspan="1">\xc2\xa0</td>\n                                    <td rowspan="1" colspan="1">\n                                      <a style="white-space:nowrap;" href="http://activerain.com/blogsview/668479/cleveland-browns-running-backs" shape="rect">Comments (0)</a>\n                                    </td>\n                                    <td style="border-right:solid 2px #888888;" rowspan="1" colspan="1">\xc2\xa0</td>\n                                    <td rowspan="1" colspan="1">\n                                      <a href="/action/channels/activerain/topics/clevland_browns_running_backs" shape="rect">Clevland Browns Running Backs</a>\n                                      in the\n                                      <a href="/action/channels/activerain" shape="rect">ActiveRain</a>\n                                      Channel\n                                    </td>\n                                    <td style="border-right:solid 2px #888888;" rowspan="1" colspan="1">\xc2\xa0</td>\n                                    <td rowspan="1" colspan="1">\n                                      <a href="/blogs/okaloosamls/tags/clevland%20browns%20running%20backs" shape="rect">clevland browns running backs</a>\n                                    </td>\n                                    <td style="border-right:solid 2px #888888;" rowspan="1" colspan="1">\xc2\xa0</td>\n                                  </tr>\n                                </table>\n                                <table>\n                                  <tr valign="middle">\n                                    <td rowspan="1" colspan="1">\n                                      Originally posted at:\n                                      <a href="http://okaloosamls.activerain.com/post/668479/cleveland-browns-running-backs" shape="rect">Northwest Florida Realtor: Cleveland Browns Running backs</a>\n                                    </td>\n                                  </tr>\n                                </table>\n                                <table>\n                                  <tr valign="middle">\n                                    <td rowspan="1" colspan="1">\n                                      <span id="short_url">\n                                        <a onclick="new Ajax.Updater(\'short_url\', \'/action/blogs/shorten_url/668479\', {asynchronous:true, evalScripts:true, method:\'post\'}); return false;" href="#" shape="rect">Generate short URL</a>\n                                      </span>\n                                    </td>\n                                  </tr>\n                                </table>\n                              </div>\n                            </div>\n                            <a name="comments" shape="rect"></a>\n                            <table style="clear:both">\n                              <tr>\n                                <td rowspan="1" colspan="1">\n                                  <p>\n                                    <b> 0 Comments on Cleveland Browns Running backs</b>\n                                  </p>\n                                  <p>\n                                    <b>\n                                      <a href="/login" shape="rect">Login</a>\n                                      or\n                                      <a href="/action/signup/new" shape="rect">register</a>\n                                      to leave a comment\n                                    </b>\n                                  </p>\n                                </td>\n                              </tr>\n                            </table>\n                          </td>\n                        </tr>\n                      </table>\n                    </div>\n                    <script charset="utf-8" type="text/javascript"> Event.observe(window, \'load\', initLazyLoad); function initLazyLoad() { $$(&quot;div.comment_image&quot;).each(function(e){ e.style.backgroundImage = &quot;url(&quot;+e.getAttribute(\'imagesrc\')+&quot;)&quot; }) } </script>\n                  </div>\n                </td>\n                <td width="5px" rowspan="1" colspan="1">\xc2\xa0</td>\n                <td width="210px" bgcolor="#FBFAEA" rowspan="1" colspan="1">\n                  <div style="width:220px;" id="blog_nav">\n                    <script>\n                      function contact(aid)\n{\n//documentation on this: http://prototype-window.xilinus.com/documentation.html\nvar win = new Window(\'modal_window\', \n\t\t\t\t\t{className: &quot;dialog&quot;, title: &quot;Contact&quot;,\n\t\t\t\t\ttop:30, left:30,  width:720, height:580, zIndex:150, \n\t\t\t\t\turl: &quot;/agents/contact?id=&quot; + aid,\n\t\t\t\t\topacity:1, resizable: true})\nwin.setDestroyOnClose();\nwin.show(true);\n}\n                    </script>\n                    <div style="text-align: center; margin-top: 10px" id="blog_profile" class="">\n                      <div onclick="window.location.href=\'/okaloosamls\'" style="margin-top: 15px; cursor: pointer" class="photo">\n                        <div style="z-index: 1000; position: relative; width:170px; margin: 0 auto">\n                          <img style="display: block" src="http://activerain.com/system/s3_buckets/activerain-image-store-2/agents/957/27957/large/IMG_1417%20-%20Copy.jpg?1346036577" alt="Img_1417%20-%20copy"></img>\n                          <img width="170" style="display: block" src="http://activeagent-prod-assets0.ar-img.com/images/badges/rainmaker_large.png?1348686621" height="37" alt="Rainmaker_large"></img>\n                        </div>\n                      </div>\n                      <p style="margin-bottom: 0; margin-top: 0">\n                        <b>Brandon Jordan</b>\n                      </p>\n                      <p style="margin-top: 0">\n                        <a href="/states/FL/cities/Crestview" shape="rect">Crestview</a>\n                        ,\n                        <a href="/states/FL" shape="rect">FL</a>\n                      </p>\n                      <p>\n                        <a href="/okaloosamls" shape="rect">More about me\xe2\x80\xa6 </a>\n                      </p>\n                      <p>Coldwell Banker United Realtors</p>\n                      <p>Office Phone: (850) 758-1236</p>\n                      <p>Cell Phone: (850) 758-1236</p>\n                      <p>\n                        <b>\n                          <a href="/okaloosamls/contact?return_url=%2Fblogsview%2F668479%2Fcleveland-browns-running-backs" shape="rect">Email Me</a>\n                        </b>\n                      </p>\n                    </div>\n                    <div style="text-align: left; margin-left:2px;margin-top:5px">\n                      <p>\n                        <iframe width="215" height="220" src="http://www.realestatetechnologyonline.com/widget/sms_widget.cfm?time=1&amp;pnum=8507581236&amp;pro=text.att&amp;ext=net" name="retechblog_widget" scrolling="no" frameborder="0"></iframe>\n                        <a target="nwfr" href="http://www.northwestfloridarealestateagent.com" shape="rect">\n                          Florida Real Estate with a Northwest Florida Realtor. Get information from here on the Emerald Coast. We work with real estate buyers and sellers in Crestview, Fort Walton Beach, Destin, Niceville, DeFuniak Springs, Eglin Air Force Base, South Walton Beaches, and surrounding areas. Add us to your homepage!\n                        </a>\n                        <br clear="none"></br>\n                        <br clear="none"></br>\n                        <a href="http://fusion.google.com/add?feedurl=http%3A//activerain.com/blogs/okaloosamls/atom" shape="rect">\n                          <img width="104" alt="Add to Google" height="17" border="0" src="http://buttons.googlesyndication.com/fusion/add.gif"></img>\n                        </a>\n                        <a href="http://add.my.yahoo.com/content?.intl=us&amp;url=http%3A//activerain.com/blogs/okaloosamls/atom" shape="rect">\n                          <img width="91" alt="Add to My Yahoo!" height="17" border="0" src="http://us.i1.yimg.com/us.yimg.com/i/us/my/addtomyyahoo4.gif"></img>\n                        </a>\n                        <a href="http://feeds.my.aol.com/?url=http%3A//activerain.com/blogs/okaloosamls/atom" shape="rect">\n                          <img width="92" alt="Add to myAOL" height="18" border="0" src="http://o.aolcdn.com/favorites.my.aol.com/webmaster/ffclient/webroot/locale/en-US/images/myAOLButtonSmall.gif"></img>\n                        </a>\n                        <a href="http://www.live.com/?add=http%3A//activerain.com/blogs/okaloosamls/atom/" shape="rect">\n                          <img style="width: 96px; height: 15px;" width="96" alt="" height="15" border="0" src="http://www.okaloosamls.com/wl.jpg"></img>\n                        </a>\n                        <img width="300" alt="" height="164" src="http://okaloosamls.files.wordpress.com/2010/06/epro2.jpg?w=300" title="epro" class="alignnone size-medium wp-image-871"></img>\n                        <img src="https://images.equator.com/images/cert/AgentCert_silver_reo_web.gif"></img>\n                        <a href="http://www.okaloosamls.com/search.asp" shape="rect">\n                          <img width="320" alt="Instant access! Search all area properties for sale free. Click here now!" height="133" src="http://www.okaloosamls.com/images/mls.jpg"></img>\n                        </a>\n                      </p>\n                      <object width="225" height="244">\n                        <param value="http://www.youtube.com/v/XC-jTPfuc8g&amp;color1=0xb1b1b1&amp;color2=0xcfcfcf&amp;hl=en&amp;feature=player_embedded&amp;fs=1" name="movie" valuetype="data"></param>\n                        <param value="true" name="allowFullScreen" valuetype="data"></param>\n                        <embed width="225" height="244" type="application/x-shockwave-flash" src="http://www.youtube.com/v/XC-jTPfuc8g&amp;color1=0xb1b1b1&amp;color2=0xcfcfcf&amp;hl=en&amp;feature=player_embedded&amp;fs=1" allowfullscreen="true"></embed>\n                      </object>\n                      <object width="640" height="385">\n                        <param value="http://www.youtube.com/v/IOWffhbEn60&amp;hl=en_US&amp;fs=1&amp;" name="movie" valuetype="data"></param>\n                        <param value="true" name="allowFullScreen" valuetype="data"></param>\n                        <param value="always" name="allowscriptaccess" valuetype="data"></param>\n                        <embed width="240" height="285" type="application/x-shockwave-flash" allowscriptaccess="always" src="http://www.youtube.com/v/IOWffhbEn60&amp;hl=en_US&amp;fs=1&amp;" allowfullscreen="true"></embed>\n                      </object>\n                    </div>\n                    <br clear="none"></br>\n                    <br clear="none"></br>\n                    <strong>\n                      <a href="javascript:expandCollapse(\'blog_listings\',\'http://activeagent-prod-assets1.ar-img.com/images/plus.gif?1348686621\',\'http://activeagent-prod-assets0.ar-img.com/images/minus.gif?1348686621\',true);" shape="rect">\n                        <img border="0" src="http://activeagent-prod-assets0.ar-img.com/images/minus.gif?1348686621" id="blog_listingsImage"></img>\n                      </a>\n                      Listings\n                    </strong>\n                    <hr></hr>\n                    <div id="blog_listings"> </div>\n                    <br clear="none"></br>\n                    <strong>\n                      <a href="javascript:expandCollapse(\'blog_links\',\'http://activeagent-prod-assets1.ar-img.com/images/plus.gif?1348686621\',\'http://activeagent-prod-assets0.ar-img.com/images/minus.gif?1348686621\',true);" shape="rect">\n                        <img border="0" src="http://activeagent-prod-assets0.ar-img.com/images/minus.gif?1348686621" id="blog_linksImage"></img>\n                      </a>\n                      Links\n                    </strong>\n                    <hr></hr>\n                    <div id="blog_links">\n                      <ul>\n                        <li>\n                          <a href="http://www.BAKERMLS.COM" shape="rect">Baker MLS</a>\n                        </li>\n                        <li>\n                          <a href="http://www.BlueMountainBeachMLS.com" shape="rect">Blue Mountain Beach MLS</a>\n                        </li>\n                        <li>\n                          <a href="http://BuyFloridaVacationHome.com" shape="rect">Buy Florida Vacation Home</a>\n                        </li>\n                        <li>\n                          <a href="http://www.CalhounCountyMLS.com" shape="rect">Calhoun County MLS</a>\n                        </li>\n                        <li>\n                          <a href="http://www.CalhounFlorida.com" shape="rect">Calhoun Florida</a>\n                        </li>\n                        <li>\n                          <a href="http://www.CalhounMLS.com" shape="rect">Calhoun MLS</a>\n                        </li>\n                        <li>\n                          <a href="http://www.CampCreekMLS.com" shape="rect">Camp Creek MLS</a>\n                        </li>\n                        <li>\n                          <a href="http://www.CbUnitedRealtor.com" shape="rect">CB United Realtor</a>\n                        </li>\n                        <li>\n                          <a href="http://www.ChoctawBeachMLS.com" shape="rect">Choctaw Beach MLS</a>\n                        </li>\n                        <li>\n                          <a href="http://www.CincoBayouMLS.com" shape="rect">Cinco Bayou MLS</a>\n                        </li>\n                        <li>\n                          <a href="http://www.CincoBayouRealEstate.com" shape="rect">Cinco Bayou Real Estate</a>\n                        </li>\n                        <li>\n                          <a href="http://www.ColdwellBankerCrestview.com" shape="rect">Coldwell Banker Crestview</a>\n                        </li>\n                        <li>\n                          <a href="http://www.CrestviewColdwellBankerc.com" shape="rect">Crestview Coldwell Banker</a>\n                        </li>\n                        <li>\n                          <a href="http://www.CrestviewERA.com" shape="rect">Crestview ERA</a>\n                        </li>\n                        <li>\n                          <a href="http://www.CrestviewsHomes.com" shape="rect">Crestview Homes</a>\n                        </li>\n                        <li>\n                          <a href="http://www.DefuniakMLS.com" shape="rect">Defuniak MLS</a>\n                        </li>\n                        <li>\n                          <a href="http://www.DefuniakSpringFlorida.com" shape="rect">Defuniak Spring Florida</a>\n                        </li>\n                        <li>\n                          <a href="http://www.DefuniakSpringsFloridaRealEstate.com" shape="rect">Defuniak Springs Florida Real Estate</a>\n                        </li>\n                        <li>\n                          <a href="http://www.DefuniakSpringsMLS.com" shape="rect">Defuniak Springs MLS</a>\n                        </li>\n                        <li>\n                          <a href="http://www.DefuniakSpringsRealEstateAgent.com" shape="rect">Defuniak Springs Real Estate Agent</a>\n                        </li>\n                        <li>\n                          <a href="http://www.DestinBeachMLS.com" shape="rect">Destin Beach MLS</a>\n                        </li>\n                        <li>\n                          <a href="http://www.DestinInvestments.com" shape="rect">Destin Investments</a>\n                        </li>\n                        <li>\n                          <a href="http://www.DestinERA.com" shape="rect">Destin ERA</a>\n                        </li>\n                        <li>\n                          <a href="http://www.DuneAllenBeachMLS.com" shape="rect">Dune Allen Beach MLS</a>\n                        </li>\n                        <li>\n                          <a href="http://www.EglinAFBFlorida.com" shape="rect">Eglin AFB Florida</a>\n                        </li>\n                        <li>\n                          <a href="http://www.EglinAirForceBaseFlorida.com" shape="rect">Eglin Air Force Base Florida</a>\n                        </li>\n                        <li>\n                          <a href="http://www.ERANiceville.com" shape="rect">ERA Niceville</a>\n                        </li>\n                        <li>\n                          <a href="http://www.ERAShalimar.com" shape="rect">ERA Shalimar</a>\n                        </li>\n                        <li>\n                          <a href="http://www.EscambiaCountyMLS.com" shape="rect">Escambia County MLS</a>\n                        </li>\n                        <li>\n                          <a href="http://www.EscambiaMLS.com" shape="rect">Escambia MLS</a>\n                        </li>\n                        <li>\n                          <a href="http://www.FloridaBuyHome.com" shape="rect">Florida Buy Home</a>\n                        </li>\n                        <li>\n                          <a href="http://www.FortWaltonBeachInvestments.com" shape="rect">Fort Walton Beach Investments</a>\n                        </li>\n                        <li>\n                          <a href="http://www.FreeportMLS.com" shape="rect">Freeport MLS</a>\n                        </li>\n                        <li>\n                          <a href="http://www.GraytonMLS.com" shape="rect">Grayton MLS</a>\n                        </li>\n                        <li>\n                          <a href="http://www.HolmesCountyMLS.com" shape="rect">Holmes County MLS</a>\n                        </li>\n                        <li>\n                          <a href="http://www.HolmesFlorida.com" shape="rect">Holmes Florida</a>\n                        </li>\n                        <li>\n                          <a href="http://www.HolmesMLS.com" shape="rect">Holmes MLS</a>\n                        </li>\n                        <li>\n                          <a href="http://www.HoltMLS.com" shape="rect">Holt MLS</a>\n                        </li>\n                        <li>\n                          <a href="http://www.HurlburtMLS.com" shape="rect">Hurlburt MLS</a>\n                        </li>\n                        <li>\n                          <a href="http://www.InletBeachMLS.com" shape="rect">Inlet Beach MLS</a>\n                        </li>\n                        <li>\n                          <a href="http://www.JacksonFlorida.com" shape="rect">Jackson Florida</a>\n                        </li>\n                        <li>\n                          <a href="http://www.LaurelHillInvestments.com" shape="rect">Laurel Hill Investments</a>\n                        </li>\n                        <li>\n                          <a href="http://www.LaurelHillMLS.com" shape="rect">Laurel Hill MLS</a>\n                        </li>\n                        <li>\n                          <a href="http://www.MaryEstherMLS.com" shape="rect">Mary Esther MLS</a>\n                        </li>\n                        <li>\n                          <a href="http://www.MiraMarBeachMLS.com" shape="rect">MiraMar Beach MLS</a>\n                        </li>\n                        <li>\n                          <a href="http://www.NicevilleERA.com" shape="rect">Niceville ERA</a>\n                        </li>\n                        <li>\n                          <a href="http://www.OkaloosaCountyMLS.com" shape="rect">Okaloosa County MLS</a>\n                        </li>\n                        <li>\n                          <a href="http://www.OkaloosaFlorida.com" shape="rect">Okaloosa Florida</a>\n                        </li>\n                        <li>\n                          <a href="http://www.OkaloosaMLS.com" shape="rect">Okaloosa MLS</a>\n                        </li>\n                        <li>\n                          <a href="http://www.PointWashingtonMLS.com" shape="rect">Point Washington MLS</a>\n                        </li>\n                        <li>\n                          <a href="http://www.RedBayMLS.com" shape="rect">Red Bay MLS</a>\n                        </li>\n                        <li>\n                          <a href="http://www.SanDestinMLS.com" shape="rect">SanDestin MLS</a>\n                        </li>\n                        <li>\n                          <a href="http://www.SantaRosaBeachMLS.com" shape="rect">Santa Rosa Beach MLS</a>\n                        </li>\n                        <li>\n                          <a href="http://www.SantaRosaCountyMLS.com" shape="rect">Santa Rosa County MLS</a>\n                        </li>\n                        <li>\n                          <a href="http://www.SeaCrestBeachMLS.com" shape="rect">SeaCrest Beach MLS</a>\n                        </li>\n                        <li>\n                          <a href="http://www.SeaGroveBeachMLS.com" shape="rect">Seagrove Beach MLS</a>\n                        </li>\n                        <li>\n                          <a href="http://www.SeasideBeachMLS.com" shape="rect">Seaside Beach MLS</a>\n                        </li>\n                        <li>\n                          <a href="http://www.ShalimarMLS.com" shape="rect">Shalimar MLS</a>\n                        </li>\n                        <li>\n                          <a href="http://www.TeamSoldRealEstateTv.com" shape="rect">Team Sold Real Estate TV</a>\n                        </li>\n                        <li>\n                          <a href="http://www.VALPARAISOMLS.COM " shape="rect">Valparaiso MLS</a>\n                        </li>\n                        <li>\n                          <a href="http://www.WaltonMLS.com" shape="rect">Walton MLS</a>\n                        </li>\n                        <li>\n                          <a href="HTTP://WALTONCOUNTYMLS.COM " shape="rect">Walton County MLS</a>\n                        </li>\n                        <li>\n                          <a href="HTTP://WWW.WASHINGTONFLORIDA.COM " shape="rect">Washington Florida</a>\n                        </li>\n                        <li>\n                          <a href="http://www.TeamSoldTV.COM" shape="rect">Team Sold Tv</a>\n                        </li>\n                        <li>\n                          <a href="http://www.ColdwellBankeriphone.com" shape="rect">Coldwell Banker iphone</a>\n                        </li>\n                        <li>\n                          <a href="http://www.WATERSOUNDMLS.COM " shape="rect">WaterSound MLS</a>\n                        </li>\n                        <li>\n                          <a href="http://www.iphoneColdwellBanker.com" shape="rect">iphone Coldwell Banker</a>\n                        </li>\n                        <li>\n                          <a href="HTTP://WWW.WRIGHTMLS.COM" shape="rect">Wright MLS</a>\n                        </li>\n                        <li>\n                          <a href="http://www.BuyAFloridaVacationHome.com" shape="rect">Buy A Florida Vacation Home</a>\n                        </li>\n                        <li>\n                          <a href="http://www.GoogleRealEstateBlog.info" shape="rect">Google Real Estate Blog</a>\n                        </li>\n                        <li>\n                          <a href="http://www.NorthwestFloridaRealEstateAgent.com" shape="rect">Northwest Florida Real Estate Agent</a>\n                        </li>\n                      </ul>\n                      <ul></ul>\n                    </div>\n                    <br clear="none"></br>\n                    <strong>\n                      <a href="javascript:expandCollapse(\'blog_archives\',\'http://activeagent-prod-assets1.ar-img.com/images/plus.gif?1348686621\',\'http://activeagent-prod-assets0.ar-img.com/images/minus.gif?1348686621\',true);" shape="rect">\n                        <img border="0" src="http://activeagent-prod-assets0.ar-img.com/images/minus.gif?1348686621" id="blog_archivesImage"></img>\n                      </a>\n                      Archives\n                    </strong>\n                    <hr></hr>\n                    <div id="blog_archives">\n                      <ul>\n                        <li>\n                          <a href="/blogs/okaloosamls/archives/2012/09" shape="rect">September 2012 (11)</a>\n                        </li>\n                        <li>\n                          <a href="/blogs/okaloosamls/archives/2012/08" shape="rect">August 2012 (15)</a>\n                        </li>\n                        <li>\n                          <a href="/blogs/okaloosamls/archives/2012/07" shape="rect">July 2012 (22)</a>\n                        </li>\n                        <li>\n                          <a href="/blogs/okaloosamls/archives/2012/06" shape="rect">June 2012 (20)</a>\n                        </li>\n                        <li>\n                          <a href="/blogs/okaloosamls/archives/2012/05" shape="rect">May 2012 (20)</a>\n                        </li>\n                        <li>\n                          <a href="/blogs/okaloosamls/archives/2012/04" shape="rect">April 2012 (20)</a>\n                        </li>\n                        <li>\n                          <a href="/blogs/okaloosamls/archives/2012/03" shape="rect">March 2012 (17)</a>\n                        </li>\n                        <li>\n                          <a href="/blogs/okaloosamls/archives/2012/02" shape="rect">February 2012 (19)</a>\n                        </li>\n                        <li>\n                          <a href="/blogs/okaloosamls/archives/2012/01" shape="rect">January 2012 (10)</a>\n                        </li>\n                        <li>\n                          <a href="/blogs/okaloosamls/archives/2011/12" shape="rect">December 2011 (10)</a>\n                        </li>\n                        <li>\n                          <a href="/blogs/okaloosamls/archives/2011/11" shape="rect">November 2011 (20)</a>\n                        </li>\n                        <li>\n                          <a href="/blogs/okaloosamls/archives/2011/10" shape="rect">October 2011 (19)</a>\n                        </li>\n                        <li>\n                          <a href="/blogs/okaloosamls/archives/2011/09" shape="rect">September 2011 (19)</a>\n                        </li>\n                        <li>\n                          <a href="/blogs/okaloosamls/archives/2011/08" shape="rect">August 2011 (28)</a>\n                        </li>\n                        <li>\n                          <a href="/blogs/okaloosamls/archives/2011/07" shape="rect">July 2011 (38)</a>\n                        </li>\n                        <li>\n                          <a href="/blogs/okaloosamls/archives/2011/06" shape="rect">June 2011 (32)</a>\n                        </li>\n                        <li>\n                          <a href="/blogs/okaloosamls/archives/2011/05" shape="rect">May 2011 (36)</a>\n                        </li>\n                        <li>\n                          <a href="/blogs/okaloosamls/archives/2011/04" shape="rect">April 2011 (32)</a>\n                        </li>\n                        <li>\n                          <a href="/blogs/okaloosamls/archives/2011/03" shape="rect">March 2011 (37)</a>\n                        </li>\n                        <li>\n                          <a href="/blogs/okaloosamls/archives/2011/02" shape="rect">February 2011 (39)</a>\n                        </li>\n                        <li>\n                          <a href="/blogs/okaloosamls/archives/2011/01" shape="rect">January 2011 (19)</a>\n                        </li>\n                        <li>\n                          <a href="/blogs/okaloosamls/archives/2010/12" shape="rect">December 2010 (37)</a>\n                        </li>\n                        <li>\n                          <a href="/blogs/okaloosamls/archives/2010/11" shape="rect">November 2010 (12)</a>\n                        </li>\n                        <li>\n                          <a href="/blogs/okaloosamls/archives/2010/10" shape="rect">October 2010 (37)</a>\n                        </li>\n                        <li>\n                          <a href="/blogs/okaloosamls/archives/2010/09" shape="rect">September 2010 (19)</a>\n                        </li>\n                        <li>\n                          <a href="/blogs/okaloosamls/archives/2010/08" shape="rect">August 2010 (34)</a>\n                        </li>\n                        <li>\n                          <a href="/blogs/okaloosamls/archives/2010/07" shape="rect">July 2010 (21)</a>\n                        </li>\n                        <li>\n                          <a href="/blogs/okaloosamls/archives/2010/06" shape="rect">June 2010 (28)</a>\n                        </li>\n                        <li>\n                          <a href="/blogs/okaloosamls/archives/2010/05" shape="rect">May 2010 (38)</a>\n                        </li>\n                        <li>\n                          <a href="/blogs/okaloosamls/archives/2010/04" shape="rect">April 2010 (18)</a>\n                        </li>\n                        <li>\n                          <a href="/blogs/okaloosamls/archives/2010/03" shape="rect">March 2010 (44)</a>\n                        </li>\n                        <li>\n                          <a href="/blogs/okaloosamls/archives/2010/02" shape="rect">February 2010 (29)</a>\n                        </li>\n                        <li>\n                          <a href="/blogs/okaloosamls/archives/2010/01" shape="rect">January 2010 (39)</a>\n                        </li>\n                        <li>\n                          <a href="/blogs/okaloosamls/archives/2009/12" shape="rect">December 2009 (25)</a>\n                        </li>\n                        <li>\n                          <a href="/blogs/okaloosamls/archives/2009/11" shape="rect">November 2009 (32)</a>\n                        </li>\n                        <li>\n                          <a href="/blogs/okaloosamls/archives/2009/10" shape="rect">October 2009 (41)</a>\n                        </li>\n                        <li>\n                          <a href="/blogs/okaloosamls/archives/2009/09" shape="rect">September 2009 (34)</a>\n                        </li>\n                        <li>\n                          <a href="/blogs/okaloosamls/archives/2009/08" shape="rect">August 2009 (37)</a>\n                        </li>\n                        <li>\n                          <a href="/blogs/okaloosamls/archives/2009/07" shape="rect">July 2009 (38)</a>\n                        </li>\n                        <li>\n                          <a href="/blogs/okaloosamls/archives/2009/06" shape="rect">June 2009 (47)</a>\n                        </li>\n                        <li>\n                          <a href="/blogs/okaloosamls/archives/2009/05" shape="rect">May 2009 (49)</a>\n                        </li>\n                        <li>\n                          <a href="/blogs/okaloosamls/archives/2009/04" shape="rect">April 2009 (33)</a>\n                        </li>\n                        <li>\n                          <a href="/blogs/okaloosamls/archives/2009/03" shape="rect">March 2009 (44)</a>\n                        </li>\n                        <li>\n                          <a href="/blogs/okaloosamls/archives/2009/02" shape="rect">February 2009 (70)</a>\n                        </li>\n                        <li>\n                          <a href="/blogs/okaloosamls/archives/2009/01" shape="rect">January 2009 (5)</a>\n                        </li>\n                        <li>\n                          <a href="/blogs/okaloosamls/archives/2008/10" shape="rect">October 2008 (80)</a>\n                        </li>\n                        <li>\n                          <a href="/blogs/okaloosamls/archives/2008/09" shape="rect">September 2008 (50)</a>\n                        </li>\n                        <li>\n                          <a href="/blogs/okaloosamls/archives/2008/08" shape="rect">August 2008 (61)</a>\n                        </li>\n                        <li>\n                          <a href="/blogs/okaloosamls/archives/2008/07" shape="rect">July 2008 (41)</a>\n                        </li>\n                        <li>\n                          <a href="/blogs/okaloosamls/archives/2008/06" shape="rect">June 2008 (29)</a>\n                        </li>\n                        <li>\n                          <a href="/blogs/okaloosamls/archives/2008/05" shape="rect">May 2008 (25)</a>\n                        </li>\n                        <li>\n                          <a href="/blogs/okaloosamls/archives/2008/04" shape="rect">April 2008 (27)</a>\n                        </li>\n                        <li>\n                          <a href="/blogs/okaloosamls/archives/2008/03" shape="rect">March 2008 (35)</a>\n                        </li>\n                        <li>\n                          <a href="/blogs/okaloosamls/archives/2008/02" shape="rect">February 2008 (22)</a>\n                        </li>\n                        <li>\n                          <a href="/blogs/okaloosamls/archives/2008/01" shape="rect">January 2008 (38)</a>\n                        </li>\n                        <li>\n                          <a href="/blogs/okaloosamls/archives/2007/12" shape="rect">December 2007 (20)</a>\n                        </li>\n                        <li>\n                          <a href="/blogs/okaloosamls/archives/2007/11" shape="rect">November 2007 (41)</a>\n                        </li>\n                        <li>\n                          <a href="/blogs/okaloosamls/archives/2007/10" shape="rect">October 2007 (40)</a>\n                        </li>\n                        <li>\n                          <a href="/blogs/okaloosamls/archives/2007/09" shape="rect">September 2007 (54)</a>\n                        </li>\n                        <li>\n                          <a href="/blogs/okaloosamls/archives/2007/08" shape="rect">August 2007 (47)</a>\n                        </li>\n                        <li>\n                          <a href="/blogs/okaloosamls/archives/2007/07" shape="rect">July 2007 (71)</a>\n                        </li>\n                        <li>\n                          <a href="/blogs/okaloosamls/archives/2007/06" shape="rect">June 2007 (36)</a>\n                        </li>\n                        <li>\n                          <a href="/blogs/okaloosamls/archives/2007/05" shape="rect">May 2007 (126)</a>\n                        </li>\n                        <li>\n                          <a href="/blogs/okaloosamls/archives/2007/04" shape="rect">April 2007 (65)</a>\n                        </li>\n                        <li>\n                          <a href="/blogs/okaloosamls/archives/2007/03" shape="rect">March 2007 (50)</a>\n                        </li>\n                      </ul>\n                    </div>\n                    <br clear="none"></br>\n                    <p align="center">\n                      <a target="_blank" href="/blogs/okaloosamls/rss" shape="rect">\n                        <img alt="RSS 2.0 Feed for this blog" border="0" src="/images/rss.png"></img>\n                      </a>\n                    </p>\n                  </div>\n                </td>\n              </tr>\n            </table>\n          </td>\n        </tr>\n      </table>\n      <div style="background:white">\n        <ul id="bottom_menu" class="top_level_menu">\n          <li>\n            <div>\n              <a href="/about" shape="rect">About</a>\n            </div>\n          </li>\n          <li>\n            <div>\n              <a href="/culture/community_guidelines" shape="rect">Guidelines</a>\n            </div>\n          </li>\n          <li>\n            <div>\n              <a href="/legal/terms_of_service" shape="rect">Terms of Service</a>\n            </div>\n          </li>\n          <li>\n            <div>\n              <a href="/groups/helpfaq" shape="rect">Help/FAQ</a>\n            </div>\n          </li>\n          <li>\n            <div>\n              <a href="/action/default/advertising" shape="rect">Advertise with ActiveRain</a>\n            </div>\n          </li>\n          <li>\n            <div>\n              <a href="/action/default/feedback" shape="rect">Contact ActiveRain</a>\n            </div>\n          </li>\n          <li>\n            <div>\n              <a href="/action/signup" shape="rect">Join ActiveRain</a>\n            </div>\n          </li>\n        </ul>\n        <div id="find_agents" class="bottom_info">\n          <p>\n            Find\n            <a href="/states/FL" shape="rect">FL real estate agents</a>\n            and\n            <a href="/states/FL/cities/Crestview" shape="rect">Crestview real estate</a>\n            on ActiveRain.\n          </p>\n        </div>\n        <div id="copyright" class="bottom_info">\n          <p>\n            Disclaimer: ActiveRain Corp. does not necessarily endorse the  real estate agents, loan officers and brokers listed on this site. These real estate profiles,\n            <a href="/topbloggers" shape="rect">blogs</a>\n            and\n            <a href="/blogindex" shape="rect">blog entries</a>\n            are provided here as a courtesy to our visitors to help them make an informed decision when buying or selling a house. ActiveRain Corp. takes no responsibility for the content in these profiles, that are written by the members of this community.\n          </p>\n          <p>\xc2\xa9 2012 ActiveRain Corp. All Rights Reserved</p>\n          <p style="margin: 0; padding-bottom: 1em">\n            <a href="http://activerain.com/blogsview/46302/Fair-housing-and-ActiveRain" shape="rect">\n              <img src="http://activeagent-prod-assets2.ar-img.com/images/new_design/eho.gif?1348686621" alt="Eho"></img>\n            </a>\n          </p>\n        </div>\n        <script type="text/javascript"> (function() { var po = document.createElement(\'script\'); po.type = \'text/javascript\'; po.async = true; po.src = \'https://apis.google.com/js/plusone.js\'; var s = document.getElementsByTagName(\'script\')[0]; s.parentNode.insertBefore(po, s); })(); </script>\n      </div>\n    </div>\n  </body>\n</html>'
p11
sbsS'mentions'
p12
(lp13
(iedu.umass.cs.iesl.wikilink.expanded.data.ttypes
Mention
p14
(dp15
S'anchor_text'
p16
S'Adrian Murrell'
p17
sS'context'
p18
(iedu.umass.cs.iesl.wikilink.expanded.data.ttypes
Context
p19
(dp20
S'middle'
p21
S'Adrian Murrell'
p22
sS'right'
p23
S'in 1997 , Warrick Dunn in 1998 , Eddie George in 1999 - 2000 , Corey Dillon from 2001 - 2002 , and LaDainian Tomlinson'
p24
sS'left'
p25
S'\xc2\xa0 \xc2\xa0 #2 Lorenzo \xc2\xa0Neal is best known as an exceptional blocking fullback, and has blocked for 1000 yard rushers in 11 straight seasons ('
p26
sbsS'freebase_id'
p27
S'9202a8c04000641f8000000000ac2753'
p28
sS'raw_text_offset'
p29
I29448
sS'wiki_url'
p30
S'http://en.wikipedia.org/wiki/Adrian_Murrell'
p31
sba(iedu.umass.cs.iesl.wikilink.expanded.data.ttypes
Mention
p32
(dp33
g16
S'1997'
p34
sg18
(iedu.umass.cs.iesl.wikilink.expanded.data.ttypes
Context
p35
(dp36
g21
S'1997'
p37
sg23
S', Warrick Dunn in 1998 , Eddie George in 1999 - 2000 , Corey Dillon from 2001 - 2002 , and LaDainian Tomlinson from 2003'
p38
sg25
S'Lorenzo \xc2\xa0Neal is best known as an exceptional blocking fullback, and has blocked for 1000 yard rushers in 11 straight seasons ( Adrian Murrell in'
p39
sbsg27
Nsg29
I29527
sg30
S'http://en.wikipedia.org/wiki/1997'
p40
sba(iedu.umass.cs.iesl.wikilink.expanded.data.ttypes
Mention
p41
(dp42
g16
S'Warrick Dunn'
p43
sg18
(iedu.umass.cs.iesl.wikilink.expanded.data.ttypes
Context
p44
(dp45
g21
S'Warrick Dunn'
p46
sg23
S'in 1998 , Eddie George in 1999 - 2000 , Corey Dillon from 2001 - 2002 , and LaDainian Tomlinson from 2003 to 2007 .)'
p47
sg25
S'is best known as an exceptional blocking fullback, and has blocked for 1000 yard rushers in 11 straight seasons ( Adrian Murrell in 1997 ,'
p48
sbsg27
S'9202a8c04000641f80000000004b0a44'
p49
sg29
I29610
sg30
S'http://en.wikipedia.org/wiki/Warrick_Dunn'
p50
sba(iedu.umass.cs.iesl.wikilink.expanded.data.ttypes
Mention
p51
(dp52
g16
S'1998'
p53
sg18
(iedu.umass.cs.iesl.wikilink.expanded.data.ttypes
Context
p54
(dp55
g21
S'1998'
p56
sg23
S', Eddie George in 1999 - 2000 , Corey Dillon from 2001 - 2002 , and LaDainian Tomlinson from 2003 to 2007 .) \xc2\xa0 #3'
p57
sg25
S'as an exceptional blocking fullback, and has blocked for 1000 yard rushers in 11 straight seasons ( Adrian Murrell in 1997 , Warrick Dunn in'
p58
sbsg27
Nsg29
I29687
sg30
S'http://en.wikipedia.org/wiki/1998'
p59
sba(iedu.umass.cs.iesl.wikilink.expanded.data.ttypes
Mention
p60
(dp61
g16
S'Eddie George'
p62
sg18
(iedu.umass.cs.iesl.wikilink.expanded.data.ttypes
Context
p63
(dp64
g21
S'Eddie George'
p65
sg23
S'in 1999 - 2000 , Corey Dillon from 2001 - 2002 , and LaDainian Tomlinson from 2003 to 2007 .) \xc2\xa0 #3 \xc2\xa0\xc2\xa0\xc2\xa0\xc2\xa0\xc2\xa0\xc2\xa0\xc2\xa0\xc2\xa0\xc2\xa0\xc2\xa0\xc2\xa0\xc2\xa0\xc2\xa0 games\xc2\xa0\xc2\xa0\xc2\xa0\xc2\xa0\xc2\xa0\xc2\xa0 yards\xc2\xa0'
p66
sg25
S'exceptional blocking fullback, and has blocked for 1000 yard rushers in 11 straight seasons ( Adrian Murrell in 1997 , Warrick Dunn in 1998 ,'
p67
sbsg27
S'9202a8c04000641f80000000000941e3'
p68
sg29
I29770
sg30
S'http://en.wikipedia.org/wiki/Eddie_George'
p69
sba(iedu.umass.cs.iesl.wikilink.expanded.data.ttypes
Mention
p70
(dp71
g16
S'1999'
p72
sg18
(iedu.umass.cs.iesl.wikilink.expanded.data.ttypes
Context
p73
(dp74
g21
S'1999'
p75
sg23
S'- 2000 , Corey Dillon from 2001 - 2002 , and LaDainian Tomlinson from 2003 to 2007 .) \xc2\xa0 #3 \xc2\xa0\xc2\xa0\xc2\xa0\xc2\xa0\xc2\xa0\xc2\xa0\xc2\xa0\xc2\xa0\xc2\xa0\xc2\xa0\xc2\xa0\xc2\xa0\xc2\xa0 games\xc2\xa0\xc2\xa0\xc2\xa0\xc2\xa0\xc2\xa0\xc2\xa0 yards\xc2\xa0 per 2006'
p76
sg25
S'and has blocked for 1000 yard rushers in 11 straight seasons ( Adrian Murrell in 1997 , Warrick Dunn in 1998 , Eddie George in'
p77
sbsg27
Nsg29
I29847
sg30
S'http://en.wikipedia.org/wiki/1999'
p78
sba(iedu.umass.cs.iesl.wikilink.expanded.data.ttypes
Mention
p79
(dp80
g16
S'2000'
p81
sg18
(iedu.umass.cs.iesl.wikilink.expanded.data.ttypes
Context
p82
(dp83
g21
S'2000'
p84
sg23
S', Corey Dillon from 2001 - 2002 , and LaDainian Tomlinson from 2003 to 2007 .) \xc2\xa0 #3 \xc2\xa0\xc2\xa0\xc2\xa0\xc2\xa0\xc2\xa0\xc2\xa0\xc2\xa0\xc2\xa0\xc2\xa0\xc2\xa0\xc2\xa0\xc2\xa0\xc2\xa0 games\xc2\xa0\xc2\xa0\xc2\xa0\xc2\xa0\xc2\xa0\xc2\xa0 yards\xc2\xa0 per 2006 Cincinnati Bengals'
p85
sg25
S'blocked for 1000 yard rushers in 11 straight seasons ( Adrian Murrell in 1997 , Warrick Dunn in 1998 , Eddie George in 1999 -'
p86
sbsg27
S'9202a8c04000641f8000000000647243'
p87
sg29
I29913
sg30
S'http://en.wikipedia.org/wiki/2000'
p88
sba(iedu.umass.cs.iesl.wikilink.expanded.data.ttypes
Mention
p89
(dp90
g16
S'Corey Dillon'
p91
sg18
(iedu.umass.cs.iesl.wikilink.expanded.data.ttypes
Context
p92
(dp93
g21
S'Corey Dillon'
p94
sg23
S'from 2001 - 2002 , and LaDainian Tomlinson from 2003 to 2007 .) \xc2\xa0 #3 \xc2\xa0\xc2\xa0\xc2\xa0\xc2\xa0\xc2\xa0\xc2\xa0\xc2\xa0\xc2\xa0\xc2\xa0\xc2\xa0\xc2\xa0\xc2\xa0\xc2\xa0 games\xc2\xa0\xc2\xa0\xc2\xa0\xc2\xa0\xc2\xa0\xc2\xa0 yards\xc2\xa0 per 2006 Cincinnati Bengals 16 15 341'
p95
sg25
S'1000 yard rushers in 11 straight seasons ( Adrian Murrell in 1997 , Warrick Dunn in 1998 , Eddie George in 1999 - 2000 ,'
p96
sbsg27
S'9202a8c04000641f80000000002f1e74'
p97
sg29
I29996
sg30
S'http://en.wikipedia.org/wiki/Corey_Dillon'
p98
sba(iedu.umass.cs.iesl.wikilink.expanded.data.ttypes
Mention
p99
(dp100
g16
S'2001'
p101
sg18
(iedu.umass.cs.iesl.wikilink.expanded.data.ttypes
Context
p102
(dp103
g21
S'2001'
p104
sg23
S'- 2002 , and LaDainian Tomlinson from 2003 to 2007 .) \xc2\xa0 #3 \xc2\xa0\xc2\xa0\xc2\xa0\xc2\xa0\xc2\xa0\xc2\xa0\xc2\xa0\xc2\xa0\xc2\xa0\xc2\xa0\xc2\xa0\xc2\xa0\xc2\xa0 games\xc2\xa0\xc2\xa0\xc2\xa0\xc2\xa0\xc2\xa0\xc2\xa0 yards\xc2\xa0 per 2006 Cincinnati Bengals 16 15 341 1,309 3.8'
p105
sg25
S'in 11 straight seasons ( Adrian Murrell in 1997 , Warrick Dunn in 1998 , Eddie George in 1999 - 2000 , Corey Dillon from'
p106
sbsg27
Nsg29
I30075
sg30
S'http://en.wikipedia.org/wiki/2001'
p107
sba(iedu.umass.cs.iesl.wikilink.expanded.data.ttypes
Mention
p108
(dp109
g16
S'2002'
p110
sg18
(iedu.umass.cs.iesl.wikilink.expanded.data.ttypes
Context
p111
(dp112
g21
S'2002'
p113
sg23
S', and LaDainian Tomlinson from 2003 to 2007 .) \xc2\xa0 #3 \xc2\xa0\xc2\xa0\xc2\xa0\xc2\xa0\xc2\xa0\xc2\xa0\xc2\xa0\xc2\xa0\xc2\xa0\xc2\xa0\xc2\xa0\xc2\xa0\xc2\xa0 games\xc2\xa0\xc2\xa0\xc2\xa0\xc2\xa0\xc2\xa0\xc2\xa0 yards\xc2\xa0 per 2006 Cincinnati Bengals 16 15 341 1,309 3.8 22T 12'
p114
sg25
S'straight seasons ( Adrian Murrell in 1997 , Warrick Dunn in 1998 , Eddie George in 1999 - 2000 , Corey Dillon from 2001 -'
p115
sbsg27
Nsg29
I30141
sg30
S'http://en.wikipedia.org/wiki/2002'
p116
sba(iedu.umass.cs.iesl.wikilink.expanded.data.ttypes
Mention
p117
(dp118
g16
S'LaDainian Tomlinson'
p119
sg18
(iedu.umass.cs.iesl.wikilink.expanded.data.ttypes
Context
p120
(dp121
g21
S'LaDainian Tomlinson'
p122
sg23
S'from 2003 to 2007 .) \xc2\xa0 #3 \xc2\xa0\xc2\xa0\xc2\xa0\xc2\xa0\xc2\xa0\xc2\xa0\xc2\xa0\xc2\xa0\xc2\xa0\xc2\xa0\xc2\xa0\xc2\xa0\xc2\xa0 games\xc2\xa0\xc2\xa0\xc2\xa0\xc2\xa0\xc2\xa0\xc2\xa0 yards\xc2\xa0 per 2006 Cincinnati Bengals 16 15 341 1,309 3.8 22T 12 23 124 5.4 18'
p123
sg25
S'Adrian Murrell in 1997 , Warrick Dunn in 1998 , Eddie George in 1999 - 2000 , Corey Dillon from 2001 - 2002 , and'
p124
sbsg27
S'9202a8c04000641f8000000000498abc'
p125
sg29
I30242
sg30
S'http://en.wikipedia.org/wiki/LaDainian_Tomlinson'
p126
sba(iedu.umass.cs.iesl.wikilink.expanded.data.ttypes
Mention
p127
(dp128
g16
S'2003'
p129
sg18
(iedu.umass.cs.iesl.wikilink.expanded.data.ttypes
Context
p130
(dp131
g21
S'2003'
p132
sg23
S'to 2007 .) \xc2\xa0 #3 \xc2\xa0\xc2\xa0\xc2\xa0\xc2\xa0\xc2\xa0\xc2\xa0\xc2\xa0\xc2\xa0\xc2\xa0\xc2\xa0\xc2\xa0\xc2\xa0\xc2\xa0 games\xc2\xa0\xc2\xa0\xc2\xa0\xc2\xa0\xc2\xa0\xc2\xa0 yards\xc2\xa0 per 2006 Cincinnati Bengals 16 15 341 1,309 3.8 22T 12 23 124 5.4 18 0 6'
p133
sg25
S'1997 , Warrick Dunn in 1998 , Eddie George in 1999 - 2000 , Corey Dillon from 2001 - 2002 , and LaDainian Tomlinson from'
p134
sbsg27
Nsg29
I30328
sg30
S'http://en.wikipedia.org/wiki/2003'
p135
sba(iedu.umass.cs.iesl.wikilink.expanded.data.ttypes
Mention
p136
(dp137
g16
S'2007'
p138
sg18
(iedu.umass.cs.iesl.wikilink.expanded.data.ttypes
Context
p139
(dp140
g21
S'2007'
p141
sg23
S'.) \xc2\xa0 #3 \xc2\xa0\xc2\xa0\xc2\xa0\xc2\xa0\xc2\xa0\xc2\xa0\xc2\xa0\xc2\xa0\xc2\xa0\xc2\xa0\xc2\xa0\xc2\xa0\xc2\xa0 games\xc2\xa0\xc2\xa0\xc2\xa0\xc2\xa0\xc2\xa0\xc2\xa0 yards\xc2\xa0 per 2006 Cincinnati Bengals 16 15 341 1,309 3.8 22T 12 23 124 5.4 18 0 6 2 2005'
p142
sg25
S'Warrick Dunn in 1998 , Eddie George in 1999 - 2000 , Corey Dillon from 2001 - 2002 , and LaDainian Tomlinson from 2003 to'
p143
sbsg27
Nsg29
I30397
sg30
S'http://en.wikipedia.org/wiki/2007'
p144
sbasS'doc_id'
p145
I10728
sS'rare_words'
p146
(lp147
(iedu.umass.cs.iesl.wikilink.expanded.data.ttypes
RareWord
p148
(dp149
S'word'
p150
S'Neal'
p151
sS'offset'
p152
I29253
sba(iedu.umass.cs.iesl.wikilink.expanded.data.ttypes
RareWord
p153
(dp154
g150
S'Tomlinson'
p155
sg152
I30252
sba(iedu.umass.cs.iesl.wikilink.expanded.data.ttypes
RareWord
p156
(dp157
g150
S'shaking'
p158
sg152
I28518
sba(iedu.umass.cs.iesl.wikilink.expanded.data.ttypes
RareWord
p159
(dp160
g150
S'evening'
p161
sg152
I28342
sba(iedu.umass.cs.iesl.wikilink.expanded.data.ttypes
RareWord
p162
(dp163
g150
S'Okaloosa'
p164
sg152
I32915
sba(iedu.umass.cs.iesl.wikilink.expanded.data.ttypes
RareWord
p165
(dp166
g150
S'dream'
p167
sg152
I28968
sba(iedu.umass.cs.iesl.wikilink.expanded.data.ttypes
RareWord
p168
(dp169
g150
S't'
p170
sg152
I28635
sba(iedu.umass.cs.iesl.wikilink.expanded.data.ttypes
RareWord
p171
(dp172
g150
S'up'
p173
sg152
I29041
sba(iedu.umass.cs.iesl.wikilink.expanded.data.ttypes
RareWord
p174
(dp175
g150
S'Sunday'
p176
sg152
I28335
sba(iedu.umass.cs.iesl.wikilink.expanded.data.ttypes
RareWord
p177
(dp178
g150
S'new'
p179
sg152
I33901
sbasb.