(iedu.umass.cs.iesl.wikilink.expanded.data.ttypes
WikiLinkItem
p0
(dp1
S'url'
p2
S'http://adrian1974fulga.wordpress.com/general-view-on-cognac/chapter-5-1-general-view-on-armagnac/'
p3
sS'content'
p4
(iedu.umass.cs.iesl.wikilink.expanded.data.ttypes
PageContentItem
p5
(dp6
S'articleText'
p7
NsS'raw'
p8
NsS'fullText'
p9
NsS'dom'
p10
S'<html lang="en" dir="ltr">\n  <head profile="http://gmpg.org/xfn/11">\n    <meta content="text/html; charset=UTF-8" http-equiv="Content-Type"></meta>\n    <title>Chapter 5.1.General View on Armagnac \xc2\xab Hotel Training</title>\n    <link media="screen" type="text/css" href="http://s0.wp.com/wp-content/themes/pub/quentin/style.css?m=1323834012g" rel="stylesheet"></link>\n    <link href="http://adrian1974fulga.wordpress.com/xmlrpc.php" rel="pingback"></link>\n    <style type="text/css">\n      #flickr_badge_source_txt {padding:0; font: 11px Arial, Helvetica, Sans serif; color:#666666;}\n#flickr_badge_icon {display:block !important; margin:0 !important; border: 1px solid rgb(0, 0, 0) !important;}\n#flickr_icon_td {padding:0 5px 0 0 !important;}\n.flickr_badge_image {text-align:center !important;}\n.flickr_badge_image img {border: 1px solid black !important;}\n#flickr_badge_uber_wrapper {width:150px;}\n#flickr_www {display:block; text-align:center; padding:0 10px 0 10px !important; font: 11px Arial, Helvetica, Sans serif !important; color:#3993ff !important;}\n#flickr_badge_uber_wrapper a:hover,\n#flickr_badge_uber_wrapper a:link,\n#flickr_badge_uber_wrapper a:active,\n#flickr_badge_uber_wrapper a:visited {text-decoration:none !important; background:inherit !important;color:#3993ff;}\n#flickr_badge_wrapper {background-color:#ffffff;border: solid 1px #000000}\n#flickr_badge_source {padding:0 !important; font: 11px Arial, Helvetica, Sans serif !important; color:#666666 !important;}\n    </style>\n    <link href="http://adrian1974fulga.wordpress.com/feed/" title="Hotel Training \xc2\xbb Feed" type="application/rss+xml" rel="alternate"></link>\n    <link href="http://adrian1974fulga.wordpress.com/comments/feed/" title="Hotel Training \xc2\xbb Comments Feed" type="application/rss+xml" rel="alternate"></link>\n    <link href="http://adrian1974fulga.wordpress.com/general-view-on-cognac/chapter-5-1-general-view-on-armagnac/feed/" title="Hotel Training \xc2\xbb Chapter 5.1.General View on\xc2\xa0Armagnac Comments Feed" type="application/rss+xml" rel="alternate"></link>\n    <script type="text/javascript"> /* &lt;![CDATA[ */ function addLoadEvent(func){var oldonload=window.onload;if(typeof window.onload!=\'function\'){window.onload=func;}else{window.onload=function(){oldonload();func();}}} /* ]]&gt; */ </script>\n    <link media="all" type="text/css" href="http://s1.wp.com/_static/??/wp-content/blog-plugins/loggedout-follow/widget.css,/wp-content/mu-plugins/post-flair/style.css,/wp-content/mu-plugins/post-flair/sharing/sharing.css,/wp-content/themes/h4/global.css?m=1345177132j" rel="stylesheet" id="all-css-0">\n    </link>\n    <script type="text/javascript"> /* &lt;![CDATA[ */ var LoggedOutFollow = {&quot;invalid_email&quot;:&quot;Your subscription did not succeed, please try again with a valid email address.&quot;}; /* ]]&gt; */ </script>\n    <script src="http://s2.wp.com/_static/??/wp-includes/js/jquery/jquery.js,/wp-content/blog-plugins/loggedout-follow/widget.js,/wp-includes/js/comment-reply.js?m=1333391137j" type="text/javascript"></script>\n    <link media="all" type="text/css" href="http://s1.wp.com/wp-content/mu-plugins/highlander-comments/style.css?m=1343991657g" rel="stylesheet" id="all-css-0"></link>\n    <link href="http://adrian1974fulga.wordpress.com/xmlrpc.php?rsd" title="RSD" type="application/rsd+xml" rel="EditURI"></link>\n    <link href="http://adrian1974fulga.wordpress.com/wp-includes/wlwmanifest.xml" type="application/wlwmanifest+xml" rel="wlwmanifest"></link>\n    <link href="http://adrian1974fulga.wordpress.com/chapter-8-general-view-on-grape-varieties/chapter-8-2-general-view-on-grape-varieties/chapter-9-3-general-view-on-grape-varieties/chapter-9-4-general-view-on-red-grapes-varieties/" title="Chapter 9.4. General View on Red Grapes\xc2\xa0Varieties" rel="prev">\n    </link>\n    <link href="http://adrian1974fulga.wordpress.com/new-recipes-chapter-ii/recipes-chapter-iii/recipes-chapter-iv/recipes-chapter-v-asian-food/" title="Recipes Chapter V Asian\xc2\xa0Food" rel="next"></link>\n    <meta content="WordPress.com" name="generator"></meta>\n    <link href="http://adrian1974fulga.wordpress.com/general-view-on-cognac/chapter-5-1-general-view-on-armagnac/" rel="canonical"></link>\n    <link href="http://wp.me/Pikc6-xZ" rel="shortlink"></link>\n    <link href="http://public-api.wordpress.com/oembed/1.0/?format=json&amp;url=http%3A%2F%2Fadrian1974fulga.wordpress.com%2Fgeneral-view-on-cognac%2Fchapter-5-1-general-view-on-armagnac%2F&amp;for=wpcom-auto-discovery" type="application/json+oembed" rel="alternate"></link>\n    <link href="http://public-api.wordpress.com/oembed/1.0/?format=xml&amp;url=http%3A%2F%2Fadrian1974fulga.wordpress.com%2Fgeneral-view-on-cognac%2Fchapter-5-1-general-view-on-armagnac%2F&amp;for=wpcom-auto-discovery" type="application/xml+oembed" rel="alternate"></link>\n    <meta content="article" property="og:type"></meta>\n    <meta content="Chapter 5.1.General View on\xc2\xa0Armagnac" property="og:title"></meta>\n    <meta content="http://adrian1974fulga.wordpress.com/general-view-on-cognac/chapter-5-1-general-view-on-armagnac/" property="og:url"></meta>\n    <meta content="Armagnac (French pronunciation:\xc3\x82\xc2\xa0[a\xc3\x8a\xef\xbf\xbdma\xc3\x8b\xcb\x86\xc3\x89\xc2\xb2ak]) is a distinctive kind of brandy or eau de vie produced in the Armagnac region in Gascony, southwest France. It is distilled from wine usually made from a..." property="og:description"></meta>\n    <meta content="Hotel Training" property="og:site_name"></meta>\n    <meta content="http://adrian1974fulga.files.wordpress.com/2011/11/potgascon.jpg?h=200" property="og:image"></meta>\n    <meta content="http://adrian1974fulga.files.wordpress.com/2011/11/region_armagnac.gif?h=200" property="og:image"></meta>\n    <meta content="http://adrian1974fulga.files.wordpress.com/2011/11/potgascon.jpg" name="twitter:image"></meta>\n    <meta content="summary" name="twitter:card"></meta>\n    <meta content="249643311490" property="fb:app_id"></meta>\n    <link sizes="16x16" href="http://1.gravatar.com/blavatar/33ae798dc75105d7727709afc14e6a4b?s=16" type="image/x-icon" rel="shortcut icon"></link>\n    <link sizes="16x16" href="http://1.gravatar.com/blavatar/33ae798dc75105d7727709afc14e6a4b?s=16" type="image/x-icon" rel="icon"></link>\n    <link href="http://0.gravatar.com/blavatar/a7ee5daa5f46073662504b828afb5226?s=114" rel="apple-touch-icon-precomposed"></link>\n    <link href="http://adrian1974fulga.wordpress.com/?openidserver=1" rel="openid.server"></link>\n    <link href="http://adrian1974fulga.wordpress.com/" rel="openid.delegate"></link>\n    <link title="Hotel Training" href="http://adrian1974fulga.wordpress.com/osd.xml" type="application/opensearchdescription+xml" rel="search"></link>\n    <link title="WordPress.com" href="http://wordpress.com/opensearch.xml" type="application/opensearchdescription+xml" rel="search"></link>\n    <style>\n      /* &lt;![CDATA[ */\n\t\t/* Block: reblog */\n\t\t\n\t\t.reblog-from img                   { margin: 0 10px 0 0; vertical-align: middle; padding: 0; border: 0; }\n\t\t.reblogger-note img.avatar         { float: left; padding: 0; border: 0; }\n\t\t.reblogger-note-content            { margin: 0 0 20px; }\n\t\t.reblog-post .wpcom-enhanced-excerpt-content { border-left: 3px solid #eee; padding-left: 15px; }\n\t\t.reblog-post ul.thumb-list         { display: block; list-style: none; margin: 2px 0; padding: 0; clear: both; }\n\t\t.reblog-post ul.thumb-list li      { display: inline; margin: 0; padding: 0 1px; border: 0; }\n\t\t.reblog-post ul.thumb-list li a    { margin: 0; padding: 0; border: 0; }\n\t\t.reblog-post ul.thumb-list li img  { margin: 0; padding: 0; border: 0; }\n\t\t\n\t\t.reblog-post .wpcom-enhanced-excerpt { clear: both; }\n\t\t\n\t\t.reblog-post .wpcom-enhanced-excerpt address,\n\t\t.reblog-post .wpcom-enhanced-excerpt li,\n\t\t.reblog-post .wpcom-enhanced-excerpt h1,\n\t\t.reblog-post .wpcom-enhanced-excerpt h2,\n\t\t.reblog-post .wpcom-enhanced-excerpt h3,\n\t\t.reblog-post .wpcom-enhanced-excerpt h4,\n\t\t.reblog-post .wpcom-enhanced-excerpt h5,\n\t\t.reblog-post .wpcom-enhanced-excerpt h6,\n\t\t.reblog-post .wpcom-enhanced-excerpt p { font-size: 100% !important; }\n\t\t\n\t\t.reblog-post .wpcom-enhanced-excerpt blockquote,\n\t\t.reblog-post .wpcom-enhanced-excerpt pre,\n\t\t.reblog-post .wpcom-enhanced-excerpt code,\n\t\t.reblog-post .wpcom-enhanced-excerpt q { font-size: 98% !important; }\n\t\t\n\n\t\t/* ]]&gt; */\n    </style>\n    <meta content="Hotel Training" name="application-name"></meta>\n    <meta content="width=device-width;height=device-height" name="msapplication-window"></meta>\n    <meta content="~Hospitality Industry~A Different Approach~Est.Sept.2008~" name="msapplication-tooltip"></meta>\n    <meta content="name=Subscribe;action-uri=http://adrian1974fulga.wordpress.com/feed/;icon-uri=http://1.gravatar.com/blavatar/33ae798dc75105d7727709afc14e6a4b?s=16" name="msapplication-task"></meta>\n    <meta content="name=Sign up for a free blog;action-uri=http://wordpress.com/signup/;icon-uri=http://s2.wp.com/i/favicon.ico" name="msapplication-task"></meta>\n    <meta content="name=WordPress.com Support;action-uri=http://support.wordpress.com/;icon-uri=http://s2.wp.com/i/favicon.ico" name="msapplication-task"></meta>\n    <meta content="name=WordPress.com Forums;action-uri=http://forums.wordpress.com/;icon-uri=http://s2.wp.com/i/favicon.ico" name="msapplication-task"></meta>\n    <meta content="Chapter 5.1.General View on\xc2\xa0Armagnac | Hotel Training on WordPress.com" name="title"></meta>\n    <meta \n    content="Armagnac (French pronunciation:\xc3\x82\xc2\xa0[a\xc3\x8a\xef\xbf\xbdma\xc3\x8b\xcb\x86\xc3\x89\xc2\xb2ak]) is a distinctive kind of brandy or eau de vie produced in the Armagnac region in Gascony, southwest France. It is distilled from wine usually made from a blend of Armagnac grapes, including Baco 22A, Colombard, and Ugni Blanc, using column stills rather than the pot stills used in the production of\xe2\x80\xa6" name="description">\n</meta>\n  </head>\n  <body class="page page-id-2107 page-parent page-child parent-pageid-31 page-template-default highlander-enabled highlander-light">\n    <div id="rap">\n      <div id="header">\n        <h1>\n          <a href="http://adrian1974fulga.wordpress.com" shape="rect">Hotel Training</a>\n        </h1>\n        <h3 class="description">~Hospitality Industry~A Different Approach~Est.Sept.2008~</h3>\n      </div>\n      <div id="content">\n        <div class="post-2107 page type-page status-publish hentry">\n          <h2 id="post-2107" class="storytitle">\n            <a title="Permanent Link: Chapter 5.1.General View on\xc2\xa0Armagnac" rel="bookmark" href="http://adrian1974fulga.wordpress.com/general-view-on-cognac/chapter-5-1-general-view-on-armagnac/" shape="rect">Chapter 5.1.General View on\xc2\xa0Armagnac</a>\n          </h2>\n          <div class="storycontent">\n            <p>\n              <a rel="attachment wp-att-2109" href="http://adrian1974fulga.wordpress.com/general-view-on-cognac/chapter-5-1-general-view-on-armagnac/armagnac-2/" shape="rect">\n                <img alt="" src="http://adrian1974fulga.files.wordpress.com/2011/11/armagnac-2.jpg?w=470" title="armagnac 2" class="aligncenter size-full wp-image-2109"></img>\n              </a>\n            </p>\n            <p>\n              <strong>\n                <a rel="wikipedia" href="http://en.wikipedia.org/wiki/Armagnac_%28drink%29" title="Armagnac (drink)" class="zem_slink" shape="rect">Armagnac</a>\n              </strong>\n              (\n              <small>\n                <a rel="wikipedia" href="http://en.wikipedia.org/wiki/French_phonology" title="French phonology" class="zem_slink" shape="rect">French pronunciation</a>\n                :\xc3\x82\xc2\xa0\n              </small>\n              <a href="http://en.wikipedia.org/wiki/Wikipedia:IPA_for_French" title="Wikipedia:IPA for French" shape="rect">[a\xc3\x8a\xef\xbf\xbdma\xc3\x8b\xcb\x86\xc3\x89\xc2\xb2ak]</a>\n              ) is a distinctive kind of\n              <a href="http://en.wikipedia.org/wiki/Brandy" title="Brandy" shape="rect">brandy</a>\n              or\n              <em>\n                <a href="http://en.wikipedia.org/wiki/Eau_de_vie" title="Eau de vie" shape="rect">eau de vie</a>\n              </em>\n              produced in the\n              <a href="http://en.wikipedia.org/wiki/Armagnac_%28region%29" title="Armagnac (region)" shape="rect">Armagnac region</a>\n              in\n              <a href="http://en.wikipedia.org/wiki/Gascony" title="Gascony" shape="rect">Gascony</a>\n              , southwest\n              <a href="http://en.wikipedia.org/wiki/France" title="France" shape="rect">France</a>\n              . It is\n              <a href="http://en.wikipedia.org/wiki/Distilled" title="Distilled" shape="rect">distilled</a>\n              from\n              <a href="http://en.wikipedia.org/wiki/Wine" title="Wine" shape="rect">wine</a>\n              usually made from a blend of\n              <a href="http://en.wikipedia.org/w/index.php?title=Armagnac_grapes&amp;action=edit&amp;redlink=1" title="Armagnac grapes (page does not exist)" shape="rect">Armagnac grapes</a>\n              , including\n              <a href="http://en.wikipedia.org/wiki/Baco_22A" title="Baco 22A" shape="rect">Baco 22A</a>\n              ,\n              <a href="http://en.wikipedia.org/wiki/Colombard" title="Colombard" shape="rect">Colombard</a>\n              , and\n              <a href="http://en.wikipedia.org/wiki/Ugni_Blanc" title="Ugni Blanc" shape="rect">Ugni Blanc</a>\n              , using\n              <a href="http://en.wikipedia.org/wiki/Column_still" title="Column still" shape="rect">column stills</a>\n              rather than the\n              <a href="http://en.wikipedia.org/wiki/Pot_still" title="Pot still" shape="rect">pot stills</a>\n              used in the production of\n              <a href="http://en.wikipedia.org/wiki/Cognac_%28drink%29" title="Cognac (drink)" shape="rect">Cognac</a>\n              . The resulting spirit is then\n              <a href="http://en.wikipedia.org/wiki/Aging_barrel" title="Aging barrel" shape="rect">aged</a>\n              in\n              <a href="http://en.wikipedia.org/wiki/Oak" title="Oak" shape="rect">oak</a>\n              <a href="http://en.wikipedia.org/wiki/Barrel_%28storage%29" title="Barrel (storage)" shape="rect">barrels</a>\n              before release. Production is overseen by\n              <a rel="wikipedia" href="http://en.wikipedia.org/wiki/Institut_National_des_Appellations_d%27Origine" title="Institut National des Appellations d\'Origine" class="zem_slink" shape="rect">INAO</a>\n              and the\n              <em>Bureau National Interprofessionel de l\xe2\x80\x99Armagnac</em>\n              (BNIA).\n            </p>\n            <p>\n              Armagnac was one of the first areas in France to begin distilling spirits, but the brandies produced have a lower profile than those from Cognac and the overall volume of production is far smaller. In addition they are for the most part made and sold by small producers, whereas in Cognac production is dominated by big-name brands.\n            </p>\n            <h2>History</h2>\n            <p style="text-align:center;">\n              <a rel="attachment wp-att-2110" href="http://adrian1974fulga.wordpress.com/general-view-on-cognac/chapter-5-1-general-view-on-armagnac/region_armagnac/" shape="rect">\n                <img alt="" src="http://adrian1974fulga.files.wordpress.com/2011/11/region_armagnac.gif?w=470" title="region_armagnac" class="aligncenter size-full wp-image-2110"></img>\n              </a>\n              Map of Armagnac Region\n            </p>\n            <p>\n              Armagnac is the oldest brandy distilled in France, and in the past was consumed for its therapeutic benefits. In the 14th century, Prior\n              <a href="http://en.wikipedia.org/wiki/Vital_Du_Four" title="Vital Du Four" shape="rect">Vital Du Four</a>\n              , a Cardinal, claimed it had 40 virtues.\n            </p>\n            <p>\n              <em>\n                \xe2\x80\x9cIt makes disappear redness and burning of the eyes, and stops them from tearing; it cures hepatitis, sober consumption adhering. It cures gout, cankers, and fistula by ingestion; restores the paralysed member by massage; and heals wounds of the skin by application. It enlivens the spirit, partaken in moderation, recalls the past to memory, renders men joyous, preserves youth and retards senility. And when retained in the mouth, it loosens the tongue and emboldens the wit, if someone timid from time to time himself permits.\xe2\x80\x9d\n              </em>\n            </p>\n            <p>\n              Between the 15th and 17th centuries, Armagnac was traded on the markets of\n              <a href="http://en.wikipedia.org/wiki/Saint-Sever" title="Saint-Sever" shape="rect">Saint-Sever</a>\n              ,\n              <a href="http://en.wikipedia.org/wiki/Mont-de-Marsan" title="Mont-de-Marsan" shape="rect">Mont-de-Marsan</a>\n              , and\n              <a href="http://en.wikipedia.org/wiki/Aire-sur-l%27Adour" title="Aire-sur-l\'Adour" shape="rect">Aire-sur-l\xe2\x80\x99Adour</a>\n              . Subsequently, Dutch merchants began promoting the trade more widely.\n            </p>\n            <h2>Geography</h2>\n            <p>\n              The Armagnac region lies between the\n              <a href="http://en.wikipedia.org/wiki/Adour" title="Adour" shape="rect">Adour</a>\n              and\n              <a href="http://en.wikipedia.org/wiki/Garonne" title="Garonne" shape="rect">Garonne</a>\n              rivers in the foothills of the\n              <a href="http://en.wikipedia.org/wiki/Pyrenees" title="Pyrenees" shape="rect">Pyrenees</a>\n              . The region was granted\n              <a href="http://en.wikipedia.org/wiki/Appellation_d%27Origine_Contr%C3%B4l%C3%A9e" title="Appellation d\'Origine Contr\xc3\x83\xc5\xbdl\xc3\x83\xc2\xa9e" shape="rect">AOC</a>\n              status in 1936. The official production area is divided into three districts that lie in the\n              <em>departements</em>\n              of\n              <a href="http://en.wikipedia.org/wiki/Gers" title="Gers" shape="rect">Gers</a>\n              ,\n              <a href="http://en.wikipedia.org/wiki/Landes_%28department%29" title="Landes (department)" shape="rect">Landes</a>\n              , and\n              <a href="http://en.wikipedia.org/wiki/Lot-et-Garonne" title="Lot-et-Garonne" shape="rect">Lot-et-Garonne</a>\n              . The region contains 40,000 acres (160\xc3\x82\xc2\xa0km\xc3\x82\xc2\xb2) of grape-producing vines.The May 25, 1909 Falliere\xc3\xa2\xe2\x82\xac\xe2\x84\xa2s decree describes the three districts:\n            </p>\n            <ul>\n              <li>\n                <em>\n                  <a href="http://en.wikipedia.org/wiki/Bas-Armagnac" title="Bas-Armagnac" shape="rect">Bas-Armagnac</a>\n                </em>\n              </li>\n              <li>\n                <em>\n                  <a href="http://en.wikipedia.org/wiki/Armagnac-T%C3%A9nar%C3%A8ze" title="Armagnac-T\xc3\x83\xc2\xa9nar\xc3\x83\xc5\xa1ze" shape="rect">Armagnac-T\xc3\x83\xc2\xa9nar\xc3\x83\xc5\xa1ze</a>\n                </em>\n              </li>\n              <li>\n                <em>\n                  <a href="http://en.wikipedia.org/wiki/Haut-Armagnac" title="Haut-Armagnac" shape="rect">Haut-Armagnac</a>\n                </em>\n              </li>\n            </ul>\n            <p>\n              Each of these areas is controlled by separate\n              <a href="http://en.wikipedia.org/wiki/Appellation_d%27Origine_Contr%C3%B4l%C3%A9e" title="Appellation d\'Origine Contr\xc3\x83\xc5\xbdl\xc3\x83\xc2\xa9e" shape="rect">appellation</a>\n              regulations. More recently, a new appellation\xc3\xa2\xe2\x82\xac\xe2\x80\x9d\xe2\x80\x9d\n              <a href="http://en.wikipedia.org/w/index.php?title=Blanche_d%27Armagnac&amp;action=edit&amp;redlink=1" title="Blanche d\'Armagnac (page does not exist)" shape="rect">Blanche d\xe2\x80\x99Armagnac</a>\n              \xe2\x80\x9c\xc3\xa2\xe2\x82\xac\xe2\x80\x9dwas established to allow the production and export of clear, white brandies that are unaged.\n            </p>\n            <h2>Production</h2>\n            <p>\n              Armagnac is traditionally distilled once, which results initially in a less polished spirit than Cognac, where double distillation usually takes place. However, long aging in oak barrels softens the taste and causes the development of more complex flavours and a brown colour. Aging in the\n              <a href="http://en.wikipedia.org/wiki/Aging_barrel" title="Aging barrel" shape="rect">barrel</a>\n              removes a part of the alcohol and water by evaporation (known as\n              <em>part des anges</em>\n              \xc3\xa2\xe2\x82\xac\xe2\x80\x9d\xe2\x80\x9dangels\xe2\x80\x99 tribute\xe2\x80\x9d or \xe2\x80\x9cangels\xe2\x80\x99 share\xe2\x80\x9d) and allows more complex aromatic compounds to appear by oxidation, which further improves the flavour. When the alcohol reaches 40%, the Armagnac can be transferred to large glass bottles (called \xe2\x80\x9cDame Jeanne\xe2\x80\x9d) for storage. From then on, the Armagnac does not age or develop further and can be bottled for sale from the next year on.\n            </p>\n            <p>\n              Armagnac is sold under several different classifications, mostly referring to the age of the constituent brandies. When brandies of different ages have been blended, the age on the bottle refers to the youngest component. A three star, or \xe2\x80\x9cVS,\xe2\x80\x9d Armagnac is a mix of several Armagnacs that have seen at least two years of aging in wood. For the VSOP, the aging is at least five years; and for XO, at least six.\n              <em>Hors d\xe2\x80\x99\xc3\x83\xc2\xa2ge</em>\n              means the youngest component in the blend is at least ten years old. Older and better Armagnacs are often sold as vintages, with the bottles containing Armagnac from a single year, the year being noted on the bottle.\n            </p>\n            <p>\n              As with any \xe2\x80\x9c\n              <a href="http://en.wikipedia.org/wiki/Eau_de_vie" title="Eau de vie" shape="rect">eau de vie</a>\n              ,\xe2\x80\x9d Armagnac should be stored vertically to avoid damaging the stopper with alcohol. Once opened, a bottle should stay drinkable for years.\n            </p>\n            <h3>Grapes</h3>\n            <p>\n              Ten different varieties of\n              <a href="http://en.wikipedia.org/w/index.php?title=Armagnac_grapes&amp;action=edit&amp;redlink=1" title="Armagnac grapes (page does not exist)" shape="rect">Armagnac grapes</a>\n              are authorised for use in the production of Armagnac. Of these, four form the principal part: Armagnac Grapes:\n            </p>\n            <ul>\n              <li>\n                <a href="http://en.wikipedia.org/wiki/Baco_22A" title="Baco 22A" shape="rect">Baco 22A</a>\n              </li>\n              <li>\n                <a href="http://en.wikipedia.org/wiki/Colombard" title="Colombard" shape="rect">Colombard</a>\n              </li>\n              <li>\n                <a href="http://en.wikipedia.org/wiki/Folle_Blanche" title="Folle Blanche" shape="rect">Folle Blanche</a>\n              </li>\n              <li>\n                <a href="http://en.wikipedia.org/wiki/Ugni_Blanc" title="Ugni Blanc" shape="rect">Ugni Blanc</a>\n              </li>\n            </ul>\n            <p>\n              Armagnac can also be added to other ingredients to produce liquors that are sold as another drink \xe2\x80\x93 the German company\n              <a href="http://en.wikipedia.org/w/index.php?title=Vom_Fass&amp;action=edit&amp;redlink=1" title="Vom Fass (page does not exist)" shape="rect">Vom Fass</a>\n              produces fruit liquors with Armagnac (they are about 16% alcohol).\n            </p>\n            <h2>Health benefits</h2>\n            <p>\n              <a rel="attachment wp-att-2111" href="http://adrian1974fulga.wordpress.com/general-view-on-cognac/chapter-5-1-general-view-on-armagnac/potgascon/" shape="rect">\n                <img alt="" src="http://adrian1974fulga.files.wordpress.com/2011/11/potgascon.jpg?w=470" title="potgascon" class="aligncenter size-full wp-image-2111"></img>\n              </a>\n            </p>\n            <p>\n              Research conducted by scientists at\n              <a href="http://en.wikipedia.org/wiki/Bordeaux_University" title="Bordeaux University" shape="rect">Bordeaux University</a>\n              in 2007 suggested that Armagnac has health benefits, finding that moderate consumption can help protect against\n              <a href="http://en.wikipedia.org/wiki/Heart_disease" title="Heart disease" shape="rect">heart disease</a>\n              and\n              <a href="http://en.wikipedia.org/wiki/Obesity" title="Obesity" shape="rect">obesity</a>\n              . The research seemed to indicate that the benefits derived from its unique distillation process and aging rather than from its alcoholic content. The southwestern area of France, where Armagnac is produced, has some of the lowest cardiovascular disease rates in the world.\n            </p>\n            <p>Synonymous with quality, family and tradition, the Darroze name has now been added to a unique new range of Armagnac blends called Les Grands Assemblages.</p>\n            <p>Traditionally known for its unique range of single estate Bas-Armagnacs where the company works with approximately 30 different individual estates, this new range adds a different dimension to the diverse products and styles on offer.</p>\n            <p>Grown out of several reasons, including a demand from customers looking for younger armagnacs of the highest quality that are good value for money, Les Grands Assemblages can respond to this need particularly with the 8 year old which is the youngest in the range.</p>\n            <p>\n              For several generations, the Darroze family has been searching out and selecting the finest Bas-Armagnacs, yet nowadays, it is increasingly difficult to find top quality old vintages, although Darroze is still able to source wonderful old blended eaux-de-vie that have therefore forfeited their original vintage.\xc3\x82\xc2\xa0 A vintage being an armagnac that is 100% produced from that one year only.\n            </p>\n            <p>\n              Les Grands Assemblages consists of seven extremely well balanced, high quality Bas-Armagnacs with great character.\xc3\x82\xc2\xa0 The younger the blend, the more aromas of fruit, whilst the older the armagnac, more\xc3\x82\xc2\xa0 the notes of ageing will take over.\xc3\x82\xc2\xa0 Each of the blends has been selected from the Bas-Armagnac area from different estates to those used for the single estate range.\xc3\x82\xc2\xa0 The age on the bottle indicates the age of the youngest armagnac in the blend.\n            </p>\n            <p>\n              <strong>8 year old (43%)</strong>\n              -\xc3\x82\xc2\xa0 This blend with very little wood influence displays a predominance of fruity aromas along with a variety of other flavours including prunes, candied orange zest and quince.\xc3\x82\xc2\xa0 A straight armagnac that is highly strung yet nevertheless smooth and enveloping.\xc3\x82\xc2\xa0 You can drink this armagnac as an aperitif with or without ice.\n            </p>\n            <p>\n              <strong>12 year old XO (43%)</strong>\n              \xe2\x80\x93 After 10 years ageing in oak, Armagnac starts to take on the aromas of ageing.\xc3\x82\xc2\xa0 The fruit that is still present is accompanied by the first aromas of soft spices such as liquorice and cinnamon.\xc3\x82\xc2\xa0 Still quite lively, this eau-de-vie will become more complex after a few minutes breathing in the glass.\n            </p>\n            <p>\n              <strong>20 year old (43%)</strong>\n              \xe2\x80\x93 This Armagnac is full of life and displays a lovely character.\xc3\x82\xc2\xa0 Already the alcohol is tamed, the tannins more refined and the aromas take shape.\xc3\x82\xc2\xa0 It is certainly the most wonderful age for the armagnac enthusiast who appreciates the force and the maturity.\n            </p>\n            <p>\n              <strong>30 year old (43%)</strong>\n              \xe2\x80\x93 Maturity begins.\xc3\x82\xc2\xa0 The fresh fruit is transformed into dried and candied fruit.\xc3\x82\xc2\xa0 The spicy character asserts itself.\xc3\x82\xc2\xa0 The first aromas of \xe2\x80\x98rancio\xe2\x80\x99 appear and the alcohol is perfectly mellow.\xc3\x82\xc2\xa0 This Grand Assemblage is the perfect example of magnificent balance that one finds in eaux-de-vie of this age.\n            </p>\n            <p>\n              <strong>40 year old (43%)</strong>\n              \xe2\x80\x93 At 40 years old, the Armagnac\xe2\x80\x99s style is definitely apparent.\xc3\x82\xc2\xa0 The quality of the oak used is very important and the right use of a quality barrel will bring complexity and finesse to the Armagnac.\n            </p>\n            <p>\n              <strong>50 year old (42%)</strong>\n              \xe2\x80\x93 The age of reason.\xc3\x82\xc2\xa0 According to the freshness and the balance of the Armagnacs of this age, it is sometimes time, at the end of 50 years to stop the barrel ageing.\xc3\x82\xc2\xa0 However, the use of barrels that have been exhausted of their tannins over many years in contact with the eau-de-vie is still possible.\xc3\x82\xc2\xa0 The aromas of chocolate, leather and roasted notes are characteristic of these very old eaux-de-vie.\n            </p>\n            <p>\n              <strong>60 year old (42%)</strong>\n              \xe2\x80\x93 An Armagnac of 60 years old is eternal.\xc3\x82\xc2\xa0 It is rare to find an eau-de-vie that continues to express such character after so many years.\xc3\x82\xc2\xa0 This blend is the result of a long and delicate selection that has allowed Darroze to preserve only those Armagnacs that have travelled through time without a single wrinkle!\n            </p>\n            <h2 style="text-align:center;">Armagnac Main Brands</h2>\n            <p>\n              <a rel="attachment wp-att-2112" href="http://adrian1974fulga.wordpress.com/general-view-on-cognac/chapter-5-1-general-view-on-armagnac/janneau-1872/" shape="rect">\n                <img alt="" src="http://adrian1974fulga.files.wordpress.com/2011/11/janneau-1872.jpg?w=470" title="Janneau 1872" class="aligncenter size-full wp-image-2112"></img>\n              </a>\n            </p>\n            <ol>\n              <li>\n                <strong></strong>\n                <strong>\n                  1.\n                  <a target="_blank" href="http://www.armagnac-cadeaux.com/" shape="rect">Domaine San de Guilhem</a>\n                </strong>\n                <br clear="none"></br>\n                Winegrower from the Gers, sale of old Bas Armagnacs. Producer of wines from South-West France, C\xc3\x83\xc5\xbdtes and flocs de Gascogne. Offers an original gift for individuals and companies, Jouvence d\xc3\xa2\xe2\x82\xac\xe2\x84\xa2Armagnac.\n              </li>\n              <li>\n                <strong>\n                  2.\n                  <a target="_blank" href="http://gascogna-armagnacs.com/" shape="rect">Armagnacs Gascogna</a>\n                </strong>\n                <br clear="none"></br>\n                Producer, wine merchant, we sell more than 110 AOC Bas Armagnac vintage, Gers wines, condiments, Armagnacs jams and Armagnac / Floc / wines Gers products\n                <strong>.</strong>\n              </li>\n              <li>\n                <strong>\n                  3.\n                  <a target="_blank" href="http://www.buscamaniban.com/" shape="rect">Ch\xc3\x83\xc2\xa2teau du Busca-Maniban</a>\n                </strong>\n                <br clear="none"></br>\n                In the heart of Armagnac, the castle of Busca-Maniban is one of the most beautiful examples of the architecture of 17th Century Gascogne. Marquis de Maniban Armagnacs have been made there since 1649. You can buy them on line.\n                <strong>\n                  4.\n                  <a target="_blank" href="http://chateaudelacquy.com/" shape="rect">Ch\xc3\x83\xc2\xa2teau de Lacquy</a>\n                </strong>\n                <br clear="none"></br>\n                The oldest family-owned property in the Armagnac appellation, belonging to the Boiss\xc3\x83\xc2\xa9sson family since 1711. Production of Bas-Armagnac from Baco, Ugni Blanc, Colombard, Folle Blanche.\n                <strong></strong>\n              </li>\n              <li>\n                <strong>\n                  5.\n                  <a target="_blank" href="http://www.chateaudecassaigne.com/" shape="rect">Ch\xc3\x83\xc2\xa2teau de Cassaigne</a>\n                </strong>\n                <br clear="none"></br>\n                Production of Armagnac, as well as aperitifs and liqueurs and C\xc3\x83\xc5\xbdtes de Gascogne, Madiran and C\xc3\x83\xc5\xbdtes de Saint-Mont wines.\n                <strong>\n                  6.\n                  <a target="_blank" href="http://www.armagnac-saintpastou.com/" shape="rect">Baronne Jacques de Saint Pastou</a>\n                </strong>\n                <br clear="none"></br>\n                Located at the heart of the Bas Armagnac Noir region, Domaine de R\xc3\x83\xc2\xa9bert only produces a few thousand bottles of Armaganc each year.\n                <p>\n                  <strong>\n                    7.\n                    <a target="_blank" href="http://www.chateau-branda.com/" shape="rect">Branda</a>\n                  </strong>\n                  <br clear="none"></br>\n                  Ch\xc3\x83\xc2\xa2teau Branda and Ch\xc3\x83\xc2\xa2teau Cadillac (Fronsac), Ch\xc3\x83\xc2\xa2teau Haut-Selve and Ch\xc3\x83\xc2\xa2teau Le Bonnat (Graves), Ch\xc3\x83\xc2\xa2teau Peyros (Madiran) and Ch\xc3\x83\xc2\xa2teau de Laubade (Bas-Armagnac).\n                </p>\n                <p>\n                  <strong>\n                    8.\n                    <a target="_blank" href="http://www.neguebouc.com/" shape="rect">Ch\xc3\x83\xc2\xa2teau de Neguebouc</a>\n                  </strong>\n                  <br clear="none"></br>\n                  Zacharie Baqu\xc3\x83\xc2\xa9, the consummate historian of Gascony, held that, of all the eaux de vie made in Armagnac, those from Haut Armagnac had \xe2\x80\x9cthe finest bouquet\xe2\x80\x9d. Producer of Armagnac, C\xc3\x83\xc5\xbdtes de Gascogne wines, aperitifs.\n                </p>\n                <p>\n                  <strong>\n                    9.\n                    <a target="_blank" href="http://www.domaine-joy.com/" shape="rect">Domaine de Jo\xc3\x83\xc2\xbf</a>\n                  </strong>\n                  <br clear="none"></br>\n                  Olivier and Roland Gessler, winemakers at Panjas, in the Gers, are overJo\xc3\x83\xc2\xbfed to present their collection of C\xc3\x83\xc5\xbdtes de Gascogne white wines, as well as their Armagnac and their Flocs de Gascogne.\n                </p>\n                <p>\n                  <strong>\n                    10.\n                    <a target="_blank" href="http://www.vignobles-fontan.com/" shape="rect">Vignobles Fontan</a>\n                  </strong>\n                  <br clear="none"></br>\n                  The Maubet and Grachies estates are in the Gers, in the heart of this region famous for its Armagnac and for its C\xc3\x83\xc5\xbdtes de Gascogne wines.\n                </p>\n                <p>\n                  <strong>\n                    11.\n                    <a target="_blank" href="http://www.darroze-armagnacs.com/" shape="rect">Darroze</a>\n                  </strong>\n                  <br clear="none"></br>\n                  Producer of Bas-Armagnac: the soil, the art, the products and the importers.\n                </p>\n                <p>\n                  <strong>\n                    12.\n                    <a target="_blank" href="http://armagnacdelord.free.fr/" shape="rect">Armagnac Delord</a>\n                  </strong>\n                  <br clear="none"></br>\n                  From the grape to the bottle, join us as we elaborate our Armagnacs.\n                </p>\n                <p>\n                  <strong>\n                    13.\n                    <a target="_blank" href="http://www.armagnac-castarede.fr/" shape="rect">Armagnac Castar\xc3\x83\xc5\xa1de</a>\n                  </strong>\n                  <br clear="none"></br>\n                  The House of Castar\xc3\x83\xc5\xa1de, founded in 1832, is the oldest of all Armagnac trading houses.\n                </p>\n                <p>\n                  <strong>\n                    14.\n                    <a target="_blank" href="http://www.armagnacbriat.com/" shape="rect">Ch\xc3\x83\xc2\xa2teau de Briat</a>\n                  </strong>\n                  <br clear="none"></br>\n                  Production of great Bas Armagnac. The #1 reference for quality Armagnac.\n                </p>\n                <p>\n                  <strong>\n                    15.\n                    <a target="_blank" href="http://www.gelas.fr/" shape="rect">Maison G\xc3\x83\xc2\xa9las</a>\n                  </strong>\n                  <br clear="none"></br>\n                  Founded in 1865, specialized in the production of vintage armagnac, of which it offers a rich and refined selection, Maison G\xc3\x83\xc2\xa9las has long been recognized as the leader in its field.\n                </p>\n              </li>\n            </ol>\n            <ol>\n              <li>\n                <strong>\xc3\x82\xc2\xa0</strong>\n                <strong>\n                  16.\n                  <a target="_blank" href="http://www.armagnac-larressingle.com/" shape="rect">Armagnac Larressingle</a>\n                </strong>\n                <br clear="none"></br>\n                Ch\xc3\x83\xc2\xa2teau Larressingle, founded in 1837 in Gascogne, offers grand cru Armagnacs made from Folle Blanche, Blanquette, Picquepoult, Ugni Blanc, Colombard.\n              </li>\n              <li>\n                <strong>\n                  17.\n                  <a target="_blank" href="http://www.de-montal.com/" shape="rect">Armagnac de Montal</a>\n                </strong>\n                <br clear="none"></br>\n                Olivier de Montal, through the Compagnie des Produits de Gascogne, offers a prestigious selection of Armagnac, produced at Ch\xc3\x83\xc2\xa2teau de Rieutort.\n              </li>\n              <li>\n                <strong>\n                  18.\n                  <a target="_blank" href="http://www.domainedemirail.com/" shape="rect">Domaine de Mirail</a>\n                </strong>\n                <br clear="none"></br>\n                Independent producer of C\xc3\x83\xc5\xbdtes de Gascogne wines and Armagnac, located in Lectoure.\n                <strong></strong>\n              </li>\n              <li>\n                <strong>\n                  19.\n                  <a target="_blank" href="http://www.armagnac-baron-de-lustrac.com/" shape="rect">Armagnac Baron de Lustrac</a>\n                </strong>\n                <br clear="none"></br>\n                Vintanged Baron de Lustrac Armagnac, selected and aged passionnately, are largely produced by small estates. Rare and authentic brandies.\n              </li>\n              <li>\n                <strong>\n                  20.\n                  <a target="_blank" href="http://www.domaine-ognoas.com/" shape="rect">Domaine d\xe2\x80\x99Ognoas</a>\n                </strong>\n                <br clear="none"></br>\n                Description of the Domain, details on Armagnac vintages. Armagnac and Floc de Gascogne sold online.\n                <strong>\n                  21.\n                  <a target="_blank" href="http://www.armagnac.fr/" shape="rect">Bureau National Interprofessionnel de l\xe2\x80\x99Armagnac</a>\n                </strong>\n                <br clear="none"></br>\n                Armagnac is the oldest wine eau-de-vie produced in the South West of France, in the heart of Gascogny.\n                <p>\n                  <strong>\n                    22.\n                    <a target="_blank" href="http://www.armagnacslouismarcellin.com/" shape="rect">Armagnacs Louis Marcellin</a>\n                  </strong>\n                  <br clear="none"></br>\n                  Producer located in Gazaupouy and offering an Armagnac and a charming Floc de Gascogne.\n                </p>\n                <p>\n                  <strong>\n                    23.\n                    <a target="_blank" href="http://www.armagnac-jean-cave.com/" shape="rect">Armagnacs Jean Cav\xc3\x83\xc2\xa9</a>\n                  </strong>\n                  <br clear="none"></br>\n                  The estate was founded by Jean Cav\xc3\x83\xc2\xa9 in 1883, in Lannepax.\n                </p>\n                <p>\n                  <strong>\n                    24.\n                    <a target="_blank" href="http://www.maison-armagnac.com/" shape="rect">Baron de Sigognac</a>\n                  </strong>\n                  <br clear="none"></br>\n                  Baron de Sigognac Armagnac was born of the spirit and passion that for centuries has fueled the soul of Gascony, emblematically represented by D\xe2\x80\x99Artagnan, the valiant Musketeer.\n                </p>\n                <p>\n                  <strong>\n                    25.\n                    <a target="_blank" href="http://www.sempe-armagnac.com/" shape="rect">Semp\xc3\x83\xc2\xa9</a>\n                  </strong>\n                  <br clear="none"></br>\n                  Since 1934, Semp\xc3\x83\xc2\xa9 has kept alive a long tradition of know-how and quality servicing Armagnac, the oldest French spirit.\n                </p>\n                <p>\n                  <strong>\n                    26.\n                    <a target="_blank" href="http://www.tariquet.com/" shape="rect">Tariquet</a>\n                  </strong>\n                  <br clear="none"></br>\n                  Armagnac, Flocs de Gascogne and white and red C\xc3\x83\xc5\xbdtes de Gascogne wines are carefully produced at the Ch\xc3\x83\xc2\xa2teau du Tariquet.\n                </p>\n                <p>\n                  <strong>\n                    27.\n                    <a target="_blank" href="http://www.la-hitaire.com/" shape="rect">Ch\xc3\x83\xc2\xa2teau La Hitaire</a>\n                  </strong>\n                  <br clear="none"></br>\n                  On the banks of a magnificent lake, surrounding a superb 18th Century ch\xc3\x83\xc2\xa2teau, the vines of La Hitaire spread on the hills of Eauze, the Armagnac capital. The estate also produces C\xc3\x83\xc5\xbdtes de Gascogne wines.\n                </p>\n                <p>\n                  <strong>\n                    28.\n                    <a target="_blank" href="http://www.janneau.net/" shape="rect">Janneau </a>\n                  </strong>\n                  <br clear="none"></br>\n                  The V.S.O.P., also known as the \xe2\x80\x9c7 Years Old\xe2\x80\x9d, is a blend of various Armagnacs aged in oak barrels in the Janneau House maturation warehouses for at least 7 years.\n                </p>\n                <p>\n                  <strong>\n                    29.\n                    <a target="_blank" href="http://www.chateaulaballe.com/" shape="rect">Ch\xc3\x83\xc2\xa2teau Laballe</a>\n                  </strong>\n                  <br clear="none"></br>\n                  The vineyard is located in the Bas Armagnac in the Landes region, area where are produced the finest and most aromatic brandies.\n                </p>\n                <p>\n                  <strong>\n                    30.\n                    <a target="_blank" href="http://www.3domaines.com/" shape="rect">Les 3 Domaines</a>\n                  </strong>\n                  <br clear="none"></br>\n                  We are vinegrowers and producers located in Rejaumont, in the Gers, in Haut-Armagnac. The wines are made and bottled on the estates. Three estates, three families of generations of vinegrowers.\n                </p>\n              </li>\n            </ol>\n            <ol>\n              <li>\n                <strong></strong>\n                <strong>\n                  31.\n                  <a target="_blank" href="http://www.domaine-grand-comte.com/" shape="rect">Domaine du Grand Comt\xc3\x83\xc2\xa9</a>\n                </strong>\n                <br clear="none"></br>\n                Roquelaure wine. Armagnac, le Floc de Gascogne producer.\n                <strong></strong>\n              </li>\n              <li>\n                <strong>\n                  32.\n                  <a target="_blank" href="http://www.esperance.fr/" shape="rect">Domaine d\xe2\x80\x99Esp\xc3\x83\xc2\xa9rance</a>\n                </strong>\n                <br clear="none"></br>\n                The vineyard is comprised of 7ha of Baco and Folle Blanche for Bas-Armagnac, 23ha for white wines (Colombard, Ugni-Blanc, Gros-Manseng, Sauvignon blanc and gris) and 7ha for red wines (Tannat, Merlot, Cabernet-Sauvignon, Cabernet Franc).\n                <strong></strong>\n              </li>\n              <li>\n                <strong>\n                  33.\n                  <a target="_blank" href="http://www.armagnac-gascogne.com/" shape="rect">Armadis</a>\n                </strong>\n                <br clear="none"></br>\n                Armadis and the Bas Armagnac producers present their facilities, vineyards, distillation methods and products: Armagnac, liqueurs, fruits, and their labels: La Belle Sandrine, Chabot, Marquis de Puys\xc3\x83\xc2\xa9gur, Gerland, Duc d\xe2\x80\x99Ejas.\n                <strong></strong>\n              </li>\n              <li>\n                <strong>\n                  34.\n                  <a target="_blank" href="http://perso.orange.fr/michel.mazzonetto" shape="rect">GAEC d\xc3\xa2\xe2\x82\xac\xe2\x84\xa2Ordac</a>\n                </strong>\n                <br clear="none"></br>\n                Producer of T\xc3\x83\xc2\xa9nar\xc3\x83\xc5\xa1ze armagnac, in Saint-Puy, in the Gers region of south-western France.\n              </li>\n            </ol>\n            <div id="jp-post-flair" class="sharedaddy sd-rating-enabled sd-like-enabled sd-sharing-enabled">\n              <div class="sd-block sd-rating">\n                <h3 class="sd-title">Rate this:</h3>\n                <div id="pd_rating_holder_2044381_page_2107" class="pd-rating"></div>\n              </div>\n              <div class="sharedaddy sd-sharing-enabled">\n                <div class="robots-nocontent sd-block sd-social sd-social-icon-text sd-sharing">\n                  <h3 class="sd-title">Share this:</h3>\n                  <div class="sd-content">\n                    <ul>\n                      <li class="share-digg">\n                        <a title="Click to Digg this post" target="_blank" href="http://adrian1974fulga.wordpress.com/general-view-on-cognac/chapter-5-1-general-view-on-armagnac/?share=digg" rel="nofollow" class="share-digg sd-button share-icon" shape="rect">\n                          <span>Digg</span>\n                        </a>\n                      </li>\n                      <li class="share-facebook">\n                        <a title="Share on Facebook" target="_blank" href="http://adrian1974fulga.wordpress.com/general-view-on-cognac/chapter-5-1-general-view-on-armagnac/?share=facebook" rel="nofollow" id="sharing-facebook-2107" class="share-facebook sd-button share-icon" shape="rect">\n                          <span>Facebook</span>\n                        </a>\n                      </li>\n                      <li class="share-stumbleupon">\n                        <a title="Click to share on StumbleUpon" target="_blank" href="http://adrian1974fulga.wordpress.com/general-view-on-cognac/chapter-5-1-general-view-on-armagnac/?share=stumbleupon" rel="nofollow" class="share-stumbleupon sd-button share-icon" shape="rect">\n                          <span>StumbleUpon</span>\n                        </a>\n                      </li>\n                      <li class="share-reddit">\n                        <a title="Click to share on Reddit" target="_blank" href="http://adrian1974fulga.wordpress.com/general-view-on-cognac/chapter-5-1-general-view-on-armagnac/?share=reddit" rel="nofollow" class="share-reddit sd-button share-icon" shape="rect">\n                          <span>Reddit</span>\n                        </a>\n                      </li>\n                      <li class="share-twitter">\n                        <a title="Click to share on Twitter" target="_blank" href="http://adrian1974fulga.wordpress.com/general-view-on-cognac/chapter-5-1-general-view-on-armagnac/?share=twitter" rel="nofollow" id="sharing-twitter-2107" class="share-twitter sd-button share-icon" shape="rect">\n                          <span>Twitter</span>\n                        </a>\n                      </li>\n                      <li class="share-linkedin">\n                        <a title="Click to share on LinkedIn" target="_blank" href="http://adrian1974fulga.wordpress.com/general-view-on-cognac/chapter-5-1-general-view-on-armagnac/?share=linkedin" rel="nofollow" id="sharing-linkedin-2107" class="share-linkedin sd-button share-icon" shape="rect">\n                          <span>LinkedIn</span>\n                        </a>\n                      </li>\n                      <li class="share-google-plus-1">\n                        <div class="googleplus1_button">\n                          <div data-href="http://adrian1974fulga.wordpress.com/general-view-on-cognac/chapter-5-1-general-view-on-armagnac/" data-callback="sharing_plusone" data-size="medium" class="g-plusone"></div>\n                        </div>\n                      </li>\n                      <li class="share-tumblr">\n                        <a title="Click to share on Tumblr" target="_blank" href="http://adrian1974fulga.wordpress.com/general-view-on-cognac/chapter-5-1-general-view-on-armagnac/?share=tumblr" rel="nofollow" class="share-tumblr sd-button share-icon" shape="rect">\n                          <span>Tumblr</span>\n                        </a>\n                      </li>\n                      <li class="share-pinterest">\n                        <a title="Click to share on Pinterest" target="_blank" href="http://adrian1974fulga.wordpress.com/general-view-on-cognac/chapter-5-1-general-view-on-armagnac/?share=pinterest" rel="nofollow" class="share-pinterest sd-button share-icon" shape="rect">\n                          <span>Pinterest</span>\n                        </a>\n                      </li>\n                      <li class="share-email">\n                        <a title="Click to email this to a friend" target="_blank" href="http://adrian1974fulga.wordpress.com/general-view-on-cognac/chapter-5-1-general-view-on-armagnac/?share=email" rel="nofollow" class="share-email sd-button share-icon" shape="rect">\n                          <span>Email</span>\n                        </a>\n                      </li>\n                      <li>\n                        <a href="#" class="sharing-anchor sd-button share-more" shape="rect">\n                          <span>More</span>\n                        </a>\n                      </li>\n                      <li class="share-end"></li>\n                    </ul>\n                    <div class="sharing-hidden">\n                      <div style="display: none;width:150px;" class="inner">\n                        <ul style="background-image:none;">\n                          <li class="share-print">\n                            <a title="Click to print" target="_blank" href="http://adrian1974fulga.wordpress.com/general-view-on-cognac/chapter-5-1-general-view-on-armagnac/#print" rel="nofollow" class="share-print sd-button share-icon" shape="rect">\n                              <span>Print</span>\n                            </a>\n                          </li>\n                          <li class="share-end"></li>\n                        </ul>\n                      </div>\n                    </div>\n                    <div class="sharing-clear"></div>\n                  </div>\n                </div>\n              </div>\n              <div class="wpl-likebox sd-block sd-like">\n                <h3 class="sd-title">Like this:</h3>\n                <div class="sd-content">\n                  <div id="like-2107" class="wpl-button">\n                    <a rel="nofollow" title="I like this." href="http://adrian1974fulga.wordpress.com/general-view-on-cognac/chapter-5-1-general-view-on-armagnac/?like=1&amp;_wpnonce=d5d394453a" class="like needs-login sd-button" shape="rect">\n                      <span>Like</span>\n                    </a>\n                  </div>\n                  <div class="wpl-count sd-like-count">Be the first to like this.</div>\n                </div>\n              </div>\n            </div>\n          </div>\n          <div class="meta">\n            Published\t\n\t on November 14, 2011 at 12:03\n\t\xc2\xa0\n            <a title="Comment on Chapter 5.1.General View on\xc2\xa0Armagnac" href="http://adrian1974fulga.wordpress.com/general-view-on-cognac/chapter-5-1-general-view-on-armagnac/#respond" shape="rect">Leave a Comment</a>\n            \xc2\xa0\n            <br clear="none"></br>\n          </div>\n          <img alt=" " height="27" width="102" src="http://s0.wp.com/wp-content/themes/pub/quentin/images/printer.gif?m=1158640643g" class="pmark"></img>\n          <div id="trackback">\n            <p>\n              The\n              <acronym title="Uniform Resource Identifier">URI</acronym>\n              to TrackBack this entry is:\n              <em>http://adrian1974fulga.wordpress.com/general-view-on-cognac/chapter-5-1-general-view-on-armagnac/trackback/</em>\n            </p>\n            <p>\n              <a href="http://adrian1974fulga.wordpress.com/general-view-on-cognac/chapter-5-1-general-view-on-armagnac/feed/" shape="rect">\n                <abbr title="Really Simple Syndication">RSS</abbr>\n                feed for comments on this post.\n              </a>\n            </p>\n          </div>\n          <div id="respond">\n            <h3 id="reply-title">\n              Leave a Reply\n              <small>\n                <a style="display:none;" href="/general-view-on-cognac/chapter-5-1-general-view-on-armagnac/#respond" rel="nofollow" id="cancel-comment-reply-link" shape="rect">Cancel reply</a>\n              </small>\n            </h3>\n            <form action="http://adrian1974fulga.wordpress.com/wp-comments-post.php" id="commentform" method="post" enctype="application/x-www-form-urlencoded">\n              <input value="guest" name="hc_post_as" id="hc_post_as" type="hidden"></input>\n              <div class="comment-form-field comment-textarea">\n                <label for="comment">Enter your comment here...</label>\n                <div id="comment-form-comment">\n                  <textarea name="comment" id="comment"></textarea>\n                </div>\n              </div>\n              <div id="comment-form-identity">\n                <div id="comment-form-nascar">\n                  <p>Fill in your details below or click an icon to log in:</p>\n                  <ul>\n                    <li style="display:none;" class="selected">\n                      <a title="Guest" href="#comment-form-guest" id="postas-guest" shape="rect">\n                        <span></span>\n                      </a>\n                    </li>\n                    <li>\n                      <a title="WordPress.com" href="#comment-form-load-service:WordPress.com" id="postas-wordpress" shape="rect">\n                        <span></span>\n                      </a>\n                    </li>\n                    <li>\n                      <a title="Twitter" href="#comment-form-load-service:Twitter" id="postas-twitter" shape="rect">\n                        <span></span>\n                      </a>\n                    </li>\n                    <li>\n                      <a title="Facebook" href="#comment-form-load-service:Facebook" id="postas-facebook" shape="rect">\n                        <span></span>\n                      </a>\n                    </li>\n                  </ul>\n                </div>\n                <div id="comment-form-guest" class="comment-form-service selected">\n                  <div class="comment-form-padder">\n                    <div class="comment-form-avatar">\n                      <a target="_blank" href="https://gravatar.com/site/signup/" shape="rect">\n                        <img width="25" alt="Gravatar" src="http://1.gravatar.com/avatar/ad516503a11cd5ca435acc9bb6523536?s=25&amp;d=&amp;forcedefault=y&amp;r=G" class="no-grav"></img>\n                      </a>\n                    </div>\n                    <div class="comment-form-fields">\n                      <div class="comment-form-field comment-form-email">\n                        <label for="email">\n                          Email\n                          <span class="required">(required)</span>\n                          <span class="nopublish">(Address never made public)</span>\n                        </label>\n                        <div class="comment-form-input">\n                          <input value="" name="email" id="email" type="email"></input>\n                        </div>\n                      </div>\n                      <div class="comment-form-field comment-form-author">\n                        <label for="author">\n                          Name\n                          <span class="required">(required)</span>\n                        </label>\n                        <div class="comment-form-input">\n                          <input value="" name="author" id="author" type="text"></input>\n                        </div>\n                      </div>\n                      <div class="comment-form-field comment-form-url">\n                        <label for="url">Website</label>\n                        <div class="comment-form-input">\n                          <input value="" name="url" id="url" type="text"></input>\n                        </div>\n                      </div>\n                    </div>\n                  </div>\n                </div>\n                <div id="comment-form-wordpress" class="comment-form-service">\n                  <div class="comment-form-padder">\n                    <div class="comment-form-avatar">\n                      <img width="25" alt="WordPress.com Logo" src="http://s2.wp.com/wp-content/mu-plugins/highlander-comments/images/wplogo.png?m=1289230950g" class="no-grav"></img>\n                    </div>\n                    <div class="comment-form-fields">\n                      <input value="" name="wp_avatar" id="wordpress-avatar" class="comment-meta-wordpress" type="hidden"></input>\n                      <input value="" name="wp_user_id" id="wordpress-user_id" class="comment-meta-wordpress" type="hidden"></input>\n                      <input value="" name="wp_access_token" id="wordpress-access_token" class="comment-meta-wordpress" type="hidden"></input>\n                      <p class="comment-form-posting-as pa-wordpress">\n                        <strong></strong>\n                        You are commenting using your WordPress.com account.\n                        <span class="comment-form-log-out">\n                          (\xc2\xa0\n                          <a href="javascript:HighlanderComments.doExternalLogout( \'wordpress\' );" shape="rect">Log\xc2\xa0Out</a>\n                          \xc2\xa0/\xc2\xa0\n                          <a onclick="javascript:HighlanderComments.switchAccount();return false;" href="#" shape="rect">Change</a>\n                          \xc2\xa0)\n                        </span>\n                      </p>\n                    </div>\n                  </div>\n                </div>\n                <div id="comment-form-twitter" class="comment-form-service">\n                  <div class="comment-form-padder">\n                    <div class="comment-form-avatar">\n                      <img width="25" alt="Twitter picture" src="http://1.gravatar.com/avatar/ad516503a11cd5ca435acc9bb6523536?s=25&amp;d=&amp;forcedefault=y&amp;r=G" class="no-grav"></img>\n                    </div>\n                    <div class="comment-form-fields">\n                      <input value="" name="twitter_avatar" id="twitter-avatar" class="comment-meta-twitter" type="hidden"></input>\n                      <input value="" name="twitter_user_id" id="twitter-user_id" class="comment-meta-twitter" type="hidden"></input>\n                      <input value="" name="twitter_access_token" id="twitter-access_token" class="comment-meta-twitter" type="hidden"></input>\n                      <p class="comment-form-posting-as pa-twitter">\n                        <strong></strong>\n                        You are commenting using your Twitter account.\n                        <span class="comment-form-log-out">\n                          (\xc2\xa0\n                          <a href="javascript:HighlanderComments.doExternalLogout( \'twitter\' );" shape="rect">Log\xc2\xa0Out</a>\n                          \xc2\xa0/\xc2\xa0\n                          <a onclick="javascript:HighlanderComments.switchAccount();return false;" href="#" shape="rect">Change</a>\n                          \xc2\xa0)\n                        </span>\n                      </p>\n                    </div>\n                  </div>\n                </div>\n                <div id="comment-form-facebook" class="comment-form-service">\n                  <div class="comment-form-padder">\n                    <div class="comment-form-avatar">\n                      <img width="25" alt="Facebook photo" src="http://1.gravatar.com/avatar/ad516503a11cd5ca435acc9bb6523536?s=25&amp;d=&amp;forcedefault=y&amp;r=G" class="no-grav"></img>\n                    </div>\n                    <div class="comment-form-fields">\n                      <input value="" name="fb_avatar" id="facebook-avatar" class="comment-meta-facebook" type="hidden"></input>\n                      <input value="" name="fb_user_id" id="facebook-user_id" class="comment-meta-facebook" type="hidden"></input>\n                      <input value="" name="fb_access_token" id="facebook-access_token" class="comment-meta-facebook" type="hidden"></input>\n                      <p class="comment-form-posting-as pa-facebook">\n                        <strong></strong>\n                        You are commenting using your Facebook account.\n                        <span class="comment-form-log-out">\n                          (\xc2\xa0\n                          <a href="javascript:HighlanderComments.doExternalLogout( \'facebook\' );" shape="rect">Log\xc2\xa0Out</a>\n                          \xc2\xa0/\xc2\xa0\n                          <a onclick="javascript:HighlanderComments.switchAccount();return false;" href="#" shape="rect">Change</a>\n                          \xc2\xa0)\n                        </span>\n                      </p>\n                    </div>\n                  </div>\n                </div>\n                <div id="comment-form-load-service" class="comment-form-service">\n                  <div class="comment-form-posting-as-cancel">\n                    <a href="javascript:HighlanderComments.cancelExternalWindow();" shape="rect">Cancel</a>\n                  </div>\n                  <p>Connecting to %s</p>\n                </div>\n              </div>\n              <script type="text/javascript">\n                jQuery(document).ready(function(){\n\tvar input = document.createElement( \'input\' ),\n\t    comment = jQuery( \'#comment\' );\n\n\tif ( \'placeholder\' in input ) {\n\t\tcomment.attr( \'placeholder\', jQuery( \'.comment-textarea label\' ).remove().text() );\n\t}\n\n\t// Expando Mode: start small, then auto-resize on first click + text length\n\tjQuery( \'#comment-form-identity\' ).hide();\n\tjQuery( \'#comment-form-subscribe\' ).hide();\n\tjQuery( \'#commentform .form-submit\' ).hide();\n\n\tcomment.css( { \'height\':\'10px\' } ).one( \'focus\', function() {\n\t\tvar timer = setInterval( HighlanderComments.resizeCallback, 10 )\n\t\tjQuery( this ).animate( { \'height\': HighlanderComments.initialHeight } ).delay( 100 ).queue( function(n) { clearInterval( timer ); HighlanderComments.resizeCallback(); n(); } );\n\t\tjQuery( \'#comment-form-identity\' ).slideDown();\n\t\tjQuery( \'#comment-form-subscribe\' ).slideDown();\n\t\tjQuery( \'#commentform .form-submit\' ).slideDown();\n\t});\n});\n              </script>\n              <div id="comment-form-subscribe">\n                <p class="comment-subscription-form">\n                  <input style="width: auto;" value="subscribe" name="subscribe" id="subscribe" type="checkbox" tabindex="6"></input>\n                  <label id="subscribe-label" class="subscribe-label" for="subscribe">Notify me of follow-up comments via email.</label>\n                </p>\n                <p class="post-subscription-form">\n                  <input style="width: auto;" value="subscribe" name="subscribe_blog" id="subscribe_blog" type="checkbox" tabindex="7"></input>\n                  <label id="subscribe-blog-label" class="subscribe-label" for="subscribe_blog">Notify me of new posts via email.</label>\n                </p>\n              </div>\n              <p class="form-submit">\n                <input value="Post Comment" name="submit" id="comment-submit" type="submit"></input>\n                <input value="2107" name="comment_post_ID" id="comment_post_ID" type="hidden"></input>\n                <input value="0" name="comment_parent" id="comment_parent" type="hidden"></input>\n              </p>\n              <input value="1349213659" name="genseq" type="hidden"></input>\n              <p style="display: none;">\n                <input value="f00632e06d" name="akismet_comment_nonce" id="akismet_comment_nonce" type="hidden"></input>\n              </p>\n              <script src="http://s2.wp.com/wp-content/mu-plugins/akismet-2.5/form.js?m=1308783962g" type="text/javascript"></script>\n              <p style="display: none;">\n                <input value="229" name="ak_js" id="ak_js" type="hidden"></input>\n              </p>\n            </form>\n          </div>\n          <div style="clear: both"></div>\n        </div>\n        <div class="navigation">\n          <div class="alignleft"></div>\n          <div class="alignright"></div>\n        </div>\n      </div>\n      <div id="menu">\n        <ul>\n          <li id="authors" class="widget widget_authors">\n            <h2 class="widgettitle">Authors</h2>\n            <ul>\n              <li>\n                <a href="http://adrian1974fulga.wordpress.com/author/adrian1974fulga/" shape="rect">\n                  <img width="128" height="128" src="http://1.gravatar.com/avatar/41253036501926ed96658716ef23ec8b?s=128&amp;d=&amp;r=G" alt="" class="avatar avatar-128"></img>\n                  <strong>Adrian L. Fulga</strong>\n                </a>\n              </li>\n            </ul>\n          </li>\n          <li id="text-291826195" class="widget widget_text">\n            <h2 class="widgettitle"> F.I.J.E.T. Member</h2>\n            <div class="textwidget"></div>\n          </li>\n          <li id="text-291826199" class="widget widget_text">\n            <h2 class="widgettitle">Fruntea Sus Romania !</h2>\n            <div class="textwidget"></div>\n          </li>\n          <li id="image-3" class="widget widget_image">\n            <h2 class="widgettitle">This is Who We are</h2>\n            <div style="overflow:hidden;">\n              <img height="40" width="150" title="Lupul Dacic" alt="Dracones" src="http://upload.wikimedia.org/wikipedia/ro/a/a0/Dracones.jpg" class="alignleft"></img>\n            </div>\n          </li>\n          <li id="text-291826202" class="widget widget_text">\n            <h2 class="widgettitle">Pinterest</h2>\n            <div class="textwidget">\n              <a href="http://pinterest.com/adrianlfulga/" shape="rect">\n                <img alt="Follow Me on Pinterest" height="26" width="156" src="http://passets-cdn.pinterest.com/images/follow-on-pinterest-button.png"></img>\n              </a>\n            </div>\n          </li>\n          <li id="pages-3" class="widget widget_pages">\n            <h2 class="widgettitle">Pages</h2>\n            <ul>\n              <li class="page_item page-item-49">\n                <a href="http://adrian1974fulga.wordpress.com/general-view-on-cigars/" shape="rect">Chapter 1.General View on\xc2\xa0Cigars</a>\n              </li>\n              <li class="page_item page-item-22">\n                <a href="http://adrian1974fulga.wordpress.com/general-view-on-wine/" shape="rect">Chapter 2.1.General View on\xc2\xa0Wine</a>\n              </li>\n              <li class="page_item page-item-499">\n                <a href="http://adrian1974fulga.wordpress.com/general-view-on-wine-chapter-ii/" shape="rect">Chapter 2.2.General View on\xc2\xa0Wine</a>\n                <ul class="children">\n                  <li class="page_item page-item-948">\n                    <a href="http://adrian1974fulga.wordpress.com/general-view-on-wine-chapter-ii/chapter-iii-general-view-on-wine/" shape="rect">Chapter 2.3.General View on\xc2\xa0Wine</a>\n                    <ul class="children">\n                      <li class="page_item page-item-2245">\n                        <a href="http://adrian1974fulga.wordpress.com/general-view-on-wine-chapter-ii/chapter-iii-general-view-on-wine/chapter-2-4-general-view-on-wine-premiers-crus/" shape="rect">Chapter 2.4.General View on Wine \xe2\x80\x93 Premiers\xc2\xa0Crus</a>\n                        <ul class="children">\n                          <li class="page_item page-item-2307">\n                            <a href="http://adrian1974fulga.wordpress.com/general-view-on-wine-chapter-ii/chapter-iii-general-view-on-wine/chapter-2-4-general-view-on-wine-premiers-crus/chapter-2-4-general-view-on-wine-deuxiemes-crus/" shape="rect">Chapter 2.4.General View on Wine \xe2\x80\x93 Deuxi\xc3\x83\xc2\xa9mes\xc2\xa0Crus</a>\n                            <ul class="children">\n                              <li class="page_item page-item-2428">\n                                <a href="http://adrian1974fulga.wordpress.com/general-view-on-wine-chapter-ii/chapter-iii-general-view-on-wine/chapter-2-4-general-view-on-wine-premiers-crus/chapter-2-4-general-view-on-wine-deuxiemes-crus/chapter2-4-1-general-view-on-wine-superior-white-wines/" shape="rect">\n                                  Chapter2.4.1 General View on Wine \xe2\x80\x93 Superior White\xc2\xa0Wines\n                                </a>\n                              </li>\n                            </ul>\n                          </li>\n                        </ul>\n                      </li>\n                      <li class="page_item page-item-1590">\n                        <a href="http://adrian1974fulga.wordpress.com/general-view-on-wine-chapter-ii/chapter-iii-general-view-on-wine/chapter-2-4-general-view-on-wine/" shape="rect">Chapter 2.5.General View on\xc2\xa0Wine</a>\n                        <ul class="children">\n                          <li class="page_item page-item-2346">\n                            <a href="http://adrian1974fulga.wordpress.com/" shape="rect">Chapter 2.5.1. General View on\xc2\xa0Wine</a>\n                          </li>\n                        </ul>\n                      </li>\n                    </ul>\n                  </li>\n                </ul>\n              </li>\n              <li class="page_item page-item-1745">\n                <a href="http://adrian1974fulga.wordpress.com/chapter-3-general-view-on-champagne/" shape="rect">Chapter 3.General View on\xc2\xa0Champagne</a>\n              </li>\n              <li class="page_item page-item-34">\n                <a href="http://adrian1974fulga.wordpress.com/general-view-on-port-wine/" shape="rect">Chapter 4.General View on Port\xc2\xa0Wine</a>\n              </li>\n              <li class="page_item page-item-31 current_page_ancestor current_page_parent">\n                <a href="http://adrian1974fulga.wordpress.com/general-view-on-cognac/" shape="rect">Chapter 5.General View on\xc2\xa0Cognac</a>\n                <ul class="children">\n                  <li class="page_item page-item-2107 current_page_item">\n                    <a href="http://adrian1974fulga.wordpress.com/general-view-on-cognac/chapter-5-1-general-view-on-armagnac/" shape="rect">Chapter 5.1.General View on\xc2\xa0Armagnac</a>\n                    <ul class="children">\n                      <li class="page_item page-item-2407">\n                        <a href="http://adrian1974fulga.wordpress.com/general-view-on-cognac/chapter-5-1-general-view-on-armagnac/chapter-5-1-2-general-view-on-brandy/" shape="rect">Chapter 5.1.2. General View on\xc2\xa0Brandy</a>\n                        <ul class="children">\n                          <li class="page_item page-item-2420">\n                            <a href="http://adrian1974fulga.wordpress.com/general-view-on-cognac/chapter-5-1-general-view-on-armagnac/chapter-5-1-2-general-view-on-brandy/chapter-5-1-3-general-view-on-whisky-whiskey-bourbon-and-some-other-spirits/" shape="rect">\n                              Chapter 5.1.3. General View on Whisky / Whiskey / Bourbon and some other\xc2\xa0Spirits\n                            </a>\n                          </li>\n                        </ul>\n                      </li>\n                    </ul>\n                  </li>\n                </ul>\n              </li>\n              <li class="page_item page-item-1428">\n                <a href="http://adrian1974fulga.wordpress.com/newchapter-vi-general-view-on-mise-en-place-set-up/" shape="rect">Chapter 6. General View on Mise en Place / Set\xc2\xa0Up</a>\n              </li>\n              <li class="page_item page-item-651">\n                <a href="http://adrian1974fulga.wordpress.com/new-general-view-on-coffee/" shape="rect">Chapter 7.General View on\xc2\xa0Coffee</a>\n              </li>\n              <li class="page_item page-item-454">\n                <a href="http://adrian1974fulga.wordpress.com/newgeneral-view-on-bar/" shape="rect">Chapter 8.General View on Bar &amp;\xc2\xa0Cocktails</a>\n                <ul class="children">\n                  <li class="page_item page-item-2167">\n                    <a href="http://adrian1974fulga.wordpress.com/newgeneral-view-on-bar/chapter-8-1-general-view-on-bar-cocktails/" shape="rect">Chapter 8.1.General View on Bar &amp;\xc2\xa0Cocktails</a>\n                    <ul class="children">\n                      <li class="page_item page-item-2195">\n                        <a href="http://adrian1974fulga.wordpress.com/newgeneral-view-on-bar/chapter-8-1-general-view-on-bar-cocktails/chapter-8-2-general-view-on-bar-cocktails/" shape="rect">Chapter 8.2. General View on Bar &amp;\xc2\xa0Cocktails</a>\n                      </li>\n                    </ul>\n                  </li>\n                </ul>\n              </li>\n              <li class="page_item page-item-1507">\n                <a href="http://adrian1974fulga.wordpress.com/chapter-8-general-view-on-grape-varieties/" shape="rect">Chapter 9.1. General View on Red Grapes\xc2\xa0Varieties</a>\n                <ul class="children">\n                  <li class="page_item page-item-1563">\n                    <a href="http://adrian1974fulga.wordpress.com/chapter-8-general-view-on-grape-varieties/chapter-8-2-general-view-on-grape-varieties/" shape="rect">Chapter 9.2. General View on Red Grapes\xc2\xa0Varieties</a>\n                    <ul class="children">\n                      <li class="page_item page-item-1937">\n                        <a href="http://adrian1974fulga.wordpress.com/chapter-8-general-view-on-grape-varieties/chapter-8-2-general-view-on-grape-varieties/chapter-9-3-general-view-on-grape-varieties/" shape="rect">Chapter 9.3. General View on Red Grapes\xc2\xa0Varieties</a>\n                        <ul class="children">\n                          <li class="page_item page-item-2102">\n                            <a href="http://adrian1974fulga.wordpress.com/chapter-8-general-view-on-grape-varieties/chapter-8-2-general-view-on-grape-varieties/chapter-9-3-general-view-on-grape-varieties/chapter-9-4-general-view-on-red-grapes-varieties/" shape="rect">Chapter 9.4. General View on Red Grapes\xc2\xa0Varieties</a>\n                          </li>\n                        </ul>\n                      </li>\n                    </ul>\n                  </li>\n                </ul>\n              </li>\n              <li class="page_item page-item-1970">\n                <a href="http://adrian1974fulga.wordpress.com/chapter-9-1-1-general-view-on-white-grapes-varieties/" shape="rect">Chapter 9.1.1. General View on White Grapes\xc2\xa0Varieties</a>\n                <ul class="children">\n                  <li class="page_item page-item-2090">\n                    <a href="http://adrian1974fulga.wordpress.com/chapter-9-1-1-general-view-on-white-grapes-varieties/chapter-9-1-2-general-view-on-white-grapes-varieties/" shape="rect">Chapter 9.1.2. General View on White Grapes\xc2\xa0Varieties</a>\n                    <ul class="children">\n                      <li class="page_item page-item-2156">\n                        <a href="http://adrian1974fulga.wordpress.com/chapter-9-1-1-general-view-on-white-grapes-varieties/chapter-9-1-2-general-view-on-white-grapes-varieties/chapter-9-1-3-general-view-on-white-grapes-varieties/" shape="rect">Chapter 9.1.3. General View on White Grapes\xc2\xa0Varieties</a>\n                        <ul class="children">\n                          <li class="page_item page-item-1961">\n                            <a href="http://adrian1974fulga.wordpress.com/chapter-9-1-1-general-view-on-white-grapes-varieties/chapter-9-1-2-general-view-on-white-grapes-varieties/chapter-9-1-3-general-view-on-white-grapes-varieties/chapter-10-general-view-on-cellars-caves/" shape="rect">\n                              Chapter 10. General View on Cellars /\xc2\xa0Caves\n                            </a>\n                          </li>\n                        </ul>\n                      </li>\n                    </ul>\n                  </li>\n                </ul>\n              </li>\n              <li class="page_item page-item-2478">\n                <a href="http://adrian1974fulga.wordpress.com/chapter-11-general-view-on-cheese/" shape="rect">Chapter 90.1 General View on\xc2\xa0Cheese</a>\n                <ul class="children">\n                  <li class="page_item page-item-2491">\n                    <a href="http://adrian1974fulga.wordpress.com/chapter-11-general-view-on-cheese/chapter-90-2-general-view-on-cheese/" shape="rect">Chapter 90.2 General View on\xc2\xa0Cheese</a>\n                  </li>\n                </ul>\n              </li>\n              <li class="page_item page-item-2499">\n                <a href="http://adrian1974fulga.wordpress.com/chapter-90-3-general-view-on-cheese/" shape="rect">Chapter 90.3 General View on\xc2\xa0Cheese</a>\n              </li>\n              <li class="page_item page-item-910">\n                <a href="http://adrian1974fulga.wordpress.com/crew-cabins-accomodation-on-cruise-ships/" shape="rect">Crew Cabins &amp; Accomodation on Cruise\xc2\xa0Ships</a>\n              </li>\n              <li class="page_item page-item-479">\n                <a href="http://adrian1974fulga.wordpress.com/newcruise-ship-dining-rooms/" shape="rect">Cruise Ship Dining\xc2\xa0Rooms</a>\n                <ul class="children">\n                  <li class="page_item page-item-2361">\n                    <a href="http://adrian1974fulga.wordpress.com/newcruise-ship-dining-rooms/dining-rooms-around-the-world-and-amazing-set-ups/" shape="rect">Dining Rooms around the World and Amazing Set\xc2\xa0Ups</a>\n                  </li>\n                </ul>\n              </li>\n              <li class="page_item page-item-913">\n                <a href="http://adrian1974fulga.wordpress.com/cruise-ships-ive-been-on/" shape="rect">Cruise Ships I\xe2\x80\x99ve been\xc2\xa0on</a>\n              </li>\n              <li class="page_item page-item-62">\n                <a href="http://adrian1974fulga.wordpress.com/new-general-view-on-housekeeping/" shape="rect">General View on\xc2\xa0Housekeeping</a>\n              </li>\n              <li class="page_item page-item-73">\n                <a href="http://adrian1974fulga.wordpress.com/newwaiters-job-description/" shape="rect">Job Description: Executive\xc2\xa0Chef</a>\n              </li>\n              <li class="page_item page-item-78">\n                <a href="http://adrian1974fulga.wordpress.com/newwaiters-job-description-2/" shape="rect">Job\xc2\xa0Description:Waiter</a>\n              </li>\n              <li class="page_item page-item-921">\n                <a href="http://adrian1974fulga.wordpress.com/new-general-view-on-hotel-industry/" shape="rect">NEW! General View on Hotel\xc2\xa0Industry</a>\n              </li>\n              <li class="page_item page-item-663">\n                <a href="http://adrian1974fulga.wordpress.com/new-journal-de-bord/" shape="rect">NEW! Journal de\xc2\xa0Bord</a>\n              </li>\n              <li class="page_item page-item-704">\n                <a href="http://adrian1974fulga.wordpress.com/photos/" shape="rect">PHOTOS</a>\n                <ul class="children">\n                  <li class="page_item page-item-898">\n                    <a href="http://adrian1974fulga.wordpress.com/photos/prty-on-cruise-ships-and-elsewhere/" shape="rect">Party\xe2\x80\xa6on Cruise Ships and\xc2\xa0elsewhere\xe2\x80\xa6</a>\n                  </li>\n                  <li class="page_item page-item-2274">\n                    <a href="http://adrian1974fulga.wordpress.com/photos/photos-chapter-ii/" shape="rect">PHOTOS : Chapter\xc2\xa0II</a>\n                  </li>\n                  <li class="page_item page-item-928">\n                    <a href="http://adrian1974fulga.wordpress.com/photos/places-ive-been/" shape="rect">Places I\xe2\x80\x99ve\xc2\xa0been\xe2\x80\xa6</a>\n                  </li>\n                </ul>\n              </li>\n              <li class="page_item page-item-593">\n                <a href="http://adrian1974fulga.wordpress.com/new-recipes/" shape="rect">Recipes Chapter\xc2\xa0I</a>\n              </li>\n              <li class="page_item page-item-715">\n                <a href="http://adrian1974fulga.wordpress.com/new-recipes-chapter-ii/" shape="rect">Recipes Chapter\xc2\xa0II</a>\n                <ul class="children">\n                  <li class="page_item page-item-988">\n                    <a href="http://adrian1974fulga.wordpress.com/new-recipes-chapter-ii/recipes-chapter-iii/" shape="rect">Recipes Chapter\xc2\xa0III</a>\n                    <ul class="children">\n                      <li class="page_item page-item-1986">\n                        <a href="http://adrian1974fulga.wordpress.com/new-recipes-chapter-ii/recipes-chapter-iii/recipes-chapter-iv/" shape="rect">Recipes Chapter\xc2\xa0IV</a>\n                        <ul class="children">\n                          <li class="page_item page-item-2144">\n                            <a href="http://adrian1974fulga.wordpress.com/new-recipes-chapter-ii/recipes-chapter-iii/recipes-chapter-iv/recipes-chapter-v-asian-food/" shape="rect">Recipes Chapter V Asian\xc2\xa0Food</a>\n                          </li>\n                        </ul>\n                      </li>\n                    </ul>\n                  </li>\n                </ul>\n              </li>\n              <li class="page_item page-item-2023">\n                <a href="http://adrian1974fulga.wordpress.com/this-is-how-i-see-my-country-romania/" shape="rect">This is how I see My Country:\xc2\xa0ROMANIA</a>\n              </li>\n              <li class="page_item page-item-1697">\n                <a href="http://adrian1974fulga.wordpress.com/chapter-one-value-of-a-smile/" shape="rect">Value of a\xc2\xa0Smile!</a>\n              </li>\n              <li class="page_item page-item-1473">\n                <a href="http://adrian1974fulga.wordpress.com/what-if-it-is-so/" shape="rect">What If it is\xc2\xa0so?\xe2\x80\xa6</a>\n              </li>\n            </ul>\n          </li>\n          <li id="text-291826198" class="widget widget_text">\n            <h2 class="widgettitle">Bucharest Weather</h2>\n            <div class="textwidget">\n              <a target="_blank" href="http://bucuresti.ro.weatheradd.com/" shape="rect">\n                <img border="0" alt="Meteo Bucuresti" src="http://img.weatheradd.com/i/embed/vremea_bucuresti_embed3.png"></img>\n              </a>\n              <br clear="none"></br>\n            </div>\n          </li>\n          <li id="recent-posts-2" class="widget widget_recent_entries">\n            <h2 class="widgettitle">Recent Posts</h2>\n            <ul>\n              <li>\n                <a title="Chapter 4.Glossary and General View on Restaurant &amp; Kitchen\xc2\xa0Terms" href="http://adrian1974fulga.wordpress.com/2010/11/12/chapter-iv-glossary-and-general-view-on-restaurant-kitchen-terms/" shape="rect">Chapter 4.Glossary and General View on Restaurant &amp; Kitchen\xc2\xa0Terms</a>\n              </li>\n              <li>\n                <a title="Flag\xc2\xa0Counter" href="http://adrian1974fulga.wordpress.com/2010/09/15/918/" shape="rect">Flag\xc2\xa0Counter</a>\n              </li>\n              <li>\n                <a title="Chapter 3.Glossary and General View on Restaurant &amp; Kitchen\xc2\xa0Terms" href="http://adrian1974fulga.wordpress.com/2010/08/19/chapter-iii-glossary-and-general-view-on-restaurant-kitchen-terms/" shape="rect">Chapter 3.Glossary and General View on Restaurant &amp; Kitchen\xc2\xa0Terms</a>\n              </li>\n              <li>\n                <a title="Chapter 2.Glossary and General View on Restaurant &amp; Kitchen\xc2\xa0Terms" href="http://adrian1974fulga.wordpress.com/2010/08/19/chapter-ii-glossary-and-general-view-on-restaurant-kitchen-terms/" shape="rect">Chapter 2.Glossary and General View on Restaurant &amp; Kitchen\xc2\xa0Terms</a>\n              </li>\n              <li>\n                <a title="Chapter 1. Glossary and General View on Restaurant &amp; Kitchen\xc2\xa0Terms" href="http://adrian1974fulga.wordpress.com/2010/05/18/newglossary-and-general-view-on-restaurant-kitchen-terms/" shape="rect">Chapter 1. Glossary and General View on Restaurant &amp; Kitchen\xc2\xa0Terms</a>\n              </li>\n            </ul>\n          </li>\n          <li id="text-291826203" class="widget widget_text">\n            <h2 class="widgettitle">Wicked Lasers </h2>\n            <div class="textwidget">\n              <a title="" href="http://wickedlasers.zferral.com/l/4/26489" shape="rect">\n                <img style="border:none;" title="" alt="" src="http://wickedlasers.zferral.com/m/4"></img>\n              </a>\n            </div>\n          </li>\n          <li id="linkcat-1356" class="widget widget_links">\n            <h2 class="widgettitle">Blogroll</h2>\n            <ul class="xoxo blogroll">\n              <li>\n                <a href="http://www.agaphoto.ro/index.html" shape="rect">Aga Photo</a>\n              </li>\n              <li>\n                <a title="alt blog romanesc" href="http://altblogromanesc.blogspot.com/" shape="rect">Alt blog romanesc</a>\n              </li>\n              <li>\n                <a href="http://www.aperturephotography.ro" shape="rect">Aperturephotography</a>\n              </li>\n              <li>\n                <a title="flowers flowers flowers" href="http://www.aripideflori.com/" shape="rect">Aripi de Flori</a>\n              </li>\n              <li>\n                <a title="Champagne at its Best" href="http://www.armanddebrignac.com/" shape="rect">Armand de Brignac Champagne</a>\n              </li>\n              <li>\n                <a href="http://www.bistromenuet.ro/" shape="rect">Bistro Menuet</a>\n              </li>\n              <li>\n                <a title="Catalin Paduraru \xe2\x80\x93 Critic de Vin" href="http://catalinpaduraru.ro/" shape="rect">Catalin Paduraru</a>\n              </li>\n              <li>\n                <a title="Chateau Laguiole Tirebouchons / Bottle Openers" href="http://www.laguiole.com/laguiole-corkscrews-chateau-laguiole-c-22_23.html?language=en" shape="rect">Chateau Laguiole</a>\n              </li>\n              <li>\n                <a title="Wine" href="http://www.rotenberg.ro" shape="rect">Cramele Rotenberg</a>\n              </li>\n              <li>\n                <a title="Web cams on Cruise Ships and Ports" href="http://174.133.163.122/ports/monaco.php" shape="rect">Cruise Ship Cams</a>\n              </li>\n              <li>\n                <a title="Gourmet Coffee" href="http://www.dolcenera.ro" shape="rect">DOLCE NERA</a>\n              </li>\n              <li>\n                <a target="_blank" href="http://www.emag.ro/" shape="rect">e Mag \xe2\x80\x93 furnizorul solutiilor complete</a>\n              </li>\n              <li>\n                <a title="Wines and not only" href="http://www.evinoteca.ro/" shape="rect">evinoteca</a>\n              </li>\n              <li>\n                <a title="World Federation of Travel Journalists &amp; Writers" href="http://www.fijet.net/" shape="rect">F.I.J.E.T.</a>\n              </li>\n              <li>\n                <a title="Winery" href="http://ferrari-carano.com/" shape="rect">Ferrari Carano</a>\n              </li>\n              <li>\n                <a title="Graycliff Estate" href="http://graycliff.com/" shape="rect">Graycliff</a>\n              </li>\n              <li>\n                <a href="http://www.gyuripub.ro/index.php" shape="rect">Gyuri\'s Pub</a>\n              </li>\n              <li>\n                <a title="BIROU VIRTUAL DE PROIECTARE IN SPATIUL BUCURESTEAN" href="http://idei-urbane.blogspot.com/" shape="rect">Idei Urbane</a>\n              </li>\n              <li>\n                <a href="http://www.infotravelromania.ro/" shape="rect">InfoTravelRomania</a>\n              </li>\n              <li>\n                <a href="http://www.infotravelromania.ro/blog/" shape="rect">InfoTravelRomania Blog</a>\n              </li>\n              <li>\n                <a href="http://www.lapiovra.ro/blog/" shape="rect">La Piovra Blog</a>\n              </li>\n              <li>\n                <a title="Laguiole main page" href="http://www.laguiole.com/" shape="rect">laguiole.com</a>\n              </li>\n              <li>\n                <a href="http://marcelladragan.ro/" shape="rect">Marcella Dragan</a>\n              </li>\n              <li>\n                <a target="_blank" title="Muzeul de Fotografie" href="http://www.muzeuldefotografie.ro/" shape="rect">Muzeul de Fotografie</a>\n              </li>\n              <li>\n                <a title="Pensiunea Eden \xe2\x80\x93 Sinaia" href="http://www.pensiuneaeden.ro/" shape="rect">Pensiunea Eden</a>\n              </li>\n              <li>\n                <a href="http://www.planetaryresources.com/" shape="rect">Planetary Resources</a>\n              </li>\n              <li>\n                <a title="Hand Made Fountain Pen Made in Romania by Poienari" href="http://www.poenari.ro/" shape="rect">Poienari \xe2\x80\x93 Hand Made Fountain Pen</a>\n              </li>\n              <li>\n                <a title="Clubul Presei de Turism din Romania" href="http://www.presstour.ro/" shape="rect">PressTour FIJET Romania</a>\n              </li>\n              <li>\n                <a href="http://www.wix.com/raducernat/photography" shape="rect">Radu Cernat Photography</a>\n              </li>\n              <li>\n                <a href="http://www.readerscafe.ro" shape="rect">Reader\'s Cafe Bistro Lounge</a>\n              </li>\n              <li>\n                <a href="http://www.rezistenta.net/" shape="rect">Rezistenta Urbana</a>\n              </li>\n              <li>\n                <a title="Riva Boats\xe2\x80\xa6Best Boats !\xe2\x80\xa6Ever!" href="http://www.rivaboats.com" shape="rect">Riva Boats</a>\n              </li>\n              <li>\n                <a title="The Global Luxury Source" href="http://www.robbreport.com" shape="rect">Robb Report</a>\n              </li>\n              <li>\n                <a title="Rolex? Why Not?" href="http://www.rolex.com/" shape="rect">Rolex</a>\n              </li>\n              <li>\n                <a href="http://rumaniamilitary.wordpress.com/" shape="rect">Romania Military</a>\n              </li>\n              <li>\n                <a href="http://www.saptamanaturistica.ro/" shape="rect">Saptamana Turistica</a>\n              </li>\n              <li>\n                <a title="Home Interior Design\xe2\x80\xa6and not only" href="http://www.sherimartininteriors.com" shape="rect">Sheri Martin Interiors</a>\n              </li>\n              <li>\n                <a title="Sheri Martin Interiors Blog" href="http://sherimartininteriors.wordpress.com/" shape="rect">Sheri Martin\'s Blog</a>\n              </li>\n              <li>\n                <a href="http://www.skyscrapercity.com" shape="rect">SkyscraperCity</a>\n              </li>\n              <li>\n                <a href="http://www.sunsplash.ro" shape="rect">Sun Splash T-Shirts</a>\n              </li>\n              <li>\n                <a title="The Mihai Eminescu Trust is dedicated to the conservation and regeneration of villages and communes in Transylvania and the Maramures, two of the most unspoilt regions of Europe" href="http://www.mihaieminescutrust.org/content/nd_standard.asp?n=82" shape="rect">\n                  The Mihai Eminescu Trust\n                </a>\n              </li>\n              <li>\n                <a href="http://topdocumentaryfilms.com/" shape="rect">Top Documentary Films</a>\n              </li>\n              <li>\n                <a title="Trend Hospitality is the most important consulting and management company in the hospitality industry in Romania" href="http://www.trendhospitality.com/" shape="rect">Trend Hospitality</a>\n              </li>\n              <li>\n                <a href="http://www.turism-millenium.ro/" shape="rect">Turism Millenium</a>\n              </li>\n              <li>\n                <a title="Futuristic Design Sail &amp; Power Boats" href="http://www.wally.com" shape="rect">Wally Yachts</a>\n              </li>\n              <li>\n                <a href="http://welcome2romania.wordpress.com/" shape="rect">WELCOME TO ROMANIA</a>\n              </li>\n              <li>\n                <a href="http://wordpress.com/" shape="rect">WordPress.com</a>\n              </li>\n              <li>\n                <a title="Financial News" href="http://www.zf.ro/" shape="rect">Ziarul Financiar</a>\n              </li>\n            </ul>\n          </li>\n          <li id="search">\n            <form action="http://adrian1974fulga.wordpress.com/" id="searchform" method="get" enctype="application/x-www-form-urlencoded">\n              <input size="8" name="s" id="s" type="text"></input>\n              <input value="Search" name="submit" id="sub" type="submit"></input>\n            </form>\n          </li>\n          <li id="text-291826196" class="widget widget_text">\n            <h2 class="widgettitle">My Free Copyright</h2>\n            <div class="textwidget">\n              <a title="MyFreeCopyright.com Registered &amp; Protected" href="http://www.myfreecopyright.com/registered_mcn/BNU5X_L8A1S_P3YAX" shape="rect">\n                <img border="0" height="38px" width="145px" title="MyFreeCopyright.com Registered &amp; Protected" alt="MyFreeCopyright.com Registered &amp; Protected" src="http://storage.myfreecopyright.com/mfc_protected.png"></img>\n              </a>\n            </div>\n          </li>\n          <li id="text-291826201" class="widget widget_text">\n            <h2 class="widgettitle">Public Domain Mark</h2>\n            <div class="textwidget">\n              <p>\n                <a href="http://creativecommons.org/publicdomain/mark/1.0/" rel="license" shape="rect">\n                  <img alt="Public Domain Mark" style="border-style:none;" src="http://i.creativecommons.org/p/mark/1.0/88x31.png"></img>\n                </a>\n                <br clear="none"></br>\n              </p>\n            </div>\n          </li>\n          <li id="calendar">\n            <table id="wp-calendar">\n              <caption>October 2012</caption>\n              <thead>\n                <tr>\n                  <th title="Monday" scope="col" rowspan="1" colspan="1">M</th>\n                  <th title="Tuesday" scope="col" rowspan="1" colspan="1">T</th>\n                  <th title="Wednesday" scope="col" rowspan="1" colspan="1">W</th>\n                  <th title="Thursday" scope="col" rowspan="1" colspan="1">T</th>\n                  <th title="Friday" scope="col" rowspan="1" colspan="1">F</th>\n                  <th title="Saturday" scope="col" rowspan="1" colspan="1">S</th>\n                  <th title="Sunday" scope="col" rowspan="1" colspan="1">S</th>\n                </tr>\n              </thead>\n              <tfoot>\n                <tr>\n                  <td id="prev" rowspan="1" colspan="3">\n                    <a title="View posts for November 2010" href="http://adrian1974fulga.wordpress.com/2010/11/" shape="rect">\xc2\xab Nov</a>\n                  </td>\n                  <td class="pad" rowspan="1" colspan="1">\xc2\xa0</td>\n                  <td id="next" class="pad" rowspan="1" colspan="3">\xc2\xa0</td>\n                </tr>\n              </tfoot>\n              <tbody>\n                <tr>\n                  <td rowspan="1" colspan="1">1</td>\n                  <td id="today" rowspan="1" colspan="1">2</td>\n                  <td rowspan="1" colspan="1">3</td>\n                  <td rowspan="1" colspan="1">4</td>\n                  <td rowspan="1" colspan="1">5</td>\n                  <td rowspan="1" colspan="1">6</td>\n                  <td rowspan="1" colspan="1">7</td>\n                </tr>\n                <tr>\n                  <td rowspan="1" colspan="1">8</td>\n                  <td rowspan="1" colspan="1">9</td>\n                  <td rowspan="1" colspan="1">10</td>\n                  <td rowspan="1" colspan="1">11</td>\n                  <td rowspan="1" colspan="1">12</td>\n                  <td rowspan="1" colspan="1">13</td>\n                  <td rowspan="1" colspan="1">14</td>\n                </tr>\n                <tr>\n                  <td rowspan="1" colspan="1">15</td>\n                  <td rowspan="1" colspan="1">16</td>\n                  <td rowspan="1" colspan="1">17</td>\n                  <td rowspan="1" colspan="1">18</td>\n                  <td rowspan="1" colspan="1">19</td>\n                  <td rowspan="1" colspan="1">20</td>\n                  <td rowspan="1" colspan="1">21</td>\n                </tr>\n                <tr>\n                  <td rowspan="1" colspan="1">22</td>\n                  <td rowspan="1" colspan="1">23</td>\n                  <td rowspan="1" colspan="1">24</td>\n                  <td rowspan="1" colspan="1">25</td>\n                  <td rowspan="1" colspan="1">26</td>\n                  <td rowspan="1" colspan="1">27</td>\n                  <td rowspan="1" colspan="1">28</td>\n                </tr>\n                <tr>\n                  <td rowspan="1" colspan="1">29</td>\n                  <td rowspan="1" colspan="1">30</td>\n                  <td rowspan="1" colspan="1">31</td>\n                  <td class="pad" rowspan="1" colspan="4">\xc2\xa0</td>\n                </tr>\n              </tbody>\n            </table>\n          </li>\n          <li id="flickr" class="widget widget_flickr">\n            <h2 class="widgettitle">Flickr Photos</h2>\n            <table border="0" cellspacing="10" cellpadding="0" id="flickr_badge_uber_wrapper" class="flickr-size-thumbnail">\n              <tr>\n                <td rowspan="1" colspan="1">\n                  <table border="0" cellspacing="10" cellpadding="0" id="flickr_badge_wrapper">\n                    <tr>\n                      <td rowspan="1" colspan="1" align="center">\n                        <a href="http://www.flickr.com/photos/27469854@N03/8043119152" shape="rect">\n                          <img border="0" src="http://static.flickr.com/8310/8043119152_b6724b47e3_t.jpg" title="Desert Storm [Explored 10/1/2012]" alt="Desert Storm [Explored 10/1/2012]"></img>\n                        </a>\n                        <br clear="none"></br>\n                        <br clear="none"></br>\n                        <a href="http://www.flickr.com/photos/84645071@N00/8044222686" shape="rect">\n                          <img border="0" src="http://static.flickr.com/8316/8044222686_acbc3a91b3_t.jpg" title="See the wedding on our website" alt="See the wedding on our website"></img>\n                        </a>\n                        <br clear="none"></br>\n                        <br clear="none"></br>\n                        <a href="http://www.flickr.com/photos/60382341@N02/8043370764" shape="rect">\n                          <img border="0" src="http://static.flickr.com/8180/8043370764_dd8e53a57d_t.jpg" title="Sunrise Reflection" alt="Sunrise Reflection"></img>\n                        </a>\n                        <br clear="none"></br>\n                        <br clear="none"></br>\n                        <a href="http://www.flickr.com/photos/80464133@N00/8043578193" shape="rect">\n                          <img border="0" src="http://static.flickr.com/8321/8043578193_c09b40503d_t.jpg" title="Yosemite El Capitan" alt="Yosemite El Capitan"></img>\n                        </a>\n                        <br clear="none"></br>\n                        <br clear="none"></br>\n                        <a href="http://flickr.com/explore/interesting/" shape="rect">More Photos</a>\n                      </td>\n                    </tr>\n                  </table>\n                </td>\n              </tr>\n            </table>\n          </li>\n          <li id="blog-stats" class="widget widget_statscounter">\n            <h2 class="widgettitle">Blog Stats</h2>\n            <ul>\n              <li>138,972 hits</li>\n            </ul>\n          </li>\n          <li id="text-291826192" class="widget widget_text">\n            <h2 class="widgettitle">Blogsurfer</h2>\n            <div class="textwidget">\n              <a target="_blank" href="http://www.blogsurfer.us/?url=http://adrian1974fulga.wordpress.com" shape="rect">\n                <img border="0" src="http://www.blogsurfer.us/backlink/wp_blogsurfer_tab.php?url=http://adrian1974fulga.wordpress.com"></img>\n              </a>\n            </div>\n          </li>\n          <li id="text-291826193" class="widget widget_text">\n            <h2 class="widgettitle">ClustrMaps</h2>\n            <div class="textwidget">\n              <a href="http://www2.clustrmaps.com/counter/maps.php?url=http://www.adrian1974fulga.wordpress.com" id="clustrMapsLink" shape="rect">\n                <img title="Locations of visitors to this page" alt="Locations of visitors to this page" style="border:0;" src="http://www2.clustrmaps.com/counter/index2.php?url=http://www.adrian1974fulga.wordpress.com"></img>\n              </a>\n            </div>\n          </li>\n          <li id="blog_subscription-3" class="widget widget_blog_subscription">\n            <h2 class="widgettitle">\n              <label for="subscribe-field">Follow Blog via Email</label>\n            </h2>\n            <form accept-charset="utf-8" action="https://subscribe.wordpress.com" id="subscribe-blog" method="post" enctype="application/x-www-form-urlencoded">\n              <p>Enter your email address to follow this blog and receive notifications of new posts by email.</p>\n              <p>Join 16 other followers</p>\n              <p>\n                <input value="" style="width: 95%; padding: 1px 2px" name="email" id="subscribe-field" type="text"></input>\n              </p>\n              <p>\n                <input value="subscribe" name="action" type="hidden"></input>\n                <input value="4367534" name="blog_id" type="hidden"></input>\n                <input value="http://adrian1974fulga.wordpress.com/general-view-on-cognac/chapter-5-1-general-view-on-armagnac/" name="source" type="hidden"></input>\n                <input value="widget" name="sub-type" type="hidden"></input>\n                <input value="blog_subscription-3" name="redirect_fragment" type="hidden"></input>\n                <input value="cd463b1b37" name="_wpnonce" id="_wpnonce" type="hidden"></input>\n                <input value="Follow" type="submit"></input>\n              </p>\n            </form>\n          </li>\n          <li id="text-291826194" class="widget widget_text">\n            <h2 class="widgettitle">Revolver Map</h2>\n            <div class="textwidget">\n              <a href="http://www.revolvermaps.com/?target=enlarge&amp;i=20vw1vbsvv4&amp;color=a00000&amp;m=1" shape="rect">\n                <img style="border:0;" alt="Map" height="34" width="88" src="http://rc.revolvermaps.com/h/b/1/20vw1vbsvv4.png"></img>\n              </a>\n            </div>\n          </li>\n          <li id="facebook-likebox-4" class="widget widget_facebook_likebox">\n            <h2 class="widgettitle">\n              <a href="http://www.facebook.com/pages/Hotel-Industry-Training/289193814430358" shape="rect">Hotel Industry Blog</a>\n            </h2>\n            <iframe \n            style="border: none; overflow: hidden; width: 200px;  height: 432px; background: #000" src="http://www.facebook.com/plugins/likebox.php?href=http%3A%2F%2Fwww.facebook.com%2Fpages%2FHotel-Industry-Training%2F289193814430358&amp;width=200&amp;height=432&amp;colorscheme=dark&amp;show_faces=true&amp;stream=false&amp;header=false&amp;force_wall=false" scrolling="no" frameborder="0">\n</iframe>\n          </li>\n          <li id="categories-2" class="widget widget_categories">\n            <h2 class="widgettitle">Romania</h2>\n            <select name="cat" id="cat" class="postform">\n              <option value="-1">Select Category</option>\n              <option value="1048309" class="level-0">Hotel Industry\xc2\xa0\xc2\xa0(12)</option>\n              <option value="1003072" class="level-1">\xc2\xa0\xc2\xa0\xc2\xa0Photos &amp; More\xc2\xa0\xc2\xa0(3)</option>\n              <option value="1" class="level-0">Uncategorized\xc2\xa0\xc2\xa0(7)</option>\n            </select>\n            <script type="text/javascript">\n              /* &lt;![CDATA[ */\n\tvar dropdown = document.getElementById(&quot;cat&quot;);\n\tfunction onCatChange() {\n\t\tif ( dropdown.options[dropdown.selectedIndex].value &gt; 0 ) {\n\t\t\tlocation.href = &quot;http://adrian1974fulga.wordpress.com/?cat=&quot;+dropdown.options[dropdown.selectedIndex].value;\n\t\t}\n\t}\n\tdropdown.onchange = onCatChange;\n/* ]]&gt; */\n            </script>\n          </li>\n          <li id="image-4" class="widget widget_image">\n            <h2 class="widgettitle">Family Crest</h2>\n            <div style="overflow:hidden;">\n              <img height="125" width="125" src="http://adrian1974fulga.files.wordpress.com/2011/10/blazon-6-blackwhite-edited.jpg?w=125&amp;h=125" class="aligncenter"></img>\n            </div>\n          </li>\n          <li id="text-291826200" class="widget widget_text">\n            <h2 class="widgettitle">Travel</h2>\n            <div class="textwidget">\n              <a href="http://flightdiary.net/Fulga" shape="rect">\n                <img alt="My Flightdiary.net profile" src="http://banner.flightdiary.net/Fulga"></img>\n              </a>\n            </div>\n          </li>\n          <li id="text-291826204" class="widget widget_text">\n            <h2 class="widgettitle">Reparatii Electrocasnice </h2>\n            <div class="textwidget">\n              <a href="http://www.reparatii-electrocasnice-ieftine.ro/acasa.html" title="Reparatii electrocasnice - http://www.reparatii-electrocasnice-ieftine.ro" target="_blank" shape="rect">\n                <img src="http://www.reparatii-electrocasnice-ieftine.ro/images/banner_a_88x31.png" alt="Reparatii electrocasnice - http://www.reparatii-electrocasnice-ieftine.ro" border="0" height="31" width="88"></img>\n              </a>\n            </div>\n          </li>\n        </ul>\n      </div>\n      <div id="footer">\n        <p class="credit">\n          <cite>\n            <a rel="generator" href="http://wordpress.com/?ref=footer" shape="rect">Blog at WordPress.com</a>\n            .\n          </cite>\n          |\n          <a title="Syndicate this site using RSS" href="http://adrian1974fulga.wordpress.com/feed/" shape="rect">\n            <abbr title="Really Simple Syndication">RSS</abbr>\n            2.0\n          </a>\n          |\n          <a title="The latest comments to all posts in RSS" href="http://adrian1974fulga.wordpress.com/comments/feed/" shape="rect">\n            Comments\n            <abbr title="Really Simple Syndication">RSS</abbr>\n            2.0\n          </a>\n          | Theme:\n          <a title="Learn more about this theme" href="http://theme.wordpress.com/themes/quentin/" shape="rect">Quentin</a>\n          .\n        </p>\n      </div>\n    </div>\n    <script type="text/javascript">\n      var _qevents = _qevents || [], wpcomQuantcastData = {&quot;qacct&quot;:&quot;p-18-mFEk4J448M&quot;,&quot;labels&quot;:&quot;,language.en,type.wpcom&quot;};\nfunction wpcomQuantcastPixel( labels, options ) {\n\tvar i, defaults = wpcomQuantcastData, data = { event: \'ajax\' };\n\n\tlabels  = labels  || \'\';\n\toptions = options || {};\n\n\tif ( typeof labels != \'string\' )\n\t\toptions = labels;\n\n\tfor ( i in defaults ) {\n\t\tdata[i] = defaults[i];\n\t}\n\n\tfor ( i in options ) {\n\t\tdata[i] = options[i];\n\t}\n\n\tif ( data.labels ) {\n\t\tdata.labels += \',\' + labels;\n\t} else {\n\t\tdata.labels = labels;\n\t}\n\n\t_qevents.push( data );\n};\n(function() {var elem = document.createElement(\'script\');elem.src = (document.location.protocol == &quot;https:&quot; ? &quot;https://secure&quot; : &quot;http://edge&quot;) + &quot;.quantserve.com/quant.js&quot;;elem.async = true;elem.type = &quot;text/javascript&quot;;var scpt = document.getElementsByTagName(\'script\')[0];scpt.parentNode.insertBefore(elem, scpt);  })();\n_qevents.push( wpcomQuantcastData );\n    </script>\n    <noscript>\n      <div style="display: none;">\n        <img alt="" width="1" height="1" src="//pixel.quantserve.com/pixel/p-18-mFEk4J448M.gif?labels=%2Clanguage.en%2Ctype.wpcom"></img>\n      </div>\n    </noscript>\n    <script type="text/javascript">\n      /* &lt;![CDATA[ */\n\t(function($){\n\t\t$(document).on( \'ready post-load\', function() {\n\n\t\t\t// Remove the login box when clicking the page\n\t\t\t$( document ).mousedown( function( e ) {\n\t\t\t\tif ( null == $( e.target ).closest( \'#wpl-mustlogin\' ).get( 0 ) ) {\n\t\t\t\t\t$( \'#wpl-mustlogin\' ).remove();\n\t\t\t\t}\n\t\t\t});\n\n\t\t\t// Handle clicking the like button itself\n\t\t\t$(\'.wpl-button &gt; a.like\').click( function(e) {\n\t\t\t\te.preventDefault();\n\n\t\t\t\tvar postid = $(this).parent().attr(\'id\').split(\'like-\')[1];\n\t\t\t\t$.post( \'http://adrian1974fulga.wordpress.com/wp-admin/admin-ajax.php\', {\n\t\t\t\t\t\'action\': \'wpl_record_stat\',\n\t\t\t\t\t\'stat_name\': \'loggedout_like_click\'\n\t\t\t\t} );\n\n\t\t\t\tvar tenMins = new Date();\n\t\t\t\ttenMins.setTime( tenMins.getTime() + 600000 );\n\t\t\t\tdocument.cookie = \'wpl_rand=7648ba5801; expires=\' + tenMins.toGMTString() + \'; domain=wordpress.com; path=/;\';\n\n\t\t\t\t$(this).parent().siblings(\'.wpl-count\').after( \'\\\n\t\t\t\t\t&lt;div id=&quot;wpl-mustlogin&quot;&gt; \\\n\t\t\t\t\t\t&lt;form action=&quot;https://adrian1974fulga.wordpress.com/wp-login.php&quot; method=&quot;post&quot;&gt; \\\n\t\t\t\t\t\t\t&lt;p&gt;Just one more step to like this:&lt;/p&gt; \\\n\t\t\t\t\t\t\t&lt;label&gt;&lt;span&gt;Username&lt;/span&gt; &lt;input type=&quot;text&quot; name=&quot;log&quot; id=&quot;user_login&quot; class=&quot;input&quot; value=&quot;&quot; size=&quot;20&quot; tabindex=&quot;80&quot; /&gt;&lt;/label&gt; \\\n\t\t\t\t\t\t\t&lt;label&gt;&lt;span&gt;Password&lt;/span&gt; &lt;input type=&quot;password&quot; name=&quot;pwd&quot; id=&quot;user_pass&quot; class=&quot;input&quot; value=&quot;&quot; size=&quot;20&quot; tabindex=&quot;81&quot; /&gt;&lt;/label&gt; \\\n\t\t\t\t\t\t\t&lt;input type=&quot;submit&quot; name=&quot;wp-submit&quot; id=&quot;wp-submit&quot; class=&quot;button-primary&quot; value=&quot;Log In&quot; tabindex=&quot;82&quot; /&gt; \\\n\t\t\t\t\t\t\t&lt;input type=&quot;hidden&quot; name=&quot;postid&quot; value=&quot;\' + postid + \'&quot; /&gt; \\\n\t\t\t\t\t\t\t&lt;input type=&quot;hidden&quot; name=&quot;redirect_to&quot; value=&quot;http://adrian1974fulga.wordpress.com/general-view-on-cognac/chapter-5-1-general-view-on-armagnac?pagename=general-view-on-cognac%2Fchapter-5-1-general-view-on-armagnac&amp;#038;like=1&quot; /&gt; \\\n\t\t\t\t\t\t\t&lt;input type=&quot;hidden&quot; name=&quot;wpl_rand&quot; value=&quot;7648ba5801&quot; /&gt; \\\n\t\t\t\t\t\t\t&lt;p&gt;Not a member yet? &lt;a href=&quot;http://wordpress.com/signup/?ref=likebox&quot; id=&quot;wpl-signup-link&quot;&gt;Sign up with WordPress.com&lt;/a&gt;&lt;/p&gt; \\\n\t\t\t\t\t\t&lt;/form&gt; \\\n\t\t\t\t\t&lt;/div&gt; \\\n\t\t\t\t\');\n\n\t\t\t\t$(\'#wpl-mustlogin\').hide().slideDown(\'fast\');\n\t\t\t} );\n\n\t\t\t$(\'#wpl-mustlogin input.input\').live( \'focus\', function() {\n\t\t\t\t$(this).prev().hide();\n\t\t\t}).live( \'blur\', function() {\n\t\t\t\tif ( $(this).val() == \'\' ) {\n\t\t\t\t\t$(this).prev().show();\n\t\t\t\t}\n\t\t\t});\n\n\t\t\t$(\'#wpl-mustlogin input#wp-submit\').live( \'click\', function(e) {\n\t\t\t\te.preventDefault();\n\n\t\t\t\t$.post( \'http://adrian1974fulga.wordpress.com/wp-admin/admin-ajax.php\', {\n\t\t\t\t\t\'action\': \'wpl_record_stat\',\n\t\t\t\t\t\'stat_name\': \'loggedout_login_submit\'\n\t\t\t\t}, function() {\n\t\t\t\t\t$(\'#wpl-mustlogin form\').submit();\n\t\t\t\t} );\n\t\t\t});\n\n\t\t\t$(\'#wpl-mustlogin a#wpl-signup-link\').live( \'click\', function(e) {\n\t\t\t\te.preventDefault();\n\n\t\t\t\tvar link = $(this).attr(\'href\');\n\n\t\t\t\t$.post( \'http://adrian1974fulga.wordpress.com/wp-admin/admin-ajax.php\', {\n\t\t\t\t\t\'action\': \'wpl_record_stat\',\n\t\t\t\t\t\'stat_name\': \'loggedout_signup_click\'\n\t\t\t\t}, function() {\n\t\t\t\t\tlocation.href = link;\n\t\t\t\t} );\n\t\t\t});\n\t\t})\n\t})(jQuery);\n\t/* ]]&gt; */\n    </script>\n    <script src="http://s.gravatar.com/js/gprofiles.js?ver=201240ab" type="text/javascript"></script>\n    <script type="text/javascript"> /* &lt;![CDATA[ */ var WPGroHo = {&quot;my_hash&quot;:&quot;&quot;}; /* ]]&gt; */ </script>\n    <script src="http://s1.wp.com/wp-content/mu-plugins/gravatar-hovercards/wpgroho.js?m=1318621548g" type="text/javascript"></script>\n    <script>jQuery(document).ready(function($){ Gravatar.profile_cb = function( h, d ) { WPGroHo.syncProfileData( h, d ); }; Gravatar.my_hash = WPGroHo.my_hash; Gravatar.init( \'body\', \'#wp-admin-bar-my-account\' ); });</script>\n    <div style="display:none"> </div>\n    <script type="text/javascript">\n      /* &lt;![CDATA[ */\nvar HighlanderComments = {&quot;loggingInText&quot;:&quot;Logging In\\u2026&quot;,&quot;submittingText&quot;:&quot;Posting Comment\\u2026&quot;,&quot;postCommentText&quot;:&quot;Post Comment&quot;,&quot;connectingToText&quot;:&quot;Connecting to %s&quot;,&quot;commentingAsText&quot;:&quot;%1$s: You are commenting using your %2$s account.&quot;,&quot;logoutText&quot;:&quot;Log Out&quot;,&quot;loginText&quot;:&quot;Log In&quot;,&quot;connectURL&quot;:&quot;http:\\/\\/adrian1974fulga.wordpress.com\\/public.api\\/connect\\/?action=request&quot;,&quot;logoutURL&quot;:&quot;http:\\/\\/adrian1974fulga.wordpress.com\\/wp-login.php?action=logout&amp;_wpnonce=2e7e08429c&quot;,&quot;homeURL&quot;:&quot;http:\\/\\/adrian1974fulga.wordpress.com\\/&quot;,&quot;postID&quot;:&quot;2107&quot;,&quot;gravDefault&quot;:&quot;gravatar_default&quot;,&quot;enterACommentError&quot;:&quot;Please enter a comment&quot;,&quot;enterEmailError&quot;:&quot;Please enter your email address here&quot;,&quot;invalidEmailError&quot;:&quot;Invalid email address&quot;,&quot;enterAuthorError&quot;:&quot;Please enter your name here&quot;,&quot;gravatarFromEmail&quot;:&quot;This picture will show whenever you leave a comment. Click to customize it.&quot;,&quot;logInToExternalAccount&quot;:&quot;Log in to use details from one of these accounts.&quot;,&quot;change&quot;:&quot;Change&quot;,&quot;changeAccount&quot;:&quot;Change Account&quot;,&quot;comment_registration&quot;:&quot;&quot;,&quot;userIsLoggedIn&quot;:&quot;&quot;,&quot;isJetpack&quot;:&quot;0&quot;};\n/* ]]&gt; */\n    </script>\n    <script src="http://s0.wp.com/wp-content/mu-plugins/highlander-comments/script.js?m=1342824083g" type="text/javascript"></script>\n    <div id="bit" class="loggedout-follow-normal">\n      <a href="javascript:void(0)" class="bsub" shape="rect">\n        <span id="bsub-text">Follow</span>\n      </a>\n      <div id="bitsubscribe">\n        <h3>\n          <label for="loggedout-follow-field">Follow \xe2\x80\x9cHotel Training\xe2\x80\x9d</label>\n        </h3>\n        <form accept-charset="utf-8" action="https://subscribe.wordpress.com" id="loggedout-follow" method="post" enctype="application/x-www-form-urlencoded">\n          <p>Get every new post delivered to your Inbox.</p>\n          <p style="display: none;" id="loggedout-follow-error"></p>\n          <p>\n            <input \n            onblur="this.value=(this.value==&quot;&quot;) ? &quot;Enter email address&quot; : this.value;" onfocus="this.value=(this.value==&quot;Enter your email address&quot;) ? &quot;&quot; : this.value;" value="Enter your email address" style="width: 95%; padding: 1px 2px" name="email" id="loggedout-follow-field" type="email">\n</input>\n          </p>\n          <input value="subscribe" name="action" type="hidden"></input>\n          <input value="4367534" name="blog_id" type="hidden"></input>\n          <input value="http://adrian1974fulga.wordpress.com/general-view-on-cognac/chapter-5-1-general-view-on-armagnac/" name="source" type="hidden"></input>\n          <input value="loggedout-follow" name="sub-type" type="hidden"></input>\n          <input value="cd463b1b37" name="_wpnonce" id="_wpnonce" type="hidden"></input>\n          <input value="/general-view-on-cognac/chapter-5-1-general-view-on-armagnac/" name="_wp_http_referer" type="hidden"></input>\n          <p id="bsub-subscribe-button">\n            <input value="Sign me up" type="submit"></input>\n          </p>\n        </form>\n        <div id="bsub-credit">\n          <a href="http://wordpress.com/signup/?ref=lof" shape="rect">Powered by WordPress.com</a>\n        </div>\n      </div>\n    </div>\n    <script charset="UTF-8" type="text/javascript" id="polldaddyRatings">\n      &lt;!--//--&gt;&lt;![CDATA[//&gt;&lt;!--\nPDRTJS_settings_2044381_page_2107={&quot;id&quot;:2044381,&quot;unique_id&quot;:&quot;wp-page-2107&quot;,&quot;title&quot;:&quot;Chapter%205.1.General%20View%20on%26nbsp%3BArmagnac&quot;,&quot;permalink&quot;:&quot;http:\\/\\/adrian1974fulga.wordpress.com\\/general-view-on-cognac\\/chapter-5-1-general-view-on-armagnac\\/&quot;,&quot;item_id&quot;:&quot;_page_2107&quot;}; if ( typeof PDRTJS_RATING !== \'undefined\' ){if ( typeof PDRTJS_2044381_page_2107 == \'undefined\' ){PDRTJS_2044381_page_2107 = new PDRTJS_RATING( PDRTJS_settings_2044381_page_2107 );}}\n//--&gt;&lt;!]]&gt;\n    </script>\n    <script src="http://i.polldaddy.com/ratings/rating.js" charset="UTF-8" type="text/javascript"></script>\n    <script type="text/javascript"> WPCOM_sharing_counts = {&quot;http:\\/\\/adrian1974fulga.wordpress.com\\/general-view-on-cognac\\/chapter-5-1-general-view-on-armagnac\\/&quot;:2107} </script>\n    <script src="http://s0.wp.com/wp-content/mu-plugins/post-flair/sharing/sharing.js?m=1345189394g" type="text/javascript"></script>\n    <script charset="utf-8" type="text/javascript"> jQuery(document).ready(function(){ jQuery( \'.share-facebook\' ).click(function(){ window.open( jQuery(this).attr( \'href\' ), \'wpcomfacebook\', \'menubar=1,resizable=1,width=600,height=400\' ); return false; }); }); </script>\n    <script charset="utf-8" type="text/javascript"> jQuery(document).ready(function(){ jQuery( \'.share-twitter\' ).click(function(){ window.open( jQuery(this).attr( \'href\' ), \'wpcomtwitter\', \'menubar=1,resizable=1,width=600,height=350\' ); return false; }); }); </script>\n    <script charset="utf-8" type="text/javascript"> jQuery(document).ready(function(){ jQuery( \'.share-linkedin\' ).click(function(){ window.open( jQuery(this).attr( \'href\' ), \'wpcomlinkedin\', \'menubar=1,resizable=1,width=580,height=450\' ); return false; }); }); </script>\n    <script charset="utf-8" type="text/javascript"> function sharing_plusone( obj ) { jQuery.ajax( { url: \'http://adrian1974fulga.wordpress.com/general-view-on-cognac/chapter-5-1-general-view-on-armagnac/?share=google-plus-1\', type: \'POST\', data: obj } ); } </script>\n    <script src="http://apis.google.com/js/plusone.js" type="text/javascript"></script>\n    <script charset="utf-8" type="text/javascript"> jQuery(document).ready(function(){ jQuery( \'.share-tumblr\' ).click(function(){ window.open( jQuery(this).attr( \'href\' ), \'wpcomtumblr\', \'menubar=1,resizable=1,width=450,height=450\' ); return false; }); }); </script>\n    <script charset="utf-8" type="text/javascript"> jQuery(document).ready(function(){ jQuery( \'.share-pinterest\' ).click(function(){ window.open( jQuery(this).attr( \'href\' ), \'wpcompinterest\', \'menubar=1,resizable=1,width=650,height=280\' ); return false; }); }); </script>\n    <div style="display: none;" id="sharing_email">\n      <form action="" method="post" enctype="application/x-www-form-urlencoded">\n        <label for="target_email">Send to Email Address</label>\n        <input value="" name="target_email" id="target_email" type="text"></input>\n        <label for="source_name">Your Name</label>\n        <input value="" name="source_name" id="source_name" type="text"></input>\n        <label for="source_email">Your Email Address</label>\n        <input value="" name="source_email" id="source_email" type="text"></input>\n        <div id="sharing_recaptcha" class="recaptcha"></div>\n        <input value="6LcYW8MSAAAAADBAuEH9yaPcF7lWh11Iq62ZKtoo" name="recaptcha_public_key" id="recaptcha_public_key" type="hidden"></input>\n        <img height="16" width="16" alt="loading" src="http://s2.wp.com/wp-content/mu-plugins/post-flair/sharing/images/loading.gif?m=1315610318g" style="float: right; display: none" class="loading"></img>\n        <input value="Send Email" class="sharing_send" type="submit"></input>\n        <a href="#cancel" class="sharing_cancel" shape="rect">Cancel</a>\n        <div style="display: none;" class="errors errors-1"> Post was not sent - check your email addresses! </div>\n        <div style="display: none;" class="errors errors-2"> Email check failed, please try again </div>\n        <div style="display: none;" class="errors errors-3"> Sorry, your blog cannot share posts by email. </div>\n      </form>\n    </div>\n    <script src="http://b.scorecardresearch.com/beacon.js" type="text/javascript"></script>\n    <script type="text/javascript">try{COMSCORE.beacon({c1:2,c2:7518284});}catch(e){}</script>\n    <noscript>\n      <p class="robots-nocontent">\n        <img height="1" width="1" style="display:none" alt="" src="http://b.scorecardresearch.com/p?cj=1c1=2&amp;c2=7518284"></img>\n      </p>\n    </noscript>\n    <script src="http://s1.wp.com/wp-content/js/devicepx.js?m=1349105731g" type="text/javascript"></script>\n    <script type="text/javascript">\n      // &lt;![CDATA[\n(function() {\ntry{\n  if ( window.external &amp;&amp;\'msIsSiteMode\' in window.external) {\n    if (window.external.msIsSiteMode()) {\n      var jl = document.createElement(\'script\');\n      jl.type=\'text/javascript\';\n      jl.async=true;\n      jl.src=\'/wp-content/plugins/ie-sitemode/custom-jumplist.php\';\n      var s = document.getElementsByTagName(\'script\')[0];\n      s.parentNode.insertBefore(jl, s);\n    }\n  }\n}catch(e){}\n})();\n// ]]&gt;\n    </script>\n    <script type="text/javascript" src="http://s.stats.wordpress.com/w.js?21"></script>\n    <script type="text/javascript">\n      st_go({\'blog\':\'4367534\',\'v\':\'wpcom\',\'user_id\':\'0\',\'post\':\'2107\',\'subd\':\'adrian1974fulga\'});\nex_go({\'crypt\':\'UE40eW5QN0p8M2Y/RE1LVmwrVi5vQS5fVFtfdHBbPyw1VXIrU3hWLHhmK2FURjVLLSxrUXxTRWFBSGJ8X1R+OVpIL0c0Rks9UzMrK2NdN2paYTlYR3NhQTN5fklOVy5MS0w5NCs3U1BQWjErUXV1ZjNyMklZVysrOXJpRlIrWng0amNyM21dWGhEJjNrckpFTEJhZzJIUzkufnkzZFRLVjNHR2NjOEktUmgyZD1wSkZQYXQ/QUM5NTVpb1YrQ1AmNk9vVmJRYWdkaD0tUkRPcmNDMnBOP3VwPT9JWVplOTh5emQxMFlDPy9GOD8mLE1hLHNtPzVQalZHT3VBTHEzWGRiJVkvdkRuSkRIaWRhSldSaVZwSG5yUitQWitybmVHcHpnU3c9Ukt6LH5KeD1q\'});\naddLoadEvent(function(){linktracker_init(\'4367534\',2107);});\n    </script>\n    <noscript>\n      <img alt="" style="height:0px;width:0px;overflow:hidden" src="http://stats.wordpress.com/b.gif?v=noscript"></img>\n    </noscript>\n  </body>\n</html>'
p11
sbsS'mentions'
p12
(lp13
(iedu.umass.cs.iesl.wikilink.expanded.data.ttypes
Mention
p14
(dp15
S'anchor_text'
p16
S'French pronunciation'
p17
sS'context'
p18
(iedu.umass.cs.iesl.wikilink.expanded.data.ttypes
Context
p19
(dp20
S'middle'
p21
S'French pronunciation'
p22
sS'right'
p23
S':\xc3\x82\xc2\xa0 [a\xc3\x8a\xef\xbf\xbdma\xc3\x8b\xcb\x86\xc3\x89\xc2\xb2ak] ) is a distinctive kind of brandy or eau de vie produced in the Armagnac region in Gascony , southwest France . It'
p24
sS'left'
p25
S'Chapter 5.1.General View on Armagnac \xc2\xab Hotel Training Hotel Training ~Hospitality Industry~A Different Approach~Est.Sept.2008~ Chapter 5.1.General View on\xc2\xa0Armagnac Armagnac ('
p26
sbsS'freebase_id'
p27
S'9202a8c04000641f80000000004d2d13'
p28
sS'raw_text_offset'
p29
I11030
sS'wiki_url'
p30
S'http://en.wikipedia.org/wiki/French_phonology'
p31
sba(iedu.umass.cs.iesl.wikilink.expanded.data.ttypes
Mention
p32
(dp33
g16
S'brandy'
p34
sg18
(iedu.umass.cs.iesl.wikilink.expanded.data.ttypes
Context
p35
(dp36
g21
S'brandy'
p37
sg23
S'or eau de vie produced in the Armagnac region in Gascony , southwest France . It is distilled from wine usually made from a blend'
p38
sg25
S'\xc2\xab Hotel Training Hotel Training ~Hospitality Industry~A Different Approach~Est.Sept.2008~ Chapter 5.1.General View on\xc2\xa0Armagnac Armagnac ( French pronunciation :\xc3\x82\xc2\xa0 [a\xc3\x8a\xef\xbf\xbdma\xc3\x8b\xcb\x86\xc3\x89\xc2\xb2ak] ) is a distinctive kind of'
p39
sbsg27
S'9202a8c04000641f800000000005a46d'
p40
sg29
I11267
sg30
S'http://en.wikipedia.org/wiki/Brandy'
p41
sba(iedu.umass.cs.iesl.wikilink.expanded.data.ttypes
Mention
p42
(dp43
g16
S'eau de vie'
p44
sg18
(iedu.umass.cs.iesl.wikilink.expanded.data.ttypes
Context
p45
(dp46
g21
S'eau de vie'
p47
sg23
S'produced in the Armagnac region in Gascony , southwest France . It is distilled from wine usually made from a blend of Armagnac grapes ,'
p48
sg25
S'Training Hotel Training ~Hospitality Industry~A Different Approach~Est.Sept.2008~ Chapter 5.1.General View on\xc2\xa0Armagnac Armagnac ( French pronunciation :\xc3\x82\xc2\xa0 [a\xc3\x8a\xef\xbf\xbdma\xc3\x8b\xcb\x86\xc3\x89\xc2\xb2ak] ) is a distinctive kind of brandy or'
p49
sbsg27
S'9202a8c04000641f800000000053d646'
p50
sg29
I11354
sg30
S'http://en.wikipedia.org/wiki/Eau_de_vie'
p51
sba(iedu.umass.cs.iesl.wikilink.expanded.data.ttypes
Mention
p52
(dp53
g16
S'Gascony'
p54
sg18
(iedu.umass.cs.iesl.wikilink.expanded.data.ttypes
Context
p55
(dp56
g21
S'Gascony'
p57
sg23
S', southwest France . It is distilled from wine usually made from a blend of Armagnac grapes , including Baco 22A , Colombard , and'
p58
sg25
S'View on\xc2\xa0Armagnac Armagnac ( French pronunciation :\xc3\x82\xc2\xa0 [a\xc3\x8a\xef\xbf\xbdma\xc3\x8b\xcb\x86\xc3\x89\xc2\xb2ak] ) is a distinctive kind of brandy or eau de vie produced in the Armagnac region in'
p59
sbsg27
S'9202a8c04000641f80000000000893df'
p60
sg29
I11563
sg30
S'http://en.wikipedia.org/wiki/Gascony'
p61
sba(iedu.umass.cs.iesl.wikilink.expanded.data.ttypes
Mention
p62
(dp63
g16
S'France'
p64
sg18
(iedu.umass.cs.iesl.wikilink.expanded.data.ttypes
Context
p65
(dp66
g21
S'France'
p67
sg23
S'. It is distilled from wine usually made from a blend of Armagnac grapes , including Baco 22A , Colombard , and Ugni Blanc ,'
p68
sg25
S'( French pronunciation :\xc3\x82\xc2\xa0 [a\xc3\x8a\xef\xbf\xbdma\xc3\x8b\xcb\x86\xc3\x89\xc2\xb2ak] ) is a distinctive kind of brandy or eau de vie produced in the Armagnac region in Gascony , southwest'
p69
sbsg27
S'9202a8c04000641f8000000000d4492b'
p70
sg29
I11647
sg30
S'http://en.wikipedia.org/wiki/France'
p71
sba(iedu.umass.cs.iesl.wikilink.expanded.data.ttypes
Mention
p72
(dp73
g16
S'distilled'
p74
sg18
(iedu.umass.cs.iesl.wikilink.expanded.data.ttypes
Context
p75
(dp76
g21
S'distilled'
p77
sg23
S'from wine usually made from a blend of Armagnac grapes , including Baco 22A , Colombard , and Ugni Blanc , using column stills rather'
p78
sg25
S'[a\xc3\x8a\xef\xbf\xbdma\xc3\x8b\xcb\x86\xc3\x89\xc2\xb2ak] ) is a distinctive kind of brandy or eau de vie produced in the Armagnac region in Gascony , southwest France . It is'
p79
sbsg27
S'9202a8c04000641f80000000000126e1'
p80
sg29
I11732
sg30
S'http://en.wikipedia.org/wiki/Distilled'
p81
sba(iedu.umass.cs.iesl.wikilink.expanded.data.ttypes
Mention
p82
(dp83
g16
S'wine'
p84
sg18
(iedu.umass.cs.iesl.wikilink.expanded.data.ttypes
Context
p85
(dp86
g21
S'wine'
p87
sg23
S'usually made from a blend of Armagnac grapes , including Baco 22A , Colombard , and Ugni Blanc , using column stills rather than the'
p88
sg25
S'is a distinctive kind of brandy or eau de vie produced in the Armagnac region in Gascony , southwest France . It is distilled from'
p89
sbsg27
Nsg29
I11808
sg30
S'http://en.wikipedia.org/wiki/Wine'
p90
sba(iedu.umass.cs.iesl.wikilink.expanded.data.ttypes
Mention
p91
(dp92
g16
S'Baco 22A'
p93
sg18
(iedu.umass.cs.iesl.wikilink.expanded.data.ttypes
Context
p94
(dp95
g21
S'Baco 22A'
p96
sg23
S', Colombard , and Ugni Blanc , using column stills rather than the pot stills used in the production of Cognac . The resulting spirit'
p97
sg25
S'in the Armagnac region in Gascony , southwest France . It is distilled from wine usually made from a blend of Armagnac grapes , including'
p98
sbsg27
S'9202a8c04000641f80000000003b4e2d'
p99
sg29
I12086
sg30
S'http://en.wikipedia.org/wiki/Baco_22A'
p100
sba(iedu.umass.cs.iesl.wikilink.expanded.data.ttypes
Mention
p101
(dp102
g16
S'Colombard'
p103
sg18
(iedu.umass.cs.iesl.wikilink.expanded.data.ttypes
Context
p104
(dp105
g21
S'Colombard'
p106
sg23
S', and Ugni Blanc , using column stills rather than the pot stills used in the production of Cognac . The resulting spirit is then'
p107
sg25
S'region in Gascony , southwest France . It is distilled from wine usually made from a blend of Armagnac grapes , including Baco 22A ,'
p108
sbsg27
S'9202a8c04000641f80000000002abb39'
p109
sg29
I12167
sg30
S'http://en.wikipedia.org/wiki/Colombard'
p110
sba(iedu.umass.cs.iesl.wikilink.expanded.data.ttypes
Mention
p111
(dp112
g16
S'Ugni Blanc'
p113
sg18
(iedu.umass.cs.iesl.wikilink.expanded.data.ttypes
Context
p114
(dp115
g21
S'Ugni Blanc'
p116
sg23
S', using column stills rather than the pot stills used in the production of Cognac . The resulting spirit is then aged in oak barrels'
p117
sg25
S', southwest France . It is distilled from wine usually made from a blend of Armagnac grapes , including Baco 22A , Colombard , and'
p118
sbsg27
S'9202a8c04000641f800000000040f2f5'
p119
sg29
I12255
sg30
S'http://en.wikipedia.org/wiki/Ugni_Blanc'
p120
sba(iedu.umass.cs.iesl.wikilink.expanded.data.ttypes
Mention
p121
(dp122
g16
S'column stills'
p123
sg18
(iedu.umass.cs.iesl.wikilink.expanded.data.ttypes
Context
p124
(dp125
g21
S'column stills'
p126
sg23
S'rather than the pot stills used in the production of Cognac . The resulting spirit is then aged in oak barrels before release. Production is'
p127
sg25
S'It is distilled from wine usually made from a blend of Armagnac grapes , including Baco 22A , Colombard , and Ugni Blanc , using'
p128
sbsg27
S'9202a8c04000641f800000000023e005'
p129
sg29
I12350
sg30
S'http://en.wikipedia.org/wiki/Column_still'
p130
sba(iedu.umass.cs.iesl.wikilink.expanded.data.ttypes
Mention
p131
(dp132
g16
S'pot stills'
p133
sg18
(iedu.umass.cs.iesl.wikilink.expanded.data.ttypes
Context
p134
(dp135
g21
S'pot stills'
p136
sg23
S'used in the production of Cognac . The resulting spirit is then aged in oak barrels before release. Production is overseen by INAO and the'
p137
sg25
S'usually made from a blend of Armagnac grapes , including Baco 22A , Colombard , and Ugni Blanc , using column stills rather than the'
p138
sbsg27
S'9202a8c04000641f800000000023dfee'
p139
sg29
I12451
sg30
S'http://en.wikipedia.org/wiki/Pot_still'
p140
sba(iedu.umass.cs.iesl.wikilink.expanded.data.ttypes
Mention
p141
(dp142
g16
S'oak'
p143
sg18
(iedu.umass.cs.iesl.wikilink.expanded.data.ttypes
Context
p144
(dp145
g21
S'oak'
p146
sg23
S'barrels before release. Production is overseen by INAO and the Bureau National Interprofessionel de l\xe2\x80\x99Armagnac (BNIA). Armagnac was one of the first areas in France'
p147
sg25
S'Ugni Blanc , using column stills rather than the pot stills used in the production of Cognac . The resulting spirit is then aged in'
p148
sbsg27
S'9202a8c04000641f80000000001913ce'
p149
sg29
I12754
sg30
S'http://en.wikipedia.org/wiki/Oak'
p150
sba(iedu.umass.cs.iesl.wikilink.expanded.data.ttypes
Mention
p151
(dp152
g16
S'Vital Du Four'
p153
sg18
(iedu.umass.cs.iesl.wikilink.expanded.data.ttypes
Context
p154
(dp155
g21
S'Vital Du Four'
p156
sg23
S', a Cardinal, claimed it had 40 virtues. \xe2\x80\x9cIt makes disappear redness and burning of the eyes, and stops them from tearing; it cures hepatitis,'
p157
sg25
S'Armagnac Region Armagnac is the oldest brandy distilled in France, and in the past was consumed for its therapeutic benefits. In the 14th century, Prior'
p158
sbsg27
S'9202a8c04000641f8000000005613887'
p159
sg29
I14119
sg30
S'http://en.wikipedia.org/wiki/Vital_Du_Four'
p160
sba(iedu.umass.cs.iesl.wikilink.expanded.data.ttypes
Mention
p161
(dp162
g16
S'Saint-Sever'
p163
sg18
(iedu.umass.cs.iesl.wikilink.expanded.data.ttypes
Context
p164
(dp165
g21
S'Saint-Sever'
p166
sg23
S', Mont-de-Marsan , and Aire-sur-l\xe2\x80\x99Adour . Subsequently, Dutch merchants began promoting the trade more widely. Geography The Armagnac region lies between the Adour and Garonne'
p167
sg25
S'emboldens the wit, if someone timid from time to time himself permits.\xe2\x80\x9d Between the 15th and 17th centuries, Armagnac was traded on the markets of'
p168
sbsg27
S'9202a8c04000641f80000000008f7bc4'
p169
sg29
I14889
sg30
S'http://en.wikipedia.org/wiki/Saint-Sever'
p170
sba(iedu.umass.cs.iesl.wikilink.expanded.data.ttypes
Mention
p171
(dp172
g16
S'Mont-de-Marsan'
p173
sg18
(iedu.umass.cs.iesl.wikilink.expanded.data.ttypes
Context
p174
(dp175
g21
S'Mont-de-Marsan'
p176
sg23
S', and Aire-sur-l\xe2\x80\x99Adour . Subsequently, Dutch merchants began promoting the trade more widely. Geography The Armagnac region lies between the Adour and Garonne rivers in'
p177
sg25
S'wit, if someone timid from time to time himself permits.\xe2\x80\x9d Between the 15th and 17th centuries, Armagnac was traded on the markets of Saint-Sever ,'
p178
sbsg27
S'9202a8c04000641f800000000046f8c9'
p179
sg29
I14983
sg30
S'http://en.wikipedia.org/wiki/Mont-de-Marsan'
p180
sba(iedu.umass.cs.iesl.wikilink.expanded.data.ttypes
Mention
p181
(dp182
g16
S'barrel'
p183
sg18
(iedu.umass.cs.iesl.wikilink.expanded.data.ttypes
Context
p184
(dp185
g21
S'barrel'
p186
sg23
S'removes a part of the alcohol and water by evaporation (known as part des anges \xc3\xa2\xe2\x82\xac\xe2\x80\x9d\xe2\x80\x9dangels\xe2\x80\x99 tribute\xe2\x80\x9d or \xe2\x80\x9cangels\xe2\x80\x99 share\xe2\x80\x9d) and allows more complex aromatic'
p187
sg25
S'place. However, long aging in oak barrels softens the taste and causes the development of more complex flavours and a brown colour. Aging in the'
p188
sbsg27
S'9202a8c04000641f800000001cf30de7'
p189
sg29
I17480
sg30
S'http://en.wikipedia.org/wiki/Aging_barrel'
p190
sba(iedu.umass.cs.iesl.wikilink.expanded.data.ttypes
Mention
p191
(dp192
g16
S'eau de vie'
p193
sg18
(iedu.umass.cs.iesl.wikilink.expanded.data.ttypes
Context
p194
(dp195
g21
S'eau de vie'
p196
sg23
S',\xe2\x80\x9d Armagnac should be stored vertically to avoid damaging the stopper with alcohol. Once opened, a bottle should stay drinkable for years. Grapes Ten different'
p197
sg25
S'are often sold as vintages, with the bottles containing Armagnac from a single year, the year being noted on the bottle. As with any \xe2\x80\x9c'
p198
sbsg27
S'9202a8c04000641f800000000053d646'
p199
sg29
I18770
sg30
S'http://en.wikipedia.org/wiki/Eau_de_vie'
p200
sba(iedu.umass.cs.iesl.wikilink.expanded.data.ttypes
Mention
p201
(dp202
g16
S'Bordeaux University'
p203
sg18
(iedu.umass.cs.iesl.wikilink.expanded.data.ttypes
Context
p204
(dp205
g21
S'Bordeaux University'
p206
sg23
S'in 2007 suggested that Armagnac has health benefits, finding that moderate consumption can help protect against heart disease and obesity . The research seemed to'
p207
sg25
S'another drink \xe2\x80\x93 the German company Vom Fass produces fruit liquors with Armagnac (they are about 16% alcohol). Health benefits Research conducted by scientists at'
p208
sbsg27
S'9202a8c04000641f8000000000a16c1a'
p209
sg29
I20448
sg30
S'http://en.wikipedia.org/wiki/Bordeaux_University'
p210
sba(iedu.umass.cs.iesl.wikilink.expanded.data.ttypes
Mention
p211
(dp212
g16
S'heart disease'
p213
sg18
(iedu.umass.cs.iesl.wikilink.expanded.data.ttypes
Context
p214
(dp215
g21
S'heart disease'
p216
sg23
S'and obesity . The research seemed to indicate that the benefits derived from its unique distillation process and aging rather than from its alcoholic content.'
p217
sg25
S'Health benefits Research conducted by scientists at Bordeaux University in 2007 suggested that Armagnac has health benefits, finding that moderate consumption can help protect against'
p218
sbsg27
S'9202a8c04000641f80000000002899f5'
p219
sg29
I20659
sg30
S'http://en.wikipedia.org/wiki/Heart_disease'
p220
sba(iedu.umass.cs.iesl.wikilink.expanded.data.ttypes
Mention
p221
(dp222
g16
S'obesity'
p223
sg18
(iedu.umass.cs.iesl.wikilink.expanded.data.ttypes
Context
p224
(dp225
g21
S'obesity'
p226
sg23
S'. The research seemed to indicate that the benefits derived from its unique distillation process and aging rather than from its alcoholic content. The southwestern'
p227
sg25
S'conducted by scientists at Bordeaux University in 2007 suggested that Armagnac has health benefits, finding that moderate consumption can help protect against heart disease and'
p228
sbsg27
S'9202a8c04000641f800000000006cb3c'
p229
sg29
I20744
sg30
S'http://en.wikipedia.org/wiki/Obesity'
p230
sba(iedu.umass.cs.iesl.wikilink.expanded.data.ttypes
Mention
p231
(dp232
g16
S'Armagnac'
p233
sg18
(iedu.umass.cs.iesl.wikilink.expanded.data.ttypes
Context
p234
(dp235
g21
S'Armagnac'
p236
sg23
S'( French pronunciation :\xc3\x82\xc2\xa0 [a\xc3\x8a\xef\xbf\xbdma\xc3\x8b\xcb\x86\xc3\x89\xc2\xb2ak] ) is a distinctive kind of brandy or eau de vie produced in the Armagnac region in Gascony , southwest'
p237
sg25
S'Chapter 5.1.General View on Armagnac \xc2\xab Hotel Training Hotel Training ~Hospitality Industry~A Different Approach~Est.Sept.2008~ Chapter 5.1.General View on\xc2\xa0Armagnac'
p238
sbsg27
S'9202a8c04000641f8000000000584e1a'
p239
sg29
I10885
sg30
S'http://en.wikipedia.org/wiki/Armagnac_(drink)'
p240
sba(iedu.umass.cs.iesl.wikilink.expanded.data.ttypes
Mention
p241
(dp242
g16
S'Armagnac region'
p243
sg18
(iedu.umass.cs.iesl.wikilink.expanded.data.ttypes
Context
p244
(dp245
g21
S'Armagnac region'
p246
sg23
S'in Gascony , southwest France . It is distilled from wine usually made from a blend of Armagnac grapes , including Baco 22A , Colombard'
p247
sg25
S'Approach~Est.Sept.2008~ Chapter 5.1.General View on\xc2\xa0Armagnac Armagnac ( French pronunciation :\xc3\x82\xc2\xa0 [a\xc3\x8a\xef\xbf\xbdma\xc3\x8b\xcb\x86\xc3\x89\xc2\xb2ak] ) is a distinctive kind of brandy or eau de vie produced in the'
p248
sbsg27
S'9202a8c04000641f80000000002e581b'
p249
sg29
I11477
sg30
S'http://en.wikipedia.org/wiki/Armagnac_(region)'
p250
sba(iedu.umass.cs.iesl.wikilink.expanded.data.ttypes
Mention
p251
(dp252
g16
S"Aire-sur-l'Adour"
p253
sg18
Nsg27
S'9202a8c04000641f8000000000290aea'
p254
sg29
I15090
sg30
S"http://en.wikipedia.org/wiki/Aire-sur-l'Adour"
p255
sba(iedu.umass.cs.iesl.wikilink.expanded.data.ttypes
Mention
p256
(dp257
g16
S'appellation'
p258
sg18
(iedu.umass.cs.iesl.wikilink.expanded.data.ttypes
Context
p259
(dp260
g21
S'appellation'
p261
sg23
S'regulations. More recently, a new appellation\xc3\xa2\xe2\x82\xac\xe2\x80\x9d\xe2\x80\x9d Blanche d\xe2\x80\x99Armagnac \xe2\x80\x9c\xc3\xa2\xe2\x82\xac\xe2\x80\x9dwas established to allow the production and export of clear, white brandies that are unaged. Production Armagnac'
p262
sg25
S'acres (160\xc3\x82\xc2\xa0km\xc3\x82\xc2\xb2) of grape-producing vines.The May 25, 1909 Falliere\xc3\xa2\xe2\x82\xac\xe2\x84\xa2s decree describes the three districts: Bas-Armagnac Armagnac-T\xc3\x83\xc2\xa9nar\xc3\x83\xc5\xa1ze Haut-Armagnac Each of these areas is controlled by separate'
p263
sbsg27
Nsg29
I16736
sg30
S"http://en.wikipedia.org/wiki/Appellation_d'Origine_Contr%C3%B4l%C3%A9e"
p264
sba(iedu.umass.cs.iesl.wikilink.expanded.data.ttypes
Mention
p265
(dp266
g16
S'Cognac'
p267
sg18
(iedu.umass.cs.iesl.wikilink.expanded.data.ttypes
Context
p268
(dp269
g21
S'Cognac'
p270
sg23
S'. The resulting spirit is then aged in oak barrels before release. Production is overseen by INAO and the Bureau National Interprofessionel de l\xe2\x80\x99Armagnac (BNIA).'
p271
sg25
S'grapes , including Baco 22A , Colombard , and Ugni Blanc , using column stills rather than the pot stills used in the production of'
p272
sbsg27
S'9202a8c04000641f8000000000093e75'
p273
sg29
I12573
sg30
S'http://en.wikipedia.org/wiki/Cognac_(drink)'
p274
sbasS'doc_id'
p275
I12176
sS'rare_words'
p276
(lp277
(iedu.umass.cs.iesl.wikilink.expanded.data.ttypes
RareWord
p278
(dp279
S'word'
p280
S'Once'
p281
sS'offset'
p282
I18874
sba(iedu.umass.cs.iesl.wikilink.expanded.data.ttypes
RareWord
p283
(dp284
g280
S'BNIA'
p285
sg282
I13155
sba(iedu.umass.cs.iesl.wikilink.expanded.data.ttypes
RareWord
p286
(dp287
g280
S'German'
p288
sg282
I19754
sba(iedu.umass.cs.iesl.wikilink.expanded.data.ttypes
RareWord
p289
(dp290
g280
S'Ejas'
p291
sg282
I34153
sba(iedu.umass.cs.iesl.wikilink.expanded.data.ttypes
RareWord
p292
(dp293
g280
S'chocolate'
p294
sg282
I24588
sba(iedu.umass.cs.iesl.wikilink.expanded.data.ttypes
RareWord
p295
(dp296
g280
S'widely'
p297
sg282
I15179
sba(iedu.umass.cs.iesl.wikilink.expanded.data.ttypes
RareWord
p298
(dp299
g280
S'overall'
p300
sg282
I13322
sba(iedu.umass.cs.iesl.wikilink.expanded.data.ttypes
RareWord
p301
(dp302
g280
S'Noir'
p303
sg282
I27117
sba(iedu.umass.cs.iesl.wikilink.expanded.data.ttypes
RareWord
p304
(dp305
g280
S'ice'
p306
sg282
I22925
sba(iedu.umass.cs.iesl.wikilink.expanded.data.ttypes
RareWord
p307
(dp308
g280
S'traded'
p309
sg282
I14793
sbasb.