(iedu.umass.cs.iesl.wikilink.expanded.data.ttypes
WikiLinkItem
p0
(dp1
S'url'
p2
S'http://ajdiscalaarticle.org/?p=125'
p3
sS'content'
p4
(iedu.umass.cs.iesl.wikilink.expanded.data.ttypes
PageContentItem
p5
(dp6
S'articleText'
p7
NsS'raw'
p8
NsS'fullText'
p9
NsS'dom'
p10
S'<html lang="en-US" dir="ltr">\n  <head>\n    <meta charset="UTF-8"></meta>\n    <meta content="width=device-width" name="viewport"></meta>\n    <title>Aj Discala writes about the 2012 Cannes Film Festivalajdiscalaarticle.org</title>\n    <link href="http://gmpg.org/xfn/11" rel="profile"></link>\n    <link href="http://ajdiscalaarticle.org/wp-content/themes/twentyeleven/style.css" media="all" type="text/css" rel="stylesheet"></link>\n    <link href="http://ajdiscalaarticle.org/xmlrpc.php" rel="pingback"></link>\n    <meta content="Aj Discala writes about this years festival in Cannes. It is the only festival not only attended by actors but by all celebs around the world" name="description"></meta>\n    <link href="http://ajdiscalaarticle.org/?p=125" rel="canonical"></link>\n    <link href="http://ajdiscalaarticle.org/?feed=rss2" title="ajdiscalaarticle.org \xc2\xbb Feed" type="application/rss+xml" rel="alternate"></link>\n    <link href="http://ajdiscalaarticle.org/?feed=comments-rss2" title="ajdiscalaarticle.org \xc2\xbb Comments Feed" type="application/rss+xml" rel="alternate"></link>\n    <link href="http://ajdiscalaarticle.org/?feed=rss2&amp;p=125" title="ajdiscalaarticle.org \xc2\xbb Aj Discala writes about the 2012 Cannes Film Festival Comments Feed" type="application/rss+xml" rel="alternate"></link>\n    <script src="http://ajdiscalaarticle.org/wp-includes/js/comment-reply.js?ver=20090102" type="text/javascript"></script>\n    <link href="http://ajdiscalaarticle.org/xmlrpc.php?rsd" title="RSD" type="application/rsd+xml" rel="EditURI"></link>\n    <link href="http://ajdiscalaarticle.org/wp-includes/wlwmanifest.xml" type="application/wlwmanifest+xml" rel="wlwmanifest"></link>\n    <meta content="WordPress 3.3.1" name="generator"></meta>\n    <meta content="dx_zUxURWB9XU7yH1vLvR2bYTJfOLKmNSrJipkfvSng" name="google-site-verification"></meta>\n    <style type="text/css">.recentcomments a{display:inline !important;padding:0 !important;margin:0 !important;}</style>\n  </head>\n  <body class="single single-post postid-125 single-format-standard single-author singular two-column right-sidebar">\n    <div id="page" class="hfeed">\n      <header role="banner" id="branding">\n        <hgroup>\n          <h1 id="site-title">\n            <span>\n              <a rel="home" title="ajdiscalaarticle.org" href="http://ajdiscalaarticle.org/" shape="rect">ajdiscalaarticle.org</a>\n            </span>\n          </h1>\n          <h2 id="site-description"></h2>\n        </hgroup>\n        <a href="http://ajdiscalaarticle.org/" shape="rect">\n          <img alt="" height="288" width="1000" src="http://ajdiscalaarticle.org/wp-content/themes/twentyeleven/images/headers/wheel.jpg"></img>\n        </a>\n        <form action="http://ajdiscalaarticle.org/" id="searchform" method="get" enctype="application/x-www-form-urlencoded">\n          <label class="assistive-text" for="s">Search</label>\n          <input placeholder="Search" name="s" id="s" class="field" type="text"></input>\n          <input value="Search" name="submit" id="searchsubmit" class="submit" type="submit"></input>\n        </form>\n        <nav role="navigation" id="access">\n          <h3 class="assistive-text">Main menu</h3>\n          <div class="skip-link">\n            <a title="Skip to primary content" href="#content" class="assistive-text" shape="rect">Skip to primary content</a>\n          </div>\n          <div class="skip-link">\n            <a title="Skip to secondary content" href="#secondary" class="assistive-text" shape="rect">Skip to secondary content</a>\n          </div>\n          <div class="menu">\n            <ul>\n              <li>\n                <a title="Home" href="http://ajdiscalaarticle.org/" shape="rect">Home</a>\n              </li>\n              <li class="page_item page-item-2">\n                <a href="http://ajdiscalaarticle.org/?page_id=2" shape="rect">Sample Page</a>\n              </li>\n            </ul>\n          </div>\n        </nav>\n      </header>\n      <div id="main">\n        <div id="primary">\n          <div role="main" id="content">\n            <nav id="nav-single">\n              <h3 class="assistive-text">Post navigation</h3>\n              <span class="nav-previous">\n                <a rel="prev" href="http://ajdiscalaarticle.org/?p=114" shape="rect">\n                  <span class="meta-nav">\xe2\x86\x90</span>\n                  Previous\n                </a>\n              </span>\n              <span class="nav-next"></span>\n            </nav>\n            <article class="post-125 post type-post status-publish format-standard hentry category-uncategorized tag-aj-discala" id="post-125">\n              <header class="entry-header">\n                <h1 class="entry-title">Aj Discala writes about the 2012 Cannes Film Festival</h1>\n                <div class="entry-meta">\n                  <span class="sep">Posted on </span>\n                  <a rel="bookmark" title="12:46 am" href="http://ajdiscalaarticle.org/?p=125" shape="rect">\n                    <time pubdate="pubdate" datetime="2012-06-05T00:46:26+00:00" class="entry-date">June 5, 2012</time>\n                  </a>\n                  <span class="by-author">\n                    <span class="sep"> by </span>\n                    <span class="author vcard">\n                      <a rel="author" title="View all posts by " href="http://ajdiscalaarticle.org/?author=1" class="url fn n" shape="rect"></a>\n                    </span>\n                  </span>\n                </div>\n              </header>\n              <div class="entry-content">\n                <h1>\n                  <strong>\n                    <em>\n                      <span style="text-decoration: underline;">\n                        <a href="http://ajdiscalaarticle.org/?p=114" title="Aj Discala on Raf Simons joining the Christian Dior team and replacing Galliano" shape="rect">Aj Discala</a>\n                      </span>\n                    </em>\n                  </strong>\n                  as many other people love the Cannes Film festival. Why? Because it is the most exciting, says\n                  <strong>\n                    <em>\n                      <span style="text-decoration: underline;">\n                        <a href="http://ajdiscalaarticle.org/?p=104" title="Aj Discala on the Oscar Nights 2012, the unexpected winner of the night is\xc3\xa2\xe2\x82\xac\xc5\xa0." shape="rect">Aj Discala</a>\n                      </span>\n                    </em>\n                  </strong>\n                  with many great movies, great events and a great location launching the Cote d\xe2\x80\x99Azur season.\xc3\x82\xc2\xa0Once a year celebvilles finest migrate from Hollywood to the sunkissed shores of the south of France.\n                </h1>\n                <p>\n                  <a href="http://ajdiscalaarticle.org/wp-content/uploads/2012/06/cannes.jpg" shape="rect">\n                    <img height="210" width="300" alt="" src="http://ajdiscalaarticle.org/wp-content/uploads/2012/06/cannes-300x210.jpg" title="Aj Discala on cannes" class="alignnone size-medium wp-image-131"></img>\n                  </a>\n                </p>\n                <p>\n                  The 65th annual\xc3\x82\xc2\xa0\n                  <strong>\n                    <a href="http://en.wikipedia.org/wiki/Cannes_Film_Festival" title="Cannes Film Festival" shape="rect">Cannes Film Festival</a>\n                  </strong>\n                  \xc3\x82\xc2\xa0was held from May 16 to May 27, 2012\xc3\x82\xc2\xa0Italian film director\xc3\x82\xc2\xa0\n                  <a href="http://en.wikipedia.org/wiki/Nanni_Moretti" title="Nanni Moretti" shape="rect">Nanni Moretti</a>\n                  \xc3\x82\xc2\xa0was the President of the Jury.\n                </p>\n                <h2>\n                  <strong>\n                    <em>\n                      <span style="text-decoration: underline;">\n                        <a href="http://ajdiscalaarticle.org/?p=75" title="Aj Discala about the 2012 Grammy Awards" shape="rect">Aj Discala</a>\n                      </span>\n                    </em>\n                  </strong>\n                  explains that the festival opened with the US film\xc3\x82\xc2\xa0\n                  <em>\n                    <a href="http://en.wikipedia.org/wiki/Moonrise_Kingdom" title="Moonrise Kingdom" shape="rect">Moonrise Kingdom</a>\n                  </em>\n                  , directed by\xc3\x82\xc2\xa0\n                  <a href="http://en.wikipedia.org/wiki/Wes_Anderson" title="Wes Anderson" shape="rect">Wes Anderson</a>\n                  \xc3\x82\xc2\xa0and closed with the late\xc3\x82\xc2\xa0\n                  <a href="http://en.wikipedia.org/wiki/Claude_Miller" title="Claude Miller" shape="rect">Claude Miller</a>\n                  \xe2\x80\x98s final film\xc3\x82\xc2\xa0\n                  <em>\n                    <a href="http://en.wikipedia.org/wiki/Th%C3%A9r%C3%A8se_Desqueyroux_(2012_film)" title="Th\xc3\x83\xc2\xa9r\xc3\x83\xc5\xa1se Desqueyroux (2012 film)" shape="rect">Th\xc3\x83\xc2\xa9r\xc3\x83\xc5\xa1se Desqueyroux</a>\n                    .\n                  </em>\n                </h2>\n                <h3>\n                  <strong>\n                    <em>\n                      <span style="text-decoration: underline;">\n                        <a href="http://ajdiscalaarticle.org/?p=58" title="Aj Discala comments on the Berlinale of this year 2012" shape="rect">Aj Discala</a>\n                      </span>\n                    </em>\n                  </strong>\n                  says everybody wants to know who the winner is.The\xc3\x82\xc2\xa0\n                  <a href="http://en.wikipedia.org/wiki/Palme_d%27Or" title="Palme d\'Or" shape="rect">Palme d\xe2\x80\x99Or</a>\n                  \xc3\x82\xc2\xa0was awarded to Austrian director\xc3\x82\xc2\xa0\n                  <a href="http://en.wikipedia.org/wiki/Michael_Haneke" title="Michael Haneke" shape="rect">Michael Haneke</a>\n                  \xc3\x82\xc2\xa0for his film\xc3\x82\xc2\xa0\n                  <em>\n                    <a href="http://en.wikipedia.org/wiki/Love_(2012_French_film)" title="Love (2012 French film)" shape="rect">Love</a>\n                  </em>\n                  . Haneke previously won the Palme d\xe2\x80\x99Or in 2009 for\xc3\x82\xc2\xa0\n                  <em>\n                    <a href="http://en.wikipedia.org/wiki/The_White_Ribbon" title="The White Ribbon" shape="rect">The White Ribbon</a>\n                  </em>\n                  .\n                </h3>\n                <p>\n                  <strong>\n                    <em>\n                      <span style="text-decoration: underline;">Aj Discala</span>\n                    </em>\n                  </strong>\n                  shares that the Austrian director\xc3\xa2\xe2\x82\xac\xe2\x84\xa2s powerful and understated film stars two French acting icons \xc3\xa2\xe2\x82\xac\xe2\x80\x9d 85-year-old Emmanuelle Riva and 81-year-old Jean-Louis Trintignant \xc3\xa2\xe2\x82\xac\xe2\x80\x9d as an elderly couple coping with the wife\xc3\xa2\xe2\x82\xac\xe2\x84\xa2s worsening health.\n                </p>\n                <p>Cannes jury member Jean Paul Gaultier praised the performances of the two actors and the \xc3\xa2\xe2\x82\xac\xc5\x93incredible connection\xc3\xa2\xe2\x82\xac\xef\xbf\xbd they established in the movie.</p>\n                <p>\n                  However, says\n                  <strong>\n                    <em>\n                      <span style="text-decoration: underline;">Aj Discala</span>\n                    </em>\n                  </strong>\n                  this years festival was characterized by bad weather and the film selection was criticized.\n                </p>\n                <p>\n                  Although Wes Anderson\xc3\xa2\xe2\x82\xac\xe2\x84\xa2s coming-of-age picaresque\xc3\x82\xc2\xa0\n                  <strong>\xc3\xa2\xe2\x82\xac\xc5\x93Moonrise Kingdom\xc3\xa2\xe2\x82\xac\xef\xbf\xbd</strong>\n                  launched the festival on May 16 on a whimsical, adventurous note, the movie hewed to the director\xc3\xa2\xe2\x82\xac\xe2\x84\xa2s signature controlled, ultra-composed style and thematic preoccupations with difficult families, precocious children and young love.\n                </p>\n                <p>\n                  <strong>\n                    <em>\n                      <span style="text-decoration: underline;">Aj Discala</span>\n                    </em>\n                  </strong>\n                  explains that from the outset, when organizers announced the directors competing for the festival\xc3\xa2\xe2\x82\xac\xe2\x84\xa2s top honor, Cannes seemed stalled in a past era: Of the 22 films competing for the Palme d\xc3\xa2\xe2\x82\xac\xe2\x84\xa2Or this week, not one is directed by a woman, a nod to the mythical image of the heroic auteur that Cannes is famous for championing in its 66-year history.\n                </p>\n                <div></div>\n              </div>\n              <footer class="entry-meta">\n                This entry was posted in\n                <a rel="category" title="View all posts in Uncategorized" href="http://ajdiscalaarticle.org/?cat=1" shape="rect">Uncategorized</a>\n                and tagged\n                <a rel="tag" href="http://ajdiscalaarticle.org/?tag=aj-discala" shape="rect">AJ Discala</a>\n                by\n                <a href="http://ajdiscalaarticle.org/?author=1" shape="rect"></a>\n                . Bookmark the\n                <a rel="bookmark" title="Permalink to Aj Discala writes about the 2012 Cannes Film Festival" href="http://ajdiscalaarticle.org/?p=125" shape="rect">permalink</a>\n                .\n              </footer>\n            </article>\n            <div id="comments">\n              <div id="respond">\n                <h3 id="reply-title">\n                  Leave a Reply\n                  <small>\n                    <a style="display:none;" href="/?p=125#respond" rel="nofollow" id="cancel-comment-reply-link" shape="rect">Cancel reply</a>\n                  </small>\n                </h3>\n                <form action="http://ajdiscalaarticle.org/wp-comments-post.php" id="commentform" method="post" enctype="application/x-www-form-urlencoded">\n                  <p class="comment-notes">\n                    Your email address will not be published. Required fields are marked\n                    <span class="required">*</span>\n                  </p>\n                  <p class="comment-form-author">\n                    <label for="author">Name</label>\n                    <span class="required">*</span>\n                    <input aria-required="true" size="30" value="" name="author" id="author" type="text"></input>\n                  </p>\n                  <p class="comment-form-email">\n                    <label for="email">Email</label>\n                    <span class="required">*</span>\n                    <input aria-required="true" size="30" value="" name="email" id="email" type="text"></input>\n                  </p>\n                  <p class="comment-form-url">\n                    <label for="url">Website</label>\n                    <input size="30" value="" name="url" id="url" type="text"></input>\n                  </p>\n                  <p class="comment-form-comment">\n                    <label for="comment">Comment</label>\n                    <textarea aria-required="true" name="comment" id="comment" rows="8" cols="45"></textarea>\n                  </p>\n                  <p class="form-allowed-tags">\n                    You may use these\n                    <abbr title="HyperText Markup Language">HTML</abbr>\n                    tags and attributes:\n                    <code>\n                      &lt;a href=&quot;&quot; title=&quot;&quot;&gt; &lt;abbr title=&quot;&quot;&gt; &lt;acronym title=&quot;&quot;&gt; &lt;b&gt; &lt;blockquote cite=&quot;&quot;&gt; &lt;cite&gt; &lt;code&gt; &lt;del datetime=&quot;&quot;&gt; &lt;em&gt; &lt;i&gt; &lt;q cite=&quot;&quot;&gt; &lt;strike&gt; &lt;strong&gt;\n                    </code>\n                  </p>\n                  <p class="form-submit">\n                    <input value="Post Comment" name="submit" id="submit" type="submit"></input>\n                    <input value="125" name="comment_post_ID" id="comment_post_ID" type="hidden"></input>\n                    <input value="0" name="comment_parent" id="comment_parent" type="hidden"></input>\n                  </p>\n                </form>\n              </div>\n            </div>\n          </div>\n        </div>\n      </div>\n      <footer role="contentinfo" id="colophon">\n        <div id="site-generator">\n          <a rel="generator" title="Semantic Personal Publishing Platform" href="http://wordpress.org/" shape="rect">Proudly powered by WordPress</a>\n        </div>\n      </footer>\n    </div>\n  </body>\n</html>'
p11
sbsS'mentions'
p12
(lp13
(iedu.umass.cs.iesl.wikilink.expanded.data.ttypes
Mention
p14
(dp15
S'anchor_text'
p16
S'Cannes Film Festival'
p17
sS'context'
p18
(iedu.umass.cs.iesl.wikilink.expanded.data.ttypes
Context
p19
(dp20
S'middle'
p21
S'Cannes Film Festival'
p22
sS'right'
p23
S'\xc3\x82\xc2\xa0was held from May 16 to May 27, 2012\xc3\x82\xc2\xa0Italian film director\xc3\x82\xc2\xa0 Nanni Moretti \xc3\x82\xc2\xa0was the President of the Jury. Aj Discala explains that the festival'
p24
sS'left'
p25
S'location launching the Cote d\xe2\x80\x99Azur season.\xc3\x82\xc2\xa0Once a year celebvilles finest migrate from Hollywood to the sunkissed shores of the south of France. The 65th annual\xc3\x82\xc2\xa0'
p26
sbsS'freebase_id'
p27
S'9202a8c04000641f80000000000adeb9'
p28
sS'raw_text_offset'
p29
I6288
sS'wiki_url'
p30
S'http://en.wikipedia.org/wiki/Cannes_Film_Festival'
p31
sba(iedu.umass.cs.iesl.wikilink.expanded.data.ttypes
Mention
p32
(dp33
g16
S'Nanni Moretti'
p34
sg18
(iedu.umass.cs.iesl.wikilink.expanded.data.ttypes
Context
p35
(dp36
g21
S'Nanni Moretti'
p37
sg23
S'\xc3\x82\xc2\xa0was the President of the Jury. Aj Discala explains that the festival opened with the US film\xc3\x82\xc2\xa0 Moonrise Kingdom , directed by\xc3\x82\xc2\xa0 Wes Anderson \xc3\x82\xc2\xa0and'
p38
sg25
S'the sunkissed shores of the south of France. The 65th annual\xc3\x82\xc2\xa0 Cannes Film Festival \xc3\x82\xc2\xa0was held from May 16 to May 27, 2012\xc3\x82\xc2\xa0Italian film director\xc3\x82\xc2\xa0'
p39
sbsg27
S'9202a8c04000641f800000000066701b'
p40
sg29
I6459
sg30
S'http://en.wikipedia.org/wiki/Nanni_Moretti'
p41
sba(iedu.umass.cs.iesl.wikilink.expanded.data.ttypes
Mention
p42
(dp43
g16
S'Moonrise Kingdom'
p44
sg18
(iedu.umass.cs.iesl.wikilink.expanded.data.ttypes
Context
p45
(dp46
g21
S'Moonrise Kingdom'
p47
sg23
S', directed by\xc3\x82\xc2\xa0 Wes Anderson \xc3\x82\xc2\xa0and closed with the late\xc3\x82\xc2\xa0 Claude Miller \xe2\x80\x98s final film\xc3\x82\xc2\xa0 Th\xc3\x83\xc2\xa9r\xc3\x83\xc5\xa1se Desqueyroux . Aj Discala says everybody wants to know'
p48
sg25
S'to May 27, 2012\xc3\x82\xc2\xa0Italian film director\xc3\x82\xc2\xa0 Nanni Moretti \xc3\x82\xc2\xa0was the President of the Jury. Aj Discala explains that the festival opened with the US film\xc3\x82\xc2\xa0'
p49
sbsg27
S'9202a8c04000641f800000001d1f0e9e'
p50
sg29
I6836
sg30
S'http://en.wikipedia.org/wiki/Moonrise_Kingdom'
p51
sba(iedu.umass.cs.iesl.wikilink.expanded.data.ttypes
Mention
p52
(dp53
g16
S'Wes Anderson'
p54
sg18
(iedu.umass.cs.iesl.wikilink.expanded.data.ttypes
Context
p55
(dp56
g21
S'Wes Anderson'
p57
sg23
S'\xc3\x82\xc2\xa0and closed with the late\xc3\x82\xc2\xa0 Claude Miller \xe2\x80\x98s final film\xc3\x82\xc2\xa0 Th\xc3\x83\xc2\xa9r\xc3\x83\xc5\xa1se Desqueyroux . Aj Discala says everybody wants to know who the winner is.The\xc3\x82\xc2\xa0 Palme'
p58
sg25
S'director\xc3\x82\xc2\xa0 Nanni Moretti \xc3\x82\xc2\xa0was the President of the Jury. Aj Discala explains that the festival opened with the US film\xc3\x82\xc2\xa0 Moonrise Kingdom , directed by\xc3\x82\xc2\xa0'
p59
sbsg27
S'9202a8c04000641f80000000002930dc'
p60
sg29
I6949
sg30
S'http://en.wikipedia.org/wiki/Wes_Anderson'
p61
sba(iedu.umass.cs.iesl.wikilink.expanded.data.ttypes
Mention
p62
(dp63
g16
S'Claude Miller'
p64
sg18
(iedu.umass.cs.iesl.wikilink.expanded.data.ttypes
Context
p65
(dp66
g21
S'Claude Miller'
p67
sg23
S'\xe2\x80\x98s final film\xc3\x82\xc2\xa0 Th\xc3\x83\xc2\xa9r\xc3\x83\xc5\xa1se Desqueyroux . Aj Discala says everybody wants to know who the winner is.The\xc3\x82\xc2\xa0 Palme d\xe2\x80\x99Or \xc3\x82\xc2\xa0was awarded to Austrian director\xc3\x82\xc2\xa0 Michael'
p68
sg25
S'the Jury. Aj Discala explains that the festival opened with the US film\xc3\x82\xc2\xa0 Moonrise Kingdom , directed by\xc3\x82\xc2\xa0 Wes Anderson \xc3\x82\xc2\xa0and closed with the late\xc3\x82\xc2\xa0'
p69
sbsg27
S'9202a8c04000641f8000000005bd5265'
p70
sg29
I7068
sg30
S'http://en.wikipedia.org/wiki/Claude_Miller'
p71
sba(iedu.umass.cs.iesl.wikilink.expanded.data.ttypes
Mention
p72
(dp73
g16
S'Th\xc3\x83\xc2\xa9r\xc3\x83\xc5\xa1se Desqueyroux'
p74
sg18
(iedu.umass.cs.iesl.wikilink.expanded.data.ttypes
Context
p75
(dp76
g21
S'Th\xc3\x83\xc2\xa9r\xc3\x83\xc5\xa1se Desqueyroux'
p77
sg23
S'. Aj Discala says everybody wants to know who the winner is.The\xc3\x82\xc2\xa0 Palme d\xe2\x80\x99Or \xc3\x82\xc2\xa0was awarded to Austrian director\xc3\x82\xc2\xa0 Michael Haneke \xc3\x82\xc2\xa0for his film\xc3\x82\xc2\xa0 Love'
p78
sg25
S'that the festival opened with the US film\xc3\x82\xc2\xa0 Moonrise Kingdom , directed by\xc3\x82\xc2\xa0 Wes Anderson \xc3\x82\xc2\xa0and closed with the late\xc3\x82\xc2\xa0 Claude Miller \xe2\x80\x98s final film\xc3\x82\xc2\xa0'
p79
sbsg27
Nsg29
I7233
sg30
S'http://en.wikipedia.org/wiki/Th%C3%A9r%C3%A8se_Desqueyroux_(2012_film)'
p80
sba(iedu.umass.cs.iesl.wikilink.expanded.data.ttypes
Mention
p81
(dp82
g16
S'Michael Haneke'
p83
sg18
(iedu.umass.cs.iesl.wikilink.expanded.data.ttypes
Context
p84
(dp85
g21
S'Michael Haneke'
p86
sg23
S'\xc3\x82\xc2\xa0for his film\xc3\x82\xc2\xa0 Love . Haneke previously won the Palme d\xe2\x80\x99Or in 2009 for\xc3\x82\xc2\xa0 The White Ribbon . Aj Discala shares that the Austrian director\xc3\xa2\xe2\x82\xac\xe2\x84\xa2s'
p87
sg25
S'Miller \xe2\x80\x98s final film\xc3\x82\xc2\xa0 Th\xc3\x83\xc2\xa9r\xc3\x83\xc5\xa1se Desqueyroux . Aj Discala says everybody wants to know who the winner is.The\xc3\x82\xc2\xa0 Palme d\xe2\x80\x99Or \xc3\x82\xc2\xa0was awarded to Austrian director\xc3\x82\xc2\xa0'
p88
sbsg27
S'9202a8c04000641f800000000040c257'
p89
sg29
I7727
sg30
S'http://en.wikipedia.org/wiki/Michael_Haneke'
p90
sba(iedu.umass.cs.iesl.wikilink.expanded.data.ttypes
Mention
p91
(dp92
g16
S'Love'
p93
sg18
(iedu.umass.cs.iesl.wikilink.expanded.data.ttypes
Context
p94
(dp95
g21
S'Love'
p96
sg23
S'. Haneke previously won the Palme d\xe2\x80\x99Or in 2009 for\xc3\x82\xc2\xa0 The White Ribbon . Aj Discala shares that the Austrian director\xc3\xa2\xe2\x82\xac\xe2\x84\xa2s powerful and understated film'
p97
sg25
S'Desqueyroux . Aj Discala says everybody wants to know who the winner is.The\xc3\x82\xc2\xa0 Palme d\xe2\x80\x99Or \xc3\x82\xc2\xa0was awarded to Austrian director\xc3\x82\xc2\xa0 Michael Haneke \xc3\x82\xc2\xa0for his film\xc3\x82\xc2\xa0'
p98
sbsg27
S'9202a8c04000641f800000001dad4cd2'
p99
sg29
I7860
sg30
S'http://en.wikipedia.org/wiki/Love_(2012_French_film)'
p100
sba(iedu.umass.cs.iesl.wikilink.expanded.data.ttypes
Mention
p101
(dp102
g16
S'The White Ribbon'
p103
sg18
(iedu.umass.cs.iesl.wikilink.expanded.data.ttypes
Context
p104
(dp105
g21
S'The White Ribbon'
p106
sg23
S'. Aj Discala shares that the Austrian director\xc3\xa2\xe2\x82\xac\xe2\x84\xa2s powerful and understated film stars two French acting icons \xc3\xa2\xe2\x82\xac\xe2\x80\x9d 85-year-old Emmanuelle Riva and 81-year-old Jean-Louis Trintignant'
p107
sg25
S'winner is.The\xc3\x82\xc2\xa0 Palme d\xe2\x80\x99Or \xc3\x82\xc2\xa0was awarded to Austrian director\xc3\x82\xc2\xa0 Michael Haneke \xc3\x82\xc2\xa0for his film\xc3\x82\xc2\xa0 Love . Haneke previously won the Palme d\xe2\x80\x99Or in 2009 for\xc3\x82\xc2\xa0'
p108
sbsg27
S'9202a8c04000641f8000000005751807'
p109
sg29
I8016
sg30
S'http://en.wikipedia.org/wiki/The_White_Ribbon'
p110
sba(iedu.umass.cs.iesl.wikilink.expanded.data.ttypes
Mention
p111
(dp112
g16
S"Palme d'Or"
p113
sg18
Nsg27
S'9202a8c04000641f80000000002dc67c'
p114
sg29
I7594
sg30
S"http://en.wikipedia.org/wiki/Palme_d'Or"
p115
sbasS'doc_id'
p116
I15901
sS'rare_words'
p117
(lp118
(iedu.umass.cs.iesl.wikilink.expanded.data.ttypes
RareWord
p119
(dp120
S'word'
p121
S'famous'
p122
sS'offset'
p123
I9457
sba(iedu.umass.cs.iesl.wikilink.expanded.data.ttypes
RareWord
p124
(dp125
g121
S'everybody'
p126
sg123
I7476
sba(iedu.umass.cs.iesl.wikilink.expanded.data.ttypes
RareWord
p127
(dp128
g121
S'championing'
p129
sg123
I9468
sba(iedu.umass.cs.iesl.wikilink.expanded.data.ttypes
RareWord
p130
(dp131
g121
S'image'
p132
sg123
I9415
sba(iedu.umass.cs.iesl.wikilink.expanded.data.ttypes
RareWord
p133
(dp134
g121
S'shares'
p135
sg123
I8137
sba(iedu.umass.cs.iesl.wikilink.expanded.data.ttypes
RareWord
p136
(dp137
g121
S'precocious'
p138
sg123
I9024
sba(iedu.umass.cs.iesl.wikilink.expanded.data.ttypes
RareWord
p139
(dp140
g121
S'couple'
p141
sg123
I8324
sba(iedu.umass.cs.iesl.wikilink.expanded.data.ttypes
RareWord
p142
(dp143
g121
S'White'
p144
sg123
I8020
sba(iedu.umass.cs.iesl.wikilink.expanded.data.ttypes
RareWord
p145
(dp146
g121
S'France'
p147
sg123
I5879
sba(iedu.umass.cs.iesl.wikilink.expanded.data.ttypes
RareWord
p148
(dp149
g121
S'winner'
p150
sg123
I7508
sbasb.