(iedu.umass.cs.iesl.wikilink.expanded.data.ttypes
WikiLinkItem
p0
(dp1
S'url'
p2
S'http://americanelephant.com/blog/commentary/lack-campaigning-elected-alvin-greene/'
p3
sS'content'
p4
(iedu.umass.cs.iesl.wikilink.expanded.data.ttypes
PageContentItem
p5
(dp6
S'articleText'
p7
NsS'raw'
p8
NsS'fullText'
p9
NsS'dom'
p10
S'<html xml:lang="en-US" lang="en-US" dir="ltr">\n  <head profile="http://gmpg.org/xfn/11">\n    <title>How a Lack of Campaigning Helped Alvin Greene Win South Carolina\xe2\x80\x99s Democratic Primary</title>\n    <link media="screen" type="text/css" href="http://americanelephant.com/wp-content/themes/hybrid-news/style.css" rel="stylesheet"></link>\n    <meta content="text/html charset=UTF-8" http-equiv="Content-Type"></meta>\n    <meta content="WordPress 2.9.2" name="generator"></meta>\n    <meta content="Hybrid 0.7.1" name="template"></meta>\n    <link href="http://americanelephant.com/xmlrpc.php" rel="pingback"></link>\n    <link media="print" type="text/css" href="http://americanelephant.com/wp-content/themes/hybrid/library/css/print.css?ver=0.7" rel="stylesheet" id="hybrid-print-css"></link>\n    <link media="" type="text/css" href="http://americanelephant.com/wp-content/plugins/add-to-any/addtoany.min.css?ver=1.4" rel="stylesheet" id="A2A_SHARE_SAVE-css"></link>\n    <link media="all" type="text/css" href="http://americanelephant.com/wp-content/plugins/contact-form-7/styles.css?ver=2.4.5" rel="stylesheet" id="contact-form-7-css"></link>\n    <script src="http://americanelephant.com/wp-includes/js/jquery/jquery.js?ver=1.3.2" type="text/javascript"></script>\n    <script src="http://americanelephant.com/wp-content/plugins/hybrid-tabs/js/tabs.js?ver=0.1" type="text/javascript"></script>\n    <link href="http://americanelephant.com/xmlrpc.php?rsd" title="RSD" type="application/rsd+xml" rel="EditURI"></link>\n    <link href="http://americanelephant.com/wp-includes/wlwmanifest.xml" type="application/wlwmanifest+xml" rel="wlwmanifest"></link>\n    <link href="http://americanelephant.com" title="American Elephant" rel="index"></link>\n    <link href="http://americanelephant.com/blog/new-look-same-great-taste/" title="New Look, Same Great Taste." rel="start"></link>\n    <link href="http://americanelephant.com/blog/north-carolina/etheridge-responds-viral-assault-video/" title="Etheridge Responds to Viral Assault Video" rel="prev"></link>\n    <link href="http://americanelephant.com/blog/north-carolina/rally-agains-bob-etheridge-june-16-2010/" title="Rally Against Bob Etheridge Tomorrow" rel="next"></link>\n    <link href="http://americanelephant.com/blog/commentary/lack-campaigning-elected-alvin-greene/" rel="canonical"></link>\n    <script type="text/javascript">\n      &lt;!--\nvar a2a_config=a2a_config||{},wpa2a={done:false,html_done:false,script_ready:false,script_load:function(){var a=document.createElement(\'script\'),s=document.getElementsByTagName(\'script\')[0];a.type=\'text/javascript\';a.async=true;a.src=\'http://static.addtoany.com/menu/page.js\';s.parentNode.insertBefore(a,s);wpa2a.script_load=function(){};},script_onready:function(){if(a2a.type==\'page\'){wpa2a.script_ready=true;if(wpa2a.html_done)wpa2a.init();}},init:function(){for(var i=0,el,target,targets=wpa2a.targets,length=targets.length;i&lt;length;i++){el=document.getElementById(\'wpa2a_\'+(i+1));target=targets[i];a2a_config.linkname=target.title;a2a_config.linkurl=target.url;if(el)a2a.init(\'page\',{target:el});wpa2a.done=true;}}};a2a_config.tracking_callback=[\'ready\',wpa2a.script_onready];\n//--&gt;\n    </script>\n    <meta content="There is no conspiracy. Alvin Greene won South Carolina\'s Democratic Senate Primary because he DID NOT campaign." name="description"></meta>\n    <link href="http://americanelephant.com/wp-content/plugins/zstore/css/zstore.css" type="text/css" rel="stylesheet" id="ext_css"></link>\n    <style type="text/css">.recentcomments a{display:inline !important;padding:0 !important;margin:0 !important;}</style>\n  </head>\n  <body class="wordpress ltr en_US y2012 m10 d03 h05 wednesday not-logged-in singular singular-post singular-post-7204 single-7204 primary-active secondary-active subsidiary-active">\n    <div id="body-container">\n      <div id="navigation">\n        <div id="page-nav" class="page-nav">\n          <ul class="menu sf-menu">\n            <li>\n              <a title="Home" href="http://americanelephant.com" shape="rect">Home</a>\n            </li>\n            <li class="page_item page-item-2">\n              <a title="About" href="http://americanelephant.com/about/" shape="rect">About</a>\n            </li>\n            <li class="page_item page-item-7">\n              <a title="Contact" href="http://americanelephant.com/contact/" shape="rect">Contact</a>\n            </li>\n            <li class="page_item page-item-36">\n              <a title="Join The Blogroll" href="http://americanelephant.com/join-the-blogroll/" shape="rect">Join The Blogroll</a>\n            </li>\n          </ul>\n        </div>\n        <div id="search-1" class="search">\n          <form action="http://americanelephant.com/" id="search-form-1" class="search-form" method="get" enctype="application/x-www-form-urlencoded">\n            <div>\n              <input onblur="if(this.value==\'\')this.value=this.defaultValue;" onfocus="if(this.value==this.defaultValue)this.value=\'\';" value="Search this site..." name="s" id="search-text-1" class="search-text" type="text" tabindex="7"></input>\n              <input value="Search" name="submit" id="search-submit-1" class="search-submit button" type="submit" tabindex="8"></input>\n            </div>\n          </form>\n        </div>\n      </div>\n      <div id="header-container">\n        <div id="header">\n          <div id="site-title">\n            <a rel="home" title="American Elephant" href="http://americanelephant.com" shape="rect">\n              <span>American Elephant</span>\n            </a>\n          </div>\n          <div id="site-description">\n            <span>Conservative Commentary and Right-Wing T-Shirts</span>\n          </div>\n        </div>\n      </div>\n      <div id="cat-navigation">\n        <ul id="cat-nav" class="menu sf-menu">\n          <li class="cat-item cat-item-3">\n            <a title="View all posts filed under Blog" href="http://americanelephant.com/category/blog/" shape="rect">Blog</a>\n            <ul class="children">\n              <li class="cat-item cat-item-514">\n                <a title="View all posts filed under Announcements" href="http://americanelephant.com/category/blog/announcements/" shape="rect">Announcements</a>\n              </li>\n              <li class="cat-item cat-item-515">\n                <a title="View all posts filed under Commentary" href="http://americanelephant.com/category/blog/commentary/" shape="rect">Commentary</a>\n              </li>\n              <li class="cat-item cat-item-516">\n                <a title="View all posts filed under Elephant Watch" href="http://americanelephant.com/category/blog/elephant-watch/" shape="rect">Elephant Watch</a>\n              </li>\n              <li class="cat-item cat-item-37">\n                <a title="View all posts filed under North Carolina" href="http://americanelephant.com/category/blog/north-carolina/" shape="rect">North Carolina</a>\n              </li>\n            </ul>\n          </li>\n          <li class="cat-item cat-item-9">\n            <a title="Conservative Wallpapers and Downloads" href="http://americanelephant.com/category/downloads/" shape="rect">Downloads</a>\n          </li>\n          <li class="cat-item cat-item-6">\n            <a title="Other American Elephants spotted in the wild." href="http://americanelephant.com/category/wild/" shape="rect">In The Wild</a>\n          </li>\n          <li class="cat-item cat-item-38">\n            <a title="Latest Designs from the American Elephant Apparel Company." href="http://americanelephant.com/category/latest-designs/" shape="rect">Latest Designs</a>\n          </li>\n          <li class="cat-item cat-item-712">\n            <a \n            title="Direct from the vast right-wing conspiracy manufacturing facility, American Elephant supplies t-shirts, hats, other apparel and gifts with a conservative point of view. American Elephant Apparel has been featured in a BusinessWeek.com article and had merchandise shown on FoxNews &amp; CBS\xc3\xa2\xe2\x82\xac\xe2\x84\xa2 The Early Show. Hollywood Celebs have been caught wearing our t-shirts, and one of our Drill Baby Drill hats even showed up in a MoveOn.org ad with the cast from Gossip Girl (you guess it... they didn\'t like our hat). " href="http://americanelephant.com/category/store/" shape="rect">\n              Store\n</a>\n            <ul class="children">\n              <li class="cat-item cat-item-729">\n                <a title="View all posts filed under 2012 Election" href="http://americanelephant.com/category/store/2012-candidates-store/" shape="rect">2012 Election</a>\n                <ul class="children">\n                  <li class="cat-item cat-item-813">\n                    <a \n                    title="Its time for new blood in the Republican Party. Its time to elect a Conservative with a real record of reform who stands by his principals. Support Bobby Jindal for President 2012. " href="http://americanelephant.com/category/store/2012-candidates-store/bobby-jindal-2012-store/" shape="rect">\n                      Bobby Jindal 2012\n</a>\n                  </li>\n                  <li class="cat-item cat-item-814">\n                    <a title="Michele Bachmann is a real Conservative who is taking a stand for America. Consider giving her your vote for President of the United States in 2012. " href="http://americanelephant.com/category/store/2012-candidates-store/michele-bachmann-2012-store/" shape="rect">\n                      Michele Bachmann 2012\n                    </a>\n                  </li>\n                  <li class="cat-item cat-item-815">\n                    <a title="Elect Mitt Romney for President in 2012 for a stronger America. Mitt Romney promises fiscal responsibility and a strong national defense to keep us safe home and abroad. " href="http://americanelephant.com/category/store/2012-candidates-store/mitt-romney-2012-store/" shape="rect">\n                      Mitt Romney 2012\n                    </a>\n                  </li>\n                  <li class="cat-item cat-item-816">\n                    <a \n                    title="Newt Gingrich is a proven conservative leader who has achieved real results. Do you support returning America\'s strength, conservative values and personal responsibility?  Consider supporting Newt Gingrich for President." href="http://americanelephant.com/category/store/2012-candidates-store/newt-gingrich-2012-store/" shape="rect">\n                      Newt Gingrich 2012\n</a>\n                  </li>\n                  <li class="cat-item cat-item-812">\n                    <a title="Its time to rebuild the Republican Party and return it to Conservative Voices and Family Values. Start today and support Sarah Palin\'s bid for the Presidency in 2012. " href="http://americanelephant.com/category/store/2012-candidates-store/sarah-palin-2012-store/" shape="rect">\n                      Sarah Palin 2012\n                    </a>\n                  </li>\n                </ul>\n              </li>\n              <li class="cat-item cat-item-719">\n                <a \n                title="Are you tired of Barney Frank and all is anti-capitalist, anti-Constitutional, anti-American rhetoric?  Are you ready to bring Values, Responsibility and Integrity back to Washington and send Barney packing?  Pick up some Anti-Barney Frank T-Shirts and Fire Barney Bumper Stickers.  Let\'s send Barney home for good." href="http://americanelephant.com/category/store/anti-barney-frank-store/" shape="rect">\n                  Anti Barney Frank\n</a>\n              </li>\n              <li class="cat-item cat-item-720">\n                <a \n                title="Charles Rangel is a corrupt Tax Cheat who has no business in the United States Congress.  Tell Charlie Rangel its time to go.  Clean up Washington and restore America.  Make your representatives accountable and demand they take responsibility for their actions.  Fire Charlie Rangel." href="http://americanelephant.com/category/store/anti-charles-rangel-store/" shape="rect">\n                  Anti Charles Rangel\n</a>\n              </li>\n              <li class="cat-item cat-item-1142">\n                <a \n                title="Attorney General Eric Holder is a political hack who puts his racial agenda above the Rule of Law and United States Constitution. Protest Eric Holder with one of our Anti Eric Holder designs available on a variety of merchandise from t-shirts and hats to stickers and mugs." href="http://americanelephant.com/category/store/anti-eric-holder-tshirt-store/" shape="rect">\n                  Anti Eric Holder\n</a>\n              </li>\n              <li class="cat-item cat-item-718">\n                <a \n                title="Dingy Harry Reid is a disgrace to the United States Senate and the people of Nevada.  Tell Harry Reid you are fed-up with his partisan politics and leftist agenda.  This November, send Harry Reid his pink-slip and take back America for Conservative Values.  End the Terrible Tax Triumvirate once and for all." href="http://americanelephant.com/category/store/anti-harry-reid-store/" shape="rect">\n                  Anti Harry Reid\n</a>\n              </li>\n              <li class="cat-item cat-item-724">\n                <a \n                title="Don\'t just sit there, stand up and fight against the Leftist-Progressive Agenda that is destroying our liberty and laying siege to the Constitution.  Get your Spay &amp; Neuter Liberal T-Shirt, Anti-Democrat Bumper Sticker, or Anti-Socialism button and take back America for the next generation." href="http://americanelephant.com/category/store/anti-liberal-store/" shape="rect">\n                  Anti Liberal\n</a>\n              </li>\n              <li class="cat-item cat-item-717">\n                <a \n                title="Its time to fire Nancy Pelosi and let her take her extreme liberal policies back to San Fransisco.  America is a right-leaning nation and we need to preserve our values and our liberty.  Defend the Constitution, Fire Nancy Pelosi." href="http://americanelephant.com/category/store/anti-pelosi-store/" shape="rect">\n                  Anti Nancy Pelosi\n</a>\n              </li>\n              <li class="cat-item cat-item-716">\n                <a \n                title="Is this the change you were looking for? President Barack Obama is taking our nation down a dangerous path, and we must protect Liberty, American Sovereignty and our Values before it is too late. Go ahead, cling to your Bible, your gun and the Constitution... stand up against the tyranny of the Marxist-Progressive Agenda.  The next generation depends on us.  If you won\'t stand up, who will?" href="http://americanelephant.com/category/store/anti-obama-store/" shape="rect">\n                  Anti Obama\n</a>\n              </li>\n              <li class="cat-item cat-item-715">\n                <a title="View all posts filed under Bill of Rights" href="http://americanelephant.com/category/store/bill-of-rights-store/" shape="rect">Bill of Rights</a>\n                <ul class="children">\n                  <li class="cat-item cat-item-860">\n                    <a title="View all posts filed under Eighth Amendment" href="http://americanelephant.com/category/store/bill-of-rights-store/eighth-amendment-store/" shape="rect">Eighth Amendment</a>\n                  </li>\n                  <li class="cat-item cat-item-857">\n                    <a title="View all posts filed under Fifth Amendment" href="http://americanelephant.com/category/store/bill-of-rights-store/fifth-amendment-store/" shape="rect">Fifth Amendment</a>\n                  </li>\n                  <li class="cat-item cat-item-853">\n                    <a title="View all posts filed under First Amendment" href="http://americanelephant.com/category/store/bill-of-rights-store/first-amendment-store/" shape="rect">First Amendment</a>\n                  </li>\n                  <li class="cat-item cat-item-856">\n                    <a title="View all posts filed under Fourth Amendment" href="http://americanelephant.com/category/store/bill-of-rights-store/fourth-amendment-store/" shape="rect">Fourth Amendment</a>\n                  </li>\n                  <li class="cat-item cat-item-861">\n                    <a title="View all posts filed under Ninth Amendment" href="http://americanelephant.com/category/store/bill-of-rights-store/ninth-amendment-store/" shape="rect">Ninth Amendment</a>\n                  </li>\n                  <li class="cat-item cat-item-854">\n                    <a title="View all posts filed under Second Amendment" href="http://americanelephant.com/category/store/bill-of-rights-store/second-amendment-billofrights-store/" shape="rect">Second Amendment</a>\n                  </li>\n                  <li class="cat-item cat-item-859">\n                    <a title="View all posts filed under Seventh Amendment" href="http://americanelephant.com/category/store/bill-of-rights-store/seventh-amendment-store/" shape="rect">Seventh Amendment</a>\n                  </li>\n                  <li class="cat-item cat-item-858">\n                    <a title="View all posts filed under Sixth Amendment" href="http://americanelephant.com/category/store/bill-of-rights-store/sixth-amendment-store/" shape="rect">Sixth Amendment</a>\n                  </li>\n                  <li class="cat-item cat-item-862">\n                    <a title="View all posts filed under Tenth Amendment" href="http://americanelephant.com/category/store/bill-of-rights-store/tenth-amendment-store/" shape="rect">Tenth Amendment</a>\n                  </li>\n                  <li class="cat-item cat-item-855">\n                    <a title="View all posts filed under Third Amendment" href="http://americanelephant.com/category/store/bill-of-rights-store/third-amendment-store/" shape="rect">Third Amendment</a>\n                  </li>\n                </ul>\n              </li>\n              <li class="cat-item cat-item-746">\n                <a \n                title="You\'ve seen our t-shirts at Tea Parties, 912 Events and on Fox News. Now get your own Conservative Themed Shirt or Bumper Sticker and stand up to the tyranny of the Progressives. Conservatives built this nation, its time to take it back." href="http://americanelephant.com/category/store/conservative-store/" shape="rect">\n                  Conservatives\n</a>\n              </li>\n              <li class="cat-item cat-item-727">\n                <a \n                title="Drill Baby Drill! America has oil. Tell Washington its time to Drill Here and Drill Now. Offshore and domestic drilling will create American jobs, lower gas prices and reduce our dependence on foreign oil. Our security, our freedom and our wallets depend on United States energy production that includes drilling for oil." href="http://americanelephant.com/category/store/gas-prices-store/" shape="rect">\n                  Gas and Foreign Oil\n</a>\n              </li>\n              <li class="cat-item cat-item-728">\n                <a \n                title="Stop the Lies! Man-Made Global Warming is a fraud perpetuated on the world in order to increase power and wealth and decrease American sovereignty. Stop Al Gore and the Global Warming Hoax. Defeat the Cap &amp; Trade Scam and save American jobs with a Global Warming Hoax t-shirt or Bumper Sticker." href="http://americanelephant.com/category/store/global-hoax-store/" shape="rect">\n                  Global Warming Hoax\n</a>\n              </li>\n              <li class="cat-item cat-item-722">\n                <a \n                title="We The People stand up for liberty and defend our Constitution. We Thank our Troops and our Veterans.  We appreciate the sacrifices that paved the way for our freedom, and we value the God-Given rights that we hold so dear.  Buy your liberty tees and patriotic merchandise from American Elephant and celebrate American exceptionalism and the greatest nation in the world." href="http://americanelephant.com/category/store/patriotic-store/" shape="rect">\n                  God Bless America\n</a>\n              </li>\n              <li class="cat-item cat-item-713">\n                <a \n                title="  ObamaCare is a violation of the 10th Amendment and an assault on our liberty. We need Health Care Reform, but we won\'t tolerate a Government Take Over. Repeal and Replace the Obama-Pelosi-Reid Socialized Medicine Bill that will destroy our economy, our freedom and our medical care." href="http://americanelephant.com/category/store/obamacare-store/" shape="rect">\n                  Government Health Care\n</a>\n              </li>\n              <li class="cat-item cat-item-736">\n                <a \n                title="  Patriots aren\'t bigots or xenophobes.  Patriots value our nation and the rule of law.  Patriots value our security and liberty.  We support immigration when it is done LEGALLY and responsibly.  We do not support, nor will we tolerate ILLEGAL IMMIGRATION which is an illegal invasion on our nation, a theft of our identities and the destruction of our sovereignty.  America is the land of the free and home of the brave, but it will not remain so if we don\'t secure our borders and stop illegal immigration." href="http://americanelephant.com/category/store/illegal-immigration-store/" shape="rect">\n                  Illegal Immigration\n</a>\n              </li>\n              <li class="cat-item cat-item-726">\n                <a title="Current Event T-Shirts from a Right-Wing point of view. Miss Me Yet George W. Bush tees, Bacon is Good For Me, Scott Brown Massachusetts Gear, Balloon Boy parody items and more." href="http://americanelephant.com/category/store/in-the-news-store/" shape="rect">In the News</a>\n              </li>\n              <li class="cat-item cat-item-725">\n                <a \n                title="Tired of the clowns in Washington?  Frankly, there are clowns on both sides of the aisle, but these liberals take it to new heights.  From the House Clown, Speaker of the Clowns to the Clown-in-Chief... send a message to Washington and send the clowns home where they belong.  Its time to close the circus for good." href="http://americanelephant.com/category/store/liberal-clown-store/" shape="rect">\n                  Liberal Clowns\n</a>\n              </li>\n              <li class="cat-item cat-item-735">\n                <a \n                title="Free Markets make Free People.  Support Capitalism and stop the spread of Socialism in America with these great t-shirts from the American Elephant Conservative Apparel Store.  Capitalism is the engine the spreads democracy, pulls people out of poverty, and helps end the forces of tyranny around the world." href="http://americanelephant.com/category/store/capitalism-store/" shape="rect">\n                  Pro Capitalism\n</a>\n              </li>\n              <li class="cat-item cat-item-723">\n                <a \n                title="If you believe a child is NOT a punishment but a gift from God, then we have a t-shirt or bumper sticker for you. Get your Pro-Life gear and spread a positive message that will defend the sanctity of life and end the abhorrent murder of innocent babies.  Life is not a Choice." href="http://americanelephant.com/category/store/pro-life-store/" shape="rect">\n                  Pro Life\n</a>\n              </li>\n              <li class="cat-item cat-item-731">\n                <a \n                title="Clean out the Republican Party from within. Take Back the GOP so we can take back America. Stand up against R.I.N.O.s and the appeasement of the liberal left. We can bring values and integrity back to Washington but we must first get our party back on the RIGHT track." href="http://americanelephant.com/category/store/republican-party-store/" shape="rect">\n                  Republican Party\n</a>\n              </li>\n              <li class="cat-item cat-item-732">\n                <a \n                title="Where proud Right-Wing Extremists buy their gear. Stand up against the Marxist Progressives and defend liberty and American exceptionalism.  Let us return our nation to First Principles and remember what our founders fought for." href="http://americanelephant.com/category/store/right-wing-extremist-store/" shape="rect">\n                  Right Wing Extremists\n</a>\n              </li>\n              <li class="cat-item cat-item-1368">\n                <a title="Romney-Ryan 2012 Campaign Gear. Show your support for Mitt Romney and Paul Ryan this election season and restore America\'s greatness.  Gear up with America\'s Comeback Team." href="http://americanelephant.com/category/store/romney-ryan-store/" shape="rect">\n                  Romney-Ryan 2012 Campaign Store\n                </a>\n              </li>\n              <li class="cat-item cat-item-730">\n                <a \n                title="I Miss Reagan and I know you do to. Ronald Reagan was a great patriot, an excellent President, and a defender of Democracy and Liberty.  Ronald Reagan spread the seeds of Freedom around the world while protecting Americans at home.  Remember what it was like to have a President who was proud of our nation, never bowed to foreign leaders and never wavered in the face of evil.  Click on any Ronald Reagan design category below to see t-shirts, bumper stickers and other gear available for purchase." href="http://americanelephant.com/category/store/ronald-reagan-store/" shape="rect">\n                  Ronald Reagan\n</a>\n              </li>\n              <li class="cat-item cat-item-734">\n                <a \n                title="Since 1791, the Second Amendment has been a pillar of American Democracy, protecting individual liberty from criminals and an over-bearing government. It is thanks to the Second Amendment, that the First Amendment and the rest of our rights are protected. Celebrate your right to bear arms with a pro-gun, 2nd Amendment t-shirt or bumper sticker below.  Click on any design category below to see t-shirts, bumper stickers and other gear available for purchase." href="http://americanelephant.com/category/store/second-amendment-store/" shape="rect">\n                  Second Amendment\n</a>\n              </li>\n              <li class="cat-item cat-item-1084">\n                <a title="All Politics is Local. Get your campaign gear here for State wide races, local contests and local issues." href="http://americanelephant.com/category/store/state-politics-store/" shape="rect">State Politics</a>\n                <ul class="children">\n                  <li class="cat-item cat-item-1334">\n                    <a title="Get your Conservative Gear for Alaska political races at AmericanElephant.com." href="http://americanelephant.com/category/store/state-politics-store/alaska-politics-store/" shape="rect">Alaska Politics</a>\n                    <ul class="children">\n                      <li class="cat-item cat-item-1335">\n                        <a title="Great t-shirts and bumper stickers supporting Joe Miller for United States Senate." href="http://americanelephant.com/category/store/state-politics-store/alaska-politics-store/joe-miller-for-senate-store/" shape="rect">Joe Miller for Senate</a>\n                      </li>\n                    </ul>\n                  </li>\n                  <li class="cat-item cat-item-1091">\n                    <a title="View all posts filed under Arizona Politics" href="http://americanelephant.com/category/store/state-politics-store/arizona-politics-store/" shape="rect">Arizona Politics</a>\n                    <ul class="children">\n                      <li class="cat-item cat-item-1114">\n                        <a title="View all posts filed under Arizona Immigration Law" href="http://americanelephant.com/category/store/state-politics-store/arizona-politics-store/sb1070-tshirt-store/" shape="rect">Arizona Immigration Law</a>\n                      </li>\n                      <li class="cat-item cat-item-1101">\n                        <a title="View all posts filed under Jan Brewer for Governor" href="http://americanelephant.com/category/store/state-politics-store/arizona-politics-store/jan-brewer-campaign-store/" shape="rect">Jan Brewer for Governor</a>\n                      </li>\n                      <li class="cat-item cat-item-1223">\n                        <a \n                        title="Support Pamela Gorman for Congress with these designs on your favorite tee shirts, bumper stickers, hats, campaign buttons or bags. Vote Pamela Gorman 2010. " href="http://americanelephant.com/category/store/state-politics-store/arizona-politics-store/pamela-gorman-campaign-store/" shape="rect">\n                          Pamela Gorman for Congress\n</a>\n                      </li>\n                      <li class="cat-item cat-item-1278">\n                        <a title="Get your Sheriff Joe Arpaio gear here and stand up against illegal immigrants and political opportunists." href="http://americanelephant.com/category/store/state-politics-store/arizona-politics-store/sheriff-joe-arpaio-gear/" shape="rect">Sheriff Joe Arpaio</a>\n                      </li>\n                      <li class="cat-item cat-item-1224">\n                        <a \n                        title="Vote Vernon Parker and elect someone with real integrity and the ability to reform Washington. Support Vernon Parker with a campaign t-shirt or bumper sticker from our Arizona Politics Shop." href="http://americanelephant.com/category/store/state-politics-store/arizona-politics-store/vernon-parker-campaign-store/" shape="rect">\n                          Vernon Parker for Congress\n</a>\n                      </li>\n                    </ul>\n                  </li>\n                  <li class="cat-item cat-item-1228">\n                    <a title="The one place for Arkansas Conservatives to shop for political merchandise and campaign gear." href="http://americanelephant.com/category/store/state-politics-store/arkansas-politics-store/" shape="rect">Arkansas Politics</a>\n                    <ul class="children">\n                      <li class="cat-item cat-item-1231">\n                        <a title="Show your support for John Boozman\'s Senatorial Campaign with these great designs for campaign merchandise." href="http://americanelephant.com/category/store/state-politics-store/arkansas-politics-store/john-boozman-for-senate-store/" shape="rect">John Boozman for Senate</a>\n                      </li>\n                    </ul>\n                  </li>\n                  <li class="cat-item cat-item-1155">\n                    <a title="Shirts, buttons and campaign gear for California political races." href="http://americanelephant.com/category/store/state-politics-store/california-political-shirts/" shape="rect">California Politics</a>\n                    <ul class="children">\n                      <li class="cat-item cat-item-1241">\n                        <a \n                        title="Oppose Nancy Pelosi and her agenda with these Anti Nancy Pelosi designs. Get your Anti Pelosi Bumper Stickers, t-shirts and other gear all in one place." href="http://americanelephant.com/category/store/state-politics-store/california-political-shirts/anti-nancy-pelosi-store/" shape="rect">\n                          Anti Nancy Pelosi\n</a>\n                      </li>\n                      <li class="cat-item cat-item-1219">\n                        <a \n                        title="Help Carly Fiorina defeat Barbara Boxer and start to reform Washington from the inside.  Carly Fiorina is a strong business woman and accomplished leader who will bring dignity, integrity and responsibility back to California\'s Senate seat.  Show your support and get your Carly 2010 campaign gear today." href="http://americanelephant.com/category/store/state-politics-store/california-political-shirts/carly-fiorina-for-senate-store/" shape="rect">\n                          Carly Fiorina for Senate\n</a>\n                      </li>\n                      <li class="cat-item cat-item-1218">\n                        <a \n                        title="Display your support for Forest Baker\'s congressional campaign and help defeat Pete Stark.  Get your Forest Baker bumper stickers, hat, buttons and t-shirts today." href="http://americanelephant.com/category/store/state-politics-store/california-political-shirts/forest-baker-for-congress-store/" shape="rect">\n                          Forest Baker for Congress\n</a>\n                      </li>\n                      <li class="cat-item cat-item-1217">\n                        <a \n                        title="Show your support for Meg Whitman\'s gubernatorial campaign with these designs that support her candidacy.  California needs Meg Whitman, if for no other reason than she\'s not Jerry Brown." href="http://americanelephant.com/category/store/state-politics-store/california-political-shirts/meg-whitman-for-governor-campaign-store/" shape="rect">\n                          Meg Whitman for Governor\n</a>\n                      </li>\n                      <li class="cat-item cat-item-1163">\n                        <a title="Get your Star Parker for Congress campaign gear here." href="http://americanelephant.com/category/store/state-politics-store/california-political-shirts/star-parker-for-congress-store/" shape="rect">Star Parker for Congress</a>\n                      </li>\n                    </ul>\n                  </li>\n                  <li class="cat-item cat-item-1276">\n                    <a title="All the gear you need to show your support for Colorado Conservative races and issues." href="http://americanelephant.com/category/store/state-politics-store/colorado-politics-store/" shape="rect">Colorado Politics</a>\n                    <ul class="children">\n                      <li class="cat-item cat-item-1277">\n                        <a title="Ken Buck for Senate campaign gear. Show your support for Conservative Ken Buck and his Senatorial Campaign." href="http://americanelephant.com/category/store/state-politics-store/colorado-politics-store/ken-buck-for-senate/" shape="rect">Ken Buck for Senate</a>\n                      </li>\n                    </ul>\n                  </li>\n                  <li class="cat-item cat-item-1232">\n                    <a title="Get everything you need for political races in Connecticut from the Connecticut Politics Store at American Elephant." href="http://americanelephant.com/category/store/state-politics-store/connecticut-political-merchandise/" shape="rect">Connecticut Politics</a>\n                    <ul class="children">\n                      <li class="cat-item cat-item-1233">\n                        <a title="Help spread the word and elect Peter Schiff to the United States Senate with a t-shirt, bumper sticker or campaign button." href="http://americanelephant.com/category/store/state-politics-store/connecticut-political-merchandise/peter-schiff-senate/" shape="rect">\n                          Peter Schiff for Senate\n                        </a>\n                      </li>\n                    </ul>\n                  </li>\n                  <li class="cat-item cat-item-1348">\n                    <a title="All of your campaign gear for Delaware political races for Conservatives, Republicans and Tea Party patriots." href="http://americanelephant.com/category/store/state-politics-store/delaware-politics-store/" shape="rect">Delaware Politics</a>\n                    <ul class="children">\n                      <li class="cat-item cat-item-1349">\n                        <a \n                        title="Show your support for Christine O\'Donnell with a custom bumper sticker, t-shirt, button or hat from American Elephant.  Just choose your design category to find the perfect Christine O\'Donnell for Senate gear." href="http://americanelephant.com/category/store/state-politics-store/delaware-politics-store/christine-odonnell-store/" shape="rect">\n                          Christine O\'Donnell for Senate\n</a>\n                      </li>\n                    </ul>\n                  </li>\n                  <li class="cat-item cat-item-1090">\n                    <a title="View all posts filed under Florida Politics" href="http://americanelephant.com/category/store/state-politics-store/florida-politics-store/" shape="rect">Florida Politics</a>\n                    <ul class="children">\n                      <li class="cat-item cat-item-1164">\n                        <a title="Go West! Get your Allen West for Congress shirts, buttons, bumper stickers and other items to show your support for Allen West." href="http://americanelephant.com/category/store/state-politics-store/florida-politics-store/allen-west-for-congress-store/" shape="rect">\n                          Allen West for Congress\n                        </a>\n                      </li>\n                      <li class="cat-item cat-item-1100">\n                        <a title="View all posts filed under Marco Rubio for Senate" href="http://americanelephant.com/category/store/state-politics-store/florida-politics-store/marco-rubio-campaign-store/" shape="rect">Marco Rubio for Senate</a>\n                      </li>\n                      <li class="cat-item cat-item-1339">\n                        <a title="Show your support for Rick Scott\'s campaign for Governor of Florida with these Rick Scott for Governor campaign designs." href="http://americanelephant.com/category/store/state-politics-store/florida-politics-store/rick-scott-for-governor-store/" shape="rect">Rick Scott for Governor</a>\n                      </li>\n                    </ul>\n                  </li>\n                  <li class="cat-item cat-item-1156">\n                    <a title="T-Shirts, bumper stickers, hats, buttons and other gear for Illinois political races." href="http://americanelephant.com/category/store/state-politics-store/illinois-political-shirts/" shape="rect">Illinois Politics</a>\n                    <ul class="children">\n                      <li class="cat-item cat-item-1165">\n                        <a \n                        title="Show your support for Cedra Crenshaw with campaign buttons, shirts and other gear from our Cedra Crenshaw for Illinois State Senate Shop." href="http://americanelephant.com/category/store/state-politics-store/illinois-political-shirts/cedra-crenshaw-illinois-state-senate-store/" shape="rect">\n                          Cedra Crenshaw Illinois State Senate\n</a>\n                      </li>\n                    </ul>\n                  </li>\n                  <li class="cat-item cat-item-1157">\n                    <a title="Get your gear for Kentucky political races all in one place." href="http://americanelephant.com/category/store/state-politics-store/kentucky-political-tees/" shape="rect">Kentucky Politics</a>\n                    <ul class="children">\n                      <li class="cat-item cat-item-1166">\n                        <a \n                        title="Show your support for Rand Paul with Rand Paul shirts, buttons, bumper stickers and hat.  Libertarians, Conservatives, and Tea Party Patriots agree that Rand Paul is the right choice for U.S. Senate." href="http://americanelephant.com/category/store/state-politics-store/kentucky-political-tees/rand-paul-for-senate-store/" shape="rect">\n                          Rand Paul for Senate\n</a>\n                      </li>\n                    </ul>\n                  </li>\n                  <li class="cat-item cat-item-1158">\n                    <a \n                    title="All the gear you need for Minnesota political races all in one shop.  Get your tees, bumper stickers, buttons, bags and hats for all the important Minnesota issues and campaigns." href="http://americanelephant.com/category/store/state-politics-store/minnesota-politics-store/" shape="rect">\n                      Minnesota Politics\n</a>\n                    <ul class="children">\n                      <li class="cat-item cat-item-1167">\n                        <a \n                        title="Michele Bachmann is a great American patriot who works hard on behalf of the people of Minnesota, the citizens of America and our liberty.  Show your support for Congresswoman Michele Bachmann with these shirts, bumper stickers, buttons and hats." href="http://americanelephant.com/category/store/state-politics-store/minnesota-politics-store/michele-bachmann-for-congress-store/" shape="rect">\n                          Michele Bachmann for Congress\n</a>\n                      </li>\n                    </ul>\n                  </li>\n                  <li class="cat-item cat-item-1159">\n                    <a title="Shirts, buttons, bumper stickers and other campaign gear for Missouri political races." href="http://americanelephant.com/category/store/state-politics-store/missouri-political-tees/" shape="rect">Missouri Politics</a>\n                    <ul class="children">\n                      <li class="cat-item cat-item-1168">\n                        <a title="Support Roy Blunt for Senate with campaign buttons, bumper stickers, t-shirts and hats from American Elephant\'s Roy Blunt for Senate Store." href="http://americanelephant.com/category/store/state-politics-store/missouri-political-tees/roy-blunt-for-senate-store/" shape="rect">\n                          Roy Blunt for Senate\n                        </a>\n                      </li>\n                    </ul>\n                  </li>\n                  <li class="cat-item cat-item-1089">\n                    <a title="View all posts filed under Nevada Politics" href="http://americanelephant.com/category/store/state-politics-store/nevada-politics-store/" shape="rect">Nevada Politics</a>\n                    <ul class="children">\n                      <li class="cat-item cat-item-1169">\n                        <a title="Harry Reid is an embarrassment to Nevada and a disgrace to the United States Senate. It\'s time to Fire Harry Reid." href="http://americanelephant.com/category/store/state-politics-store/nevada-politics-store/fire-harry-reid-shirts-and-stickers/" shape="rect">Fire Harry Reid</a>\n                      </li>\n                      <li class="cat-item cat-item-1099">\n                        <a title="View all posts filed under Sharron Angle for Senate" href="http://americanelephant.com/category/store/state-politics-store/nevada-politics-store/sharron-angle-campaign-store/" shape="rect">Sharron Angle for Senate</a>\n                      </li>\n                    </ul>\n                  </li>\n                  <li class="cat-item cat-item-1088">\n                    <a title="View all posts filed under New Jersey Politics" href="http://americanelephant.com/category/store/state-politics-store/new-jersey-politics-store/" shape="rect">New Jersey Politics</a>\n                    <ul class="children">\n                      <li class="cat-item cat-item-1098">\n                        <a title="View all posts filed under Chris Christie" href="http://americanelephant.com/category/store/state-politics-store/new-jersey-politics-store/chris-christie-store/" shape="rect">Chris Christie</a>\n                      </li>\n                    </ul>\n                  </li>\n                  <li class="cat-item cat-item-1353">\n                    <a title="Get all your gear for Conservative New York Political Campaigns.  From State races, local issues and anything in New York Politics.  Get your New York political merchandise here." href="http://americanelephant.com/category/store/state-politics-store/new-york-politics-store/" shape="rect">\n                      New York Politics\n                    </a>\n                    <ul class="children">\n                      <li class="cat-item cat-item-1354">\n                        <a \n                        title="Carl Paladino for Governor of New York campaign merchandise, bumper stickers and political gear.  Just pick your Paladino for Governor design and product to show your support." href="http://americanelephant.com/category/store/state-politics-store/new-york-politics-store/carl-paladino-for-governor/" shape="rect">\n                          Carl Paladino for Governor\n</a>\n                      </li>\n                    </ul>\n                  </li>\n                  <li class="cat-item cat-item-1087">\n                    <a title="View all posts filed under North Carolina Politics" href="http://americanelephant.com/category/store/state-politics-store/north-carolina-politics-store/" shape="rect">North Carolina Politics</a>\n                    <ul class="children">\n                      <li class="cat-item cat-item-1097">\n                        <a title="View all posts filed under Bill Randall for Congress" href="http://americanelephant.com/category/store/state-politics-store/north-carolina-politics-store/bill-randall-campaign-store/" shape="rect">Bill Randall for Congress</a>\n                      </li>\n                      <li class="cat-item cat-item-1096">\n                        <a title="View all posts filed under BJ Lawson for Congress" href="http://americanelephant.com/category/store/state-politics-store/north-carolina-politics-store/bj-lawson-campaign-store/" shape="rect">BJ Lawson for Congress</a>\n                      </li>\n                      <li class="cat-item cat-item-1095">\n                        <a title="View all posts filed under Renee Ellmers for Congress" href="http://americanelephant.com/category/store/state-politics-store/north-carolina-politics-store/renee-ellmers-campaign-store/" shape="rect">Renee Ellmers for Congress</a>\n                      </li>\n                      <li class="cat-item cat-item-1094">\n                        <a title="View all posts filed under Richard Burr for Senate" href="http://americanelephant.com/category/store/state-politics-store/north-carolina-politics-store/richard-burr-campaign-store/" shape="rect">Richard Burr for Senate</a>\n                      </li>\n                    </ul>\n                  </li>\n                  <li class="cat-item cat-item-1086">\n                    <a title="View all posts filed under Pennsylvania Politics" href="http://americanelephant.com/category/store/state-politics-store/pennsylvania-politics-store/" shape="rect">Pennsylvania Politics</a>\n                    <ul class="children">\n                      <li class="cat-item cat-item-1093">\n                        <a title="View all posts filed under Pat Toomey for Senate" href="http://americanelephant.com/category/store/state-politics-store/pennsylvania-politics-store/pat-toomey-campaign-store/" shape="rect">Pat Toomey for Senate</a>\n                      </li>\n                    </ul>\n                  </li>\n                  <li class="cat-item cat-item-1085">\n                    <a title="View all posts filed under South Carolina Politics" href="http://americanelephant.com/category/store/state-politics-store/south-carolina-politics-store/" shape="rect">South Carolina Politics</a>\n                    <ul class="children">\n                      <li class="cat-item cat-item-1171">\n                        <a title="Support Conservative Jim DeMint with a t-shirt, bumper sticker, button, bag or hat from American Elephant\'s Jim DeMint for Senate Store." href="http://americanelephant.com/category/store/state-politics-store/south-carolina-politics-store/jim-demint-for-senate-store/" shape="rect">\n                          Jim DeMint for Senate\n                        </a>\n                      </li>\n                      <li class="cat-item cat-item-1092">\n                        <a title="View all posts filed under Nikki Haley for Governor" href="http://americanelephant.com/category/store/state-politics-store/south-carolina-politics-store/nikki-haley-campaign-store/" shape="rect">Nikki Haley for Governor</a>\n                      </li>\n                      <li class="cat-item cat-item-1170">\n                        <a title="Show your support for Tim Scott with a t-shirt, bumper sticker, button or hat from our Tim Scott for Congress store." href="http://americanelephant.com/category/store/state-politics-store/south-carolina-politics-store/tim-scott-for-congress-shop/" shape="rect">Tim Scott for Congress</a>\n                      </li>\n                    </ul>\n                  </li>\n                  <li class="cat-item cat-item-1160">\n                    <a title="Get your gear for conservative South Dakota political campaigns all in one place." href="http://americanelephant.com/category/store/state-politics-store/south-dakota-politics-shop/" shape="rect">South Dakota Politics</a>\n                    <ul class="children">\n                      <li class="cat-item cat-item-1172">\n                        <a \n                        title="South Dakota Senator John Thune is a great Conservative leader who needs your support. Get your John Thune for Senate shirts, bumper stickers and hats here." href="http://americanelephant.com/category/store/state-politics-store/south-dakota-politics-shop/john-thune-for-senate-store/" shape="rect">\n                          John Thune for Senate\n</a>\n                      </li>\n                    </ul>\n                  </li>\n                  <li class="cat-item cat-item-1161">\n                    <a title="T-Shirts, Bumper Stickers, Buttons, Hats and Campaign Gear for Tennessee political races. Conservatives from the Volunteer State buy their political gear here." href="http://americanelephant.com/category/store/state-politics-store/tennessee-politics-store/" shape="rect">\n                      Tennessee Politics\n                    </a>\n                    <ul class="children">\n                      <li class="cat-item cat-item-1173">\n                        <a title="Help elect CeCe Heil to the United States Congress with a t-shirt, button, bumper sticker, bag or hat." href="http://americanelephant.com/category/store/state-politics-store/tennessee-politics-store/cece-heil-for-congress/" shape="rect">CeCe Heil for Congress</a>\n                      </li>\n                      <li class="cat-item cat-item-1174">\n                        <a \n                        title="Marsha Blackburn is a great leader and strong Conservative woman who works hard for the people of Tennessee and to defend the United States Constitution.  Show yoour support for Marsha Blackburn with a shirt, button, bumper sticker or hat." href="http://americanelephant.com/category/store/state-politics-store/tennessee-politics-store/marsha-blackburn-for-congress-store/" shape="rect">\n                          Marsha Blackburn for Congress\n</a>\n                      </li>\n                    </ul>\n                  </li>\n                  <li class="cat-item cat-item-1195">\n                    <a title="View all posts filed under Texas Politics" href="http://americanelephant.com/category/store/state-politics-store/texas-politics-store/" shape="rect">Texas Politics</a>\n                    <ul class="children">\n                      <li class="cat-item cat-item-1196">\n                        <a title="View all posts filed under Rick Perry Governor" href="http://americanelephant.com/category/store/state-politics-store/texas-politics-store/governor-rick-perry-store/" shape="rect">Rick Perry Governor</a>\n                      </li>\n                      <li class="cat-item cat-item-1238">\n                        <a \n                        title="Elect Stephen Borden for Congress to defend American Values and Liberty.  Stephen Borden is a candidate for Congress from Texas\' 30th Congressional District and deserves your support.  Show your support with pride with one of this great Stephen Border for Congress designs." href="http://americanelephant.com/category/store/state-politics-store/texas-politics-store/stephen-borden-campaign-store/" shape="rect">\n                          Stephen Borden for Congress\n</a>\n                      </li>\n                    </ul>\n                  </li>\n                  <li class="cat-item cat-item-1189">\n                    <a title="Get all your gear for Virginia political races in American Elephant\'s Virginia Politics Store." href="http://americanelephant.com/category/store/state-politics-store/virginia-politics-store/" shape="rect">Virginia Politics</a>\n                    <ul class="children">\n                      <li class="cat-item cat-item-1191">\n                        <a title="Eric Cantor campaign items. Show your support with a customizable Eric Cantor shirt, bumper sticker, button or hat." href="http://americanelephant.com/category/store/state-politics-store/virginia-politics-store/eric-cantor-campaign-store/" shape="rect">Eric Cantor for Congress</a>\n                      </li>\n                      <li class="cat-item cat-item-1190">\n                        <a title="Scott Rigell Campaign Gear. Get your Scott Rigell bumper stickers, buttons, hats, mugs and tees all in one place." href="http://americanelephant.com/category/store/state-politics-store/virginia-politics-store/scott-rigell-campaign-shop/" shape="rect">Scott Rigell for Congress</a>\n                      </li>\n                    </ul>\n                  </li>\n                  <li class="cat-item cat-item-1162">\n                    <a title="Conservatives and Tea Party Patriots from Wisconsin buy their political tees, bumper stickers and other campaign gear at American Elephant\'s Wisconsin Politics Shop." href="http://americanelephant.com/category/store/state-politics-store/wisconsin-political-tees/" shape="rect">\n                      Wisconsin Politics\n                    </a>\n                    <ul class="children">\n                      <li class="cat-item cat-item-1236">\n                        <a title="Show your support for Paul Ryan and his efforts to restore fiscal integrity and American prosperity with this Paul Ryan campaign designs." href="http://americanelephant.com/category/store/state-politics-store/wisconsin-political-tees/paul-ryan-store/" shape="rect">\n                          Paul Ryan for Congress\n                        </a>\n                      </li>\n                      <li class="cat-item cat-item-1185">\n                        <a title="Show your support for Ron Johnson\'s Senatorial Campaign with these popular Ron Johnson for Senate designs." href="http://americanelephant.com/category/store/state-politics-store/wisconsin-political-tees/ron-johnson-campaign-gear/" shape="rect">Ron Johnson for Senate</a>\n                      </li>\n                      <li class="cat-item cat-item-1175">\n                        <a \n                        title="Scott Walker is a Conservative who has proven he has the fiscal discipline and leadership necessary to lead the state of Wisconsin.  Get your Scott Walker t-shirt or bumper sticker and show your support." href="http://americanelephant.com/category/store/state-politics-store/wisconsin-political-tees/scott-walker-for-governor-store/" shape="rect">\n                          Scott Walker for Governor\n</a>\n                      </li>\n                    </ul>\n                  </li>\n                </ul>\n              </li>\n              <li class="cat-item cat-item-737">\n                <a \n                title="Israel is our greatest ally and the only democracy in the Middle East. Support Israel and the Jewish people. Stand with them against the terrorist forces that wish to destroy their nation and way of life." href="http://americanelephant.com/category/store/support-israel-store/" shape="rect">\n                  Support Israel\n</a>\n              </li>\n              <li class="cat-item cat-item-733">\n                <a \n                title="Give Me Liberty, Don\'t Give Me Debt. The United States Tax Code and the IRS are out of hand. So are the bailouts. Repeal the punitive tax code that is rife with special deals and corrupted by special interests. Replace it with a Fair Tax or a Flat Tax and a health dose of Personal Responsibility and stop wasteful Washington spending." href="http://americanelephant.com/category/store/taxes-and-bailout-store/" shape="rect">\n                  Taxes and Bailouts\n</a>\n              </li>\n              <li class="cat-item cat-item-721">\n                <a \n                title="Are you Taxed Enough Already? Are you fed up with out of control government spending and the assault on your liberty? Our t-shirts have been seen at Tea Party rallies across the nation and even on Fox News. Now you can get your own Tea Party shirt from American Elephant and take your stand in defense of liberty.  Click on the design category below to see t-shirts, bumper stickers and other gear available for purchase." href="http://americanelephant.com/category/store/tea-party-store/" shape="rect">\n                  TEA Party\n</a>\n              </li>\n              <li class="cat-item cat-item-714">\n                <a \n                title="Its time to reclaim America and return to our First Principles as the Founders intended. Celebrate the legacy of Great American Patriots like George Washington, Benjamin Franklin, Sam Adams and Thomas Jefferson.  Restore liberty and return to America\'s greatness." href="http://americanelephant.com/category/store/founders-store/" shape="rect">\n                  The Founders\n</a>\n                <ul class="children">\n                  <li class="cat-item cat-item-740">\n                    <a title="View all posts filed under Benjamin Franklin" href="http://americanelephant.com/category/store/founders-store/benjamin-franklin/" shape="rect">Benjamin Franklin</a>\n                  </li>\n                  <li class="cat-item cat-item-739">\n                    <a title="View all posts filed under George Washington" href="http://americanelephant.com/category/store/founders-store/george-washington/" shape="rect">George Washington</a>\n                  </li>\n                  <li class="cat-item cat-item-741">\n                    <a title="View all posts filed under Sam Adams" href="http://americanelephant.com/category/store/founders-store/sam-adams/" shape="rect">Sam Adams</a>\n                  </li>\n                  <li class="cat-item cat-item-742">\n                    <a title="View all posts filed under Thomas Jefferson" href="http://americanelephant.com/category/store/founders-store/thomas-jefferson/" shape="rect">Thomas Jefferson</a>\n                  </li>\n                  <li class="cat-item cat-item-743">\n                    <a title="View all posts filed under Thomas Paine" href="http://americanelephant.com/category/store/founders-store/thomas-paine/" shape="rect">Thomas Paine</a>\n                  </li>\n                </ul>\n              </li>\n            </ul>\n          </li>\n        </ul>\n        <div id="feed">\n          <ul>\n            <li class="feed-url">\n              <a title="Subscribe to the feed" href="http://americanelephant.com/feed/" shape="rect">RSS</a>\n            </li>\n            <li class="facebook-url">\n              <a title="American Elephant on Facebook" href="http://www.facebook.com/TheAmericanElephant" shape="rect">Facebook</a>\n            </li>\n            <li class="twitter-url">\n              <a title="American Elephant on Twitter" href="http://www.twitter.com/AmericaElephant" shape="rect">Twitter</a>\n            </li>\n          </ul>\n        </div>\n      </div>\n      <div id="container">\n        <div id="content">\n          <div class="hfeed content">\n            <div class="breadcrumb breadcrumbs">\n              <div class="breadcrumb-trail">\n                <span class="breadcrumb-title">Browse:</span>\n                <a rel="home" title="American Elephant" href="http://americanelephant.com" class="trail-begin" shape="rect">Home</a>\n                <span class="sep">/</span>\n                <a rel="tag" href="http://americanelephant.com/category/blog/commentary/" shape="rect">Commentary</a>\n                <span class="sep">/</span>\n                How a Lack of Campaigning Helped Alvin Greene\n              </div>\n            </div>\n            <div id="post-7204" class="hentry post post-1 odd author-AmericanElephant category-commentary post_tag-al-green post_tag-alvin-greene post_tag-campaigning post_tag-democratic-primary post_tag-election post_tag-james-clyburn post_tag-sc post_tag-south-carolina post_tag-south-carolina-primary">\n              <h1 class="post-title single-title entry-title">\n                <a rel="bookmark" title="How a Lack of Campaigning Helped Alvin Greene" href="http://americanelephant.com/blog/commentary/lack-campaigning-elected-alvin-greene/" shape="rect">How a Lack of Campaigning Helped Alvin Greene</a>\n              </h1>\n              <p class="byline">\n                <span class="byline-prep byline-prep-author">By</span>\n                <span class="author vcard">\n                  <a title="AmericanElephant" href="http://americanelephant.com/author/AmericanElephant/" class="url fn n" shape="rect">AmericanElephant</a>\n                </span>\n                <span class="byline-prep byline-prep-published">on</span>\n                <abbr title="Tuesday, June 15th, 2010, 3:22 pm" class="published">June 15, 2010</abbr>\n              </p>\n              <div class="entry-content">\n                <p>\n                  I\xe2\x80\x99ve been saying it for at least\n                  <a href="http://twitter.com/AmericaElephant/statuses/15950023948" shape="rect">four days</a>\n                  , there is no mystery as to how Alvine Greene won the primary\xe2\x80\xa6 his name is AL GREEN.\n                  <a href="http://hotair.com/archives/2010/06/14/south-carolina-voter-i-voted-for-alvin-greene-because-his-name-reminded-me-of-al-green/" shape="rect"> HotAir</a>\n                  posted a blurb about this last night and a local news channel did a story, so maybe this theory will get some traction and put this ridiculous circus to rest.\n                </p>\n                <p style="text-align: left;">\n                  Had Alvin Greene campaigned, people would have known who he was, heard him speak, and determined he definitely WAS NOT\n                  <a href="http://www.algreenmusic.com/" shape="rect">the legendary Al Green</a>\n                  .\xc3\x82\xc2\xa0 But he didn\xe2\x80\x99t have a website.\xc3\x82\xc2\xa0 He didn\xe2\x80\x99t run any commercials.\xc3\x82\xc2\xa0 He didn\xe2\x80\x99t send any direct mailers.\xc3\x82\xc2\xa0 He didn\xe2\x80\x99t do any radio shows.\xc3\x82\xc2\xa0 He didn\xe2\x80\x99t hold any rallies.\xc3\x82\xc2\xa0 Other than some supposed travel around the state, he didn\xe2\x80\x99t do any campaigning at all.\xc3\x82\xc2\xa0 Voters didn\xe2\x80\x99t know who he was, but they were familiar with the name\xe2\x80\xa6 and that is all that was needed to generate some votes.\n                </p>\n                <p style="text-align: left;"> </p>\n                <p style="text-align: center;">\n                  <object codebase="http://download.macromedia.com/pub/shockwave/cabs/flash/swflash.cab#version=6,0,40,0" height="295" width="429" classid="clsid:d27cdb6e-ae6d-11cf-96b8-444553540000">\n                    <param value="true" name="allowFullScreen" valuetype="data"></param>\n                    <param value="http://vp.mgnetwork.net/viewer.swf?u=178d906ac955102da6fd001ec92a4a0d&amp;z=SAV" name="src" valuetype="data"></param>\n                    <param value="true" name="allowfullscreen" valuetype="data"></param>\n                    <embed allowfullscreen="true" src="http://vp.mgnetwork.net/viewer.swf?u=178d906ac955102da6fd001ec92a4a0d&amp;z=SAV" height="295" width="429" type="application/x-shockwave-flash"></embed>\n                  </object>\n                </p>\n                <p style="text-align: left;"> </p>\n                <p style="text-align: left;">\n                  His opponent in the Democratic primary didn\xe2\x80\x99t do much campaigning either, and if he did, it clearly wasn\xe2\x80\x99t effective.\xc3\x82\xc2\xa0 So voters went into the voting booth and had a choice.\xc3\x82\xc2\xa0 Did they vote for the first guy on the ballot whose name sounded like that singer with the soulful voice, or did they vote for the other guy who they may or may not have heard of.\xc3\x82\xc2\xa0 Overwhelmingly, voters picked the guy with the familiar name and the sweet voice.\xc3\x82\xc2\xa0 Why is anyone surprised?\n                </p>\n                <p style="text-align: left;">\n                  Seriously.\xc3\x82\xc2\xa0 If my name was\n                  <a href="http://en.wikipedia.org/wiki/Richard_Petty" shape="rect">Richard Petty</a>\n                  , I could win a campaign in North Carolina by 90% of the vote, as long as I DIDN\xe2\x80\x99T CAMPAIGN.\xc3\x82\xc2\xa0 Every time I campaigned, I would make myself known and my poll numbers would certainly drop because people would come to understand that I was not THAT Richard Petty (aka The King).\xc3\x82\xc2\xa0 By not campaigning, I would only help my case.\n                </p>\n                <p style="text-align: left;">\n                  Democrats in South Carolina should be ashamed of themselves.\xc3\x82\xc2\xa0 James Clyburn, without concrete evidence of some crime, should keep his mouth shut.\xc3\x82\xc2\xa0 Accusing people of crimes without any factual basis is unethical and potentially criminal itself.\xc3\x82\xc2\xa0 Not that ethics has ever stood in the way of Clyburn before.\n                </p>\n                <p style="text-align: left;">\n                  There is another factor here which Clyburn and other leftists don\xe2\x80\x99t want to admit.\xc3\x82\xc2\xa0 South Carolina has an open primary.\xc3\x82\xc2\xa0 That means political opponents (in this case Republicans) have every right to come in and vote in the opposing party\xe2\x80\x99s primary.\xc3\x82\xc2\xa0 So Republicans could legally vote for any candidate in South Carolina\xe2\x80\x99s Democratic Primary, including the one they thought was the worst candidate.\xc3\x82\xc2\xa0 Did it happen?\xc3\x82\xc2\xa0 I\xe2\x80\x99m sure it did to some extent.\xc3\x82\xc2\xa0 But if that made the difference in the vote it only goes to prove that Republicans may have actually been paying attention, while Democrats certainly were not.\xc3\x82\xc2\xa0 The open primary isn\xe2\x80\x99t Mr. Greene\xe2\x80\x99s fault or some Republican conspiracy, in fact Republicans tried to stop open primaries EARLIER THIS MONTH.\xc3\x82\xc2\xa0 At that time the\xc3\x82\xc2\xa0\n                  <a href="http://www.greenvilleonline.com/article/20100603/NEWS/306030015/Republicans-challenge-state-s-open-primary-law" shape="rect">Chairwoman of the South Carolina Democratic Party didn\xe2\x80\x99t have any complaint</a>\n                  s.\n                </p>\n                <blockquote>\n                  <p style="text-align: left;">Carol Fowler, chairwoman of the state Democratic Party, said her party welcomes diversity and \xc3\xa2\xe2\x82\xac\xc5\x93as many people as care to come.\xc3\xa2\xe2\x82\xac\xef\xbf\xbd</p>\n                </blockquote>\n                <p>\n                  <em>Maybe Jim Clyburn should look in her direction first if he wants someone to blame.</em>\n                </p>\n                <p style="text-align: left;">\n                  I don\xe2\x80\x99t know where Alvin Greene got the money to file his campaign.\xc3\x82\xc2\xa0 But it doesn\xe2\x80\x99t matter.\xc3\x82\xc2\xa0 Alvin Greene has a very famous name.\xc3\x82\xc2\xa0 He also might have benefited from the Open Primary law in South Carolina.\xc3\x82\xc2\xa0 Those two factors, coupled with his place on the ballot and the fact that he didn\xe2\x80\x99t campaign actually led him to victory.\xc3\x82\xc2\xa0 There is no mystery here.\n                </p>\n                <p style="text-align: left;">The only thing suspicious is that Democrats are now trying to destroy this man after the fact.\xc3\x82\xc2\xa0 If they are so worried about who will lose to Jim DeMint in November, maybe they should have done something about it before the primary.</p>\n                <p style="text-align: left;">\n                  As for the real Al Green, he has a message for the Democrats this November.\xc3\x82\xc2\xa0\n                  <a href="http://www.youtube.com/watch?v=h8NWqO85P6Y" shape="rect">Get Ready</a>\n                  .\n                </p>\n                <p style="text-align: left;"> </p>\n                <p style="text-align: center;">\n                  <object codebase="http://download.macromedia.com/pub/shockwave/cabs/flash/swflash.cab#version=6,0,40,0" height="385" width="480" classid="clsid:d27cdb6e-ae6d-11cf-96b8-444553540000">\n                    <param value="true" name="allowFullScreen" valuetype="data"></param>\n                    <param value="always" name="allowscriptaccess" valuetype="data"></param>\n                    <param value="http://www.youtube.com/v/h8NWqO85P6Y&amp;hl=en_US&amp;fs=1&amp;" name="src" valuetype="data"></param>\n                    <param value="true" name="allowfullscreen" valuetype="data"></param>\n                    <embed allowfullscreen="true" allowscriptaccess="always" src="http://www.youtube.com/v/h8NWqO85P6Y&amp;hl=en_US&amp;fs=1&amp;" height="385" width="480" type="application/x-shockwave-flash"></embed>\n                  </object>\n                </p>\n                <div class="addtoany_share_save_container">\n                  <div id="wpa2a_1" class="a2a_kit a2a_target addtoany_list">\n                    <a href="http://www.addtoany.com/share_save" class="a2a_dd addtoany_share_save" shape="rect">\n                      <img alt="Share" height="16" width="171" src="http://americanelephant.com/wp-content/plugins/add-to-any/share_save_171_16.png"></img>\n                    </a>\n                  </div>\n                  <script type="text/javascript">&lt;!-- wpa2a.script_load(); //--&gt;</script>\n                </div>\n              </div>\n              <p class="entry-meta post-meta-data">\n                <span class="category categories">\n                  <span class="meta-prep meta-prep-categories">Posted in</span>\n                  <a rel="tag" href="http://americanelephant.com/category/blog/commentary/" shape="rect">Commentary</a>\n                </span>\n                <span class="post_tag tags">\n                  <span class="meta-sep meta-sep-tags separator">|</span>\n                  <span class="meta-prep meta-prep-tags">Tagged</span>\n                  <a rel="tag" href="http://americanelephant.com/tag/al-green/" shape="rect">al green</a>\n                  ,\n                  <a rel="tag" href="http://americanelephant.com/tag/alvin-greene/" shape="rect">alvin greene</a>\n                  ,\n                  <a rel="tag" href="http://americanelephant.com/tag/campaigning/" shape="rect">campaigning</a>\n                  ,\n                  <a rel="tag" href="http://americanelephant.com/tag/democratic-primary/" shape="rect">democratic primary</a>\n                  ,\n                  <a rel="tag" href="http://americanelephant.com/tag/election/" shape="rect">election</a>\n                  ,\n                  <a rel="tag" href="http://americanelephant.com/tag/james-clyburn/" shape="rect">james clyburn</a>\n                  ,\n                  <a rel="tag" href="http://americanelephant.com/tag/sc/" shape="rect">sc</a>\n                  ,\n                  <a rel="tag" href="http://americanelephant.com/tag/south-carolina/" shape="rect">south carolina</a>\n                  ,\n                  <a rel="tag" href="http://americanelephant.com/tag/south-carolina-primary/" shape="rect">south carolina primary</a>\n                </span>\n              </p>\n            </div>\n            <div class="series series-how-a-lack-of-campaigning-helped-alvin-greene-in-south-carolinas-democratic-primary">\n              <h4 class="series-title">Articles in this series</h4>\n              <ul>\n                <li class="current-post">How a Lack of Campaigning Helped Alvin Greene</li>\n              </ul>\n            </div>\n            <div id="comments-template">\n              <p class="comments-closed"> Comments are closed. </p>\n            </div>\n            <div class="navigation-links">\n              <span class="previous">\n                <a rel="prev" href="http://americanelephant.com/blog/north-carolina/etheridge-responds-viral-assault-video/" shape="rect">\xc2\xab Previous</a>\n              </span>\n              <span class="next">\n                <a rel="next" href="http://americanelephant.com/blog/north-carolina/rally-agains-bob-etheridge-june-16-2010/" shape="rect">Next \xc2\xbb</a>\n              </span>\n            </div>\n          </div>\n        </div>\n        <p style="text-align: center;">\n          <a title="Pro American, Pro Romney, Anti Obama Merchandise" href="http://www.zazzle.com/americanelephant/gifts?cg=196346812218085359&amp;?rf=238541069576828868" shape="rect">\n            <img style="border: 0; padding-left: 14px; width: 300px; height: 326px;" title="Pro American, Pro Romney, Anti Obama Merchandise" alt="Pro American, Pro Romney, Anti Obama Merchandise" src="http://americanelephant.com/wp-content/uploads/2012/08/AmericasComebackTeam.png"></img>\n          </a>\n        </p>\n        <p style="text-align: right; padding-right: 20px">\n          <a title="American Elephant Store - Conservative T-Shirts and Gear" href="http://www.zazzle.com/americanelephant?rf=238541069576828868" shape="rect">\n            <img style="border: 0; padding-left: 10px;" title="American Elephant Store - Conservative T-Shirts and Gear" alt="Buy Conservative and Tea Party T-shirts" src="http://americanelephant.com/images/aeshop-link.png"></img>\n          </a>\n        </p>\n        <div id="widget-container">\n          <div id="primary" class="sidebar aside">\n            <div id="tab-set-1" class="widget tabs widget-tabs">\n              <div class="widget-inside">\n                <ul class="tabs">\n                  <li class="t1 t">\n                    <a title="Tags" class="t1" shape="rect">Tags</a>\n                  </li>\n                  <li class="t2 t">\n                    <a title="Blogroll" class="t2" shape="rect">Blogroll</a>\n                  </li>\n                  <li class="t3 t">\n                    <a title="Resources" class="t3" shape="rect">Resources</a>\n                  </li>\n                  <li class="t4 t">\n                    <a title="NC" class="t4" shape="rect">NC</a>\n                  </li>\n                </ul>\n                <div class="tab-content t1">\n                  <p class="term-cloud post_tag-cloud">\n                    <a style="font-size: 12.4959349593pt;" title="110 topics" href="http://americanelephant.com/tag/2008-election/" class="tag-link-40" shape="rect">2008 election</a>\n                    <a style="font-size: 8.22764227642pt;" title="19 topics" href="http://americanelephant.com/tag/abortion/" class="tag-link-90" shape="rect">abortion</a>\n                    <a style="font-size: 10.7886178862pt;" title="55 topics" href="http://americanelephant.com/tag/anti-obama-t-shirt/" class="tag-link-42" shape="rect">anti-obama t-shirt</a>\n                    <a style="font-size: 10.162601626pt;" title="43 topics" href="http://americanelephant.com/tag/bailout/" class="tag-link-240" shape="rect">bailout</a>\n                    <a style="font-size: 15pt;" title="305 topics" href="http://americanelephant.com/tag/barack-obama/" class="tag-link-167" shape="rect">barack obama</a>\n                    <a style="font-size: 8pt;" title="17 topics" href="http://americanelephant.com/tag/congress/" class="tag-link-41" shape="rect">congress</a>\n                    <a style="font-size: 9.70731707317pt;" title="35 topics" href="http://americanelephant.com/tag/conservative/" class="tag-link-88" shape="rect">conservative</a>\n                    <a style="font-size: 10.3902439024pt;" title="47 topics" href="http://americanelephant.com/tag/conservative-t-shirt/" class="tag-link-206" shape="rect">conservative t-shirt</a>\n                    <a style="font-size: 8.45528455285pt;" title="21 topics" href="http://americanelephant.com/tag/debate/" class="tag-link-62" shape="rect">debate</a>\n                    <a style="font-size: 11.3577235772pt;" title="69 topics" href="http://americanelephant.com/tag/economy/" class="tag-link-59" shape="rect">economy</a>\n                    <a style="font-size: 8.45528455285pt;" title="21 topics" href="http://americanelephant.com/tag/fannie-mae/" class="tag-link-196" shape="rect">fannie mae</a>\n                    <a style="font-size: 10.0487804878pt;" title="41 topics" href="http://americanelephant.com/tag/fred-thompson/" class="tag-link-142" shape="rect">fred thompson</a>\n                    <a style="font-size: 8.68292682927pt;" title="23 topics" href="http://americanelephant.com/tag/gas-prices/" class="tag-link-13" shape="rect">gas prices</a>\n                    <a style="font-size: 9.25203252033pt;" title="29 topics" href="http://americanelephant.com/tag/government-health-care/" class="tag-link-595" shape="rect">government health care</a>\n                    <a style="font-size: 9.53658536585pt;" title="33 topics" href="http://americanelephant.com/tag/health-care/" class="tag-link-96" shape="rect">health care</a>\n                    <a style="font-size: 8.9674796748pt;" title="26 topics" href="http://americanelephant.com/tag/huckabee/" class="tag-link-60" shape="rect">huckabee</a>\n                    <a style="font-size: 9.25203252033pt;" title="29 topics" href="http://americanelephant.com/tag/illegal-immigration/" class="tag-link-47" shape="rect">illegal immigration</a>\n                    <a style="font-size: 8.45528455285pt;" title="21 topics" href="http://americanelephant.com/tag/iraq/" class="tag-link-26" shape="rect">iraq</a>\n                    <a style="font-size: 11.6991869919pt;" title="80 topics" href="http://americanelephant.com/tag/john-mccain/" class="tag-link-239" shape="rect">john mccain</a>\n                    <a style="font-size: 8.79674796748pt;" title="24 topics" href="http://americanelephant.com/tag/liberal-media/" class="tag-link-52" shape="rect">liberal media</a>\n                    <a style="font-size: 9.76422764228pt;" title="36 topics" href="http://americanelephant.com/tag/liberal-propaganda/" class="tag-link-163" shape="rect">liberal propaganda</a>\n                    <a style="font-size: 8.45528455285pt;" title="21 topics" href="http://americanelephant.com/tag/mccain-palin/" class="tag-link-325" shape="rect">mccain palin</a>\n                    <a style="font-size: 8pt;" title="17 topics" href="http://americanelephant.com/tag/media-bias/" class="tag-link-53" shape="rect">media bias</a>\n                    <a style="font-size: 8.68292682927pt;" title="23 topics" href="http://americanelephant.com/tag/mitt-romney-t-shirt/" class="tag-link-826" shape="rect">mitt romney t-shirt</a>\n                    <a style="font-size: 9.30894308943pt;" title="30 topics" href="http://americanelephant.com/tag/mortgages/" class="tag-link-58" shape="rect">mortgages</a>\n                    <a style="font-size: 9.76422764228pt;" title="36 topics" href="http://americanelephant.com/tag/nc/" class="tag-link-549" shape="rect">NC</a>\n                    <a style="font-size: 11.3008130081pt;" title="68 topics" href="http://americanelephant.com/tag/north-carolina/" class="tag-link-37" shape="rect">North Carolina</a>\n                    <a style="font-size: 10.8455284553pt;" title="57 topics" href="http://americanelephant.com/tag/obamacare/" class="tag-link-527" shape="rect">obamacare</a>\n                    <a style="font-size: 8pt;" title="17 topics" href="http://americanelephant.com/tag/oil/" class="tag-link-12" shape="rect">oil</a>\n                    <a style="font-size: 8.11382113821pt;" title="18 topics" href="http://americanelephant.com/tag/paul-ryan-t-shirt/" class="tag-link-1374" shape="rect">paul ryan t-shirt</a>\n                    <a style="font-size: 9.30894308943pt;" title="30 topics" href="http://americanelephant.com/tag/politics/" class="tag-link-109" shape="rect">politics</a>\n                    <a style="font-size: 8.68292682927pt;" title="23 topics" href="http://americanelephant.com/tag/primary/" class="tag-link-136" shape="rect">primary</a>\n                    <a style="font-size: 10.3333333333pt;" title="46 topics" href="http://americanelephant.com/tag/racism/" class="tag-link-29" shape="rect">racism</a>\n                    <a style="font-size: 8.79674796748pt;" title="24 topics" href="http://americanelephant.com/tag/republican/" class="tag-link-147" shape="rect">republican</a>\n                    <a style="font-size: 8.22764227642pt;" title="19 topics" href="http://americanelephant.com/tag/romney-ryan-merchandise/" class="tag-link-1372" shape="rect">romney-ryan merchandise</a>\n                    <a style="font-size: 11.5284552846pt;" title="75 topics" href="http://americanelephant.com/tag/sarah-palin/" class="tag-link-265" shape="rect">sarah palin</a>\n                    <a style="font-size: 10.4471544715pt;" title="48 topics" href="http://americanelephant.com/tag/socialism/" class="tag-link-97" shape="rect">socialism</a>\n                    <a style="font-size: 10.3902439024pt;" title="47 topics" href="http://americanelephant.com/tag/socialized-medicine/" class="tag-link-94" shape="rect">socialized medicine</a>\n                    <a style="font-size: 8.56910569106pt;" title="22 topics" href="http://americanelephant.com/tag/stimulus/" class="tag-link-455" shape="rect">stimulus</a>\n                    <a style="font-size: 8.85365853659pt;" title="25 topics" href="http://americanelephant.com/tag/support-our-troops/" class="tag-link-20" shape="rect">Support our troops</a>\n                    <a style="font-size: 8.85365853659pt;" title="25 topics" href="http://americanelephant.com/tag/t-shirt/" class="tag-link-289" shape="rect">t-shirt</a>\n                    <a style="font-size: 9.70731707317pt;" title="35 topics" href="http://americanelephant.com/tag/taxes/" class="tag-link-242" shape="rect">taxes</a>\n                    <a style="font-size: 9.30894308943pt;" title="30 topics" href="http://americanelephant.com/tag/tea-party/" class="tag-link-472" shape="rect">tea party</a>\n                    <a style="font-size: 9.47967479675pt;" title="32 topics" href="http://americanelephant.com/tag/terrorism/" class="tag-link-67" shape="rect">terrorism</a>\n                    <a style="font-size: 9.42276422764pt;" title="31 topics" href="http://americanelephant.com/tag/video/" class="tag-link-82" shape="rect">video</a>\n                  </p>\n                </div>\n                <div class="tab-content t2">\n                  <ul class="xoxo bookmarks">\n                    <li>\n                      <a target="_blank" title="Caffinated musings from a twenty-something conservative living the suburban life in beautiful Cary, North Carolina." rel="spouse muse sweetheart" href="http://www.acoffeetogo.com" shape="rect">\n                        <span>A Coffee To Go</span>\n                      </a>\n                    </li>\n                    <li>\n                      <a target="_blank" href="http://americanprincessblog.com/" shape="rect">\n                        <span>American Princess</span>\n                      </a>\n                    </li>\n                    <li>\n                      <a href="http://angryfemaleelephant.com/" shape="rect">\n                        <span>Angry Female Elephant</span>\n                      </a>\n                    </li>\n                    <li>\n                      <a target="_blank" href="http://confederateyankee.mu.nu/" shape="rect">\n                        <span>Confederate Yankee</span>\n                      </a>\n                    </li>\n                    <li>\n                      <a href="http://www.ericmorris.us/" shape="rect">\n                        <span>Eric Morris</span>\n                      </a>\n                    </li>\n                    <li>\n                      <a target="_blank" href="http://www.hotair.com" shape="rect">\n                        <span>HotAir</span>\n                      </a>\n                    </li>\n                    <li>\n                      <a target="_blank" title="Exposing Barack Obama\xe2\x80\x99s Infanticide Votes" href="http://www.jillstanek.com/" shape="rect">\n                        <span>Jill Stanek</span>\n                      </a>\n                    </li>\n                    <li>\n                      <a href="http://KatysConservativeCorner.com" shape="rect">\n                        <span>Katy\'s Conservative Corner</span>\n                      </a>\n                    </li>\n                    <li>\n                      <a target="_blank" href="http://themaritimesentry.blogspot.com/" shape="rect">\n                        <span>Maritime Sentry</span>\n                      </a>\n                    </li>\n                    <li>\n                      <a target="_blank" href="http://www.melaniemorgan.com/" shape="rect">\n                        <span>Melanie Morgan</span>\n                      </a>\n                    </li>\n                    <li>\n                      <a target="_blank" title="Mother, wife, blogger, conservative syndicated columnist, author, and Fox News Channel contributor." href="http://michellemalkin.com/" shape="rect">\n                        <span>Michelle Malkin</span>\n                      </a>\n                    </li>\n                    <li>\n                      <a href="http://pinkelephantpundit.com/" shape="rect">\n                        <span>Pink Elephant Pundit</span>\n                      </a>\n                    </li>\n                    <li>\n                      <a target="_blank" href="http://www.policalc.com" shape="rect">\n                        <span>PoliCalc.com</span>\n                      </a>\n                    </li>\n                    <li>\n                      <a target="_blank" href="http://www.rightwingnews.com/" shape="rect">\n                        <span>Right Wing News</span>\n                      </a>\n                    </li>\n                    <li>\n                      <a target="_blank" title="A dear friend\xe2\x80\x99s blog." rel="friend" href="http://amandahavery.blogspot.com/" shape="rect">\n                        <span>Seriously.</span>\n                      </a>\n                    </li>\n                    <li>\n                      <a href="http://www.stoptheaclu.com/" shape="rect">\n                        <span>Stop the ACLU</span>\n                      </a>\n                    </li>\n                    <li>\n                      <a target="_blank" href="http://thepeoplescube.com/" shape="rect">\n                        <span>The People\xe2\x80\x99s Cube</span>\n                      </a>\n                    </li>\n                    <li>\n                      <a target="_blank" href="http://thisainthell.us/" shape="rect">\n                        <span>This ain\xe2\x80\x99t Hell, but you can see it from here</span>\n                      </a>\n                    </li>\n                  </ul>\n                </div>\n                <div class="tab-content t3">\n                  <ul class="xoxo bookmarks">\n                    <li>\n                      <a href="http://the912project.com/" shape="rect">\n                        <span>912 Project</span>\n                      </a>\n                    </li>\n                    <li>\n                      <a href="http://biggovernment.com/" shape="rect">\n                        <span>Big Government</span>\n                      </a>\n                    </li>\n                    <li>\n                      <a href="http://bighollywood.breitbart.com/" shape="rect">\n                        <span>Big Hollywood</span>\n                      </a>\n                    </li>\n                    <li>\n                      <a title="The Truth About Universal Health Care" href="http://www.cprights.org/" shape="rect">\n                        <span>Conservatives for Patients\xe2\x80\x99 Rights</span>\n                      </a>\n                    </li>\n                    <li>\n                      <a href="http://www.getliberty.org/" shape="rect">\n                        <span>Get Liberty</span>\n                      </a>\n                    </li>\n                    <li>\n                      <a target="_blank" href="http://www.heritage.org/" shape="rect">\n                        <span>Heritage Foundation</span>\n                      </a>\n                    </li>\n                    <li>\n                      <a href="http://home.nra.org" shape="rect">\n                        <span>National Rifle Association</span>\n                      </a>\n                    </li>\n                    <li>\n                      <a target="_blank" href="http://www.newsbusters.org/" shape="rect">\n                        <span>NewsBusters</span>\n                      </a>\n                    </li>\n                    <li>\n                      <a href="http://www.ncgop.org/" shape="rect">\n                        <span>North Carolina GOP</span>\n                      </a>\n                    </li>\n                    <li>\n                      <a target="_blank" href="http://patriotpost.us/" shape="rect">\n                        <span>Patriot Post</span>\n                      </a>\n                    </li>\n                    <li>\n                      <a href="http://www.smartgirlpolitics.org/" shape="rect">\n                        <span>Smart Girl Politics</span>\n                      </a>\n                    </li>\n                    <li>\n                      <a href="http://www.wallbuilders.com" shape="rect">\n                        <span>Wall Builders</span>\n                      </a>\n                    </li>\n                  </ul>\n                </div>\n                <div class="tab-content t4">\n                  <ul class="xoxo bookmarks">\n                    <li>\n                      <a href="http://carolinaliberty.com/index.php" shape="rect">\n                        <span>Carolina Liberty</span>\n                      </a>\n                    </li>\n                    <li>\n                      <a href="http://www.nccivitas.org/" shape="rect">\n                        <span>Civitas Institute</span>\n                      </a>\n                    </li>\n                    <li>\n                      <a href="http://conservativenc.com/" shape="rect">\n                        <span>Conservative NC</span>\n                      </a>\n                    </li>\n                    <li>\n                      <a href="http://KatysConservativeCorner.com" shape="rect">\n                        <span>Katy\'s Conservative Corner</span>\n                      </a>\n                    </li>\n                    <li>\n                      <a href="http://www.kayhagantracker.com/" shape="rect">\n                        <span>Kay Hagan Tracker</span>\n                      </a>\n                    </li>\n                    <li>\n                      <a href="http://ncfreedom.us/" shape="rect">\n                        <span>NC Freedom</span>\n                      </a>\n                    </li>\n                    <li>\n                      <a href="http://ncteapartyrevolution.com/" shape="rect">\n                        <span>NC Tea Party Revolution</span>\n                      </a>\n                    </li>\n                    <li>\n                      <a href="http://www.ncgop.org/" shape="rect">\n                        <span>North Carolina GOP</span>\n                      </a>\n                    </li>\n                    <li>\n                      <a href="http://randysright.wordpress.com/" shape="rect">\n                        <span>Randy\'s Right</span>\n                      </a>\n                    </li>\n                    <li>\n                      <a href="http://www.whatbubbaknows.net/" shape="rect">\n                        <span>What Bubba Knows</span>\n                      </a>\n                    </li>\n                  </ul>\n                </div>\n              </div>\n            </div>\n            <div id="execphp-4" class="widget widget_execphp widget-widget_execphp">\n              <div class="widget-inside">\n                <h3 class="widget-title">Romney Ryan 2012</h3>\n                <div class="execphpwidget">\n                  <div id="store_random">\n                    <ul>\n                      <li>\n                        <a title="Permanent Link to Romney Ryan Waving Flag" rel="bookmark" href="http://americanelephant.com/store/romney-ryan-store/romney-ryan-waving-flag-bumper-stickers-tees/" shape="rect">\n                          <img title="Romney Ryan Waving Flag T-Shirts and Bumper Stickers" alt="" src="http://americanelephant.com/wp-content/uploads/2012/08/romney-ryan_waving_flag.jpg" height="154" width="154" class="attachment-post-thumbnail wp-post-image"></img>\n                        </a>\n                      </li>\n                      <li>\n                        <a title="Permanent Link to Romney-Ryan 2012 Seal" rel="bookmark" href="http://americanelephant.com/store/romney-ryan-store/romney-ryan-2012-seal-merchandise/" shape="rect">\n                          <img title="Romney Ryan 2012 Seal" alt="" src="http://americanelephant.com/wp-content/uploads/2012/08/romney-ryan_circle.jpg" height="154" width="154" class="attachment-post-thumbnail wp-post-image"></img>\n                        </a>\n                      </li>\n                    </ul>\n                    <div id="rand_cat_link">\n                      <a title="American Elephant Romney-Ryan 2012 Campaign Merchandise" href="http://americanelephant.com/category/store/romney-ryan-store/" shape="rect">See All Romney-Ryan Merchandise</a>\n                    </div>\n                  </div>\n                </div>\n              </div>\n            </div>\n            <div id="recent-comments-2" class="widget widget_recent_comments widget-widget_recent_comments">\n              <div class="widget-inside">\n                <h3 class="widget-title">Recent Comments</h3>\n                <ul id="recentcomments">\n                  <li class="recentcomments">\n                    <a rel="external nofollow" href="http://amandahavery.blogspot.com" class="url" shape="rect">Amanda</a>\n                    on\n                    <a href="http://americanelephant.com/blog/north-carolina/wounded-warrior-parking-onslow-county-nc/comment-page-1/#comment-3393" shape="rect">Wounded Warrior Parking in Onslow County</a>\n                  </li>\n                  <li class="recentcomments">\n                    Jim W. on\n                    <a href="http://americanelephant.com/wild/nick-popaditch-congress-ca51/comment-page-1/#comment-3267" shape="rect">Nick Popaditch for Congress (CA-51)</a>\n                  </li>\n                  <li class="recentcomments">\n                    <a rel="external nofollow" href="http://www.flickr.com/photos/scripturepassion" class="url" shape="rect">N Waff</a>\n                    on\n                    <a href="http://americanelephant.com/blog/commentary/obama-removes-god-from-declaration-of-independence/comment-page-1/#comment-3192" shape="rect">Obama Edits Declaration of Independence</a>\n                  </li>\n                  <li class="recentcomments">\n                    <a rel="external nofollow" href="http://themaritimesentry.com" class="url" shape="rect">DR</a>\n                    on\n                    <a href="http://americanelephant.com/blog/north-carolina/north-carolinians-no-privacy-left/comment-page-1/#comment-3189" shape="rect">Will North Carolinians Have Any Privacy Left?</a>\n                  </li>\n                  <li class="recentcomments">\n                    <a rel="external nofollow" href="http://americanelephant.com/latest-designs/party-hell-stop-obama-agenda-tees/" class="url" shape="rect">The Party of HELL No Tees, Sweatshirts and Bumper Stickers</a>\n                    on\n                    <a href="http://americanelephant.com/store/republican-party-store/the-party-of-hell-no/comment-page-1/#comment-2954" shape="rect">The Party of Hell No</a>\n                  </li>\n                </ul>\n              </div>\n            </div>\n            <div id="execphp-2" class="widget widget_execphp widget-widget_execphp">\n              <div class="widget-inside">\n                <h3 class="widget-title">Anti-Obama Merchandise</h3>\n                <div class="execphpwidget">\n                  <div id="store_random">\n                    <ul>\n                      <li>\n                        <a title="Permanent Link to I\xe2\x80\x99m with Stupidly" rel="bookmark" href="http://americanelephant.com/store/anti-obama-store/im-with-stupidly/" shape="rect">\n                          <img title="I\'m With Stupidly T-Shirts. As Seen on TV." alt="" src="http://americanelephant.com/wp-content/uploads/2010/04/ImWithStupidly.jpg" height="152" width="152" class="attachment-post-thumbnail wp-post-image"></img>\n                        </a>\n                      </li>\n                      <li>\n                        <a title="Permanent Link to Department of Injustice" rel="bookmark" href="http://americanelephant.com/store/anti-obama-store/department-of-injustice-tshirts/" shape="rect">\n                          <img title="Department of Injustice T-Shirts" alt="" src="http://americanelephant.com/wp-content/uploads/2010/07/DepartmentOfInjustice.jpg" height="152" width="152" class="attachment-post-thumbnail wp-post-image"></img>\n                        </a>\n                      </li>\n                    </ul>\n                    <div id="rand_cat_link">\n                      <a title="Anti Obama Bumper Stickers and Tee Shirts" href="http://americanelephant.com/category/store/anti-obama-store/" shape="rect">See All Anti-Obama Merchandise</a>\n                    </div>\n                  </div>\n                </div>\n              </div>\n            </div>\n          </div>\n          <div id="secondary" class="sidebar aside">\n            <div id="text-421528881" class="widget widget_text widget-widget_text">\n              <div class="widget-inside">\n                <h3 class="widget-title">Badges</h3>\n                <div class="textwidget">\n                  <p style="padding: 0; text-align: center;">\n                    <a title="Dale Peterson Facts" href="http://dalepetersonfacts.com/" shape="rect">\n                      <img border="0" alt="Dale Peterson Facts - Dale Peterson Saves the World" src="/images/dale_peterson_facts.png"></img>\n                    </a>\n                  </p>\n                  <p style="padding: 0; text-align: center;">\n                    <a title="Obama Manure 100% B.S." href="http://obamamanure.com/" shape="rect">\n                      <img border="0" alt="Obama Manure 100% B.S." src="/images/obamamanure-badge133a.png"></img>\n                    </a>\n                  </p>\n                  <p style="text-align: center;">\n                    <a title="Anti-Obama T-Shirt of the Day" href="http://www.stopobamatees.com" shape="rect">\n                      <img alt="Anti-Obama T-Shirt of the Day" src="/images/AntiObamaTshirtBadge.png"></img>\n                    </a>\n                  </p>\n                  <p style="text-align: center;">\n                    <a title="Conservative Bumper Stickers" href="http://rightstickers.com" shape="rect">\n                      <img width="133" alt="Conservative Bumper Stickers" src="/images/rightstickers.jpg"></img>\n                    </a>\n                  </p>\n                  <p style="text-align: center;">\n                    <a title="Featured Designer at SpeakShirt.com" href="http://speakshirt.com" shape="rect">\n                      <img style="border: 0; width: 125px; height: 125px;" alt="Featured Designer at SpeakShirt.com" title="Featured Designer at SpeakShirt.com" src="http://speakshirt.com/ads/speakshirt_blk125square.jpg"></img>\n                    </a>\n                  </p>\n                </div>\n              </div>\n            </div>\n            <div id="text-2" class="widget widget_text widget-widget_text">\n              <div class="widget-inside">\n                <div class="textwidget">\n                  <p style="text-align: center; font-size: 12px;">\n                    <a title="Titan Steel College Logo Watch" href="http://collegewatchstore.com" shape="rect">\n                      <img style="border: 0; width: 133px; height: 200px;" width="133" src="/images/collegewatchstore.jpg"></img>\n                    </a>\n                    <br clear="none"></br>\n                    Sponsored by\n                    <a title="Officially Licensed College Logo Watches" href="http://collegewatchstore.com" shape="rect">CollegeWatchStore.com</a>\n                  </p>\n                </div>\n              </div>\n            </div>\n          </div>\n          <div id="tertiary">\n            <div id="hybrid-archives-3" class="widget archives widget-archives">\n              <div class="widget-inside">\n                <h3 class="widget-title">Archives</h3>\n                <ul class="xoxo archives">\n                  <li>\n                    <a title="August 2012" href="http://americanelephant.com/2012/08/" shape="rect">August 2012</a>\n                  </li>\n                  <li>\n                    <a title="April 2012" href="http://americanelephant.com/2012/04/" shape="rect">April 2012</a>\n                  </li>\n                  <li>\n                    <a title="May 2011" href="http://americanelephant.com/2011/05/" shape="rect">May 2011</a>\n                  </li>\n                  <li>\n                    <a title="October 2010" href="http://americanelephant.com/2010/10/" shape="rect">October 2010</a>\n                  </li>\n                  <li>\n                    <a title="September 2010" href="http://americanelephant.com/2010/09/" shape="rect">September 2010</a>\n                  </li>\n                  <li>\n                    <a title="August 2010" href="http://americanelephant.com/2010/08/" shape="rect">August 2010</a>\n                  </li>\n                  <li>\n                    <a title="July 2010" href="http://americanelephant.com/2010/07/" shape="rect">July 2010</a>\n                  </li>\n                  <li>\n                    <a title="June 2010" href="http://americanelephant.com/2010/06/" shape="rect">June 2010</a>\n                  </li>\n                  <li>\n                    <a title="May 2010" href="http://americanelephant.com/2010/05/" shape="rect">May 2010</a>\n                  </li>\n                  <li>\n                    <a title="April 2010" href="http://americanelephant.com/2010/04/" shape="rect">April 2010</a>\n                  </li>\n                  <li>\n                    <a title="March 2010" href="http://americanelephant.com/2010/03/" shape="rect">March 2010</a>\n                  </li>\n                  <li>\n                    <a title="January 2010" href="http://americanelephant.com/2010/01/" shape="rect">January 2010</a>\n                  </li>\n                  <li>\n                    <a title="December 2009" href="http://americanelephant.com/2009/12/" shape="rect">December 2009</a>\n                  </li>\n                  <li>\n                    <a title="November 2009" href="http://americanelephant.com/2009/11/" shape="rect">November 2009</a>\n                  </li>\n                  <li>\n                    <a title="October 2009" href="http://americanelephant.com/2009/10/" shape="rect">October 2009</a>\n                  </li>\n                  <li>\n                    <a title="September 2009" href="http://americanelephant.com/2009/09/" shape="rect">September 2009</a>\n                  </li>\n                  <li>\n                    <a title="August 2009" href="http://americanelephant.com/2009/08/" shape="rect">August 2009</a>\n                  </li>\n                  <li>\n                    <a title="July 2009" href="http://americanelephant.com/2009/07/" shape="rect">July 2009</a>\n                  </li>\n                  <li>\n                    <a title="June 2009" href="http://americanelephant.com/2009/06/" shape="rect">June 2009</a>\n                  </li>\n                  <li>\n                    <a title="May 2009" href="http://americanelephant.com/2009/05/" shape="rect">May 2009</a>\n                  </li>\n                  <li>\n                    <a title="April 2009" href="http://americanelephant.com/2009/04/" shape="rect">April 2009</a>\n                  </li>\n                  <li>\n                    <a title="March 2009" href="http://americanelephant.com/2009/03/" shape="rect">March 2009</a>\n                  </li>\n                  <li>\n                    <a title="February 2009" href="http://americanelephant.com/2009/02/" shape="rect">February 2009</a>\n                  </li>\n                  <li>\n                    <a title="January 2009" href="http://americanelephant.com/2009/01/" shape="rect">January 2009</a>\n                  </li>\n                  <li>\n                    <a title="December 2008" href="http://americanelephant.com/2008/12/" shape="rect">December 2008</a>\n                  </li>\n                  <li>\n                    <a title="November 2008" href="http://americanelephant.com/2008/11/" shape="rect">November 2008</a>\n                  </li>\n                  <li>\n                    <a title="October 2008" href="http://americanelephant.com/2008/10/" shape="rect">October 2008</a>\n                  </li>\n                  <li>\n                    <a title="September 2008" href="http://americanelephant.com/2008/09/" shape="rect">September 2008</a>\n                  </li>\n                  <li>\n                    <a title="August 2008" href="http://americanelephant.com/2008/08/" shape="rect">August 2008</a>\n                  </li>\n                  <li>\n                    <a title="July 2008" href="http://americanelephant.com/2008/07/" shape="rect">July 2008</a>\n                  </li>\n                  <li>\n                    <a title="June 2008" href="http://americanelephant.com/2008/06/" shape="rect">June 2008</a>\n                  </li>\n                  <li>\n                    <a title="May 2008" href="http://americanelephant.com/2008/05/" shape="rect">May 2008</a>\n                  </li>\n                  <li>\n                    <a title="March 2008" href="http://americanelephant.com/2008/03/" shape="rect">March 2008</a>\n                  </li>\n                  <li>\n                    <a title="February 2008" href="http://americanelephant.com/2008/02/" shape="rect">February 2008</a>\n                  </li>\n                  <li>\n                    <a title="January 2008" href="http://americanelephant.com/2008/01/" shape="rect">January 2008</a>\n                  </li>\n                  <li>\n                    <a title="December 2007" href="http://americanelephant.com/2007/12/" shape="rect">December 2007</a>\n                  </li>\n                  <li>\n                    <a title="November 2007" href="http://americanelephant.com/2007/11/" shape="rect">November 2007</a>\n                  </li>\n                  <li>\n                    <a title="October 2007" href="http://americanelephant.com/2007/10/" shape="rect">October 2007</a>\n                  </li>\n                  <li>\n                    <a title="September 2007" href="http://americanelephant.com/2007/09/" shape="rect">September 2007</a>\n                  </li>\n                  <li>\n                    <a title="August 2007" href="http://americanelephant.com/2007/08/" shape="rect">August 2007</a>\n                  </li>\n                </ul>\n              </div>\n            </div>\n          </div>\n        </div>\n      </div>\n      <div id="footer-container">\n        <div id="subsidiary" class="sidebar aside">\n          <div id="text-421535683" class="widget widget_text widget-widget_text">\n            <div class="widget-inside">\n              <h3 class="widget-title">Topics</h3>\n              <div class="textwidget">\n                <ul>\n                  <li>\n                    <a title="American Elephant Conservative Commentary" href="http://americanelephant.com/category/blog/commentary/" shape="rect">Commentary</a>\n                    (\n                    <a title="American Elephant Conservative Commentary Feed" href="http://americanelephant.com/category/blog/commentary/feed/" shape="rect">RSS</a>\n                    )\n                  </li>\n                  <li>\n                    <a title="North Carolina Conservative Issues" href="http://americanelephant.com/category/blog/north-carolina/" shape="rect">North Carolina</a>\n                    (\n                    <a title="North Carolina Conservative Issues Feed" href="http://americanelephant.com/category/blog/north-carolina/feed/" shape="rect">RSS</a>\n                    )\n                  </li>\n                  <li>\n                    <a title="Elephant Watch" href="http://americanelephant.com/category/blog/elephant-watch/" shape="rect">Elephant Watch</a>\n                    (\n                    <a href="http://americanelephant.com/category/blog/elephant-watch/feed/" shape="rect">RSS</a>\n                    )\n                  </li>\n                  <li>\n                    <a title="American Elephants Spotted in the Wild" href="http://americanelephant.com/category/wild/" shape="rect">In The Wild</a>\n                    (\n                    <a title="American Elephant In The Wild" href="http://americanelephant.com/category/wild/feed/" shape="rect">RSS</a>\n                    )\n                  </li>\n                  <li>\n                    <a title="Latest GOP T-Shirts" href="http://americanelephant.com/category/latest-designs/" shape="rect">Latest Designs</a>\n                    (\n                    <a title="Latest Conservative T-Shirt Designs" href="http://americanelephant.com/category/latest-designs/feed/" shape="rect">RSS</a>\n                    )\n                  </li>\n                  <li>\n                    <a title="Free Conservative Downloads" href="http://americanelephant.com/category/downloads/" shape="rect">Downloads</a>\n                    (\n                    <a title="RSS Feed of Conservative Downloads" href="http://americanelephant.com/category/downloads/feed/" shape="rect">RSS</a>\n                    )\n                  </li>\n                  <li>\n                    <a title="American Elephant Home" href="http://americanelephant.com" shape="rect">Unfiltered - All Content</a>\n                    (\n                    <a title="American Elephant Full RSS Feed" href="http://americanelephant.com/feed/" shape="rect">RSS</a>\n                    )\n                  </li>\n                </ul>\n              </div>\n            </div>\n          </div>\n          <div id="hybrid-tags-2" class="widget tags widget-tags">\n            <div class="widget-inside">\n              <h3 class="widget-title">Topics</h3>\n              <p class="post_tag-cloud term-cloud">\n                <a style="font-size: 15.6494845361pt;" title="110 topics" href="http://americanelephant.com/tag/2008-election/" class="tag-link-40" shape="rect">2008 election</a>\n                <a style="font-size: 11.3195876289pt;" title="55 topics" href="http://americanelephant.com/tag/anti-obama-t-shirt/" class="tag-link-42" shape="rect">anti-obama t-shirt</a>\n                <a style="font-size: 9.73195876289pt;" title="43 topics" href="http://americanelephant.com/tag/bailout/" class="tag-link-240" shape="rect">bailout</a>\n                <a style="font-size: 22pt;" title="305 topics" href="http://americanelephant.com/tag/barack-obama/" class="tag-link-167" shape="rect">barack obama</a>\n                <a style="font-size: 8.57731958763pt;" title="35 topics" href="http://americanelephant.com/tag/conservative/" class="tag-link-88" shape="rect">conservative</a>\n                <a style="font-size: 10.3092783505pt;" title="47 topics" href="http://americanelephant.com/tag/conservative-t-shirt/" class="tag-link-206" shape="rect">conservative t-shirt</a>\n                <a style="font-size: 12.7628865979pt;" title="69 topics" href="http://americanelephant.com/tag/economy/" class="tag-link-59" shape="rect">economy</a>\n                <a style="font-size: 9.44329896907pt;" title="41 topics" href="http://americanelephant.com/tag/fred-thompson/" class="tag-link-142" shape="rect">fred thompson</a>\n                <a style="font-size: 8.14432989691pt;" title="33 topics" href="http://americanelephant.com/tag/health-care/" class="tag-link-96" shape="rect">health care</a>\n                <a style="font-size: 13.6288659794pt;" title="80 topics" href="http://americanelephant.com/tag/john-mccain/" class="tag-link-239" shape="rect">john mccain</a>\n                <a style="font-size: 8.72164948454pt;" title="36 topics" href="http://americanelephant.com/tag/liberal-propaganda/" class="tag-link-163" shape="rect">liberal propaganda</a>\n                <a style="font-size: 8.72164948454pt;" title="36 topics" href="http://americanelephant.com/tag/nc/" class="tag-link-549" shape="rect">NC</a>\n                <a style="font-size: 12.618556701pt;" title="68 topics" href="http://americanelephant.com/tag/north-carolina/" class="tag-link-37" shape="rect">North Carolina</a>\n                <a style="font-size: 11.4639175258pt;" title="57 topics" href="http://americanelephant.com/tag/obamacare/" class="tag-link-527" shape="rect">obamacare</a>\n                <a style="font-size: 10.1649484536pt;" title="46 topics" href="http://americanelephant.com/tag/racism/" class="tag-link-29" shape="rect">racism</a>\n                <a style="font-size: 13.1958762887pt;" title="75 topics" href="http://americanelephant.com/tag/sarah-palin/" class="tag-link-265" shape="rect">sarah palin</a>\n                <a style="font-size: 10.4536082474pt;" title="48 topics" href="http://americanelephant.com/tag/socialism/" class="tag-link-97" shape="rect">socialism</a>\n                <a style="font-size: 10.3092783505pt;" title="47 topics" href="http://americanelephant.com/tag/socialized-medicine/" class="tag-link-94" shape="rect">socialized medicine</a>\n                <a style="font-size: 8.57731958763pt;" title="35 topics" href="http://americanelephant.com/tag/taxes/" class="tag-link-242" shape="rect">taxes</a>\n                <a style="font-size: 8pt;" title="32 topics" href="http://americanelephant.com/tag/terrorism/" class="tag-link-67" shape="rect">terrorism</a>\n              </p>\n            </div>\n          </div>\n          <div id="text-421535684" class="widget widget_text widget-widget_text">\n            <div class="widget-inside">\n              <h3 class="widget-title">Popular Designs</h3>\n              <div class="textwidget">\n                <ul>\n                  <li>\n                    <a title="Anti Obama T-Shirts" href="http://americanelephant.com/category/store/anti-obama-store/" shape="rect">Anti-Obama T-Shirts</a>\n                  </li>\n                  <li>\n                    <a title="Ronald Reagan T-Shirts" href="http://americanelephant.com/category/store/ronald-reagan-store/" shape="rect">Ronald Reagan T-Shirts</a>\n                  </li>\n                  <li>\n                    <a title="Tea Party 2009 T-Shirts" href="http://americanelephant.com/category/store/tea-party-store/" shape="rect">Tea Party T-Shirts</a>\n                  </li>\n                  <li>\n                    <a title="Second Amendment T-Shirts" href="http://americanelephant.com/category/store/second-amendment-store/" shape="rect">Second Amendment T-Shirts</a>\n                  </li>\n                  <li>\n                    <a title="Global Warming Hoax T-Shirts" href="http://americanelephant.com/category/store/global-hoax-store/" shape="rect">Global Warming Hoax T-Shirts</a>\n                  </li>\n                  <li>\n                    <a title="Patriotic &amp; Liberty T-Shirts" href="http://americanelephant.com/category/store/patriotic-store/" shape="rect">Patriotic &amp; Liberty T-Shirts</a>\n                  </li>\n                  <li>\n                    <a title="ObamaCare T-Shirts" href="http://americanelephant.com/category/store/obamacare-store/" shape="rect">ObamaCare T-Shirts</a>\n                  </li>\n                  <li>\n                    <a title="Drill Baby Drill T-Shierts" href="http://americanelephant.com/category/store/gas-prices-store/" shape="rect">Drill Baby Drill T-Shirts</a>\n                  </li>\n                </ul>\n              </div>\n            </div>\n          </div>\n          <div id="text-421535685" class="widget widget_text widget-widget_text">\n            <div class="widget-inside">\n              <h3 class="widget-title">AE Shop Links</h3>\n              <div class="textwidget">\n                <ul>\n                  <li>\n                    <a title="Buy Conservative T-Shirts from American Elephant" href="http://americanelephant.com/category/store/" shape="rect">American Elephant Gear</a>\n                  </li>\n                  <li>\n                    <a title="Buy Conservative T-Shirts from American Elephant" href="http://americanelephant.com/cgi-bin/store" shape="rect">The Old AE Shop</a>\n                  </li>\n                </ul>\n              </div>\n            </div>\n          </div>\n        </div>\n        <div id="footer"> </div>\n      </div>\n    </div>\n    <script src="http://americanelephant.com/wp-content/plugins/contact-form-7/jquery.form.js?ver=2.52" type="text/javascript"></script>\n    <script src="http://americanelephant.com/wp-content/plugins/contact-form-7/scripts.js?ver=2.4.5" type="text/javascript"></script>\n    <script type="text/javascript">\n      &lt;!--\nwpa2a.targets=[\n{title:\'How a Lack of Campaigning Helped Alvin Greene\',url:\'http://americanelephant.com/blog/commentary/lack-campaigning-elected-alvin-greene/\'}];\nwpa2a.html_done=true;if(wpa2a.script_ready&amp;&amp;!wpa2a.done)wpa2a.init();wpa2a.script_load();\n//--&gt;\n    </script>\n    <script type="text/javascript">\n      function clicky_gc( name ) {\n\t\tvar ca = document.cookie.split(\';\');\n\t\tfor( var i in ca ) {\n\t\t\tif( ca[i].indexOf( name+\'=\' ) != -1 )\n\t\t\t\treturn decodeURIComponent( ca[i].split(\'=\')[1] );\n\t\t}\n\t\treturn \'\';\n\t}\n\tvar clicky_custom_session = { \n\t\tusername: clicky_gc( \'comment_author_e909bc96caf32eed6d8fc7f159271bba\' )\n\t};\n    </script>\n    <script type="text/javascript">\n      var clicky = { log: function(){ return; }, goal: function(){ return; }};\n\tvar clicky_site_id = 38636;\n\t(function() {\n\t\tvar s = document.createElement(\'script\');\n\t\ts.type = \'text/javascript\';\n\t\ts.async = true;\n\t\ts.src = ( document.location.protocol == \'https:\' ? \'https://static.getclicky.com\' : \'http://static.getclicky.com\' ) + \'/js\';\n\t\t( document.getElementsByTagName(\'head\')[0] || document.getElementsByTagName(\'body\')[0] ).appendChild( s );\n\t})();\n    </script>\n    <noscript>\n      <p>\n        <img src="http://in.getclicky.com/38636ns.gif" height="1" width="1" alt="Clicky"></img>\n      </p>\n    </noscript>\n  </body>\n</html>'
p11
sbsS'mentions'
p12
(lp13
(iedu.umass.cs.iesl.wikilink.expanded.data.ttypes
Mention
p14
(dp15
S'anchor_text'
p16
S'Richard Petty'
p17
sS'context'
p18
(iedu.umass.cs.iesl.wikilink.expanded.data.ttypes
Context
p19
(dp20
S'middle'
p21
S'Richard Petty'
p22
sS'right'
p23
S', I could win a campaign in North Carolina by 90% of the vote, as long as I DIDN\xe2\x80\x99T CAMPAIGN.\xc3\x82\xc2\xa0 Every time I campaigned, I'
p24
sS'left'
p25
S'have heard of.\xc3\x82\xc2\xa0 Overwhelmingly, voters picked the guy with the familiar name and the sweet voice.\xc3\x82\xc2\xa0 Why is anyone surprised? Seriously.\xc3\x82\xc2\xa0 If my name was'
p26
sbsS'freebase_id'
p27
S'9202a8c04000641f8000000000032d6e'
p28
sS'raw_text_offset'
p29
I51027
sS'wiki_url'
p30
S'http://en.wikipedia.org/wiki/Richard_Petty'
p31
sbasS'doc_id'
p32
I22149
sS'rare_words'
p33
(lp34
(iedu.umass.cs.iesl.wikilink.expanded.data.ttypes
RareWord
p35
(dp36
S'word'
p37
S'another'
p38
sS'offset'
p39
I51761
sba(iedu.umass.cs.iesl.wikilink.expanded.data.ttypes
RareWord
p40
(dp41
g37
S'stood'
p42
sg39
I51683
sba(iedu.umass.cs.iesl.wikilink.expanded.data.ttypes
RareWord
p43
(dp44
g37
S'real'
p45
sg39
I53789
sba(iedu.umass.cs.iesl.wikilink.expanded.data.ttypes
RareWord
p46
(dp47
g37
S'Fowler'
p48
sg39
I52828
sba(iedu.umass.cs.iesl.wikilink.expanded.data.ttypes
RareWord
p49
(dp50
g37
S'numbers'
p51
sg39
I51208
sba(iedu.umass.cs.iesl.wikilink.expanded.data.ttypes
RareWord
p52
(dp53
g37
S'might'
p54
sg39
I53254
sba(iedu.umass.cs.iesl.wikilink.expanded.data.ttypes
RareWord
p55
(dp56
g37
S'ever'
p57
sg39
I51678
sba(iedu.umass.cs.iesl.wikilink.expanded.data.ttypes
RareWord
p58
(dp59
g37
S'drop'
p60
sg39
I51232
sba(iedu.umass.cs.iesl.wikilink.expanded.data.ttypes
RareWord
p61
(dp62
g37
S'fault'
p63
sg39
I52440
sba(iedu.umass.cs.iesl.wikilink.expanded.data.ttypes
RareWord
p64
(dp65
g37
S'DIDN'
p66
sg39
I51120
sbasb.