(iedu.umass.cs.iesl.wikilink.expanded.data.ttypes
WikiLinkItem
p0
(dp1
S'url'
p2
S'http://en.wikiquote.org/wiki/11/22/63'
p3
sS'content'
p4
(iedu.umass.cs.iesl.wikilink.expanded.data.ttypes
PageContentItem
p5
(dp6
S'articleText'
p7
NsS'raw'
p8
NsS'fullText'
p9
NsS'dom'
p10
S'<html lang="en" dir="ltr" class="client-nojs">\n  <head>\n    <title>11/22/63 - Wikiquote</title>\n    <meta charset="UTF-8"></meta>\n    <meta content="MediaWiki 1.20wmf12" name="generator"></meta>\n    <link href="/w/index.php?title=11/22/63&amp;action=edit" title="Edit" type="application/x-wiki" rel="alternate"></link>\n    <link href="/w/index.php?title=11/22/63&amp;action=edit" title="Edit" rel="edit"></link>\n    <link href="/favicon.ico" rel="shortcut icon"></link>\n    <link title="Wikiquote (en)" href="/w/opensearch_desc.php" type="application/opensearchdescription+xml" rel="search"></link>\n    <link href="//en.wikiquote.org/w/api.php?action=rsd" type="application/rsd+xml" rel="EditURI"></link>\n    <link href="//creativecommons.org/licenses/by-sa/3.0/" rel="copyright"></link>\n    <link href="/w/index.php?title=Special:RecentChanges&amp;feed=atom" title="Wikiquote Atom feed" type="application/atom+xml" rel="alternate"></link>\n    <link href="//bits.wikimedia.org/en.wikiquote.org/load.php?debug=false&amp;lang=en&amp;modules=ext.wikihiero%7Cmediawiki.legacy.commonPrint%2Cshared%7Cskins.vector&amp;only=styles&amp;skin=vector&amp;*" rel="stylesheet"></link>\n    <meta content="" name="ResourceLoaderDynamicStyles"></meta>\n    <link href="//bits.wikimedia.org/en.wikiquote.org/load.php?debug=false&amp;lang=en&amp;modules=site&amp;only=styles&amp;skin=vector&amp;*" rel="stylesheet"></link>\n    <style>a:lang(ar),a:lang(ckb),a:lang(fa),a:lang(kk-arab),a:lang(mzn),a:lang(ps),a:lang(ur){text-decoration:none} /* cache key: enwikiquote:resourceloader:filter:minify-css:7:f7787f13de82b0b3bfe265c8c862df35 */ </style>\n    <script src="//bits.wikimedia.org/en.wikiquote.org/load.php?debug=false&amp;lang=en&amp;modules=startup&amp;only=scripts&amp;skin=vector&amp;*"></script>\n    <script>\n      if(window.mw){\nmw.config.set({&quot;wgCanonicalNamespace&quot;:&quot;&quot;,&quot;wgCanonicalSpecialPageName&quot;:false,&quot;wgNamespaceNumber&quot;:0,&quot;wgPageName&quot;:&quot;11/22/63&quot;,&quot;wgTitle&quot;:&quot;11/22/63&quot;,&quot;wgCurRevisionId&quot;:1391954,&quot;wgArticleId&quot;:132586,&quot;wgIsArticle&quot;:true,&quot;wgAction&quot;:&quot;view&quot;,&quot;wgUserName&quot;:null,&quot;wgUserGroups&quot;:[&quot;*&quot;],&quot;wgCategories&quot;:[&quot;Articles to be merged&quot;],&quot;wgBreakFrames&quot;:false,&quot;wgPageContentLanguage&quot;:&quot;en&quot;,&quot;wgSeparatorTransformTable&quot;:[&quot;&quot;,&quot;&quot;],&quot;wgDigitTransformTable&quot;:[&quot;&quot;,&quot;&quot;],&quot;wgDefaultDateFormat&quot;:&quot;dmy&quot;,&quot;wgMonthNames&quot;:[&quot;&quot;,&quot;January&quot;,&quot;February&quot;,&quot;March&quot;,&quot;April&quot;,&quot;May&quot;,&quot;June&quot;,&quot;July&quot;,&quot;August&quot;,&quot;September&quot;,&quot;October&quot;,&quot;November&quot;,&quot;December&quot;],&quot;wgMonthNamesShort&quot;:[&quot;&quot;,&quot;Jan&quot;,&quot;Feb&quot;,&quot;Mar&quot;,&quot;Apr&quot;,&quot;May&quot;,&quot;Jun&quot;,&quot;Jul&quot;,&quot;Aug&quot;,&quot;Sep&quot;,&quot;Oct&quot;,&quot;Nov&quot;,&quot;Dec&quot;],&quot;wgRelevantPageName&quot;:&quot;11/22/63&quot;,&quot;wgRestrictionEdit&quot;:[],&quot;wgRestrictionMove&quot;:[],&quot;wgSearchNamespaces&quot;:[0],&quot;wgVectorEnabledModules&quot;:{&quot;collapsiblenav&quot;:true,&quot;collapsibletabs&quot;:true,&quot;editwarning&quot;:true,&quot;expandablesearch&quot;:false,&quot;footercleanup&quot;:false,&quot;sectioneditlinks&quot;:false,&quot;simplesearch&quot;:true,&quot;experiments&quot;:true},&quot;wgWikiEditorEnabledModules&quot;:{&quot;toolbar&quot;:true,&quot;dialogs&quot;:true,&quot;hidesig&quot;:true,&quot;templateEditor&quot;:false,&quot;templates&quot;:false,&quot;preview&quot;:false,&quot;previewDialog&quot;:false,&quot;publish&quot;:false,&quot;toc&quot;:false},&quot;wgCategoryTreePageCategoryOptions&quot;:&quot;{\\&quot;mode\\&quot;:0,\\&quot;hideprefix\\&quot;:20,\\&quot;showcount\\&quot;:true,\\&quot;namespaces\\&quot;:false}&quot;,&quot;Geo&quot;:{&quot;city&quot;:&quot;&quot;,&quot;country&quot;:&quot;&quot;},&quot;wgNoticeProject&quot;:&quot;wikiquote&quot;});\n}\n    </script>\n    <script>\n      if(window.mw){\nmw.loader.implement(&quot;user.options&quot;,function(){mw.user.options.set({&quot;ccmeonemails&quot;:0,&quot;cols&quot;:80,&quot;date&quot;:&quot;default&quot;,&quot;diffonly&quot;:0,&quot;disablemail&quot;:0,&quot;disablesuggest&quot;:0,&quot;editfont&quot;:&quot;default&quot;,&quot;editondblclick&quot;:0,&quot;editsection&quot;:1,&quot;editsectiononrightclick&quot;:0,&quot;enotifminoredits&quot;:0,&quot;enotifrevealaddr&quot;:0,&quot;enotifusertalkpages&quot;:1,&quot;enotifwatchlistpages&quot;:0,&quot;extendwatchlist&quot;:0,&quot;externaldiff&quot;:0,&quot;externaleditor&quot;:0,&quot;fancysig&quot;:0,&quot;forceeditsummary&quot;:0,&quot;gender&quot;:&quot;unknown&quot;,&quot;hideminor&quot;:0,&quot;hidepatrolled&quot;:0,&quot;imagesize&quot;:2,&quot;justify&quot;:0,&quot;math&quot;:0,&quot;minordefault&quot;:0,&quot;newpageshidepatrolled&quot;:0,&quot;nocache&quot;:0,&quot;noconvertlink&quot;:0,&quot;norollbackdiff&quot;:0,&quot;numberheadings&quot;:0,&quot;previewonfirst&quot;:0,&quot;previewontop&quot;:1,&quot;quickbar&quot;:5,&quot;rcdays&quot;:7,&quot;rclimit&quot;:50,&quot;rememberpassword&quot;:0,&quot;rows&quot;:25,&quot;searchlimit&quot;:20,&quot;showhiddencats&quot;:false,&quot;showjumplinks&quot;:1,&quot;shownumberswatching&quot;:1,&quot;showtoc&quot;:1,&quot;showtoolbar&quot;:1,&quot;skin&quot;:&quot;vector&quot;,&quot;stubthreshold&quot;:0,&quot;thumbsize&quot;:4,&quot;underline&quot;:2,&quot;uselivepreview&quot;:0,&quot;usenewrc&quot;:0,&quot;watchcreations&quot;:1,&quot;watchdefault&quot;:0,&quot;watchdeletion&quot;:0,&quot;watchlistdays&quot;:3\n,&quot;watchlisthideanons&quot;:0,&quot;watchlisthidebots&quot;:0,&quot;watchlisthideliu&quot;:0,&quot;watchlisthideminor&quot;:0,&quot;watchlisthideown&quot;:0,&quot;watchlisthidepatrolled&quot;:0,&quot;watchmoves&quot;:0,&quot;wllimit&quot;:250,&quot;vector-simplesearch&quot;:1,&quot;useeditwarning&quot;:1,&quot;vector-collapsiblenav&quot;:1,&quot;usebetatoolbar&quot;:1,&quot;usebetatoolbar-cgd&quot;:1,&quot;variant&quot;:&quot;en&quot;,&quot;language&quot;:&quot;en&quot;,&quot;searchNs0&quot;:true,&quot;searchNs1&quot;:false,&quot;searchNs2&quot;:false,&quot;searchNs3&quot;:false,&quot;searchNs4&quot;:false,&quot;searchNs5&quot;:false,&quot;searchNs6&quot;:false,&quot;searchNs7&quot;:false,&quot;searchNs8&quot;:false,&quot;searchNs9&quot;:false,&quot;searchNs10&quot;:false,&quot;searchNs11&quot;:false,&quot;searchNs12&quot;:false,&quot;searchNs13&quot;:false,&quot;searchNs14&quot;:false,&quot;searchNs15&quot;:false});;},{},{});mw.loader.implement(&quot;user.tokens&quot;,function(){mw.user.tokens.set({&quot;editToken&quot;:&quot;+\\\\&quot;,&quot;watchToken&quot;:false});;},{},{});\n\n/* cache key: enwikiquote:resourceloader:filter:minify-js:7:155ebea91f273776d5bf2fd4f9928f0e */\n}\n    </script>\n    <script>if(window.mw){ mw.loader.load([&quot;mediawiki.page.startup&quot;,&quot;mediawiki.legacy.wikibits&quot;,&quot;mediawiki.legacy.ajax&quot;,&quot;ext.centralNotice.bannerController&quot;]); }</script>\n    <script src="//bits.wikimedia.org/geoiplookup"></script>\n  </head>\n  <body class="mediawiki ltr sitedir-ltr ns-0 ns-subject page-11_22_63 skin-vector action-view vector-animateLayout">\n    <div id="mw-page-base" class="noprint"></div>\n    <div id="mw-head-base" class="noprint"></div>\n    <div id="content" class="mw-body">\n      <a id="top" shape="rect"></a>\n      <div style="display:none;" id="mw-js-message"></div>\n      <div id="siteNotice">\n        <script>mw.centralNotice.initialize();</script>\n        <script type="text/javascript">\n          /* &lt;![CDATA[ */\ndocument.writeln(&quot;\\x3cdiv id=\\&quot;localNotice\\&quot; lang=\\&quot;en\\&quot; dir=\\&quot;ltr\\&quot;\\x3e\\x3cdiv style=\\&quot;position:absolute; z-index:100; right:100px; top:-0px;\\&quot; class=\\&quot;metadata\\&quot; id=\\&quot;donate\\&quot;\\x3e\\n\\x3cdiv style=\\&quot;text-align:right; font-size:80%\\&quot;\\x3e\\x3ci\\x3eYour \\x3cb\\x3e\\x3ca href=\\&quot;//wikimediafoundation.org/wiki/Fundraising\\&quot; class=\\&quot;extiw\\&quot; title=\\&quot;wikimedia:Fundraising\\&quot;\\x3econtinued donations\\x3c/a\\x3e\\x3c/b\\x3e keep Wikiquote running!\\x3c/i\\x3e\\n\\x3c/div\\x3e\\x3c/div\\x3e\\n\\x3c/div\\x3e&quot;);\n/* ]]&gt; */\n        </script>\n      </div>\n      <h1 id="firstHeading" class="firstHeading">\n        <span dir="auto">11/22/63</span>\n      </h1>\n      <div id="bodyContent">\n        <div id="siteSub">From Wikiquote</div>\n        <div id="contentSub"></div>\n        <div id="jump-to-nav" class="mw-jump">\n          Jump to:\n          <a href="#mw-head" shape="rect">navigation</a>\n          ,\n          <a href="#p-search" shape="rect">search</a>\n        </div>\n        <div lang="en" id="mw-content-text" dir="ltr" class="mw-content-ltr">\n          <div style="border: 1px solid #c0b8cc; background-color: #f0e5ff; width: 80%; margin: 0 auto 1em auto; padding: .2em; text-align: center;">\n            <div class="floatleft">\n              <a href="/wiki/File:Merge-arrow.svg" class="image" shape="rect">\n                <img height="20" width="50" src="//upload.wikimedia.org/wikipedia/commons/thumb/a/aa/Merge-arrow.svg/50px-Merge-arrow.svg.png" alt="Merge-arrow.svg"></img>\n              </a>\n            </div>\n            It has been suggested that this article or section be\n            <a title="w:Wikipedia:Merging and moving pages" href="//en.wikipedia.org/wiki/Wikipedia:Merging_and_moving_pages" class="extiw" shape="rect">merged</a>\n            into\n            <i>\n              <a title="Stephen King" href="/wiki/Stephen_King" shape="rect">Stephen King</a>\n            </i>\n            . (\n            <a title="Talk:Stephen King" href="/wiki/Talk:Stephen_King" shape="rect">Discuss</a>\n            )\n          </div>\n          <p>\n            <a title="w:11/22/63" href="//en.wikipedia.org/wiki/11/22/63" class="extiw" shape="rect">11/22/63</a>\n            (\n            <a title="w:2011" href="//en.wikipedia.org/wiki/2011" class="extiw" shape="rect">2011</a>\n            ) is a novel by\n            <a title="w:Stephen King" href="//en.wikipedia.org/wiki/Stephen_King" class="extiw" shape="rect">Stephen King</a>\n            . It concerns the efforts of a high-school English teacher from the year 2011 who is thrust into the past in an effort to prevent the assassination of President\n            <a title="w:John F. Kennedy" href="//en.wikipedia.org/wiki/John_F._Kennedy" class="extiw" shape="rect">John F. Kennedy</a>\n            in\n            <a title="w:Dealy Plaza" href="//en.wikipedia.org/wiki/Dealy_Plaza" class="extiw" shape="rect">Dealy Plaza</a>\n            on November 22, 1963.\n          </p>\n          <p>Repeated line: The past is obdurate.</p>\n        </div>\n        <div class="printfooter">\n          Retrieved from &quot;\n          <a href="http://en.wikiquote.org/w/index.php?title=11/22/63&amp;oldid=1391954" shape="rect">http://en.wikiquote.org/w/index.php?title=11/22/63&amp;oldid=1391954</a>\n          &quot;\n        </div>\n        <div id="catlinks" class="catlinks">\n          <div id="mw-normal-catlinks" class="mw-normal-catlinks">\n            <a title="Special:Categories" href="/wiki/Special:Categories" shape="rect">Category</a>\n            :\n            <ul>\n              <li>\n                <a title="Category:Articles to be merged" href="/wiki/Category:Articles_to_be_merged" shape="rect">Articles to be merged</a>\n              </li>\n            </ul>\n          </div>\n        </div>\n        <div class="visualClear"></div>\n      </div>\n    </div>\n    <div id="mw-head" class="noprint">\n      <div id="p-personal" class="">\n        <h5>Personal tools</h5>\n        <ul>\n          <li id="pt-createaccount">\n            <a href="/w/index.php?title=Special:UserLogin&amp;returnto=11%2F22%2F63&amp;type=signup" shape="rect">Create account</a>\n          </li>\n          <li id="pt-login">\n            <a accesskey="o" title="You are encouraged to log in; however, it is not mandatory [o]" href="/w/index.php?title=Special:UserLogin&amp;returnto=11%2F22%2F63" shape="rect">Log in</a>\n          </li>\n        </ul>\n      </div>\n      <div id="left-navigation">\n        <div id="p-namespaces" class="vectorTabs">\n          <h5>Namespaces</h5>\n          <ul>\n            <li id="ca-nstab-main" class="selected">\n              <span>\n                <a accesskey="c" title="View the content page [c]" href="/wiki/11/22/63" shape="rect">Page</a>\n              </span>\n            </li>\n            <li id="ca-talk" class="new">\n              <span>\n                <a accesskey="t" title="Discussion about the content page [t]" href="/w/index.php?title=Talk:11/22/63&amp;action=edit&amp;redlink=1" shape="rect">Discussion</a>\n              </span>\n            </li>\n          </ul>\n        </div>\n        <div id="p-variants" class="vectorMenu emptyPortlet">\n          <h4> </h4>\n          <h5>\n            <span>Variants</span>\n            <a href="#" shape="rect"></a>\n          </h5>\n          <div class="menu">\n            <ul></ul>\n          </div>\n        </div>\n      </div>\n      <div id="right-navigation">\n        <div id="p-views" class="vectorTabs">\n          <h5>Views</h5>\n          <ul>\n            <li id="ca-view" class="selected">\n              <span>\n                <a href="/wiki/11/22/63" shape="rect">Read</a>\n              </span>\n            </li>\n            <li id="ca-edit">\n              <span>\n                <a accesskey="e" title="You can edit this page. Please use the preview button before saving [e]" href="/w/index.php?title=11/22/63&amp;action=edit" shape="rect">Edit</a>\n              </span>\n            </li>\n            <li id="ca-history" class="collapsible">\n              <span>\n                <a accesskey="h" title="Past revisions of this page [h]" href="/w/index.php?title=11/22/63&amp;action=history" shape="rect">View history</a>\n              </span>\n            </li>\n          </ul>\n        </div>\n        <div id="p-cactions" class="vectorMenu emptyPortlet">\n          <h5>\n            <span>Actions</span>\n            <a href="#" shape="rect"></a>\n          </h5>\n          <div class="menu">\n            <ul></ul>\n          </div>\n        </div>\n        <div id="p-search">\n          <h5>\n            <label for="searchInput">Search</label>\n          </h5>\n          <form action="/w/index.php" id="searchform" method="get" enctype="application/x-www-form-urlencoded">\n            <div id="simpleSearch">\n              <input accesskey="f" title="Search Wikiquote [f]" name="search" id="searchInput" type="text"></input>\n              <button height="13" width="12" title="Search the pages for this text" name="button" id="searchButton" type="submit">\n                <img alt="Search" src="//bits.wikimedia.org/static-1.20wmf12/skins/vector/images/search-ltr.png?303-4"></img>\n              </button>\n              <input value="Special:Search" name="title" type="hidden"></input>\n            </div>\n          </form>\n        </div>\n      </div>\n    </div>\n    <div id="mw-panel" class="noprint">\n      <div id="p-logo">\n        <a title="Visit the main page" href="/wiki/Main_Page" style="background-image: url(//upload.wikimedia.org/wikiquote/en/b/bc/Wiki.png);" shape="rect"></a>\n      </div>\n      <div id="p-navigation" class="portal">\n        <h5>Navigation</h5>\n        <div class="body">\n          <ul>\n            <li id="n-mainpage">\n              <a accesskey="z" title="Visit the main page [z]" href="/wiki/Main_Page" shape="rect">Main Page</a>\n            </li>\n            <li id="n-portal">\n              <a title="About the project, what you can do, where to find things" href="/wiki/Wikiquote:Community_portal" shape="rect">Community portal</a>\n            </li>\n            <li id="n-Village-pump">\n              <a href="/wiki/Wikiquote:Village_pump" shape="rect">Village pump</a>\n            </li>\n            <li id="n-recentchanges">\n              <a accesskey="r" title="A list of recent changes in the wiki [r]" href="/wiki/Special:RecentChanges" shape="rect">Recent changes</a>\n            </li>\n            <li id="n-randompage">\n              <a accesskey="x" title="Load a random page [x]" href="/wiki/Special:Random" shape="rect">Random page</a>\n            </li>\n            <li id="n-help">\n              <a title="The place to find out" href="/wiki/Help:Contents" shape="rect">Help</a>\n            </li>\n            <li id="n-sitesupport">\n              <a title="Support us" href="//donate.wikimedia.org/wiki/Special:FundraiserRedirector?utm_source=donate&amp;utm_medium=sidebar&amp;utm_campaign=C12_en.wikiquote.org&amp;uselang=en" shape="rect">Donate</a>\n            </li>\n            <li id="n-Contact-Wikiquote">\n              <a href="/wiki/Wikiquote:Contact_us" shape="rect">Contact Wikiquote</a>\n            </li>\n          </ul>\n        </div>\n      </div>\n      <div id="p-Wikiquote_links" class="portal">\n        <h5>Wikiquote links</h5>\n        <div class="body">\n          <ul>\n            <li id="n-People">\n              <a href="/wiki/List_of_people_by_name" shape="rect">People</a>\n            </li>\n            <li id="n-Literary-works">\n              <a href="/wiki/List_of_literary_works" shape="rect">Literary works</a>\n            </li>\n            <li id="n-Proverbs">\n              <a href="/wiki/Category:Proverbs" shape="rect">Proverbs</a>\n            </li>\n            <li id="n-Films">\n              <a href="/wiki/List_of_films" shape="rect">Films</a>\n            </li>\n            <li id="n-TV-shows">\n              <a href="/wiki/List_of_television_shows" shape="rect">TV shows</a>\n            </li>\n            <li id="n-Themes">\n              <a href="/wiki/Category:Themes" shape="rect">Themes</a>\n            </li>\n            <li id="n-Categories">\n              <a href="/wiki/Category:Categories" shape="rect">Categories</a>\n            </li>\n          </ul>\n        </div>\n      </div>\n      <div id="p-tb" class="portal">\n        <h5>Toolbox</h5>\n        <div class="body">\n          <ul>\n            <li id="t-whatlinkshere">\n              <a accesskey="j" title="A list of all wiki pages that link here [j]" href="/wiki/Special:WhatLinksHere/11/22/63" shape="rect">What links here</a>\n            </li>\n            <li id="t-recentchangeslinked">\n              <a accesskey="k" title="Recent changes in pages linked from this page [k]" href="/wiki/Special:RecentChangesLinked/11/22/63" shape="rect">Related changes</a>\n            </li>\n            <li id="t-upload">\n              <a accesskey="u" title="Upload files [u]" href="//commons.wikimedia.org/wiki/Special:Upload" shape="rect">Upload file</a>\n            </li>\n            <li id="t-specialpages">\n              <a accesskey="q" title="A list of all special pages [q]" href="/wiki/Special:SpecialPages" shape="rect">Special pages</a>\n            </li>\n            <li id="t-print">\n              <a accesskey="p" title="Printable version of this page [p]" rel="alternate" href="/w/index.php?title=11/22/63&amp;printable=yes" shape="rect">Printable version</a>\n            </li>\n            <li id="t-permalink">\n              <a title="Permanent link to this revision of the page" href="/w/index.php?title=11/22/63&amp;oldid=1391954" shape="rect">Permanent link</a>\n            </li>\n            <li id="t-cite">\n              <a title="Information on how to cite this page" href="/w/index.php?title=Special:Cite&amp;page=11%2F22%2F63&amp;id=1391954" shape="rect">Cite this page</a>\n            </li>\n          </ul>\n        </div>\n      </div>\n    </div>\n    <div id="footer">\n      <ul id="footer-info">\n        <li id="footer-info-lastmod"> This page was last modified on 5 January 2012, at 20:18.</li>\n        <li id="footer-info-copyright">\n          Text is available under the\n          <a href="//creativecommons.org/licenses/by-sa/3.0/" shape="rect">Creative Commons Attribution/Share-Alike License</a>\n          ;\nadditional terms may apply.\nSee\n          <a href="//wikimediafoundation.org/wiki/Terms_of_use" shape="rect">Terms of use</a>\n          for details.\n        </li>\n      </ul>\n      <ul id="footer-places">\n        <li id="footer-places-privacy">\n          <a title="wikimedia:Privacy policy" href="//wikimediafoundation.org/wiki/Privacy_policy" shape="rect">Privacy policy</a>\n        </li>\n        <li id="footer-places-about">\n          <a title="Wikiquote:About" href="/wiki/Wikiquote:About" shape="rect">About Wikiquote</a>\n        </li>\n        <li id="footer-places-disclaimer">\n          <a title="Wikiquote:General disclaimer" href="/wiki/Wikiquote:General_disclaimer" shape="rect">Disclaimers</a>\n        </li>\n        <li id="footer-places-mobileview">\n          <a href="http://en.m.wikiquote.org/w/index.php?title=11/22/63&amp;mobileaction=toggle_view_mobile" class="noprint stopMobileRedirectToggle" shape="rect">Mobile view</a>\n        </li>\n      </ul>\n      <ul id="footer-icons" class="noprint">\n        <li id="footer-copyrightico">\n          <a href="//wikimediafoundation.org/" shape="rect">\n            <img alt="Wikimedia Foundation" height="31" width="88" src="//bits.wikimedia.org/images/wikimedia-button.png"></img>\n          </a>\n        </li>\n        <li id="footer-poweredbyico">\n          <a href="//www.mediawiki.org/" shape="rect">\n            <img height="31" width="88" alt="Powered by MediaWiki" src="//bits.wikimedia.org/static-1.20wmf12/skins/common/images/poweredby_mediawiki_88x31.png"></img>\n          </a>\n        </li>\n      </ul>\n      <div style="clear:both"></div>\n    </div>\n    <script>if(window.mw){ mw.loader.state({&quot;site&quot;:&quot;loading&quot;,&quot;user&quot;:&quot;ready&quot;,&quot;user.groups&quot;:&quot;ready&quot;}); }</script>\n    <script src="//bits.wikimedia.org/en.wikiquote.org/load.php?debug=false&amp;lang=en&amp;modules=skins.vector&amp;only=scripts&amp;skin=vector&amp;*"></script>\n    <script>\n      if(window.mw){\nmw.loader.load([&quot;mediawiki.user&quot;,&quot;mediawiki.page.ready&quot;,&quot;mediawiki.legacy.mwsuggest&quot;,&quot;ext.vector.collapsibleNav&quot;,&quot;ext.vector.collapsibleTabs&quot;,&quot;ext.vector.editWarning&quot;,&quot;ext.vector.simpleSearch&quot;], null, true);\n}\n    </script>\n    <script src="//bits.wikimedia.org/en.wikiquote.org/load.php?debug=false&amp;lang=en&amp;modules=site&amp;only=scripts&amp;skin=vector&amp;*"></script>\n  </body>\n</html>'
p11
sbsS'mentions'
p12
(lp13
(iedu.umass.cs.iesl.wikilink.expanded.data.ttypes
Mention
p14
(dp15
S'anchor_text'
p16
S'11/22/63'
p17
sS'context'
p18
(iedu.umass.cs.iesl.wikilink.expanded.data.ttypes
Context
p19
(dp20
S'middle'
p21
S'11/22/63'
p22
sS'right'
p23
S'( 2011 ) is a novel by Stephen King . It concerns the efforts of a high-school English teacher from the year 2011 who is'
p24
sS'left'
p25
S'From Wikiquote Jump to: navigation , search It has been suggested that this article or section be merged into Stephen King . ( Discuss )'
p26
sbsS'freebase_id'
p27
NsS'raw_text_offset'
p28
I8576
sS'wiki_url'
p29
S'http://en.wikipedia.org/wiki/11/22/63'
p30
sba(iedu.umass.cs.iesl.wikilink.expanded.data.ttypes
Mention
p31
(dp32
g16
S'2011'
p33
sg18
(iedu.umass.cs.iesl.wikilink.expanded.data.ttypes
Context
p34
(dp35
g21
S'2011'
p36
sg23
S') is a novel by Stephen King . It concerns the efforts of a high-school English teacher from the year 2011 who is thrust into'
p37
sg25
S'Jump to: navigation , search It has been suggested that this article or section be merged into Stephen King . ( Discuss ) 11/22/63 ('
p38
sbsg27
S'9202a8c04000641f800000001e16ccae'
p39
sg28
I8658
sg29
S'http://en.wikipedia.org/wiki/2011'
p40
sba(iedu.umass.cs.iesl.wikilink.expanded.data.ttypes
Mention
p41
(dp42
g16
S'Stephen King'
p43
sg18
(iedu.umass.cs.iesl.wikilink.expanded.data.ttypes
Context
p44
(dp45
g21
S'Stephen King'
p46
sg23
S'. It concerns the efforts of a high-school English teacher from the year 2011 who is thrust into the past in an effort to prevent'
p47
sg25
S'has been suggested that this article or section be merged into Stephen King . ( Discuss ) 11/22/63 ( 2011 ) is a novel by'
p48
sbsg27
S'9202a8c04000641f80000000219481a5'
p49
sg28
I8766
sg29
S'http://en.wikipedia.org/wiki/Stephen_King'
p50
sba(iedu.umass.cs.iesl.wikilink.expanded.data.ttypes
Mention
p51
(dp52
g16
S'John F. Kennedy'
p53
sg18
(iedu.umass.cs.iesl.wikilink.expanded.data.ttypes
Context
p54
(dp55
g21
S'John F. Kennedy'
p56
sg23
S'in Dealy Plaza on November 22, 1963. Repeated line: The past is obdurate. Retrieved from " http://en.wikiquote.org/w/index.php?title=11/22/63&oldid=1391954 " Category : Articles to be merged Personal'
p57
sg25
S'efforts of a high-school English teacher from the year 2011 who is thrust into the past in an effort to prevent the assassination of President'
p58
sbsg27
S'9202a8c04000641f8000000000c1c424'
p59
sg28
I9033
sg29
S'http://en.wikipedia.org/wiki/John_F._Kennedy'
p60
sba(iedu.umass.cs.iesl.wikilink.expanded.data.ttypes
Mention
p61
(dp62
g16
S'Dealy Plaza'
p63
sg18
(iedu.umass.cs.iesl.wikilink.expanded.data.ttypes
Context
p64
(dp65
g21
S'Dealy Plaza'
p66
sg23
S'on November 22, 1963. Repeated line: The past is obdurate. Retrieved from " http://en.wikiquote.org/w/index.php?title=11/22/63&oldid=1391954 " Category : Articles to be merged Personal tools Create account'
p67
sg25
S'English teacher from the year 2011 who is thrust into the past in an effort to prevent the assassination of President John F. Kennedy in'
p68
sbsg27
S'9202a8c04000641f80000000001d560a'
p69
sg28
I9138
sg29
S'http://en.wikipedia.org/wiki/Dealy_Plaza'
p70
sbasS'doc_id'
p71
I3478273
sS'rare_words'
p72
(lp73
(iedu.umass.cs.iesl.wikilink.expanded.data.ttypes
RareWord
p74
(dp75
S'word'
p76
S'John'
p77
sS'offset'
p78
I9033
sba(iedu.umass.cs.iesl.wikilink.expanded.data.ttypes
RareWord
p79
(dp80
g76
S'thrust'
p81
sg78
I8867
sba(iedu.umass.cs.iesl.wikilink.expanded.data.ttypes
RareWord
p82
(dp83
g76
S'F'
p84
sg78
I9038
sba(iedu.umass.cs.iesl.wikilink.expanded.data.ttypes
RareWord
p85
(dp86
g76
S'into'
p87
sg78
I8874
sba(iedu.umass.cs.iesl.wikilink.expanded.data.ttypes
RareWord
p88
(dp89
g76
S'President'
p90
sg78
I8933
sba(iedu.umass.cs.iesl.wikilink.expanded.data.ttypes
RareWord
p91
(dp92
g76
S'English'
p93
sg78
I8825
sba(iedu.umass.cs.iesl.wikilink.expanded.data.ttypes
RareWord
p94
(dp95
g76
S'prevent'
p96
sg78
I8904
sba(iedu.umass.cs.iesl.wikilink.expanded.data.ttypes
RareWord
p97
(dp98
g76
S'efforts'
p99
sg78
I8800
sba(iedu.umass.cs.iesl.wikilink.expanded.data.ttypes
RareWord
p100
(dp101
g76
S'Kennedy'
p102
sg78
I9041
sba(iedu.umass.cs.iesl.wikilink.expanded.data.ttypes
RareWord
p103
(dp104
g76
S'year'
p105
sg78
I8850
sbasb.