(iedu.umass.cs.iesl.wikilink.expanded.data.ttypes
WikiLinkItem
p0
(dp1
S'url'
p2
S'http://ayersinacaravan.blogspot.com/2011/06/history-lesson-at-cowra.html'
p3
sS'content'
p4
(iedu.umass.cs.iesl.wikilink.expanded.data.ttypes
PageContentItem
p5
(dp6
S'articleText'
p7
NsS'raw'
p8
NsS'fullText'
p9
NsS'dom'
p10
S'<html b:version="2" dir="ltr" class="v2">\n  <head>\n    <meta content="IE=EmulateIE7" http-equiv="X-UA-Compatible"></meta>\n    <meta content="width=1100" name="viewport"></meta>\n    <meta content="text/html; charset=UTF-8" http-equiv="Content-Type"></meta>\n    <script type="text/javascript">\n      (function() { var a=window,b=&quot;jstiming&quot;,d=&quot;tick&quot;;var e=function(c){this.t={};this.tick=function(c,p,h){h=void 0!=h?h:(new Date).getTime();this.t[c]=[h,p]};this[d](&quot;start&quot;,null,c)},f=new e;a.jstiming={Timer:e,load:f};if(a.performance&amp;&amp;a.performance.timing){var g=a.performance.timing,j=a[b].load,k=g.navigationStart,l=g.responseStart;0&lt;k&amp;&amp;l&gt;=k&amp;&amp;(j[d](&quot;_wtsrt&quot;,void 0,k),j[d](&quot;wtsrt_&quot;,&quot;_wtsrt&quot;,l),j[d](&quot;tbsd_&quot;,&quot;wtsrt_&quot;))}\ntry{var m=null;a.chrome&amp;&amp;a.chrome.csi&amp;&amp;(m=Math.floor(a.chrome.csi().pageT),j&amp;&amp;0&lt;k&amp;&amp;(j[d](&quot;_tbnd&quot;,void 0,a.chrome.csi().startE),j[d](&quot;tbnd_&quot;,&quot;_tbnd&quot;,k)));null==m&amp;&amp;a.gtbExternal&amp;&amp;(m=a.gtbExternal.pageT());null==m&amp;&amp;a.external&amp;&amp;(m=a.external.pageT,j&amp;&amp;0&lt;k&amp;&amp;(j[d](&quot;_tbnd&quot;,void 0,a.external.startE),j[d](&quot;tbnd_&quot;,&quot;_tbnd&quot;,k)));m&amp;&amp;(a[b].pt=m)}catch(n){};a.tickAboveFold=function(c){var i=0;if(c.offsetParent){do i+=c.offsetTop;while(c=c.offsetParent)}c=i;750&gt;=c&amp;&amp;a[b].load[d](&quot;aft&quot;)};var q=!1;function r(){q||(q=!0,a[b].load[d](&quot;firstScrollTime&quot;))}a.addEventListener?a.addEventListener(&quot;scroll&quot;,r,!1):a.attachEvent(&quot;onscroll&quot;,r);\n })();\n    </script>\n    <meta content="true" name="MSSmartTagsPreventParsing"></meta>\n    <meta content="blogger" name="generator"></meta>\n    <link type="image/x-icon" rel="icon" href="http://ayersinacaravan.blogspot.com/favicon.ico"></link>\n    <link rel="canonical" href="http://ayersinacaravan.blogspot.com/2011/06/history-lesson-at-cowra.html"></link>\n    <link href="http://ayersinacaravan.blogspot.com/feeds/posts/default" title="The Ayers Family Trip Around Australia. . . - Atom" type="application/atom+xml" rel="alternate"></link>\n    <link href="http://ayersinacaravan.blogspot.com/feeds/posts/default?alt=rss" title="The Ayers Family Trip Around Australia. . . - RSS" type="application/rss+xml" rel="alternate"></link>\n    <link href="http://www.blogger.com/feeds/3354772550169149859/posts/default" title="The Ayers Family Trip Around Australia. . . - Atom" type="application/atom+xml" rel="service.post"></link>\n    <link href="http://www.blogger.com/rsd.g?blogID=3354772550169149859" title="RSD" type="application/rsd+xml" rel="EditURI"></link>\n    <link href="http://ayersinacaravan.blogspot.com/feeds/7768802491906220699/comments/default" title="The Ayers Family Trip Around Australia. . . - Atom" type="application/atom+xml" rel="alternate"></link>\n    <link href="http://lh4.ggpht.com/-CEktAT2gylY/TfyNpizFN_I/AAAAAAAABVo/yN4kKsjQpf0/s72-c/Cowra%2525202011-06-13%252520009_thumb.jpg?imgmax=800" rel="image_src"></link>\n    <title>The Ayers Family Trip Around Australia. . .: A History Lesson At Cowra</title>\n    <script type="text/javascript">\n      if (navigator.userAgent.indexOf(\'MSIE 6\') == -1) {\n  WebFontConfig = {\n    google: { families: [ \'Crushed\' ],\n    api: \'//themes.googleusercontent.com/fonts/css?kit=6czfK3Nk7Lq66nNgQ-y1Sg\'\n    },\n    loading: function() {\n      if (window.jstiming) window.jstiming.load.tick(\'webfontLoading\');\n    },\n    active: function() {\n      if (window.jstiming) window.jstiming.load.tick(\'webfontActive\');\n    }\n  };\n  (function() {\n    var wf = document.createElement(\'script\');\n    wf.src = \'//ajax.googleapis.com/ajax/libs/webfont/1/webfont.js\';\n    wf.type = \'text/javascript\';\n    wf.async = \'true\';\n    var s = document.getElementsByTagName(\'script\')[0];\n    s.parentNode.insertBefore(wf, s);\n  })();\n} else {\n  document.documentElement.className = \'wf-inactive\';\n}\n    </script>\n    <style type="text/css"> .wf-inactive .header h1, .wf-crushed-n4-loading .header h1, .wf-crushed-n4-inactive .header h1 { font-family: cursive; } </style>\n    <link href="//www.blogger.com/static/v1/widgets/4219271310-widget_css_2_bundle.css" rel="stylesheet" type="text/css"></link>\n    <link href="//www.blogger.com/dyn-css/authorization.css?targetBlogID=3354772550169149859&amp;zx=94cba752-15c8-43f1-8fff-3a2d20ce1c33" rel="stylesheet" type="text/css"></link>\n    <style type="text/css" id="page-skin-1">\n      &lt;!--\n/*\n-----------------------------------------------\nBlogger Template Style\nName:     Travel\nDesigner: Sookhee Lee\nURL:      www.plyfly.net\n----------------------------------------------- */\n/* Variable definitions\n====================\n&lt;Variable name=&quot;keycolor&quot; description=&quot;Main Color&quot; type=&quot;color&quot; default=&quot;#539bcd&quot;/&gt;\n&lt;Group description=&quot;Page Text&quot; selector=&quot;body&quot;&gt;\n&lt;Variable name=&quot;body.font&quot; description=&quot;Font&quot; type=&quot;font&quot;\ndefault=&quot;normal normal 13px \'Trebuchet MS\',Trebuchet,sans-serif&quot;/&gt;\n&lt;Variable name=&quot;body.text.color&quot; description=&quot;Text Color&quot; type=&quot;color&quot; default=&quot;#bbbbbb&quot;/&gt;\n&lt;/Group&gt;\n&lt;Group description=&quot;Backgrounds&quot; selector=&quot;.body-fauxcolumns-outer&quot;&gt;\n&lt;Variable name=&quot;body.background.color&quot; description=&quot;Outer Background&quot; type=&quot;color&quot; default=&quot;#539bcd&quot;/&gt;\n&lt;Variable name=&quot;content.background.color&quot; description=&quot;Main Background&quot; type=&quot;color&quot; default=&quot;transparent&quot;/&gt;\n&lt;/Group&gt;\n&lt;Group description=&quot;Links&quot; selector=&quot;.main-outer&quot;&gt;\n&lt;Variable name=&quot;link.color&quot; description=&quot;Link Color&quot; type=&quot;color&quot; default=&quot;#ff9900&quot;/&gt;\n&lt;Variable name=&quot;link.visited.color&quot; description=&quot;Visited Color&quot; type=&quot;color&quot; default=&quot;#b87209&quot;/&gt;\n&lt;Variable name=&quot;link.hover.color&quot; description=&quot;Hover Color&quot; type=&quot;color&quot; default=&quot;#ff9900&quot;/&gt;\n&lt;/Group&gt;\n&lt;Group description=&quot;Blog Title&quot; selector=&quot;.header h1&quot;&gt;\n&lt;Variable name=&quot;header.font&quot; description=&quot;Font&quot; type=&quot;font&quot;\ndefault=&quot;normal normal 60px \'Trebuchet MS\',Trebuchet,sans-serif&quot;/&gt;\n&lt;Variable name=&quot;header.text.color&quot; description=&quot;Text Color&quot; type=&quot;color&quot; default=&quot;#ffffff&quot; /&gt;\n&lt;/Group&gt;\n&lt;Group description=&quot;Blog Description&quot; selector=&quot;.header .description&quot;&gt;\n&lt;Variable name=&quot;description.text.color&quot; description=&quot;Description Color&quot; type=&quot;color&quot;\ndefault=&quot;#bbbbbb&quot; /&gt;\n&lt;/Group&gt;\n&lt;Group description=&quot;Tabs Text&quot; selector=&quot;.tabs-inner .widget li a&quot;&gt;\n&lt;Variable name=&quot;tabs.font&quot; description=&quot;Font&quot; type=&quot;font&quot;\ndefault=&quot;normal bold 16px \'Trebuchet MS\',Trebuchet,sans-serif&quot;/&gt;\n&lt;Variable name=&quot;tabs.text.color&quot; description=&quot;Text Color&quot; type=&quot;color&quot; default=&quot;#ffffff&quot;/&gt;\n&lt;Variable name=&quot;tabs.selected.text.color&quot; description=&quot;Selected Color&quot; type=&quot;color&quot; default=&quot;#ffffff&quot;/&gt;\n&lt;/Group&gt;\n&lt;Group description=&quot;Tabs Background&quot; selector=&quot;.tabs-outer .PageList&quot;&gt;\n&lt;Variable name=&quot;tabs.background.color&quot; description=&quot;Background Color&quot; type=&quot;color&quot; default=&quot;transparent&quot;/&gt;\n&lt;Variable name=&quot;tabs.selected.background.color&quot; description=&quot;Selected Color&quot; type=&quot;color&quot; default=&quot;transparent&quot;/&gt;\n&lt;/Group&gt;\n&lt;Group description=&quot;Date Header&quot; selector=&quot;.main-inner h2.date-header&quot;&gt;\n&lt;Variable name=&quot;date.font&quot; description=&quot;Font&quot; type=&quot;font&quot;\ndefault=&quot;normal normal 14px \'Trebuchet MS\',Trebuchet,sans-serif&quot;/&gt;\n&lt;Variable name=&quot;date.text.color&quot; description=&quot;Text Color&quot; type=&quot;color&quot; default=&quot;#bbbbbb&quot;/&gt;\n&lt;/Group&gt;\n&lt;Group description=&quot;Post Title&quot; selector=&quot;h3.post-title a&quot;&gt;\n&lt;Variable name=&quot;post.title.font&quot; description=&quot;Font&quot; type=&quot;font&quot;\ndefault=&quot;normal bold 20px \'Trebuchet MS\',Trebuchet,sans-serif&quot;/&gt;\n&lt;Variable name=&quot;post.title.text.color&quot; description=&quot;Text Color&quot; type=&quot;color&quot;\ndefault=&quot;#ffffff&quot;/&gt;\n&lt;/Group&gt;\n&lt;Group description=&quot;Post Background&quot; selector=&quot;.column-center-inner&quot;&gt;\n&lt;Variable name=&quot;post.background.color&quot; description=&quot;Background Color&quot; type=&quot;color&quot;\ndefault=&quot;transparent&quot;/&gt;\n&lt;Variable name=&quot;post.background.url&quot; description=&quot;Post Background URL&quot; type=&quot;url&quot; default=&quot;none&quot;/&gt;\n&lt;/Group&gt;\n&lt;Group description=&quot;Gadget Title Color&quot; selector=&quot;h2&quot;&gt;\n&lt;Variable name=&quot;widget.title.font&quot; description=&quot;Font&quot; type=&quot;font&quot;\ndefault=&quot;normal bold 14px \'Trebuchet MS\',Trebuchet,sans-serif&quot;/&gt;\n&lt;Variable name=&quot;widget.title.text.color&quot; description=&quot;Title Color&quot; type=&quot;color&quot; default=&quot;#ffffff&quot;/&gt;\n&lt;/Group&gt;\n&lt;Group description=&quot;Gadget Text&quot; selector=&quot;.footer-inner .widget, .sidebar .widget&quot;&gt;\n&lt;Variable name=&quot;widget.font&quot; description=&quot;Font&quot; type=&quot;font&quot;\ndefault=&quot;normal normal 14px \'Trebuchet MS\',Trebuchet,sans-serif&quot;/&gt;\n&lt;Variable name=&quot;widget.text.color&quot; description=&quot;Text Color&quot; type=&quot;color&quot; default=&quot;#bbbbbb&quot;/&gt;\n&lt;/Group&gt;\n&lt;Group description=&quot;Gadget Links&quot; selector=&quot;.sidebar .widget&quot;&gt;\n&lt;Variable name=&quot;widget.link.color&quot; description=&quot;Link Color&quot; type=&quot;color&quot; default=&quot;#bbbbbb&quot;/&gt;\n&lt;Variable name=&quot;widget.link.visited.color&quot; description=&quot;Visited Color&quot; type=&quot;color&quot; default=&quot;#b87309&quot;/&gt;\n&lt;Variable name=&quot;widget.alternate.text.color&quot; description=&quot;Alternate Color&quot; type=&quot;color&quot; default=&quot;#ffffff&quot;/&gt;\n&lt;/Group&gt;\n&lt;Group description=&quot;Sidebar Background&quot; selector=&quot;.column-left-inner .column-right-inner&quot;&gt;\n&lt;Variable name=&quot;widget.outer.background.color&quot; description=&quot;Background Color&quot; type=&quot;color&quot; default=&quot;transparent&quot; /&gt;\n&lt;Variable name=&quot;widget.border.bevel.color&quot; description=&quot;Bevel Color&quot; type=&quot;color&quot; default=&quot;transparent&quot; /&gt;\n&lt;/Group&gt;\n&lt;Variable name=&quot;body.background&quot; description=&quot;Body Background&quot; type=&quot;background&quot;\ncolor=&quot;#529acd&quot; default=&quot;$(color) none repeat-x scroll top center&quot;/&gt;\n&lt;Variable name=&quot;content.background&quot; description=&quot;Content Background&quot; type=&quot;background&quot;\ncolor=&quot;#cd8553&quot; default=&quot;$(color) none repeat scroll top center&quot;/&gt;\n&lt;Variable name=&quot;comments.background&quot; description=&quot;Comments Background&quot; type=&quot;background&quot;\ndefault=&quot;#cccccc none repeat scroll top center&quot;/&gt;\n&lt;Variable name=&quot;content.imageBorder.top.space&quot; description=&quot;Content Image Border Top Space&quot; type=&quot;length&quot; default=&quot;0&quot;/&gt;\n&lt;Variable name=&quot;content.imageBorder.top&quot; description=&quot;Content Image Border Top&quot; type=&quot;url&quot; default=&quot;none&quot;/&gt;\n&lt;Variable name=&quot;content.margin&quot; description=&quot;Content Margin Top&quot; type=&quot;length&quot; default=&quot;20px&quot;/&gt;\n&lt;Variable name=&quot;content.padding&quot; description=&quot;Content Padding&quot; type=&quot;length&quot; default=&quot;20px&quot;/&gt;\n&lt;Variable name=&quot;content.posts.padding&quot; description=&quot;Posts Content Padding&quot; type=&quot;length&quot; default=&quot;10px&quot;/&gt;\n&lt;Variable name=&quot;tabs.background.gradient&quot; description=&quot;Tabs Background Gradient&quot; type=&quot;url&quot;\ndefault=&quot;url(//www.blogblog.com/1kt/travel/bg_black_50.png)&quot;/&gt;\n&lt;Variable name=&quot;tabs.selected.background.gradient&quot; description=&quot;Tabs Selected Background Gradient&quot; type=&quot;url&quot;\ndefault=&quot;url(//www.blogblog.com/1kt/travel/bg_black_50.png)&quot;/&gt;\n&lt;Variable name=&quot;widget.outer.background.gradient&quot; description=&quot;Sidebar Gradient&quot; type=&quot;url&quot;\ndefault=&quot;url(//www.blogblog.com/1kt/travel/bg_black_50.png)&quot;/&gt;\n&lt;Variable name=&quot;footer.background.gradient&quot; description=&quot;Footer Background Gradient&quot; type=&quot;url&quot; default=&quot;none&quot;/&gt;\n&lt;Variable name=&quot;mobile.background.overlay&quot; description=&quot;Mobile Background Overlay&quot; type=&quot;string&quot;\ndefault=&quot;transparent none repeat scroll top left&quot;/&gt;\n&lt;Variable name=&quot;mobile.button.color&quot; description=&quot;Mobile Button Color&quot; type=&quot;color&quot; default=&quot;#ffffff&quot; /&gt;\n&lt;Variable name=&quot;startSide&quot; description=&quot;Side where text starts in blog language&quot; type=&quot;automatic&quot; default=&quot;left&quot;/&gt;\n&lt;Variable name=&quot;endSide&quot; description=&quot;Side where text ends in blog language&quot; type=&quot;automatic&quot; default=&quot;right&quot;/&gt;\n*/\n/* Content\n----------------------------------------------- */\nbody {\nfont: normal normal 14px \'Trebuchet MS\',Trebuchet,sans-serif;\ncolor: #bbbbbb;\nbackground: #529acd url(http://themes.googleusercontent.com/image?id=1mC8xwn3jArRlMnMoTCOhcXN94kf6OsZlV6npzjGMSqcFaEegIUpzgDpzxh5RtqC47G3I) repeat scroll top center /* Credit: diane555 (http://www.istockphoto.com/googleimages.php?id=2474365&amp;platform=blogger) */;\n}\nhtml body .region-inner {\nmin-width: 0;\nmax-width: 100%;\nwidth: auto;\n}\na:link {\ntext-decoration:none;\ncolor: #ff9b00;\n}\na:visited {\ntext-decoration:none;\ncolor: #b87309;\n}\na:hover {\ntext-decoration:underline;\ncolor: #ff9b00;\n}\n.content-outer .content-cap-top {\nheight: 0;\nbackground: transparent none repeat-x scroll top center;\n}\n.content-outer {\nmargin: 0 auto;\npadding-top: 20px;\n}\n.content-inner {\nbackground: transparent url(http://blogblog.com/1kt/travel/bg_black_70.png) repeat scroll top left;\nbackground-position: left -0;\nbackground-color: #cd8553;\npadding: 20px;\n}\n.main-inner .date-outer {\nmargin-bottom: 2em;\n}\n/* Header\n----------------------------------------------- */\n.header-inner .Header .titlewrapper,\n.header-inner .Header .descriptionwrapper {\npadding-left: 10px;\npadding-right: 10px;\n}\n.Header h1 {\nfont: normal bold 60px Crushed;\ncolor: #539acd;\n}\n.Header h1 a {\ncolor: #539acd;\n}\n.Header .description {\nfont-size: 130%;\n}\n/* Tabs\n----------------------------------------------- */\n.tabs-inner {\nmargin: 1em 0 0;\npadding: 0;\n}\n.tabs-inner .section {\nmargin: 0;\n}\n.tabs-inner .widget ul {\npadding: 0;\nbackground: transparent url(http://www.blogblog.com/1kt/travel/bg_black_50.png) repeat scroll top center;\n}\n.tabs-inner .widget li {\nborder: none;\n}\n.tabs-inner .widget li a {\ndisplay: inline-block;\npadding: 1em 1.5em;\ncolor: #ffffff;\nfont: normal bold 16px \'Trebuchet MS\',Trebuchet,sans-serif;\n}\n.tabs-inner .widget li.selected a,\n.tabs-inner .widget li a:hover {\nposition: relative;\nz-index: 1;\nbackground: transparent url(http://www.blogblog.com/1kt/travel/bg_black_50.png) repeat scroll top center;\ncolor: #ffffff;\n}\n/* Headings\n----------------------------------------------- */\nh2 {\nfont: normal bold 18px Arial, Tahoma, Helvetica, FreeSans, sans-serif;\ncolor: #ff9b00;\n}\n.main-inner h2.date-header {\nfont: normal normal 16px \'Trebuchet MS\',Trebuchet,sans-serif;\ncolor: #539acd;\n}\n.footer-inner .widget h2,\n.sidebar .widget h2 {\npadding-bottom: .5em;\n}\n/* Main\n----------------------------------------------- */\n.main-inner {\npadding: 20px 0;\n}\n.main-inner .column-center-inner {\npadding: 10px 0;\n}\n.main-inner .column-center-inner .section {\nmargin: 0 10px;\n}\n.main-inner .column-right-inner {\nmargin-left: 20px;\n}\n.main-inner .fauxcolumn-right-outer .fauxcolumn-inner {\nmargin-left: 20px;\nbackground: #a8c745 url(http://www.blogblog.com/1kt/travel/bg_black_50.png) repeat scroll top left;\n}\n.main-inner .column-left-inner {\nmargin-right: 20px;\n}\n.main-inner .fauxcolumn-left-outer .fauxcolumn-inner {\nmargin-right: 20px;\nbackground: #a8c745 url(http://www.blogblog.com/1kt/travel/bg_black_50.png) repeat scroll top left;\n}\n.main-inner .column-left-inner,\n.main-inner .column-right-inner {\npadding: 15px 0;\n}\n/* Posts\n----------------------------------------------- */\nh3.post-title {\nmargin-top: 20px;\n}\nh3.post-title a {\nfont: normal normal 24px \'Trebuchet MS\',Trebuchet,sans-serif;\ncolor: #ff9b00;\n}\nh3.post-title a:hover {\ntext-decoration: underline;\n}\n.main-inner .column-center-outer {\nbackground: transparent none repeat scroll top left;\n_background-image: none;\n}\n.post-body {\nline-height: 1.4;\nposition: relative;\n}\n.post-header {\nmargin: 0 0 1em;\nline-height: 1.6;\n}\n.post-footer {\nmargin: .5em 0;\nline-height: 1.6;\n}\n#blog-pager {\nfont-size: 140%;\n}\n#comments {\nbackground: transparent url(http://blogblog.com/1kt/travel/bg_black_50.png) repeat scroll top center;\npadding: 15px;\n}\n#comments .comment-author {\npadding-top: 1.5em;\n}\n#comments h4,\n#comments .comment-author a,\n#comments .comment-timestamp a {\ncolor: #ff9b00;\n}\n#comments .comment-author:first-child {\npadding-top: 0;\nborder-top: none;\n}\n.avatar-image-container {\nmargin: .2em 0 0;\n}\n/* Comments\n----------------------------------------------- */\n#comments a {\ncolor: #ff9b00;\n}\n.comments .comments-content .icon.blog-author {\nbackground-repeat: no-repeat;\nbackground-image: url(data:image/png;base64,iVBORw0KGgoAAAANSUhEUgAAABIAAAASCAYAAABWzo5XAAAAAXNSR0IArs4c6QAAAAZiS0dEAP8A/wD/oL2nkwAAAAlwSFlzAAALEgAACxIB0t1+/AAAAAd0SU1FB9sLFwMeCjjhcOMAAAD+SURBVDjLtZSvTgNBEIe/WRRnm3U8RC1neQdsm1zSBIU9VVF1FkUguQQsD9ITmD7ECZIJSE4OZo9stoVjC/zc7ky+zH9hXwVwDpTAWWLrgS3QAe8AZgaAJI5zYAmc8r0G4AHYHQKVwII8PZrZFsBFkeRCABYiMh9BRUhnSkPTNCtVXYXURi1FpBDgArj8QU1eVXUzfnjv7yP7kwu1mYrkWlU33vs1QNu2qU8pwN0UpKoqokjWwCztrMuBhEhmh8bD5UDqur75asbcX0BGUB9/HAMB+r32hznJgXy2v0sGLBcyAJ1EK3LFcbo1s91JeLwAbwGYu7TP/3ZGfnXYPgAVNngtqatUNgAAAABJRU5ErkJggg==);\n}\n.comments .comments-content .loadmore a {\nborder-top: 1px solid #ff9b00;\nborder-bottom: 1px solid #ff9b00;\n}\n.comments .comment-thread.inline-thread {\nbackground: transparent;\n}\n.comments .continue {\nborder-top: 2px solid #ff9b00;\n}\n/* Widgets\n----------------------------------------------- */\n.sidebar .widget {\nborder-bottom: 2px solid transparent;\npadding-bottom: 10px;\nmargin: 10px 0;\n}\n.sidebar .widget:first-child {\nmargin-top: 0;\n}\n.sidebar .widget:last-child {\nborder-bottom: none;\nmargin-bottom: 0;\npadding-bottom: 0;\n}\n.footer-inner .widget,\n.sidebar .widget {\nfont: normal normal 16px \'Trebuchet MS\',Trebuchet,sans-serif;\ncolor: #ffffff;\n}\n.sidebar .widget a:link {\ncolor: #ffffff;\ntext-decoration: none;\n}\n.sidebar .widget a:visited {\ncolor: #67bfff;\n}\n.sidebar .widget a:hover {\ncolor: #ffffff;\ntext-decoration: underline;\n}\n.footer-inner .widget a:link {\ncolor: #ff9b00;\ntext-decoration: none;\n}\n.footer-inner .widget a:visited {\ncolor: #b87309;\n}\n.footer-inner .widget a:hover {\ncolor: #ff9b00;\ntext-decoration: underline;\n}\n.widget .zippy {\ncolor: #67bfff;\n}\n.footer-inner {\nbackground: transparent none repeat scroll top center;\n}\n/* Mobile\n----------------------------------------------- */\nbody.mobile  {\npadding: 0 10px;\nbackground-size: 100% auto;\n}\nbody.mobile .AdSense {\nmargin: 0 -10px;\n}\n.mobile .body-fauxcolumn-outer {\nbackground: transparent none repeat scroll top left;\n}\n.mobile .footer-inner .widget a:link {\ncolor: #ffffff;\ntext-decoration: none;\n}\n.mobile .footer-inner .widget a:visited {\ncolor: #67bfff;\n}\n.mobile-post-outer a {\ncolor: #ff9b00;\n}\n.mobile-link-button {\nbackground-color: #ff9b00;\n}\n.mobile-link-button a:link, .mobile-link-button a:visited {\ncolor: #ffffff;\n}\n.mobile-index-contents {\ncolor: #bbbbbb;\n}\n.mobile .tabs-inner .PageList .widget-content {\nbackground: transparent url(http://www.blogblog.com/1kt/travel/bg_black_50.png) repeat scroll top center;\ncolor: #ffffff;\n}\n.mobile .tabs-inner .PageList .widget-content .pagelist-arrow {\nborder-left: 1px solid #ffffff;\n}\n\n--&gt;\n    </style>\n    <style type="text/css" id="template-skin-1">\n      &lt;!--\nbody {\nmin-width: 990px;\n}\n.content-outer, .content-fauxcolumn-outer, .region-inner {\nmin-width: 990px;\nmax-width: 990px;\n_width: 990px;\n}\n.main-inner .columns {\npadding-left: 300px;\npadding-right: 0px;\n}\n.main-inner .fauxcolumn-center-outer {\nleft: 300px;\nright: 0px;\n/* IE6 does not respect left and right together */\n_width: expression(this.parentNode.offsetWidth -\nparseInt(&quot;300px&quot;) -\nparseInt(&quot;0px&quot;) + \'px\');\n}\n.main-inner .fauxcolumn-left-outer {\nwidth: 300px;\n}\n.main-inner .fauxcolumn-right-outer {\nwidth: 0px;\n}\n.main-inner .column-left-outer {\nwidth: 300px;\nright: 100%;\nmargin-left: -300px;\n}\n.main-inner .column-right-outer {\nwidth: 0px;\nmargin-right: -0px;\n}\n#layout {\nmin-width: 0;\n}\n#layout .content-outer {\nmin-width: 0;\nwidth: 800px;\n}\n#layout .region-inner {\nmin-width: 0;\nwidth: auto;\n}\n--&gt;\n    </style>\n    <script type="text/javascript"> if (window.jstiming) window.jstiming.load.tick(\'headEnd\'); </script>\n  </head>\n  <body class="loading">\n    <div id="navbar" class="navbar section">\n      <div id="Navbar1" class="widget Navbar">\n        <script type="text/javascript"> function setAttributeOnload(object, attribute, val) { if(window.addEventListener) { window.addEventListener(\'load\', function(){ object[attribute] = val; }, false); } else { window.attachEvent(\'onload\', function(){ object[attribute] = val; }); } } </script>\n        <div id="navbar-iframe-container"></div>\n        <script src="https://apis.google.com/js/plusone.js" type="text/javascript"></script>\n        <script type="text/javascript">\n          gapi.load(&quot;iframes-styles-bubble&quot;, function() {\n          if (window.iframes &amp;&amp; iframes.open) {\n            iframes.open(\n                \'//www.blogger.com/navbar.g?targetBlogID\\0753354772550169149859\\46blogName\\75The+Ayers+Family+Trip+Around+Australi...\\46publishMode\\75PUBLISH_MODE_BLOGSPOT\\46navbarType\\75SILVER\\46layoutType\\75LAYOUTS\\46searchRoot\\75http://ayersinacaravan.blogspot.com/search\\46blogLocale\\75en\\46v\\0752\\46homepageUrl\\75http://ayersinacaravan.blogspot.com/\\46targetPostID\\0757768802491906220699\\46blogPostOrPageUrl\\75http://ayersinacaravan.blogspot.com/2011/06/history-lesson-at-cowra.html\\46vt\\75-1028571416601758266\',\n                {\n                  container: &quot;navbar-iframe-container&quot;,\n                  id: &quot;navbar-iframe&quot;\n                },\n                {\n                });\n          }\n        });\n        </script>\n        <script type="text/javascript">\n          (function() {\nvar script = document.createElement(\'script\');\nscript.type = \'text/javascript\';\nscript.src = \'//pagead2.googlesyndication.com/pagead/js/google_top_exp.js\';\nvar head = document.getElementsByTagName(\'head\')[0];\nif (head) {\nhead.appendChild(script);\n}})();\n        </script>\n      </div>\n    </div>\n    <div class="body-fauxcolumns">\n      <div class="fauxcolumn-outer body-fauxcolumn-outer">\n        <div class="cap-top">\n          <div class="cap-left"></div>\n          <div class="cap-right"></div>\n        </div>\n        <div class="fauxborder-left">\n          <div class="fauxborder-right"></div>\n          <div class="fauxcolumn-inner"> </div>\n        </div>\n        <div class="cap-bottom">\n          <div class="cap-left"></div>\n          <div class="cap-right"></div>\n        </div>\n      </div>\n    </div>\n    <div class="content">\n      <div class="content-fauxcolumns">\n        <div class="fauxcolumn-outer content-fauxcolumn-outer">\n          <div class="cap-top">\n            <div class="cap-left"></div>\n            <div class="cap-right"></div>\n          </div>\n          <div class="fauxborder-left">\n            <div class="fauxborder-right"></div>\n            <div class="fauxcolumn-inner"> </div>\n          </div>\n          <div class="cap-bottom">\n            <div class="cap-left"></div>\n            <div class="cap-right"></div>\n          </div>\n        </div>\n      </div>\n      <div class="content-outer">\n        <div class="content-cap-top cap-top">\n          <div class="cap-left"></div>\n          <div class="cap-right"></div>\n        </div>\n        <div class="fauxborder-left content-fauxborder-left">\n          <div class="fauxborder-right content-fauxborder-right"></div>\n          <div class="content-inner">\n            <header>\n              <div class="header-outer">\n                <div class="header-cap-top cap-top">\n                  <div class="cap-left"></div>\n                  <div class="cap-right"></div>\n                </div>\n                <div class="fauxborder-left header-fauxborder-left">\n                  <div class="fauxborder-right header-fauxborder-right"></div>\n                  <div class="region-inner header-inner">\n                    <div id="header" class="header section">\n                      <div id="Header1" class="widget Header">\n                        <div style="background-image: url(&quot;http://2.bp.blogspot.com/-eU4hnSmOM9M/TiGPsw577tI/AAAAAAAAB3w/A2C1CZkqb00/s950/title%2Bscreen.jpg&quot;); background-position: left; min-height: 613px; _height: 613px; background-repeat: no-repeat; " id="header-inner">\n                          <div style="background: transparent" class="titlewrapper">\n                            <h1 style="background: transparent; border-width: 0px" class="title">\n                              <a href="http://ayersinacaravan.blogspot.com/" shape="rect">The Ayers Family Trip Around Australia. . .</a>\n                            </h1>\n                          </div>\n                          <div class="descriptionwrapper">\n                            <p class="description">\n                              <span>recounting our journey from April to October 2011</span>\n                            </p>\n                          </div>\n                        </div>\n                      </div>\n                    </div>\n                  </div>\n                </div>\n                <div class="header-cap-bottom cap-bottom">\n                  <div class="cap-left"></div>\n                  <div class="cap-right"></div>\n                </div>\n              </div>\n            </header>\n            <div class="tabs-outer">\n              <div class="tabs-cap-top cap-top">\n                <div class="cap-left"></div>\n                <div class="cap-right"></div>\n              </div>\n              <div class="fauxborder-left tabs-fauxborder-left">\n                <div class="fauxborder-right tabs-fauxborder-right"></div>\n                <div class="region-inner tabs-inner">\n                  <div id="crosscol" class="tabs section"></div>\n                  <div id="crosscol-overflow" class="tabs section"></div>\n                </div>\n              </div>\n              <div class="tabs-cap-bottom cap-bottom">\n                <div class="cap-left"></div>\n                <div class="cap-right"></div>\n              </div>\n            </div>\n            <div class="main-outer">\n              <div class="main-cap-top cap-top">\n                <div class="cap-left"></div>\n                <div class="cap-right"></div>\n              </div>\n              <div class="fauxborder-left main-fauxborder-left">\n                <div class="fauxborder-right main-fauxborder-right"></div>\n                <div class="region-inner main-inner">\n                  <div class="columns fauxcolumns">\n                    <div class="fauxcolumn-outer fauxcolumn-center-outer">\n                      <div class="cap-top">\n                        <div class="cap-left"></div>\n                        <div class="cap-right"></div>\n                      </div>\n                      <div class="fauxborder-left">\n                        <div class="fauxborder-right"></div>\n                        <div class="fauxcolumn-inner"> </div>\n                      </div>\n                      <div class="cap-bottom">\n                        <div class="cap-left"></div>\n                        <div class="cap-right"></div>\n                      </div>\n                    </div>\n                    <div class="fauxcolumn-outer fauxcolumn-left-outer">\n                      <div class="cap-top">\n                        <div class="cap-left"></div>\n                        <div class="cap-right"></div>\n                      </div>\n                      <div class="fauxborder-left">\n                        <div class="fauxborder-right"></div>\n                        <div class="fauxcolumn-inner"> </div>\n                      </div>\n                      <div class="cap-bottom">\n                        <div class="cap-left"></div>\n                        <div class="cap-right"></div>\n                      </div>\n                    </div>\n                    <div class="fauxcolumn-outer fauxcolumn-right-outer">\n                      <div class="cap-top">\n                        <div class="cap-left"></div>\n                        <div class="cap-right"></div>\n                      </div>\n                      <div class="fauxborder-left">\n                        <div class="fauxborder-right"></div>\n                        <div class="fauxcolumn-inner"> </div>\n                      </div>\n                      <div class="cap-bottom">\n                        <div class="cap-left"></div>\n                        <div class="cap-right"></div>\n                      </div>\n                    </div>\n                    <div class="columns-inner">\n                      <div class="column-center-outer">\n                        <div class="column-center-inner">\n                          <div id="main" class="main section">\n                            <div id="Blog1" class="widget Blog">\n                              <div class="blog-posts hfeed">\n                                <div class="date-outer">\n                                  <h2 class="date-header">\n                                    <span>13 June 2011</span>\n                                  </h2>\n                                  <div class="date-posts">\n                                    <div class="post-outer">\n                                      <div class="post hentry">\n                                        <a name="7768802491906220699" shape="rect"></a>\n                                        <h3 class="post-title entry-title"> A History Lesson At Cowra </h3>\n                                        <div class="post-header">\n                                          <div class="post-header-line-1"></div>\n                                        </div>\n                                        <div class="post-body entry-content">\n                                          <span style="font-family: Arial; font-size: small;">\n                                            We stayed at Boorawa Caravan Park last night with power, toilets and a great spot for the kids to ride their bikes around and play. We took a drive around town and wondered over many well kept old structures like the enormous court house that since 1988 has been used as the town\xe2\x80\x99s Visitor\xe2\x80\x99s Centre.\n                                          </span>\n                                          <br clear="none"></br>\n                                          <span style="font-family: Arial; font-size: small;">\n                                            <br clear="none"></br>\n                                          </span>\n                                          <br clear="none"></br>\n                                          <span style="font-family: Arial; font-size: small;">\n                                            This morning we drove into Cowra, home of the 1944 \xe2\x80\x98Cowra Breakout\xe2\x80\x99. Somewhere along the lines, my Australian history knowledge has had a huge gap. I didn\xe2\x80\x99t know that Australia had 28 internment camps for prisoners of war (POWs) during World War II to \xe2\x80\x98house\xe2\x80\x99 prisoners from countries like Italy, Japan and Indonesia. POW camps in countries such as India were overflowing, so a decision was made to transfer a number of POWs to Australia to relieve the overcrowding. The Cowra camp was camp number 12.\n                                          </span>\n                                          <br clear="none"></br>\n                                          <span style="font-family: Arial; font-size: small;">\n                                            <br clear="none"></br>\n                                          </span>\n                                          <br clear="none"></br>\n                                          <span style="font-family: Arial; font-size: small;">First of all we went to the Japanese cemetery which was part of a large park that houses the remains of the old POW camp as well as the graves of over 200 Japanese soldiers who died during the breakout. </span>\n                                          <br clear="none"></br>\n                                          <span style="font-family: Arial; font-size: small;">\n                                            <br clear="none"></br>\n                                          </span>\n                                          <br clear="none"></br>\n                                          <span style="font-family: Arial; font-size: small;">\n                                            This passage is from\n                                            <a href="http://en.wikipedia.org/wiki/Cowra,_New_South_Wales" shape="rect">http://en.wikipedia.org/wiki/Cowra,_New_South_Wales</a>\n                                            . (the photo is one of mine though\xe2\x80\xa6)\n                                          </span>\n                                          <br clear="none"></br>\n                                          <blockquote>\n                                            <span style="color: #4bacc6;">During </span>\n                                            <a href="http://en.wikipedia.org/wiki/World_War_II" shape="rect">\n                                              <span style="color: #4bacc6;">World War II</span>\n                                            </a>\n                                            <span style="color: #4bacc6;"> Cowra was the site of a </span>\n                                            <a href="http://en.wikipedia.org/wiki/Prisoner_of_war" shape="rect">\n                                              <span style="color: #4bacc6;">prisoner of war</span>\n                                            </a>\n                                            <span style="color: #4bacc6;"> (POW) camp. Most of the detainees were captured </span>\n                                            <a href="http://en.wikipedia.org/wiki/Japan" shape="rect">\n                                              <span style="color: #4bacc6;">Japanese</span>\n                                            </a>\n                                            <span style="color: #4bacc6;"> and </span>\n                                            <a href="http://en.wikipedia.org/wiki/Italy" shape="rect">\n                                              <span style="color: #4bacc6;">Italian</span>\n                                            </a>\n                                            <span style="color: #4bacc6;"> military personnel, On August 5, 1944, at least 545 </span>\n                                            <a href="http://en.wikipedia.org/wiki/Japan" shape="rect">\n                                              <span style="color: #4bacc6;">Japanese</span>\n                                            </a>\n                                            <span style="color: #4bacc6;"> POWs attempted a mass breakout from the camp. Simultaneously, other Japanese prisoners committed suicide, or were killed by their countrymen, inside the camp.</span>\n                                            <br clear="none"></br>\n                                            <span style="color: #4bacc6;">\n                                              <a href="http://lh4.ggpht.com/-w7JBhiw4tfY/TfyNmebqGKI/AAAAAAAABVk/CQMnqODcrlA/s1600-h/Cowra%2525202011-06-13%252520009%25255B3%25255D.jpg" shape="rect">\n                                                <img \n                                                width="244" title="Cowra 2011-06-13 009" style="background-image: none; border-bottom: 0px; border-left: 0px; border-right: 0px; border-top: 0px; display: inline; float: left; margin: 0px 10px 0px 0px; padding-left: 0px; padding-right: 0px; padding-top: 0px;" src="http://lh4.ggpht.com/-CEktAT2gylY/TfyNpizFN_I/AAAAAAAABVo/yN4kKsjQpf0/Cowra%2525202011-06-13%252520009_thumb.jpg?imgmax=800" height="163" border="0" alt="Cowra 2011-06-13 009" align="left">\n</img>\n                                              </a>\n                                              The actions of the POWs in storming\n                                            </span>\n                                            <a href="http://en.wikipedia.org/wiki/Machine_gun" shape="rect">\n                                              <span style="color: #4bacc6;">machine gun</span>\n                                            </a>\n                                            <span style="color: #4bacc6;"> posts, armed only with improvised weapons, showed what </span>\n                                            <a href="http://en.wikipedia.org/wiki/Prime_Minister_of_Australia" shape="rect">\n                                              <span style="color: #4bacc6;">Prime Minister</span>\n                                            </a>\n                                            <span style="color: #4bacc6;"> </span>\n                                            <a href="http://en.wikipedia.org/wiki/John_Curtin" shape="rect">\n                                              <span style="color: #4bacc6;">John Curtin</span>\n                                            </a>\n                                            <span style="color: #4bacc6;"> described as a &quot;suicidal disregard of life&quot;, and had no chance of success.</span>\n                                            <br clear="none"></br>\n                                            <span style="color: #4bacc6;">\n                                              During the breakout and subsequent recapture of POWs, four Australian guards and 231 Japanese died, and 108 prisoners were wounded. The dead Japanese were buried in Cowra in the specially created Japanese War Cemetery. This is the only such cemetery in Australia, and also holds some of the dead from the WWII air raids on\n                                            </span>\n                                            <a href="http://en.wikipedia.org/wiki/Darwin,_Northern_Territory" shape="rect">\n                                              <span style="color: #4bacc6;">Darwin</span>\n                                            </a>\n                                            <span style="color: #4bacc6;">.</span>\n                                            <br clear="none"></br>\n                                            <span style="color: #4bacc6;">In 1971 the Cowra Tourism Development \xe2\x80\xa6proposed a </span>\n                                            <a href="http://en.wikipedia.org/wiki/Japanese_Garden" shape="rect">\n                                              <span style="color: #4bacc6;">Japanese Garden</span>\n                                            </a>\n                                            <span style="color: #4bacc6;"> for the town. The </span>\n                                            <a href="http://en.wikipedia.org/wiki/Japan" shape="rect">\n                                              <span style="color: #4bacc6;">Japanese government</span>\n                                            </a>\n                                            <span style="color: #4bacc6;"> agreed to support this development as a sign of thanks for the respectful treatment of their war dead; the development also received funding from the Australian government and private entities.</span>\n                                          </blockquote>\n                                          <blockquote>\n                                            <span style="color: #4bacc6;">The garden was designed by </span>\n                                            <a href="http://en.wikipedia.org/w/index.php?title=Ken_Nakajima&amp;action=edit&amp;redlink=1" shape="rect">\n                                              <span style="color: #4bacc6;">Ken Nakajima</span>\n                                            </a>\n                                            <span style="color: #4bacc6;"> (1914\xe2\x80\x932000), a world-renowned designer of Japanese gardens at the time. The first stage was opened in 1979, with a second stage opened in 1986.</span>\n                                          </blockquote>\n                                          <blockquote>\n                                            <span style="color: #4bacc6;">The gardens were designed in the style of the </span>\n                                            <a href="http://en.wikipedia.org/wiki/Edo_period" shape="rect">\n                                              <span style="color: #4bacc6;">Edo period</span>\n                                            </a>\n                                            <span style="color: #4bacc6;">\n                                              and are a\n                                              <i>kaiy\xc3\x85\xc2\xab-shiki</i>\n                                              or strolling garden. They are designed to show all of the landscape types of Japan. At five hectares (12 acres), the\n                                            </span>\n                                            <a href="http://www.cowraregion.com.au/japanesegarden/" shape="rect">\n                                              <span style="color: #4bacc6;">Cowra Japanese Garden</span>\n                                            </a>\n                                            <span style="color: #4bacc6;"> is the largest Japanese garden in the </span>\n                                            <a href="http://en.wikipedia.org/wiki/Southern_Hemisphere" shape="rect">\n                                              <span style="color: #4bacc6;">Southern Hemisphere</span>\n                                            </a>\n                                            <span style="color: #4bacc6;">. An annual </span>\n                                            <a href="http://en.wikipedia.org/wiki/Sakura" shape="rect">\n                                              <i>\n                                                <span style="color: #4bacc6;">Sakura Matsuri</span>\n                                              </i>\n                                            </a>\n                                            <span style="color: #4bacc6;"> (</span>\n                                            <a href="http://en.wikipedia.org/wiki/Sakura" shape="rect">\n                                              <span style="color: #4bacc6;">cherry blossom</span>\n                                            </a>\n                                            <span style="color: #4bacc6;">\n                                              festival) is a major event in Cowra\'s tourism calendar and is held in the gardens during September. The festival celebrates the birth of spring. It attracts performers from across Australia and around the world. Locals, Australian and International visitors alike have the opportunity to experience traditional elements of Japanese culture.\n                                            </span>\n                                          </blockquote>\n                                          <span style="color: #cccccc; font-family: Arial; font-size: small;">\n                                            In the excellent Cowra Visotor\xe2\x80\x99s Centre we watched a 9 minute hologram that described the internment camp and breakout from the point of view of a young Cowra woman. The presentation talked of over 1000 Japanese soldiers attempting to breakout. There was explanation of how in the culture of the Japanese military at the time meant that being a prisoner was dishonourable. Many of the prisoners had given false names so that word would not get back to their families that they were imprisoned. Suicide was seen as being less shameful to a soldier than remaining a prisoner of war.\n                                          </span>\n                                          <br clear="none"></br>\n                                          <span style="color: #cccccc; font-family: Arial; font-size: small;">\n                                            <br clear="none"></br>\n                                          </span>\n                                          <br clear="none"></br>\n                                          <span style="color: #cccccc; font-family: Arial; font-size: small;">\n                                            The hologram was an effective way of telling the story. We have sat through lots of DVDs that encapsulate a town\xe2\x80\x99s history but using the hologram tool made this story stand out from the rest. Max\xe2\x80\x99s blog tells a bit more of the actual breakout\n                                            <a target="_blank" href="http://maxayers.blogspot.com/" shape="rect">(see Max\xe2\x80\x99s blog).</a>\n                                          </span>\n                                          <br clear="none"></br>\n                                          <br clear="none"></br>\n                                          <span style="color: #cccccc; font-family: Arial; font-size: small;">\n                                            The most moving item to me in the Visitor\'s Centre was a large black and white photograph of two elderly men sitting together and laughing. One man was Australian and the other Japanese. To see their camaraderie was very moving, and shows just how powerful photography can be.\n                                          </span>\n                                          <br clear="none"></br>\n                                          <span style="color: #cccccc; font-family: Arial; font-size: small;">\n                                            <br clear="none"></br>\n                                          </span>\n                                          <br clear="none"></br>\n                                          <span style="color: #cccccc; font-family: Arial;" class="Apple-style-span">These three photos show Max out the front of the Japanese Gardens.</span>\n                                          <br clear="none"></br>\n                                          <span style="color: #cccccc; font-family: Arial;" class="Apple-style-span">\n                                            <br clear="none"></br>\n                                          </span>\n                                          <br clear="none"></br>\n                                          <a href="http://lh4.ggpht.com/-UZfJ7oenLhE/TfyNtTjOUrI/AAAAAAAABVs/NZRE34yOnTs/s1600-h/Cowra%2525202011-06-13%252520001%25255B4%25255D.jpg" shape="rect">\n                                            <img \n                                            width="387" title="Cowra 2011-06-13 001" style="background-image: none; border-bottom: 0px; border-left: 0px; border-right: 0px; border-top: 0px; display: block; float: none; margin-left: auto; margin-right: auto; padding-left: 0px; padding-right: 0px; padding-top: 0px;" src="http://lh6.ggpht.com/-RUB7a0ZI9zg/TfyNxTJYg-I/AAAAAAAABVw/K95zxVV5scc/Cowra%2525202011-06-13%252520001_thumb%25255B1%25255D.jpg?imgmax=800" height="258" border="0" alt="Cowra 2011-06-13 001">\n</img>\n                                          </a>\n                                          <a href="http://lh3.ggpht.com/-9gchZmbhPIE/TfyNzl34yMI/AAAAAAAABV0/vy79CmhKkkg/s1600-h/Cowra%2525202011-06-13%252520004%25255B4%25255D.jpg" shape="rect">\n                                            <img \n                                            width="270" title="Cowra 2011-06-13 004" style="background-image: none; border-bottom: 0px; border-left: 0px; border-right: 0px; border-top: 0px; display: block; float: none; margin-left: auto; margin-right: auto; padding-left: 0px; padding-right: 0px; padding-top: 0px;" src="http://lh6.ggpht.com/-q5h8rCU69lM/TfyN11dCeiI/AAAAAAAABV4/j48lfmNjbbU/Cowra%2525202011-06-13%252520004_thumb%25255B1%25255D.jpg?imgmax=800" height="405" border="0" alt="Cowra 2011-06-13 004">\n</img>\n                                          </a>\n                                          <br clear="none"></br>\n                                          <div style="clear: both; text-align: center;" class="separator">\n                                            <a style="margin-left: 1em; margin-right: 1em;" href="http://lh5.ggpht.com/-sfcD-Lk295s/TfyN4-YBSII/AAAAAAAABV8/6S37RDAlGKs/s1600-h/Cowra%2525202011-06-13%252520005%25255B4%25255D.jpg" shape="rect">\n                                              <img \n                                              width="320" title="Cowra 2011-06-13 005" style="background-image: none; border-bottom-color: initial; border-bottom-style: initial; border-bottom-width: 0px; border-left-color: initial; border-left-style: initial; border-left-width: 0px; border-right-color: initial; border-right-style: initial; border-right-width: 0px; border-top-color: initial; border-top-style: initial; border-top-width: 0px; display: block; float: none; margin-left: auto; margin-right: auto; padding-left: 0px; padding-right: 0px; padding-top: 0px;" src="http://lh6.ggpht.com/-zdVMaCksskU/TfyN7Pz521I/AAAAAAAABWA/nfMPuc0RTwc/Cowra%2525202011-06-13%252520005_thumb%25255B1%25255D.jpg?imgmax=800" height="212" border="0" alt="Cowra 2011-06-13 005">\n</img>\n                                            </a>\n                                          </div>\n                                          <br clear="none"></br>\n                                          <br clear="none"></br>\n                                          <span style="font-family: Arial, Helvetica, sans-serif;" class="Apple-style-span">Tonight we found a free camp at Carcour a few kilometers out of Bathurst. It is very basic but we\'ll be on the move again tomorrow.</span>\n                                          <div style="clear: both;"></div>\n                                        </div>\n                                        <div class="post-footer">\n                                          <div class="post-footer-line post-footer-line-1">\n                                            <span class="post-author vcard"> </span>\n                                            <span class="post-timestamp">\n                                              at\n                                              <a title="permanent link" rel="bookmark" href="http://ayersinacaravan.blogspot.com/2011/06/history-lesson-at-cowra.html" class="timestamp-link" shape="rect">\n                                                <abbr title="2011-06-13T18:41:00+08:00" class="published">6:41 PM</abbr>\n                                              </a>\n                                            </span>\n                                            <span class="post-comment-link"> </span>\n                                            <span class="post-icons"> </span>\n                                            <div class="post-share-buttons"> </div>\n                                          </div>\n                                          <div class="post-footer-line post-footer-line-2">\n                                            <span class="post-labels"> </span>\n                                          </div>\n                                          <div class="post-footer-line post-footer-line-3">\n                                            <span class="post-location"> </span>\n                                          </div>\n                                        </div>\n                                      </div>\n                                      <div id="comments" class="comments">\n                                        <a name="comments" shape="rect"></a>\n                                        <h4>No comments:</h4>\n                                        <div id="Blog1_comments-block-wrapper">\n                                          <dl id="comments-block" class=""></dl>\n                                        </div>\n                                        <p class="comment-footer"> </p>\n                                        <div class="comment-form">\n                                          <a name="comment-form" shape="rect"></a>\n                                          <h4 id="comment-post-message">Post a Comment</h4>\n                                          <p> </p>\n                                          <a href="http://www.blogger.com/comment-iframe.g?blogID=3354772550169149859&amp;postID=7768802491906220699" id="comment-editor-src" shape="rect"></a>\n                                          <iframe width="100%" src="" name="comment-editor" height="410" allowtransparency="true" id="comment-editor" class="blogger-iframe-colorize blogger-comment-from-post" scrolling="auto" frameborder="0"></iframe>\n                                          <script src="//www.blogger.com/static/v1/jsbin/4030612614-comment_from_post_iframe.js" type="text/javascript"></script>\n                                          <script type="text/javascript"> BLOG_CMT_createIframe(\'http://www.blogger.com/rpc_relay.html\', \'12505572926985821478\'); </script>\n                                        </div>\n                                        <div id="backlinks-container">\n                                          <div id="Blog1_backlinks-container"> </div>\n                                        </div>\n                                      </div>\n                                    </div>\n                                  </div>\n                                </div>\n                              </div>\n                              <div id="blog-pager" class="blog-pager">\n                                <span id="blog-pager-newer-link">\n                                  <a title="Newer Post" href="http://ayersinacaravan.blogspot.com/2011/06/bathurst-hill-end-gripes-about-money.html" id="Blog1_blog-pager-newer-link" class="blog-pager-newer-link" shape="rect">Newer Post</a>\n                                </span>\n                                <span id="blog-pager-older-link">\n                                  <a title="Older Post" href="http://ayersinacaravan.blogspot.com/2011/06/reflections-on-canberra.html" id="Blog1_blog-pager-older-link" class="blog-pager-older-link" shape="rect">Older Post</a>\n                                </span>\n                                <a href="http://ayersinacaravan.blogspot.com/" class="home-link" shape="rect">Home</a>\n                              </div>\n                              <div class="clear"></div>\n                            </div>\n                          </div>\n                        </div>\n                      </div>\n                      <div class="column-left-outer">\n                        <div class="column-left-inner">\n                          <aside>\n                            <div id="sidebar-left-1" class="sidebar section">\n                              <div id="PageList1" class="widget PageList">\n                                <h2>Welcome!</h2>\n                                <div class="widget-content">\n                                  <ul>\n                                    <li>\n                                      <a href="http://ayersinacaravan.blogspot.com/" shape="rect">Posts and Map</a>\n                                    </li>\n                                    <li>\n                                      <a href="http://ayersinacaravan.blogspot.com/p/about-us.html" shape="rect">About Us</a>\n                                    </li>\n                                    <li>\n                                      <a href="http://ayersinacaravan.blogspot.com/p/other-family-blogs.html" shape="rect">Our Other Blogs</a>\n                                    </li>\n                                    <li>\n                                      <a href="http://ayersinacaravan.blogspot.com/p/things-i-forgot.html" shape="rect">How Did I Forget This?</a>\n                                    </li>\n                                    <li>\n                                      <a href="http://ayersinacaravan.blogspot.com/p/music.html" shape="rect">The Music Of My Life</a>\n                                    </li>\n                                    <li>\n                                      <a href="http://ayersinacaravan.blogspot.com/p/people-weve-met-blogs.html" shape="rect">Other Travel Blogs</a>\n                                    </li>\n                                  </ul>\n                                  <div class="clear"></div>\n                                  <span class="widget-item-control">\n                                    <span class="item-control blog-admin">\n                                      <a \n                                      title="Edit" target="configPageList1" onclick="return _WidgetManager._PopupConfig(document.getElementById(&quot;PageList1&quot;));" href="//www.blogger.com/rearrange?blogID=3354772550169149859&amp;widgetType=PageList&amp;widgetId=PageList1&amp;action=editWidget&amp;sectionId=sidebar-left-1" class="quickedit" shape="rect">\n                                        <img width="18" src="http://img1.blogblog.com/img/icon18_wrench_allbkg.png" height="18" alt=""></img>\n</a>\n                                    </span>\n                                  </span>\n                                  <div class="clear"></div>\n                                </div>\n                              </div>\n                              <div id="BlogArchive1" class="widget BlogArchive">\n                                <h2>Archive of my posts</h2>\n                                <div class="widget-content">\n                                  <div id="ArchiveList">\n                                    <div id="BlogArchive1_ArchiveList">\n                                      <ul class="hierarchy">\n                                        <li class="archivedate expanded">\n                                          <a href="javascript:void(0)" class="toggle" shape="rect">\n                                            <span class="zippy toggle-open">\xe2\x96\xbc\xc2\xa0</span>\n                                          </a>\n                                          <a href="http://ayersinacaravan.blogspot.com/search?updated-min=2011-01-01T00:00:00%2B08:00&amp;updated-max=2012-01-01T00:00:00%2B08:00&amp;max-results=50" class="post-count-link" shape="rect">2011</a>\n                                          <span dir="ltr" class="post-count">(98)</span>\n                                          <ul class="hierarchy">\n                                            <li class="archivedate collapsed">\n                                              <a href="javascript:void(0)" class="toggle" shape="rect">\n                                                <span class="zippy"> \xe2\x96\xba\xc2\xa0 </span>\n                                              </a>\n                                              <a href="http://ayersinacaravan.blogspot.com/2011_08_01_archive.html" class="post-count-link" shape="rect">August 2011</a>\n                                              <span dir="ltr" class="post-count">(7)</span>\n                                            </li>\n                                          </ul>\n                                          <ul class="hierarchy">\n                                            <li class="archivedate collapsed">\n                                              <a href="javascript:void(0)" class="toggle" shape="rect">\n                                                <span class="zippy"> \xe2\x96\xba\xc2\xa0 </span>\n                                              </a>\n                                              <a href="http://ayersinacaravan.blogspot.com/2011_07_01_archive.html" class="post-count-link" shape="rect">July 2011</a>\n                                              <span dir="ltr" class="post-count">(19)</span>\n                                            </li>\n                                          </ul>\n                                          <ul class="hierarchy">\n                                            <li class="archivedate expanded">\n                                              <a href="javascript:void(0)" class="toggle" shape="rect">\n                                                <span class="zippy toggle-open">\xe2\x96\xbc\xc2\xa0</span>\n                                              </a>\n                                              <a href="http://ayersinacaravan.blogspot.com/2011_06_01_archive.html" class="post-count-link" shape="rect">June 2011</a>\n                                              <span dir="ltr" class="post-count">(19)</span>\n                                              <ul class="posts">\n                                                <li>\n                                                  <a href="http://ayersinacaravan.blogspot.com/2011/06/beautiful-bellingen.html" shape="rect">Beautiful Bellingen</a>\n                                                </li>\n                                                <li>\n                                                  <a href="http://ayersinacaravan.blogspot.com/2011/06/coffs-harbour.html" shape="rect">Coffs Harbour</a>\n                                                </li>\n                                                <li>\n                                                  <a href="http://ayersinacaravan.blogspot.com/2011/06/urunga.html" shape="rect">Urunga</a>\n                                                </li>\n                                                <li>\n                                                  <a href="http://ayersinacaravan.blogspot.com/2011/06/port-macquarie.html" shape="rect">Port Macquarie</a>\n                                                </li>\n                                                <li>\n                                                  <a href="http://ayersinacaravan.blogspot.com/2011/06/coopernook-park-day-2.html" shape="rect">Coopernook Park Day 2</a>\n                                                </li>\n                                                <li>\n                                                  <a href="http://ayersinacaravan.blogspot.com/2011/06/exploring-regional-nsw.html" shape="rect">Exploring regional NSW</a>\n                                                </li>\n                                                <li>\n                                                  <a href="http://ayersinacaravan.blogspot.com/2011/06/australian-reptile-park.html" shape="rect">The Australian Reptile Park</a>\n                                                </li>\n                                                <li>\n                                                  <a href="http://ayersinacaravan.blogspot.com/2011/06/ssssssssssssydney-two-day-taster.html" shape="rect">Ssssssssssssydney!! the two day taster\xe2\x80\xa6.</a>\n                                                </li>\n                                                <li>\n                                                  <a href="http://ayersinacaravan.blogspot.com/2011/06/weve-made-it-to-sydney.html" shape="rect">We\xe2\x80\x99ve made it to Sydney!!</a>\n                                                </li>\n                                                <li>\n                                                  <a href="http://ayersinacaravan.blogspot.com/2011/06/beautiful-blue-mountains.html" shape="rect">The Beautiful Blue Mountains</a>\n                                                </li>\n                                                <li>\n                                                  <a href="http://ayersinacaravan.blogspot.com/2011/06/lithgow.html" shape="rect">Lithgow</a>\n                                                </li>\n                                                <li>\n                                                  <a href="http://ayersinacaravan.blogspot.com/2011/06/bathurst-hill-end-gripes-about-money.html" shape="rect">Bathurst, Hill End and budgets</a>\n                                                </li>\n                                                <li>\n                                                  <a href="http://ayersinacaravan.blogspot.com/2011/06/history-lesson-at-cowra.html" shape="rect">A History Lesson At Cowra</a>\n                                                </li>\n                                                <li>\n                                                  <a href="http://ayersinacaravan.blogspot.com/2011/06/reflections-on-canberra.html" shape="rect">Reflections on Canberra</a>\n                                                </li>\n                                                <li>\n                                                  <a href="http://ayersinacaravan.blogspot.com/2011/06/australian-war-memorial.html" shape="rect">The Australian War Memorial</a>\n                                                </li>\n                                                <li>\n                                                  <a href="http://ayersinacaravan.blogspot.com/2011/06/fun-in-canberra-yes-really.html" shape="rect">Fun in Canberra \xe2\x80\xa6 yes! really!!</a>\n                                                </li>\n                                                <li>\n                                                  <a href="http://ayersinacaravan.blogspot.com/2011/06/aaaahhhh-were-in-canberra.html" shape="rect">Aaaahhhh\xe2\x80\xa6. we\xe2\x80\x99re in Canberra \xe2\x80\xa6.</a>\n                                                </li>\n                                                <li>\n                                                  <a href="http://ayersinacaravan.blogspot.com/2011/06/snowy-mountainsday-3.html" shape="rect">The Snowy Mountains\xe2\x80\x93day 3</a>\n                                                </li>\n                                                <li>\n                                                  <a href="http://ayersinacaravan.blogspot.com/2011/06/snowy-mountainsday-2.html" shape="rect">The Snowy Mountains\xe2\x80\x93day 2</a>\n                                                </li>\n                                              </ul>\n                                            </li>\n                                          </ul>\n                                          <ul class="hierarchy">\n                                            <li class="archivedate collapsed">\n                                              <a href="javascript:void(0)" class="toggle" shape="rect">\n                                                <span class="zippy"> \xe2\x96\xba\xc2\xa0 </span>\n                                              </a>\n                                              <a href="http://ayersinacaravan.blogspot.com/2011_05_01_archive.html" class="post-count-link" shape="rect">May 2011</a>\n                                              <span dir="ltr" class="post-count">(25)</span>\n                                            </li>\n                                          </ul>\n                                          <ul class="hierarchy">\n                                            <li class="archivedate collapsed">\n                                              <a href="javascript:void(0)" class="toggle" shape="rect">\n                                                <span class="zippy"> \xe2\x96\xba\xc2\xa0 </span>\n                                              </a>\n                                              <a href="http://ayersinacaravan.blogspot.com/2011_04_01_archive.html" class="post-count-link" shape="rect">April 2011</a>\n                                              <span dir="ltr" class="post-count">(23)</span>\n                                            </li>\n                                          </ul>\n                                          <ul class="hierarchy">\n                                            <li class="archivedate collapsed">\n                                              <a href="javascript:void(0)" class="toggle" shape="rect">\n                                                <span class="zippy"> \xe2\x96\xba\xc2\xa0 </span>\n                                              </a>\n                                              <a href="http://ayersinacaravan.blogspot.com/2011_03_01_archive.html" class="post-count-link" shape="rect">March 2011</a>\n                                              <span dir="ltr" class="post-count">(4)</span>\n                                            </li>\n                                          </ul>\n                                          <ul class="hierarchy">\n                                            <li class="archivedate collapsed">\n                                              <a href="javascript:void(0)" class="toggle" shape="rect">\n                                                <span class="zippy"> \xe2\x96\xba\xc2\xa0 </span>\n                                              </a>\n                                              <a href="http://ayersinacaravan.blogspot.com/2011_01_01_archive.html" class="post-count-link" shape="rect">January 2011</a>\n                                              <span dir="ltr" class="post-count">(1)</span>\n                                            </li>\n                                          </ul>\n                                        </li>\n                                      </ul>\n                                    </div>\n                                  </div>\n                                  <div class="clear"></div>\n                                  <span class="widget-item-control">\n                                    <span class="item-control blog-admin">\n                                      <a \n                                      title="Edit" target="configBlogArchive1" onclick="return _WidgetManager._PopupConfig(document.getElementById(&quot;BlogArchive1&quot;));" href="//www.blogger.com/rearrange?blogID=3354772550169149859&amp;widgetType=BlogArchive&amp;widgetId=BlogArchive1&amp;action=editWidget&amp;sectionId=sidebar-left-1" class="quickedit" shape="rect">\n                                        <img width="18" src="http://img1.blogblog.com/img/icon18_wrench_allbkg.png" height="18" alt=""></img>\n</a>\n                                    </span>\n                                  </span>\n                                  <div class="clear"></div>\n                                </div>\n                              </div>\n                              <div id="FollowByEmail1" class="widget FollowByEmail">\n                                <h2 class="title">To receive emails of our new posts subscribe here:</h2>\n                                <div class="widget-content">\n                                  <div class="follow-by-email-inner">\n                                    <form \n                                    target="popupwindow" onsubmit="window.open(&quot;http://feedburner.google.com/fb/a/mailverify?uri=TheAyersFamilyTripAroundAustralia&quot;, &quot;popupwindow&quot;, &quot;scrollbars=yes,width=550,height=520&quot;); return true" action="http://feedburner.google.com/fb/a/mailverify" method="post" enctype="application/x-www-form-urlencoded">\n                                      <table width="100%">\n                                        <tr>\n                                          <td rowspan="1" colspan="1">\n                                            <input placeholder="Email address..." name="email" class="follow-by-email-address" type="text"></input>\n                                          </td>\n                                          <td width="64px" rowspan="1" colspan="1">\n                                            <input value="Submit" class="follow-by-email-submit" type="submit"></input>\n                                          </td>\n                                        </tr>\n                                      </table>\n                                      <input value="TheAyersFamilyTripAroundAustralia" name="uri" type="hidden"></input>\n                                      <input value="en_US" name="loc" type="hidden"></input>\n</form>\n                                  </div>\n                                </div>\n                                <span class="item-control blog-admin"> </span>\n                                <div class="clear"></div>\n                                <span class="widget-item-control">\n                                  <span class="item-control blog-admin">\n                                    <a \n                                    title="Edit" target="configFollowByEmail1" onclick="return _WidgetManager._PopupConfig(document.getElementById(&quot;FollowByEmail1&quot;));" href="//www.blogger.com/rearrange?blogID=3354772550169149859&amp;widgetType=FollowByEmail&amp;widgetId=FollowByEmail1&amp;action=editWidget&amp;sectionId=sidebar-left-1" class="quickedit" shape="rect">\n                                      <img width="18" src="http://img1.blogblog.com/img/icon18_wrench_allbkg.png" height="18" alt=""></img>\n</a>\n                                  </span>\n                                </span>\n                                <div class="clear"></div>\n                              </div>\n                            </div>\n                          </aside>\n                        </div>\n                      </div>\n                      <div class="column-right-outer">\n                        <div class="column-right-inner">\n                          <aside> </aside>\n                        </div>\n                      </div>\n                    </div>\n                    <div style="clear: both"></div>\n                  </div>\n                </div>\n              </div>\n              <div class="main-cap-bottom cap-bottom">\n                <div class="cap-left"></div>\n                <div class="cap-right"></div>\n              </div>\n            </div>\n            <footer>\n              <div class="footer-outer">\n                <div class="footer-cap-top cap-top">\n                  <div class="cap-left"></div>\n                  <div class="cap-right"></div>\n                </div>\n                <div class="fauxborder-left footer-fauxborder-left">\n                  <div class="fauxborder-right footer-fauxborder-right"></div>\n                  <div class="region-inner footer-inner">\n                    <div id="footer-1" class="foot section">\n                      <div id="HTML2" class="widget HTML">\n                        <h2 class="title">Our Journey So Far - the pink spots show towns we have stayed at or done something at</h2>\n                        <div class="widget-content">\n                          <div id="travellerspoint-map378907_258376">\n                            <script src="http://www.travellerspoint.com/badges/badge_membermap.cfm?user=lizzyb74&amp;tripid=258376&amp;badgeid=travellerspoint-map378907_258376&amp;height=500&amp;width=850"></script>\n                            <p class="travellerspoint-map-link">\n                              View Full Size\n                              <a href="http://www.travellerspoint.com/member_map.cfm?user=lizzyb74&amp;tripid=258376" shape="rect">Travel Map</a>\n                              at\n                              <a href="http://www.travellerspoint.com" shape="rect">Travellerspoint</a>\n                            </p>\n                          </div>\n                        </div>\n                        <div class="clear"></div>\n                        <span class="widget-item-control">\n                          <span class="item-control blog-admin">\n                            <a \n                            title="Edit" target="configHTML2" onclick="return _WidgetManager._PopupConfig(document.getElementById(&quot;HTML2&quot;));" href="//www.blogger.com/rearrange?blogID=3354772550169149859&amp;widgetType=HTML&amp;widgetId=HTML2&amp;action=editWidget&amp;sectionId=footer-1" class="quickedit" shape="rect">\n                              <img width="18" src="http://img1.blogblog.com/img/icon18_wrench_allbkg.png" height="18" alt=""></img>\n</a>\n                          </span>\n                        </span>\n                        <div class="clear"></div>\n                      </div>\n                      <div id="Stats1" class="widget Stats">\n                        <div class="widget-content">\n                          <div style="display: none;" id="Stats1_content">\n                            <span id="Stats1_totalCount" class="counter-wrapper graph-counter-wrapper"></span>\n                            <div class="clear"></div>\n                            <span class="widget-item-control">\n                              <span class="item-control blog-admin">\n                                <a \n                                title="Edit" target="configStats1" onclick="return _WidgetManager._PopupConfig(document.getElementById(&quot;Stats1&quot;));" href="//www.blogger.com/rearrange?blogID=3354772550169149859&amp;widgetType=Stats&amp;widgetId=Stats1&amp;action=editWidget&amp;sectionId=footer-1" class="quickedit" shape="rect">\n                                  <img width="18" src="http://img1.blogblog.com/img/icon18_wrench_allbkg.png" height="18" alt=""></img>\n</a>\n                              </span>\n                            </span>\n                            <div class="clear"></div>\n                          </div>\n                        </div>\n                      </div>\n                    </div>\n                    <div id="footer-3" class="foot section">\n                      <div id="Attribution1" class="widget Attribution">\n                        <div style="text-align: center;" class="widget-content">\n                          Travel template. Template images by\n                          <a target="_blank" href="http://www.istockphoto.com/googleimages.php?id=2474365&amp;platform=blogger&amp;langregion=en" shape="rect">diane555</a>\n                          . Powered by\n                          <a target="_blank" href="http://www.blogger.com" shape="rect">Blogger</a>\n                          .\n                        </div>\n                        <div class="clear"></div>\n                        <span class="widget-item-control">\n                          <span class="item-control blog-admin">\n                            <a \n                            title="Edit" target="configAttribution1" onclick="return _WidgetManager._PopupConfig(document.getElementById(&quot;Attribution1&quot;));" href="//www.blogger.com/rearrange?blogID=3354772550169149859&amp;widgetType=Attribution&amp;widgetId=Attribution1&amp;action=editWidget&amp;sectionId=footer-3" class="quickedit" shape="rect">\n                              <img width="18" src="http://img1.blogblog.com/img/icon18_wrench_allbkg.png" height="18" alt=""></img>\n</a>\n                          </span>\n                        </span>\n                        <div class="clear"></div>\n                      </div>\n                    </div>\n                  </div>\n                </div>\n                <div class="footer-cap-bottom cap-bottom">\n                  <div class="cap-left"></div>\n                  <div class="cap-right"></div>\n                </div>\n              </div>\n            </footer>\n          </div>\n        </div>\n        <div class="content-cap-bottom cap-bottom">\n          <div class="cap-left"></div>\n          <div class="cap-right"></div>\n        </div>\n      </div>\n    </div>\n    <script type="text/javascript"> window.setTimeout(function() { document.body.className = document.body.className.replace(\'loading\', \'\'); }, 10); </script>\n    <script type="text/javascript"> if (window.jstiming) window.jstiming.load.tick(\'widgetJsBefore\'); </script>\n    <script src="//www.blogger.com/static/v1/widgets/1040267425-widgets.js" type="text/javascript"></script>\n    <script type="text/javascript">\n      if (typeof(BLOG_attachCsiOnload) != \'undefined\' &amp;&amp; BLOG_attachCsiOnload != null) { window[\'blogger_templates_experiment_id\'] = &quot;templatesV2&quot;;window[\'blogger_blog_id\'] = \'3354772550169149859\';BLOG_attachCsiOnload(\'item_\'); }_WidgetManager._Init(\'//www.blogger.com/rearrange?blogID\\x3d3354772550169149859\',\'//ayersinacaravan.blogspot.com/2011/06/history-lesson-at-cowra.html\',\'3354772550169149859\');\n_WidgetManager._SetDataContext([{\'name\': \'blog\', \'data\': {\'blogId\': \'3354772550169149859\', \'bloggerUrl\': \'http://www.blogger.com\', \'title\': \'The Ayers Family Trip Around Australia. . .\', \'pageType\': \'item\', \'url\': \'http://ayersinacaravan.blogspot.com/2011/06/history-lesson-at-cowra.html\', \'canonicalUrl\': \'http://ayersinacaravan.blogspot.com/2011/06/history-lesson-at-cowra.html\', \'canonicalHomepageUrl\': \'http://ayersinacaravan.blogspot.com/\', \'homepageUrl\': \'http://ayersinacaravan.blogspot.com/\', \'blogspotFaviconUrl\': \'http://ayersinacaravan.blogspot.com/favicon.ico\', \'enabledCommentProfileImages\': false, \'adultContent\': false, \'disableAdSenseWidget\': false, \'analyticsAccountNumber\': \'\', \'searchLabel\': \'\', \'searchQuery\': \'\', \'pageName\': \'A History Lesson At Cowra\', \'pageTitle\': \'The Ayers Family Trip Around Australia. . .: A History Lesson At Cowra\', \'encoding\': \'UTF-8\', \'locale\': \'en\', \'isPrivate\': false, \'isMobile\': false, \'isMobileRequest\': false, \'mobileClass\': \'\', \'isPrivateBlog\': false, \'languageDirection\': \'ltr\', \'feedLinks\': \'\\74link rel\\75\\42alternate\\42 type\\75\\42application/atom+xml\\42 title\\75\\42The Ayers Family Trip Around Australia. . . - Atom\\42 href\\75\\42http://ayersinacaravan.blogspot.com/feeds/posts/default\\42 /\\76\\n\\74link rel\\75\\42alternate\\42 type\\75\\42application/rss+xml\\42 title\\75\\42The Ayers Family Trip Around Australia. . . - RSS\\42 href\\75\\42http://ayersinacaravan.blogspot.com/feeds/posts/default?alt\\75rss\\42 /\\76\\n\\74link rel\\75\\42service.post\\42 type\\75\\42application/atom+xml\\42 title\\75\\42The Ayers Family Trip Around Australia. . . - Atom\\42 href\\75\\42http://www.blogger.com/feeds/3354772550169149859/posts/default\\42 /\\76\\n\\74link rel\\75\\42EditURI\\42 type\\75\\42application/rsd+xml\\42 title\\75\\42RSD\\42 href\\75\\42http://www.blogger.com/rsd.g?blogID\\0753354772550169149859\\42 /\\76\\n\\74link rel\\75\\42alternate\\42 type\\75\\42application/atom+xml\\42 title\\75\\42The Ayers Family Trip Around Australia. . . - Atom\\42 href\\75\\42http://ayersinacaravan.blogspot.com/feeds/7768802491906220699/comments/default\\42 /\\76\\n\', \'meTag\': \'\', \'openIdOpTag\': \'\', \'postImageThumbnailUrl\': \'http://lh4.ggpht.com/-CEktAT2gylY/TfyNpizFN_I/AAAAAAAABVo/yN4kKsjQpf0/s72-c/Cowra%2525202011-06-13%252520009_thumb.jpg?imgmax\\75800\', \'imageSrcTag\': \'\\74link rel\\75\\42image_src\\42 href\\75\\42http://lh4.ggpht.com/-CEktAT2gylY/TfyNpizFN_I/AAAAAAAABVo/yN4kKsjQpf0/s72-c/Cowra%2525202011-06-13%252520009_thumb.jpg?imgmax\\75800\\42 /\\76\\n\', \'latencyHeadScript\': \'\\74script type\\75\\42text/javascript\\42\\76(function() { var a\\75window,b\\75\\42jstiming\\42,d\\75\\42tick\\42;var e\\75function(c){this.t\\75{};this.tick\\75function(c,p,h){h\\75void 0!\\75h?h:(new Date).getTime();this.t[c]\\75[h,p]};this[d](\\42start\\42,null,c)},f\\75new e;a.jstiming\\75{Timer:e,load:f};if(a.performance\\46\\46a.performance.timing){var g\\75a.performance.timing,j\\75a[b].load,k\\75g.navigationStart,l\\75g.responseStart;0\\74k\\46\\46l\\76\\75k\\46\\46(j[d](\\42_wtsrt\\42,void 0,k),j[d](\\42wtsrt_\\42,\\42_wtsrt\\42,l),j[d](\\42tbsd_\\42,\\42wtsrt_\\42))}\\ntry{var m\\75null;a.chrome\\46\\46a.chrome.csi\\46\\46(m\\75Math.floor(a.chrome.csi().pageT),j\\46\\0460\\74k\\46\\46(j[d](\\42_tbnd\\42,void 0,a.chrome.csi().startE),j[d](\\42tbnd_\\42,\\42_tbnd\\42,k)));null\\75\\75m\\46\\46a.gtbExternal\\46\\46(m\\75a.gtbExternal.pageT());null\\75\\75m\\46\\46a.external\\46\\46(m\\75a.external.pageT,j\\46\\0460\\74k\\46\\46(j[d](\\42_tbnd\\42,void 0,a.external.startE),j[d](\\42tbnd_\\42,\\42_tbnd\\42,k)));m\\46\\46(a[b].pt\\75m)}catch(n){};a.tickAboveFold\\75function(c){var i\\0750;if(c.offsetParent){do i+\\75c.offsetTop;while(c\\75c.offsetParent)}c\\75i;750\\76\\75c\\46\\46a[b].load[d](\\42aft\\42)};var q\\75!1;function r(){q||(q\\75!0,a[b].load[d](\\42firstScrollTime\\42))}a.addEventListener?a.addEventListener(\\42scroll\\42,r,!1):a.attachEvent(\\42onscroll\\42,r);\\n })();\\74/script\\076\', \'mobileHeadScript\': \'\', \'ieCssRetrofitLinks\': \'\\74!--[if IE]\\76\\74script type\\75\\42text/javascript\\42 src\\75\\42//www.blogger.com/static/v1/jsbin/3651483553-ieretrofit.js\\42\\76\\74/script\\76\\n\\74![endif]--\\076\', \'view\': \'\', \'dynamicViewsCommentsSrc\': \'//www.blogblog.com/dynamicviews/4224c15c4e7c9321/js/comments.js\', \'dynamicViewsScriptSrc\': \'//www.blogblog.com/dynamicviews/04452fcc9c8aa994\'}}, {\'name\': \'skin\', \'data\': {\'vars\': {\'mobile_background_overlay\': \'transparent none repeat scroll top left\', \'tabs_selected_background_gradient\': \'url(http://www.blogblog.com/1kt/travel/bg_black_50.png)\', \'tabs_background_color\': \'transparent\', \'content_padding\': \'20px\', \'widget_link_visited_color\': \'#67bfff\', \'tabs_selected_background_color\': \'transparent\', \'footer_background_gradient\': \'none\', \'link_hover_color\': \'#ff9b00\', \'post_title_text_color\': \'#ff9b00\', \'content_background\': \'transparent url(http://blogblog.com/1kt/travel/bg_black_70.png) repeat scroll top left\', \'description_text_color\': \'#b89560\', \'widget_font\': \'normal normal 16px \\47Trebuchet MS\\47,Trebuchet,sans-serif\', \'body_text_color\': \'#bbbbbb\', \'link_visited_color\': \'#b87309\', \'post_background_color\': \'transparent\', \'post_title_font\': \'normal normal 24px \\47Trebuchet MS\\47,Trebuchet,sans-serif\', \'tabs_text_color\': \'#ffffff\', \'endSide\': \'right\', \'startSide\': \'left\', \'tabs_font\': \'normal bold 16px \\47Trebuchet MS\\47,Trebuchet,sans-serif\', \'widget_outer_background_gradient\': \'url(http://www.blogblog.com/1kt/travel/bg_black_50.png)\', \'content_posts_padding\': \'10px\', \'widget_link_color\': \'#ffffff\', \'body_font\': \'normal normal 14px \\47Trebuchet MS\\47,Trebuchet,sans-serif\', \'content_imageBorder_top\': \'none\', \'comments_background\': \'transparent url(http://blogblog.com/1kt/travel/bg_black_50.png) repeat scroll top center\', \'date_text_color\': \'#539acd\', \'mobile_button_color\': \'#ffffff\', \'widget_outer_background_color\': \'#a8c745\', \'widget_title_font\': \'normal bold 18px Arial, Tahoma, Helvetica, FreeSans, sans-serif\', \'widget_title_text_color\': \'#ff9b00\', \'widget_text_color\': \'#ffffff\', \'content_margin\': \'20px\', \'keycolor\': \'#539acd\', \'link_color\': \'#ff9b00\', \'content_background_color\': \'#cd8553\', \'header_font\': \'normal bold 60px Crushed\', \'header_text_color\': \'#539acd\', \'widget_border_bevel_color\': \'transparent\', \'content_imageBorder_top_space\': \'0\', \'date_font\': \'normal normal 16px \\47Trebuchet MS\\47,Trebuchet,sans-serif\', \'tabs_selected_text_color\': \'#ffffff\', \'body_background_color\': \'#529acd\', \'post_background_url\': \'none\', \'tabs_background_gradient\': \'url(http://www.blogblog.com/1kt/travel/bg_black_50.png)\', \'widget_alternate_text_color\': \'#67bfff\'}, \'override\': \'\'}}, {\'name\': \'view\', \'data\': {\'classic\': {\'name\': \'classic\', \'url\': \'/?view\\75classic\'}, \'flipcard\': {\'name\': \'flipcard\', \'url\': \'/?view\\75flipcard\'}, \'magazine\': {\'name\': \'magazine\', \'url\': \'/?view\\75magazine\'}, \'mosaic\': {\'name\': \'mosaic\', \'url\': \'/?view\\75mosaic\'}, \'sidebar\': {\'name\': \'sidebar\', \'url\': \'/?view\\75sidebar\'}, \'snapshot\': {\'name\': \'snapshot\', \'url\': \'/?view\\75snapshot\'}, \'timeslide\': {\'name\': \'timeslide\', \'url\': \'/?view\\75timeslide\'}}}]);\n_WidgetManager._RegisterWidget(\'_PageListView\', new _WidgetInfo(\'PageList1\', \'sidebar-left-1\', null, document.getElementById(\'PageList1\'), {\'title\': \'Welcome!\', \'links\': [{\'href\': \'http://ayersinacaravan.blogspot.com/\', \'title\': \'Posts and Map\', \'isCurrentPage\': false}, {\'href\': \'http://ayersinacaravan.blogspot.com/p/about-us.html\', \'title\': \'About Us\', \'isCurrentPage\': false}, {\'href\': \'http://ayersinacaravan.blogspot.com/p/other-family-blogs.html\', \'title\': \'Our Other Blogs\', \'isCurrentPage\': false}, {\'href\': \'http://ayersinacaravan.blogspot.com/p/things-i-forgot.html\', \'title\': \'How Did I Forget This?\', \'isCurrentPage\': false}, {\'href\': \'http://ayersinacaravan.blogspot.com/p/music.html\', \'title\': \'The Music Of My Life\', \'isCurrentPage\': false}, {\'href\': \'http://ayersinacaravan.blogspot.com/p/people-weve-met-blogs.html\', \'title\': \'Other Travel Blogs\', \'isCurrentPage\': false}], \'mobile\': false}, \'displayModeFull\'));\n_WidgetManager._RegisterWidget(\'_BlogArchiveView\', new _WidgetInfo(\'BlogArchive1\', \'sidebar-left-1\', null, document.getElementById(\'BlogArchive1\'), {\'languageDirection\': \'ltr\'}, \'displayModeFull\'));\n_WidgetManager._RegisterWidget(\'_FollowByEmailView\', new _WidgetInfo(\'FollowByEmail1\', \'sidebar-left-1\', null, document.getElementById(\'FollowByEmail1\'), {}, \'displayModeFull\'));\n_WidgetManager._RegisterWidget(\'_AttributionView\', new _WidgetInfo(\'Attribution1\', \'footer-3\', null, document.getElementById(\'Attribution1\'), {\'attribution\': \'Travel template. Template images by \\74a href\\75\\47http://www.istockphoto.com/googleimages.php?id\\0752474365\\46platform\\75blogger\\46langregion\\75en\\47 target\\75\\47_blank\\47\\76diane555\\74/a\\76. Powered by \\74a href\\75\\47http://www.blogger.com\\47 target\\75\\47_blank\\47\\76Blogger\\74/a\\76.\'}, \'displayModeFull\'));\n_WidgetManager._RegisterWidget(\'_HTMLView\', new _WidgetInfo(\'HTML2\', \'footer-1\', null, document.getElementById(\'HTML2\'), {}, \'displayModeFull\'));\n_WidgetManager._RegisterWidget(\'_StatsView\', new _WidgetInfo(\'Stats1\', \'footer-1\', null, document.getElementById(\'Stats1\'), {\'title\': \'\', \'showGraphicalCounter\': true, \'showAnimatedCounter\': false, \'showSparkline\': false, \'statsUrl\': \'http://ayersinacaravan.blogspot.com/b/stats?style\\75BLACK_TRANSPARENT\\46timeRange\\75ALL_TIME\\46token\\75VYshKDoBAAA.4OyWLgHfkwOQts-72FEcam6oxrXK51XTn2sMi7pW6FY.mmkXVKMl8CFdwYDaAsx82g\'}, \'displayModeFull\'));\n_WidgetManager._RegisterWidget(\'_HeaderView\', new _WidgetInfo(\'Header1\', \'header\', null, document.getElementById(\'Header1\'), {}, \'displayModeFull\'));\n_WidgetManager._RegisterWidget(\'_NavbarView\', new _WidgetInfo(\'Navbar1\', \'navbar\', null, document.getElementById(\'Navbar1\'), {}, \'displayModeFull\'));\n_WidgetManager._RegisterWidget(\'_BlogView\', new _WidgetInfo(\'Blog1\', \'main\', null, document.getElementById(\'Blog1\'), {\'cmtInteractionsEnabled\': false, \'lightboxEnabled\': true, \'lightboxModuleUrl\': \'//www.blogger.com/static/v1/jsbin/1664432155-lbx.js\', \'lightboxCssUrl\': \'//www.blogger.com/static/v1/v-css/228702327-lightbox_bundle.css\'}, \'displayModeFull\'));\n    </script>\n  </body>\n</html>'
p11
sbsS'mentions'
p12
(lp13
(iedu.umass.cs.iesl.wikilink.expanded.data.ttypes
Mention
p14
(dp15
S'anchor_text'
p16
S'World War II'
p17
sS'context'
p18
(iedu.umass.cs.iesl.wikilink.expanded.data.ttypes
Context
p19
(dp20
S'middle'
p21
S'World War II'
p22
sS'right'
p23
S'Cowra was the site of a prisoner of war (POW) camp. Most of the detainees were captured Japanese and Italian military personnel, On August 5,'
p24
sS'left'
p25
S'graves of over 200 Japanese soldiers who died during the breakout. This passage is from http://en.wikipedia.org/wiki/Cowra,_New_South_Wales . (the photo is one of mine though\xe2\x80\xa6) During'
p26
sbsS'freebase_id'
p27
S'9202a8c04000641f80000000000406bb'
p28
sS'raw_text_offset'
p29
I27440
sS'wiki_url'
p30
S'http://en.wikipedia.org/wiki/World_War_II'
p31
sba(iedu.umass.cs.iesl.wikilink.expanded.data.ttypes
Mention
p32
(dp33
g16
S'prisoner of war'
p34
sg18
(iedu.umass.cs.iesl.wikilink.expanded.data.ttypes
Context
p35
(dp36
g21
S'prisoner of war'
p37
sg23
S'(POW) camp. Most of the detainees were captured Japanese and Italian military personnel, On August 5, 1944, at least 545 Japanese POWs attempted a mass'
p38
sg25
S'the breakout. This passage is from http://en.wikipedia.org/wiki/Cowra,_New_South_Wales . (the photo is one of mine though\xe2\x80\xa6) During World War II Cowra was the site of a'
p39
sbsg27
S'9202a8c04000641f8000000000031ff4'
p40
sg29
I27610
sg30
S'http://en.wikipedia.org/wiki/Prisoner_of_war'
p41
sba(iedu.umass.cs.iesl.wikilink.expanded.data.ttypes
Mention
p42
(dp43
g16
S'machine gun'
p44
sg18
(iedu.umass.cs.iesl.wikilink.expanded.data.ttypes
Context
p45
(dp46
g21
S'machine gun'
p47
sg23
S'posts, armed only with improvised weapons, showed what Prime Minister John Curtin described as a "suicidal disregard of life", and had no chance of success.'
p48
sg25
S'from the camp. Simultaneously, other Japanese prisoners committed suicide, or were killed by their countrymen, inside the camp. The actions of the POWs in storming'
p49
sbsg27
S'9202a8c04000641f8000000000027a0b'
p50
sg29
I29099
sg30
S'http://en.wikipedia.org/wiki/Machine_gun'
p51
sba(iedu.umass.cs.iesl.wikilink.expanded.data.ttypes
Mention
p52
(dp53
g16
S'Prime Minister'
p54
sg18
(iedu.umass.cs.iesl.wikilink.expanded.data.ttypes
Context
p55
(dp56
g21
S'Prime Minister'
p57
sg23
S'John Curtin described as a "suicidal disregard of life", and had no chance of success. During the breakout and subsequent recapture of POWs, four Australian'
p58
sg25
S'were killed by their countrymen, inside the camp. The actions of the POWs in storming machine gun posts, armed only with improvised weapons, showed what'
p59
sbsg27
S'9202a8c04000641f80000000000301a2'
p60
sg29
I29311
sg30
S'http://en.wikipedia.org/wiki/Prime_Minister_of_Australia'
p61
sba(iedu.umass.cs.iesl.wikilink.expanded.data.ttypes
Mention
p62
(dp63
g16
S'John Curtin'
p64
sg18
(iedu.umass.cs.iesl.wikilink.expanded.data.ttypes
Context
p65
(dp66
g21
S'John Curtin'
p67
sg23
S'described as a "suicidal disregard of life", and had no chance of success. During the breakout and subsequent recapture of POWs, four Australian guards and'
p68
sg25
S'by their countrymen, inside the camp. The actions of the POWs in storming machine gun posts, armed only with improvised weapons, showed what Prime Minister'
p69
sbsg27
S'9202a8c04000641f8000000000122bb7'
p70
sg29
I29455
sg30
S'http://en.wikipedia.org/wiki/John_Curtin'
p71
sba(iedu.umass.cs.iesl.wikilink.expanded.data.ttypes
Mention
p72
(dp73
g16
S'Darwin'
p74
sg18
(iedu.umass.cs.iesl.wikilink.expanded.data.ttypes
Context
p75
(dp76
g21
S'Darwin'
p77
sg23
S'. In 1971 the Cowra Tourism Development \xe2\x80\xa6proposed a Japanese Garden for the town. The Japanese government agreed to support this development as a sign'
p78
sg25
S'created Japanese War Cemetery. This is the only such cemetery in Australia, and also holds some of the dead from the WWII air raids on'
p79
sbsg27
S'9202a8c04000641f8000000000012a68'
p80
sg29
I30054
sg30
S'http://en.wikipedia.org/wiki/Darwin,_Northern_Territory'
p81
sba(iedu.umass.cs.iesl.wikilink.expanded.data.ttypes
Mention
p82
(dp83
g16
S'Japanese Garden'
p84
sg18
(iedu.umass.cs.iesl.wikilink.expanded.data.ttypes
Context
p85
(dp86
g21
S'Japanese Garden'
p87
sg23
S'for the town. The Japanese government agreed to support this development as a sign of thanks for the respectful treatment of their war dead; the'
p88
sg25
S'in Australia, and also holds some of the dead from the WWII air raids on Darwin . In 1971 the Cowra Tourism Development \xe2\x80\xa6proposed a'
p89
sbsg27
S'9202a8c04000641f800000000034f91d'
p90
sg29
I30296
sg30
S'http://en.wikipedia.org/wiki/Japanese_Garden'
p91
sba(iedu.umass.cs.iesl.wikilink.expanded.data.ttypes
Mention
p92
(dp93
g16
S'Edo period'
p94
sg18
(iedu.umass.cs.iesl.wikilink.expanded.data.ttypes
Context
p95
(dp96
g21
S'Edo period'
p97
sg23
S'and are a kaiy\xc3\x85\xc2\xab-shiki or strolling garden. They are designed to show all of the landscape types of Japan. At five hectares (12 acres), the'
p98
sg25
S'the time. The first stage was opened in 1979, with a second stage opened in 1986. The gardens were designed in the style of the'
p99
sbsg27
S'9202a8c04000641f800000000012f97b'
p100
sg29
I31326
sg30
S'http://en.wikipedia.org/wiki/Edo_period'
p101
sba(iedu.umass.cs.iesl.wikilink.expanded.data.ttypes
Mention
p102
(dp103
g16
S'Sakura Matsuri'
p104
sg18
(iedu.umass.cs.iesl.wikilink.expanded.data.ttypes
Context
p105
(dp106
g21
S'Sakura Matsuri'
p107
sg23
S"( cherry blossom festival) is a major event in Cowra's tourism calendar and is held in the gardens during September. The festival celebrates the birth"
p108
sg25
S'landscape types of Japan. At five hectares (12 acres), the Cowra Japanese Garden is the largest Japanese garden in the Southern Hemisphere . An annual'
p109
sbsg27
S'9202a8c04000641f80000000001dbfe8'
p110
sg29
I31973
sg30
S'http://en.wikipedia.org/wiki/Sakura'
p111
sbasS'doc_id'
p112
I3313085
sS'rare_words'
p113
(lp114
(iedu.umass.cs.iesl.wikilink.expanded.data.ttypes
RareWord
p115
(dp116
S'word'
p117
S'knowledge'
p118
sS'offset'
p119
I26226
sba(iedu.umass.cs.iesl.wikilink.expanded.data.ttypes
RareWord
p120
(dp121
g117
S'personnel'
p122
sg119
I27991
sba(iedu.umass.cs.iesl.wikilink.expanded.data.ttypes
RareWord
p123
(dp124
g117
S'One'
p125
sg119
I33930
sba(iedu.umass.cs.iesl.wikilink.expanded.data.ttypes
RareWord
p126
(dp127
g117
S'Park'
p128
sg119
I25675
sba(iedu.umass.cs.iesl.wikilink.expanded.data.ttypes
RareWord
p129
(dp130
g117
S'India'
p131
sg119
I26475
sba(iedu.umass.cs.iesl.wikilink.expanded.data.ttypes
RareWord
p132
(dp133
g117
S'held'
p134
sg119
I32235
sba(iedu.umass.cs.iesl.wikilink.expanded.data.ttypes
RareWord
p135
(dp136
g117
S'Carcour'
p137
sg119
I36779
sba(iedu.umass.cs.iesl.wikilink.expanded.data.ttypes
RareWord
p138
(dp139
g117
S'improvised'
p140
sg119
I29175
sba(iedu.umass.cs.iesl.wikilink.expanded.data.ttypes
RareWord
p141
(dp142
g117
S'renowned'
p143
sg119
I31009
sba(iedu.umass.cs.iesl.wikilink.expanded.data.ttypes
RareWord
p144
(dp145
g117
S'disregard'
p146
sg119
I29533
sbasb.