(iedu.umass.cs.iesl.wikilink.expanded.data.ttypes
WikiLinkItem
p0
(dp1
S'url'
p2
S'http://biooilcoupon.org/page/2/'
p3
sS'content'
p4
(iedu.umass.cs.iesl.wikilink.expanded.data.ttypes
PageContentItem
p5
(dp6
S'articleText'
p7
NsS'raw'
p8
NsS'fullText'
p9
NsS'dom'
p10
S'<html lang="en-US" dir="ltr">\n  <head profile="http://gmpg.org/xfn/11">\n    <meta content="text/html; charset=UTF-8" http-equiv="Content-Type"></meta>\n    <meta content="ZcAxjBhMf-1wXcujWjLUtqeF6U2GRfA3JVaEKXrGkA4" name="google-site-verification"></meta>\n    <meta content="A95AC1A3A3D18C73315A43F793BBEB63" name="msvalidate.01"></meta>\n    <title>Bio Oil Coupon 2012 - Part 2</title>\n    <link media="screen" type="text/css" href="http://biooilcoupon.org/wp-content/themes/Slick/reset.css" rel="stylesheet"></link>\n    <link media="screen" type="text/css" href="http://biooilcoupon.org/wp-content/themes/Slick/rebuild.css" rel="stylesheet"></link>\n    <link media="screen" type="text/css" href="http://biooilcoupon.org/wp-content/themes/Slick/wp.css" rel="stylesheet"></link>\n    <link media="screen" type="text/css" href="http://biooilcoupon.org/wp-content/themes/Slick/style.css" rel="stylesheet"></link>\n    <link href="http://biooilcoupon.org/feed/" title="Bio Oil Coupon RSS Feed" type="application/rss+xml" rel="alternate"></link>\n    <link href="http://biooilcoupon.org/xmlrpc.php" rel="pingback"></link>\n    <script src="http://biooilcoupon.org/wp-content/themes/Slick/p7_eqCols2_10.js" type="text/javascript"></script>\n    <style type="text/css">\n      body { background-color: #666666; color: #000000; }\n\t#page { background-color: #FFFFFF; }\n\t#header { background-color: #000033;\t}\n\t#headerimg a {\tcolor: #3D81EE; }\n\t#headerimg .description { color: #EEEEEE; }\n\t#nav { background-color: #000033; }\n\t#container { background-color: #006699; }\n\t#content { background-color: #FFFFFF;\t}\n\t#content h2 { color: #000000; }\n\t#footer { background-color: #000033; color: #EEEEEE;\t}\n\t.widget a { color: #FFFFFF;\t}\n\t.widget { color: #FFFFFF;\t}\n\t.widget-title { color: #FFFFFF;\t} \n\t.post a { color: #000000; }\n\t.post h2 { color: #000000; }\n\ta { color: #000000; }\n    </style>\n    <link media="all" type="text/css" href="http://biooilcoupon.org/wp-content/plugins/contact-form-7/includes/css/styles.css?ver=3.2.1" rel="stylesheet" id="contact-form-7-css"></link>\n    <script src="http://biooilcoupon.org/wp-includes/js/jquery/jquery.js?ver=1.7.2" type="text/javascript"></script>\n    <link href="http://biooilcoupon.org/xmlrpc.php?rsd" title="RSD" type="application/rsd+xml" rel="EditURI"></link>\n    <link href="http://biooilcoupon.org/wp-includes/wlwmanifest.xml" type="application/wlwmanifest+xml" rel="wlwmanifest"></link>\n    <link href="http://biooilcoupon.org/page/2/" rel="canonical"></link>\n    <script type="text/javascript">\n      var _gaq = _gaq || [];\n\t\t  _gaq.push([\'_setAccount\', \'UA-29207501-36 \']);\n\t\t  _gaq.push([\'_trackPageview\']);\n\n\t\t  (function() {\n\t\t    var ga = document.createElement(\'script\'); ga.type = \'text/javascript\'; ga.async = true;\n\t\t    ga.src = (\'https:\' == document.location.protocol ? \'https://ssl\' : \'http://www\') + \'.google-analytics.com/ga.js\';\n\t\t    var s = document.getElementsByTagName(\'script\')[0]; s.parentNode.insertBefore(ga, s);\n\t\t  })();\n    </script>\n  </head>\n  <body onload="P7_equalCols2(0,\'content\',\'p\',\'sidebar\',\'p\')">\n    <div id="page">\n      <div id="header">\n        <div id="headerimg">\n          <h1>\n            <a href="http://biooilcoupon.org/" shape="rect">Bio Oil Coupon</a>\n          </h1>\n          <div class="description">Great savings with Bio Oil Coupon</div>\n        </div>\n      </div>\n      <div id="nav">\n        <script type="text/javascript">&lt;!-- google_ad_client = &quot;ca-pub-2183057987329161&quot;; /* biooilcoupons */ google_ad_slot = &quot;9678245108&quot;; google_ad_width = 728; google_ad_height = 15; //--&gt; </script>\n        <script src="http://pagead2.googlesyndication.com/pagead/show_ads.js" type="text/javascript"> </script>\n      </div>\n      <div id="container">\n        <div id="content">\n          <div id="post-68" class="post">\n            <h2>\n              <a title="Permanent Link to Bio Oil Coupon \xe2\x80\x93 Say Goodbye to Skin Concerns" rel="bookmark" href="http://biooilcoupon.org/bio-oil-coupon-say-goodbye-to-skin-concerns/" shape="rect">Bio Oil Coupon \xe2\x80\x93 Say Goodbye to Skin Concerns</a>\n            </h2>\n            <p>\n              <em>Since treatments and procedures to make skin soft and smooth can cost a lot, why not try using the Bio Oil coupon? Yes, there are a lot of cosmetic pr...</em>\n            </p>\n            <script type="text/javascript">&lt;!-- google_ad_client = &quot;ca-pub-2183057987329161&quot;; /* biooilcoupon.org */ google_ad_slot = &quot;9351718652&quot;; google_ad_width = 336; google_ad_height = 280; //--&gt; </script>\n            <script src="http://pagead2.googlesyndication.com/pagead/show_ads.js" type="text/javascript"> </script>\n            <div class="clear">\xc2\xa0</div>\n            <div class="entry">\n              <p>\n                <a href="http://biooilcoupon.org/wp-content/uploads/bio-oil-coupon.jpg" shape="rect">\n                  <img height="192" width="256" alt="bio oil coupon pic" src="http://biooilcoupon.org/wp-content/uploads/bio-oil-coupon.jpg" title="bio oil coupon pic" class="alignleft size-full wp-image-69"></img>\n                </a>\n                Since treatments and procedures to make skin soft and smooth can cost a lot, why not try using the Bio Oil coupon? Yes, there are a lot of cosmetic procedures that could solve your problems with stretch marks, fine wrinkle marks, skin blemishes or scars. However, do you know how much these costs? Aside from that, are you willing to go through these procedures? If you have budget constraints or you are apprehensive to try out the treatments but you would like to have clearer skin, then Bio Oil should be your solution.\n              </p>\n              <h2>Bio Oil Coupon \xe2\x80\x93 Made for the Skin</h2>\n              <p>\n                Bio Oil is specifically made to help you deal with various problems with the skin, particularly, those which could make you feel insecure. For both men or women, it could not be doubted that scars, blemishes and skin marks can make them feel conscious about themselves. With the combined effects of various oils in Bio Oil such as\n                <a href="http://en.wikipedia.org/wiki/Lavender" title="lavender" shape="rect">lavender</a>\n                , rosemary and calendula oil, you would be able to say goodbye to these in no time.\n              </p>\n              <p>\n                Using the Bio Oil coupon is important. Realistically speaking, Bio Oil does not exactly work like an eraser that could eliminate your skin concerns in just a matter of days. It takes regular use over a particular period of time before you could see the effects of Bio Oil. Daily application is needed. Of course, the speed of improvement will depend on how severe is your scar, stretch mark or blemishes. When you got the coupons for Bio Oil, you will be able to buy sufficient supply that you could use everyday. Best of all, the coupon will entitle you for amazing discounts.\n              </p>\n              <h3>Types of Bio Oil Coupon</h3>\n              <div style="float: left; margin: 0 10px 5px 0;">\n                <object codebase="http://download.macromedia.com/pub/shockwave/cabs/flash/swflash.cab#version=6,0,40,0" classid="clsid:d27cdb6e-ae6d-11cf-96b8-444553540000" height="233" width="300">\n                  <param value="true" name="allowFullScreen" valuetype="data"></param>\n                  <param value="always" name="allowscriptaccess" valuetype="data"></param>\n                  <param value="http://www.youtube.com/v/4HuPscZVQWY?version=3&amp;hl=en_US&amp;rel=0" name="src" valuetype="data"></param>\n                  <param value="true" name="allowfullscreen" valuetype="data"></param>\n                  <embed allowscriptaccess="always" allowfullscreen="true" src="http://www.youtube.com/v/4HuPscZVQWY?version=3&amp;hl=en_US&amp;rel=0" type="application/x-shockwave-flash" height="233" width="300"></embed>\n                </object>\n              </div>\n              <p>\n                There are different types of Bio Oil coupon. Some can simply be clipped from magazines and newspapers. All you need is a pair of scissors and once you have clipped them, you can immediately use it in participating stores. There are also those which can be obtained online. You have the option to use them for online stores or for local stores. Those which are used in local stores have to be printed out. On the other hand, online orders entail using promotion codes from the digital coupons.\n              </p>\n              <p>\n                Typically, the coupons for Bio Oil will automatically slash off at least $1 off the price tag. If you frequently buy this product, that amount will sum up to a lot of savings too. The\n                <a href="http://biooilcoupon.org/bio-oil-coupon-spotless-skin-without-spending-a-fortune/" title="bio oil coupon" shape="rect">Bio Oil coupon</a>\n                is your ticket towards having smoother and clearer skin.\n              </p>\n            </div>\n            <p class="postmetadata">\n              Tags:\n              <a rel="tag" href="http://biooilcoupon.org/tag/bio-oil-coupon/" shape="rect">Bio Oil Coupon</a>\n              ,\n              <a rel="tag" href="http://biooilcoupon.org/tag/bio-oil-coupon-2012/" shape="rect">bio oil coupon 2012</a>\n              ,\n              <a rel="tag" href="http://biooilcoupon.org/tag/bio-oil-coupons/" shape="rect">Bio Oil Coupons</a>\n              ,\n              <a rel="tag" href="http://biooilcoupon.org/tag/bio-oil-coupons-2012/" shape="rect">bio oil coupons 2012</a>\n              ,\n              <a rel="tag" href="http://biooilcoupon.org/tag/coupons-for-bio-oil/" shape="rect">coupons for bio oil</a>\n              <br clear="none"></br>\n              Posted in\n              <a rel="category tag" title="View all posts in Bio Oil Coupon" href="http://biooilcoupon.org/category/bio-oil-coupon/" shape="rect">Bio Oil Coupon</a>\n              |\n              <a title="Comment on Bio Oil Coupon \xe2\x80\x93 Say Goodbye to Skin Concerns" href="http://biooilcoupon.org/bio-oil-coupon-say-goodbye-to-skin-concerns/#comments" shape="rect">1 Comment \xc2\xbb</a>\n            </p>\n          </div>\n          <div class="navigation">\n            <div class="alignleft">\n              <a href="http://biooilcoupon.org/page/3/" shape="rect">\xc2\xab Older Entries</a>\n            </div>\n            <div class="alignright">\n              <a href="http://biooilcoupon.org/" shape="rect">Newer Entries \xc2\xbb</a>\n            </div>\n          </div>\n        </div>\n        <div id="sidebar">\n          <script type="text/javascript">&lt;!-- google_ad_client = &quot;ca-pub-2183057987329161&quot;; /* biooilcoupon */ google_ad_slot = &quot;7551612216&quot;; google_ad_width = 180; google_ad_height = 90; //--&gt; </script>\n          <script src="http://pagead2.googlesyndication.com/pagead/show_ads.js" type="text/javascript"> </script>\n          <div id="recent-posts-3" class="widget widget_recent_entries">\n            <div class="widget-title">Articles</div>\n            <ul>\n              <li>\n                <a title="Bio Oil Coupon \xc3\xa2\xe2\x82\xac\xe2\x80\x9c How the Product and Coupons Can Benefit You" href="http://biooilcoupon.org/bio-oil-coupon-how-the-product-and-coupons-can-benefit-you/" shape="rect">Bio Oil Coupon \xc3\xa2\xe2\x82\xac\xe2\x80\x9c How the Product and Coupons Can Benefit You</a>\n              </li>\n              <li>\n                <a title="Bio Oil Coupon \xe2\x80\x93 Say Goodbye to Skin Concerns" href="http://biooilcoupon.org/bio-oil-coupon-say-goodbye-to-skin-concerns/" shape="rect">Bio Oil Coupon \xe2\x80\x93 Say Goodbye to Skin Concerns</a>\n              </li>\n              <li>\n                <a title="Bio Oil Coupon \xe2\x80\x93 Spotless Skin Without Spending a Fortune" href="http://biooilcoupon.org/bio-oil-coupon-spotless-skin-without-spending-a-fortune/" shape="rect">Bio Oil Coupon \xe2\x80\x93 Spotless Skin Without Spending a Fortune</a>\n              </li>\n              <li>\n                <a title="Bio Oil Coupon" href="http://biooilcoupon.org/bio-oil-coupon-2/" shape="rect">Bio Oil Coupon</a>\n              </li>\n              <li>\n                <a title="Using Bio Oil Coupon" href="http://biooilcoupon.org/using-bio-oil-coupon/" shape="rect">Using Bio Oil Coupon</a>\n              </li>\n            </ul>\n          </div>\n          <div id="pages-3" class="widget widget_pages">\n            <div class="widget-title">Pages</div>\n            <ul>\n              <li class="page_item page-item-7">\n                <a href="http://biooilcoupon.org/about-us/" shape="rect">About Us</a>\n              </li>\n              <li class="page_item page-item-8">\n                <a href="http://biooilcoupon.org/contact-us/" shape="rect">Contact Us</a>\n              </li>\n              <li class="page_item page-item-9">\n                <a href="http://biooilcoupon.org/privacy-policy/" shape="rect">Privacy Policy</a>\n              </li>\n            </ul>\n          </div>\n          <p></p>\n        </div>\n        <div class="clear"></div>\n      </div>\n      <div class="clear"></div>\n      <div id="footer"> Copyright \xc2\xa9 2012 biooilcoupon.org. All Rights Reserved. </div>\n      <script src="http://biooilcoupon.org/wp-content/plugins/contact-form-7/includes/js/jquery.form.js?ver=3.14" type="text/javascript"></script>\n      <script type="text/javascript"> /* &lt;![CDATA[ */ var _wpcf7 = {&quot;loaderUrl&quot;:&quot;http:\\/\\/biooilcoupon.org\\/wp-content\\/plugins\\/contact-form-7\\/images\\/ajax-loader.gif&quot;,&quot;sending&quot;:&quot;Sending ...&quot;}; /* ]]&gt; */ </script>\n      <script src="http://biooilcoupon.org/wp-content/plugins/contact-form-7/includes/js/scripts.js?ver=3.2.1" type="text/javascript"></script>\n      <script src="http://biooilcoupon.org/wp-content/plugins/pc-social-sharing/plugin.js?ver=3.4.1" type="text/javascript"></script>\n    </div>\n  </body>\n</html>'
p11
sbsS'mentions'
p12
(lp13
(iedu.umass.cs.iesl.wikilink.expanded.data.ttypes
Mention
p14
(dp15
S'anchor_text'
p16
S'lavender'
p17
sS'context'
p18
(iedu.umass.cs.iesl.wikilink.expanded.data.ttypes
Context
p19
(dp20
S'middle'
p21
S'lavender'
p22
sS'right'
p23
S', rosemary and calendula oil, you would be able to say goodbye to these in no time. Using the Bio Oil coupon is important. Realistically'
p24
sS'left'
p25
S'that scars, blemishes and skin marks can make them feel conscious about themselves. With the combined effects of various oils in Bio Oil such as'
p26
sbsS'freebase_id'
p27
S'9202a8c04000641f8000000000023b2f'
p28
sS'raw_text_offset'
p29
I6110
sS'wiki_url'
p30
S'http://en.wikipedia.org/wiki/Lavender'
p31
sbasS'doc_id'
p32
I3327841
sS'rare_words'
p33
(lp34
(iedu.umass.cs.iesl.wikilink.expanded.data.ttypes
RareWord
p35
(dp36
S'word'
p37
S'up'
p38
sS'offset'
p39
I8186
sba(iedu.umass.cs.iesl.wikilink.expanded.data.ttypes
RareWord
p40
(dp41
g37
S'All'
p42
sg39
I7637
sba(iedu.umass.cs.iesl.wikilink.expanded.data.ttypes
RareWord
p43
(dp44
g37
S'scar'
p45
sg39
I6585
sba(iedu.umass.cs.iesl.wikilink.expanded.data.ttypes
RareWord
p46
(dp47
g37
S'Daily'
p48
sg39
I6486
sba(iedu.umass.cs.iesl.wikilink.expanded.data.ttypes
RareWord
p49
(dp50
g37
S'days'
p51
sg39
I6381
sba(iedu.umass.cs.iesl.wikilink.expanded.data.ttypes
RareWord
p52
(dp53
g37
S'Those'
p54
sg39
I7878
sba(iedu.umass.cs.iesl.wikilink.expanded.data.ttypes
RareWord
p55
(dp56
g37
S'application'
p57
sg39
I6492
sba(iedu.umass.cs.iesl.wikilink.expanded.data.ttypes
RareWord
p58
(dp59
g37
S'know'
p60
sg39
I5405
sba(iedu.umass.cs.iesl.wikilink.expanded.data.ttypes
RareWord
p61
(dp62
g37
S'severe'
p63
sg39
I6570
sba(iedu.umass.cs.iesl.wikilink.expanded.data.ttypes
RareWord
p64
(dp65
g37
S'You'
p66
sg39
I7807
sbasb.