(iedu.umass.cs.iesl.wikilink.expanded.data.ttypes
WikiLinkItem
p0
(dp1
S'url'
p2
S'http://dedeporsche.wordpress.com/2012/02/05/porsche-team-germany-thrills-with-classy-tennis-and-fighting-spirit/'
p3
sS'content'
p4
(iedu.umass.cs.iesl.wikilink.expanded.data.ttypes
PageContentItem
p5
(dp6
S'articleText'
p7
NsS'raw'
p8
NsS'fullText'
p9
NsS'dom'
p10
S'<html lang="en" dir="ltr">\n  <head>\n    <meta charset="UTF-8"></meta>\n    <title>Porsche Team Germany thrills with classy tennis and fighting spirit \xc2\xab Dedeporsches Blog</title>\n    <link href="http://gmpg.org/xfn/11" rel="profile"></link>\n    <link media="screen" type="text/css" href="http://s1.wp.com/wp-content/themes/pub/choco/style.css?m=1340707490g" rel="stylesheet"></link>\n    <link href="http://dedeporsche.wordpress.com/xmlrpc.php" rel="pingback"></link>\n    <link href="http://dedeporsche.wordpress.com/feed/" title="Dedeporsches Blog \xc2\xbb Feed" type="application/rss+xml" rel="alternate"></link>\n    <link href="http://dedeporsche.wordpress.com/comments/feed/" title="Dedeporsches Blog \xc2\xbb Comments Feed" type="application/rss+xml" rel="alternate"></link>\n    <link href="http://dedeporsche.wordpress.com/2012/02/05/porsche-team-germany-thrills-with-classy-tennis-and-fighting-spirit/feed/" title="Dedeporsches Blog \xc2\xbb Porsche Team Germany thrills with classy tennis and fighting\xc2\xa0spirit Comments Feed" type="application/rss+xml" rel="alternate"></link>\n    <script type="text/javascript"> /* &lt;![CDATA[ */ function addLoadEvent(func){var oldonload=window.onload;if(typeof window.onload!=\'function\'){window.onload=func;}else{window.onload=function(){oldonload();func();}}} /* ]]&gt; */ </script>\n    <link \n    media="all" type="text/css" href="http://s1.wp.com/_static/??/wp-content/blog-plugins/loggedout-follow/widget.css,/wp-content/mu-plugins/infinity/themes/pub/choco.css,/wp-content/mu-plugins/slideshow/slideshow.css,/wp-content/mu-plugins/post-flair/style.css,/wp-content/themes/pub/choco/colors/darkgray/style.css,/wp-content/mu-plugins/post-flair/sharing/sharing.css,/wp-content/themes/h4/global.css?m=1345177132j" rel="stylesheet" id="all-css-0">\n</link>\n    <link media="print" type="text/css" href="http://s0.wp.com/wp-content/mu-plugins/global-print/global-print.css?m=1335386953g" rel="stylesheet" id="print-css-0"></link>\n    <script type="text/javascript"> /* &lt;![CDATA[ */ var LoggedOutFollow = {&quot;invalid_email&quot;:&quot;Your subscription did not succeed, please try again with a valid email address.&quot;}; /* ]]&gt; */ </script>\n    <script src="http://s2.wp.com/_static/??/wp-includes/js/jquery/jquery.js,/wp-content/blog-plugins/loggedout-follow/widget.js,/wp-includes/js/comment-reply.js?m=1333391137j" type="text/javascript"></script>\n    <link media="all" type="text/css" href="http://s1.wp.com/wp-content/mu-plugins/highlander-comments/style.css?m=1343991657g" rel="stylesheet" id="all-css-0"></link>\n    <link href="http://dedeporsche.wordpress.com/xmlrpc.php?rsd" title="RSD" type="application/rsd+xml" rel="EditURI"></link>\n    <link href="http://dedeporsche.wordpress.com/wp-includes/wlwmanifest.xml" type="application/wlwmanifest+xml" rel="wlwmanifest"></link>\n    <link href="http://dedeporsche.wordpress.com/2012/02/04/porsche-team-germany-fed-cup-1st-round-in-the-porsche-arena-stuttgart/" title="Porsche Team Germany \xe2\x80\x93 Fed Cup, 1st Round in the Porsche Arena,\xc2\xa0Stuttgart" rel="prev"></link>\n    <link href="http://dedeporsche.wordpress.com/2012/02/05/sneak-preview-jeff-zwarts-pikes-peak-new-ride-2012-porsche-911-gt3-rs-4-0/" title="SNEAK PREVIEW: Jeff Zwart\xe2\x80\x99s New Ride 2012 \xe2\x80\x93 Porsche 911 GT3 RS\xc2\xa04.0" rel="next"></link>\n    <meta content="WordPress.com" name="generator"></meta>\n    <link href="http://dedeporsche.wordpress.com/2012/02/05/porsche-team-germany-thrills-with-classy-tennis-and-fighting-spirit/" rel="canonical"></link>\n    <link href="http://wp.me/p18of3-1S1" rel="shortlink"></link>\n    <link href="http://public-api.wordpress.com/oembed/1.0/?format=json&amp;url=http%3A%2F%2Fdedeporsche.wordpress.com%2F2012%2F02%2F05%2Fporsche-team-germany-thrills-with-classy-tennis-and-fighting-spirit%2F&amp;for=wpcom-auto-discovery" type="application/json+oembed" rel="alternate"></link>\n    <link href="http://public-api.wordpress.com/oembed/1.0/?format=xml&amp;url=http%3A%2F%2Fdedeporsche.wordpress.com%2F2012%2F02%2F05%2Fporsche-team-germany-thrills-with-classy-tennis-and-fighting-spirit%2F&amp;for=wpcom-auto-discovery" type="application/xml+oembed" rel="alternate"></link>\n    <meta content="article" property="og:type"></meta>\n    <meta content="Porsche Team Germany thrills with classy tennis and fighting\xc2\xa0spirit" property="og:title"></meta>\n    <meta content="http://dedeporsche.wordpress.com/2012/02/05/porsche-team-germany-thrills-with-classy-tennis-and-fighting-spirit/" property="og:url"></meta>\n    <meta content="Fed Cup, 1st Round in the Porsche Arena, Stuttgart: Germany \xc3\xa2\xe2\x82\xac\xe2\x80\x9c Czech Republic Fans in der Porsche-Arena Stuttgart.In the opening tie of the 2012 Fed Cup season, Porsche Team Germany thrilled the sel..." property="og:description"></meta>\n    <meta content="Dedeporsches Blog" property="og:site_name"></meta>\n    <meta content="http://dedeporsche.files.wordpress.com/2012/02/t12_0012_fine1.jpg?w=200" property="og:image"></meta>\n    <meta content="http://dedeporsche.files.wordpress.com/2012/02/t12_0013_fine1.jpg?w=200" property="og:image"></meta>\n    <meta content="http://dedeporsche.files.wordpress.com/2012/02/t12_0016_fine1.jpg?w=200" property="og:image"></meta>\n    <meta content="http://dedeporsche.files.wordpress.com/2012/02/t12_0017_fine1.jpg?w=200" property="og:image"></meta>\n    <meta content="http://dedeporsche.files.wordpress.com/2012/02/t12_0043_fine.jpg?h=200" property="og:image"></meta>\n    <meta content="http://dedeporsche.files.wordpress.com/2012/02/t12_0044_fine.jpg?w=200" property="og:image"></meta>\n    <meta content="http://dedeporsche.files.wordpress.com/2012/02/t12_0045_fine.jpg?h=200" property="og:image"></meta>\n    <meta content="http://dedeporsche.files.wordpress.com/2012/02/t12_0046_fine.jpg?h=200" property="og:image"></meta>\n    <meta content="http://dedeporsche.files.wordpress.com/2012/02/t12_0047_fine.jpg?w=200" property="og:image"></meta>\n    <meta content="http://dedeporsche.files.wordpress.com/2012/02/t12_0048_fine.jpg?w=200" property="og:image"></meta>\n    <meta content="http://dedeporsche.files.wordpress.com/2012/02/t12_0049_fine.jpg?w=200" property="og:image"></meta>\n    <meta content="http://dedeporsche.files.wordpress.com/2012/02/t12_0050_fine.jpg?w=200" property="og:image"></meta>\n    <meta content="http://dedeporsche.files.wordpress.com/2012/02/t12_0051_fine.jpg?w=200" property="og:image"></meta>\n    <meta content="http://dedeporsche.files.wordpress.com/2012/02/t12_0052_fine.jpg?w=200" property="og:image"></meta>\n    <meta content="http://dedeporsche.files.wordpress.com/2012/02/t12_0053_fine.jpg?w=200" property="og:image"></meta>\n    <meta content="http://dedeporsche.files.wordpress.com/2012/02/t12_0055_fine.jpg?h=200" property="og:image"></meta>\n    <meta content="http://dedeporsche.files.wordpress.com/2012/02/t12_0061_fine.jpg?w=200" property="og:image"></meta>\n    <meta content="http://dedeporsche.files.wordpress.com/2012/02/t12_0062_fine.jpg?w=200" property="og:image"></meta>\n    <meta content="http://dedeporsche.files.wordpress.com/2012/02/t12_0063_fine.jpg?h=200" property="og:image"></meta>\n    <meta content="http://dedeporsche.files.wordpress.com/2012/02/t12_0064_fine.jpg?w=200" property="og:image"></meta>\n    <meta content="http://dedeporsche.files.wordpress.com/2012/02/t12_0065_fine.jpg?w=200" property="og:image"></meta>\n    <meta content="http://dedeporsche.files.wordpress.com/2012/02/t12_0012_fine1.jpg" name="twitter:image"></meta>\n    <meta content="summary" name="twitter:card"></meta>\n    <meta content="17582906" name="twitter:creator:id"></meta>\n    <meta content="249643311490" property="fb:app_id"></meta>\n    <link sizes="16x16" href="http://0.gravatar.com/blavatar/07b23bcf53c1571c3bef74caf6521d32?s=16" type="image/x-icon" rel="shortcut icon"></link>\n    <link sizes="16x16" href="http://0.gravatar.com/blavatar/07b23bcf53c1571c3bef74caf6521d32?s=16" type="image/x-icon" rel="icon"></link>\n    <link href="http://0.gravatar.com/blavatar/a77956b53138a7189b5366cabfdb48de?s=114" rel="apple-touch-icon-precomposed"></link>\n    <link href="http://dedeporsche.wordpress.com/?openidserver=1" rel="openid.server"></link>\n    <link href="http://dedeporsche.wordpress.com/" rel="openid.delegate"></link>\n    <link title="Dedeporsches Blog" href="http://dedeporsche.wordpress.com/osd.xml" type="application/opensearchdescription+xml" rel="search"></link>\n    <link title="WordPress.com" href="http://wordpress.com/opensearch.xml" type="application/opensearchdescription+xml" rel="search"></link>\n    <style>\n      /* &lt;![CDATA[ */\n\t\t/* Block: reblog */\n\t\t\n\t\t.reblog-from img                   { margin: 0 10px 0 0; vertical-align: middle; padding: 0; border: 0; }\n\t\t.reblogger-note img.avatar         { float: left; padding: 0; border: 0; }\n\t\t.reblogger-note-content            { margin: 0 0 20px; }\n\t\t.reblog-post .wpcom-enhanced-excerpt-content { border-left: 3px solid #eee; padding-left: 15px; }\n\t\t.reblog-post ul.thumb-list         { display: block; list-style: none; margin: 2px 0; padding: 0; clear: both; }\n\t\t.reblog-post ul.thumb-list li      { display: inline; margin: 0; padding: 0 1px; border: 0; }\n\t\t.reblog-post ul.thumb-list li a    { margin: 0; padding: 0; border: 0; }\n\t\t.reblog-post ul.thumb-list li img  { margin: 0; padding: 0; border: 0; }\n\t\t\n\t\t.reblog-post .wpcom-enhanced-excerpt { clear: both; }\n\t\t\n\t\t.reblog-post .wpcom-enhanced-excerpt address,\n\t\t.reblog-post .wpcom-enhanced-excerpt li,\n\t\t.reblog-post .wpcom-enhanced-excerpt h1,\n\t\t.reblog-post .wpcom-enhanced-excerpt h2,\n\t\t.reblog-post .wpcom-enhanced-excerpt h3,\n\t\t.reblog-post .wpcom-enhanced-excerpt h4,\n\t\t.reblog-post .wpcom-enhanced-excerpt h5,\n\t\t.reblog-post .wpcom-enhanced-excerpt h6,\n\t\t.reblog-post .wpcom-enhanced-excerpt p { font-size: 100% !important; }\n\t\t\n\t\t.reblog-post .wpcom-enhanced-excerpt blockquote,\n\t\t.reblog-post .wpcom-enhanced-excerpt pre,\n\t\t.reblog-post .wpcom-enhanced-excerpt code,\n\t\t.reblog-post .wpcom-enhanced-excerpt q { font-size: 98% !important; }\n\t\t\n\n\t\t/* ]]&gt; */\n    </style>\n    <meta content="Dedeporsches Blog" name="application-name"></meta>\n    <meta content="width=device-width;height=device-height" name="msapplication-window"></meta>\n    <meta content="It\'s all about Porsche...if you\'re an owner of a Porsche,or a big enthusiast of Porsche Cars, Porsche Motorsports, Porsche Design, Porsche History, or a member of a Porsche Club....join me on focusing just about PORSCHE!!" name="msapplication-tooltip"></meta>\n    <meta content="name=Subscribe;action-uri=http://dedeporsche.wordpress.com/feed/;icon-uri=http://0.gravatar.com/blavatar/07b23bcf53c1571c3bef74caf6521d32?s=16" name="msapplication-task"></meta>\n    <meta content="name=Sign up for a free blog;action-uri=http://wordpress.com/signup/;icon-uri=http://s2.wp.com/i/favicon.ico" name="msapplication-task"></meta>\n    <meta content="name=WordPress.com Support;action-uri=http://support.wordpress.com/;icon-uri=http://s2.wp.com/i/favicon.ico" name="msapplication-task"></meta>\n    <meta content="name=WordPress.com Forums;action-uri=http://forums.wordpress.com/;icon-uri=http://s2.wp.com/i/favicon.ico" name="msapplication-task"></meta>\n    <meta content="Porsche Team Germany thrills with classy tennis and fighting\xc2\xa0spirit | Dedeporsches Blog on WordPress.com" name="title"></meta>\n    <meta \n    content="Fed Cup, 1st Round in the Porsche Arena, Stuttgart: Germany \xc3\xa2\xe2\x82\xac\xe2\x80\x9c Czech Republic Fans in der Porsche-Arena Stuttgart.In the opening tie of the 2012 Fed Cup season, Porsche Team Germany thrilled the sell-out crowd in the Porsche Arena with their great fighting spirit and excellent tennis \xc3\xa2\xe2\x82\xac\xe2\x80\x9c even though it did not suffice for them\xe2\x80\xa6" name="description">\n</meta>\n    <script src="http://partner.googleadservices.com/gampad/google_service.js" type="text/javascript"> </script>\n    <script type="text/javascript"> GS_googleAddAdSenseService(&quot;ca-pub-3443918307802676&quot;); GS_googleEnableAllServices(); </script>\n    <script type="text/javascript"> GA_googleAddSlot(&quot;ca-pub-3443918307802676&quot;, &quot;wpcom_below_post_adsafe&quot;); </script>\n    <script type="text/javascript"> GA_googleFetchAds(); </script>\n    <script type="text/javascript"> window.google_analytics_uacct = &quot;UA-52447-2&quot;; </script>\n    <script type="text/javascript">\n      var _gaq = _gaq || [];\n\t_gaq.push([\'_setAccount\', \'UA-52447-2\']);\n\t_gaq.push([\'_setDomainName\', \'wordpress.com\']);\n\t_gaq.push([\'_initData\']);\n\t_gaq.push([\'_trackPageview\']);\n\n\t(function() {\n\t\tvar ga = document.createElement(\'script\'); ga.type = \'text/javascript\'; ga.async = true;\n\t\tga.src = (\'https:\' == document.location.protocol ? \'https://ssl\' : \'http://www\') + \'.google-analytics.com/ga.js\';\n\t\t(document.getElementsByTagName(\'head\')[0] || document.getElementsByTagName(\'body\')[0]).appendChild(ga);\n\t})();\n    </script>\n  </head>\n  <body class="single single-post postid-7193 single-format-standard color-darkgray highlander-enabled highlander-light">\n    <div id="page">\n      <div id="header" class="clear-fix">\n        <div id="logo">\n          <h3 id="site-title">\n            <span>\n              <a rel="home" title="Dedeporsches Blog" href="http://dedeporsche.wordpress.com/" shape="rect">Dedeporsches Blog</a>\n            </span>\n          </h3>\n          <div class="description">It\'s all about Porsche\xe2\x80\xa6if you\'re an owner of a Porsche,or a big enthusiast of Porsche Cars, Porsche Motorsports, Porsche Design, Porsche History, or a member of a Porsche Club\xe2\x80\xa6.join me on focusing just about PORSCHE!!</div>\n        </div>\n        <div id="nav">\n          <ul class="menu">\n            <li>\n              <a title="Home" href="http://dedeporsche.wordpress.com/" shape="rect">Home</a>\n            </li>\n            <li class="page_item page-item-2">\n              <a href="http://dedeporsche.wordpress.com/about/" shape="rect">About</a>\n            </li>\n            <li class="page_item page-item-7474">\n              <a href="http://dedeporsche.wordpress.com/dotter-family-auction-feb-18th-2012/" shape="rect">ADMIN</a>\n            </li>\n          </ul>\n        </div>\n      </div>\n      <div id="main">\n        <a href="http://dedeporsche.wordpress.com/feed/rss/" id="rss-link" shape="rect">RSS</a>\n        <div id="main-top">\n          <div id="main-bot" class="clear-fix">\n            <div id="content">\n              <div class="post-navigation clear-fix">\n                <div class="nav-previous">\n                  <a rel="prev" href="http://dedeporsche.wordpress.com/2012/02/04/porsche-team-germany-fed-cup-1st-round-in-the-porsche-arena-stuttgart/" shape="rect">\n                    <span class="meta-nav">\xe2\x86\x90</span>\n                    Porsche Team Germany \xe2\x80\x93 Fed Cup, 1st Round in the Porsche Arena,\xc2\xa0Stuttgart\n                  </a>\n                </div>\n                <div class="nav-next">\n                  <a rel="next" href="http://dedeporsche.wordpress.com/2012/02/05/sneak-preview-jeff-zwarts-pikes-peak-new-ride-2012-porsche-911-gt3-rs-4-0/" shape="rect">\n                    SNEAK PREVIEW: Jeff Zwart\xe2\x80\x99s New Ride 2012 \xe2\x80\x93 Porsche 911 GT3 RS\xc2\xa04.0\n                    <span class="meta-nav">\xe2\x86\x92</span>\n                  </a>\n                </div>\n              </div>\n              <div \n              class="post-7193 post type-post status-publish format-standard hentry category-andrea-petkovic category-porsche category-porsche-arena category-porsche-tennis-grand-prix category-sabine-lisicki tag-andrea-petkovic tag-angelique-kerber tag-angelique-kerber-2 tag-anna-lena-gronefeld-2 tag-anna-lena-gronefeld tag-backs-to-the-wall tag-barbara-rittner tag-czech-republic tag-decisive-moments tag-fighting-spirit tag-iveta-benesova tag-julia-gorges tag-julia-gorges-2 tag-petra-kvitova tag-porsche tag-porsche-arena tag-porsche-tennis tag-porsche-tennis-grand-prix tag-porsche-tennis-team-deutschland tag-porsche-tennis-team-germany tag-sabine-lisicki tag-stuttgart-germany tag-wimbledon-champion">\n                <h1 class="post-title">Porsche Team Germany thrills with classy tennis and fighting\xc2\xa0spirit</h1>\n                <div class="date">\n                  <div class="bg">\n                    <span class="day">05</span>\n                    <span>Feb</span>\n                  </div>\n                </div>\n                <div class="entry">\n                  <h1>\n                    <a rel="wikipedia" href="http://en.wikipedia.org/wiki/Fed_Cup" title="Fed Cup" class="zem_slink" shape="rect">Fed Cup</a>\n                    , 1st Round in the\n                    <a rel="wikipedia" href="http://en.wikipedia.org/wiki/Porsche_Arena" title="Porsche Arena" class="zem_slink" shape="rect">Porsche Arena</a>\n                    , Stuttgart: Germany \xc3\xa2\xe2\x82\xac\xe2\x80\x9c Czech Republic\n                  </h1>\n                  <h4 style="text-align:center;">\n                    <a href="http://dedeporsche.files.wordpress.com/2012/02/t12_0051_fine.jpg" shape="rect">\n                      <img height="440" width="645" alt="" src="http://dedeporsche.files.wordpress.com/2012/02/t12_0051_fine.jpg?w=645&amp;h=440" title="T12_0051_fine" class="aligncenter size-full wp-image-7210"></img>\n                    </a>\n                    <strong>Fans in der Porsche-Arena</strong>\n                  </h4>\n                  <h3>\n                    <strong>Stuttgart.</strong>\n                    In the opening tie of the 2012 Fed Cup season, Porsche Team Germany thrilled the sell-out crowd in the Porsche Arena with their great fighting spirit and excellent tennis \xc3\xa2\xe2\x82\xac\xe2\x80\x9c even though it did not suffice for them to progress to the hoped-for semifinal berth in the first round match against title-holders the Czech Republic.\n                  </h3>\n                  <div style="width: 310px" class="wp-caption aligncenter">\n                    <a href="http://commons.wikipedia.org/wiki/File:Porsche-Arena-Eingang.jpg" shape="rect">\n                      <img height="225" width="300" alt="Eingang Porsche Arena in Stuttgart" src="http://upload.wikimedia.org/wikipedia/commons/thumb/3/36/Porsche-Arena-Eingang.jpg/300px-Porsche-Arena-Eingang.jpg" title="Eingang Porsche Arena in Stuttgart" class="zemanta-img-inserted zemanta-img-configured"></img>\n                    </a>\n                    <p class="wp-caption-text">Image via Wikipedia - Eingang Porsche Arena in Stuttgart</p>\n                  </div>\n                  <h3>\n                    Though unable able to take their chances in the decisive moments,\n                    <a rel="wikipedia" href="http://en.wikipedia.org/wiki/Sabine_Lisicki" title="Sabine Lisicki" class="zem_slink" shape="rect">Sabine Lisicki</a>\n                    ,\n                    <a rel="wikipedia" href="http://en.wikipedia.org/wiki/Julia_G%C3%B6rges" title="Julia G\xc3\x83\xc2\xb6rges" class="zem_slink" shape="rect">Julia G\xc3\x83\xc2\xb6rges</a>\n                    ,\n                    <a rel="wikipedia" href="http://en.wikipedia.org/wiki/Angelique_Kerber" title="Angelique Kerber" class="zem_slink" shape="rect">Angelique Kerber</a>\n                    and\n                    <a rel="wikipedia" href="http://en.wikipedia.org/wiki/Anna-Lena_Gr%C3%B6nefeld" title="Anna-Lena Gr\xc3\x83\xc2\xb6nefeld" class="zem_slink" shape="rect">Anna-Lena Gr\xc3\x83\xc2\xb6nefeld</a>\n                    nevertheless showed themselves to be a strong team in the 4-1 defeat.\n                  </h3>\n                  <h4 style="text-align:center;">\n                    <a href="http://dedeporsche.files.wordpress.com/2012/02/t12_0061_fine.jpg" shape="rect">\n                      <img height="433" width="645" alt="" src="http://dedeporsche.files.wordpress.com/2012/02/t12_0061_fine.jpg?w=645&amp;h=433" title="T12_0061_fine" class="aligncenter size-full wp-image-7214"></img>\n                    </a>\n                    <strong>Barbara Rittner (l.), Angelique Kerber, Porsche Team Deutschland</strong>\n                  </h4>\n                  <blockquote>\n                    <h3>\xc3\xa2\xe2\x82\xac\xc5\x93We\xc3\xa2\xe2\x82\xac\xe2\x84\xa2re leaving Stuttgart with a great feeling,\xc3\xa2\xe2\x82\xac\xef\xbf\xbd said captain Barbara Rittner when summing up the Fed Cup weekend.</h3>\n                    <h3>\xc3\xa2\xe2\x82\xac\xc5\x93I\xc3\xa2\xe2\x82\xac\xe2\x84\xa2m so-so proud of the girls. They\xc3\xa2\xe2\x82\xac\xe2\x84\xa2ve showed they\xc3\xa2\xe2\x82\xac\xe2\x84\xa2re highly talented and can excite the spectators.</h3>\n                    <h3>Everything is very positive even though it wasn\xc3\xa2\xe2\x82\xac\xe2\x84\xa2t enough to win against such a strong opponent. Now we\xc3\xa2\xe2\x82\xac\xe2\x84\xa2re hoping for the luck of the draw and will do our very best to stay in the World Group.\xc3\xa2\xe2\x82\xac\xef\xbf\xbd</h3>\n                  </blockquote>\n                  <h3>\n                    After Sabine Lisicki surprisingly lost the first rubber on Saturday 6-2, 4-6, 2-6 against\n                    <a rel="wikipedia" href="http://en.wikipedia.org/wiki/Iveta_Bene%C5%A1ov%C3%A1" title="Iveta Bene\xc3\x85\xc2\xa1ov\xc3\x83\xc2\xa1" class="zem_slink" shape="rect">Iveta Benesova</a>\n                    and Julia G\xc3\x83\xc2\xb6rges\xc3\xa2\xe2\x82\xac\xe2\x84\xa2 6-3, 3-6, 8-10 defeat against\n                    <a rel="wikipedia" href="http://en.wikipedia.org/wiki/Petra_Kvitov%C3%A1" title="Petra Kvitov\xc3\x83\xc2\xa1" class="zem_slink" shape="rect">Petra Kvitova</a>\n                    in a high-class tennis thriller, Porsche Team Germany stood with their backs to the wall on Sunday.\n                  </h3>\n                  <h3 style="text-align:center;">\n                    <script>\n                      WP_SLIDESHOW_IMAGES = {\n\t\tload: \'http://s1.wp.com/wp-content/mu-plugins/slideshow/slideshow-loader.gif?m=1289605033g\',\n\t};\n\tWP_SLIDESHOW_LABELS = {\n\t\tnext: \'Next\',\n\t\tprev: \'Previous\',\n\t\tstop: \'Toggle Playback\'\n\t};\n\tWP_SLIDESHOW_BLOG_INFO = {\n\t\tblogId: \'16776149\',\n\t\tsubDomain: \'dedeporsche\',\n\t\tuserId: \'0\'\n\t};\n                    </script>\n                  </h3>\n                  <p class="noscript robots-nocontent">This slideshow requires JavaScript.</p>\n                  <div id="gallery-7193-2-slideshow" class="slideshow-window"></div>\n                  <style> #gallery-7193-2-slideshow .slideshow-slide img { max-height: 410px; /* Emulate max-height in IE 6 */ _height: expression(this.scrollHeight &gt;= 410 ? \'410px\' : \'auto\'); } </style>\n                  <script charset="utf-8" type="text/javascript">\n                    jQuery( \'.noscript\' ).remove();\n\tjQuery( document).ready( function() {\n\t\tif(typeof SlideShow == \'undefined\') return;\n\t\tvar slideShow = new SlideShow( jQuery(\'#gallery-7193-2-slideshow\'), 605, 410, \'fade\' );\n\t\tslideShow.images = [ { \'src\': \'http://dedeporsche.files.wordpress.com/2012/02/t12_0012_fine1.jpg\', \'id\': \'7198\', \'caption\': \'\'} ,  { \'src\': \'http://dedeporsche.files.wordpress.com/2012/02/t12_0013_fine1.jpg\', \'id\': \'7199\', \'caption\': \'\'} ,  { \'src\': \'http://dedeporsche.files.wordpress.com/2012/02/t12_0016_fine1.jpg\', \'id\': \'7200\', \'caption\': \'\'} ,  { \'src\': \'http://dedeporsche.files.wordpress.com/2012/02/t12_0017_fine1.jpg\', \'id\': \'7201\', \'caption\': \'\'} ,  { \'src\': \'http://dedeporsche.files.wordpress.com/2012/02/t12_0043_fine.jpg\', \'id\': \'7202\', \'caption\': \'\'} ,  { \'src\': \'http://dedeporsche.files.wordpress.com/2012/02/t12_0044_fine.jpg\', \'id\': \'7203\', \'caption\': \'\'} ,  { \'src\': \'http://dedeporsche.files.wordpress.com/2012/02/t12_0045_fine.jpg\', \'id\': \'7204\', \'caption\': \'\'} ,  { \'src\': \'http://dedeporsche.files.wordpress.com/2012/02/t12_0046_fine.jpg\', \'id\': \'7205\', \'caption\': \'\'} ,  { \'src\': \'http://dedeporsche.files.wordpress.com/2012/02/t12_0047_fine.jpg\', \'id\': \'7206\', \'caption\': \'\'} ,  { \'src\': \'http://dedeporsche.files.wordpress.com/2012/02/t12_0048_fine.jpg\', \'id\': \'7207\', \'caption\': \'\'} ,  { \'src\': \'http://dedeporsche.files.wordpress.com/2012/02/t12_0049_fine.jpg\', \'id\': \'7208\', \'caption\': \'\'} ,  { \'src\': \'http://dedeporsche.files.wordpress.com/2012/02/t12_0050_fine.jpg\', \'id\': \'7209\', \'caption\': \'\'} ,  { \'src\': \'http://dedeporsche.files.wordpress.com/2012/02/t12_0051_fine.jpg\', \'id\': \'7210\', \'caption\': \'\'} ,  { \'src\': \'http://dedeporsche.files.wordpress.com/2012/02/t12_0052_fine.jpg\', \'id\': \'7211\', \'caption\': \'\'} ,  { \'src\': \'http://dedeporsche.files.wordpress.com/2012/02/t12_0053_fine.jpg\', \'id\': \'7212\', \'caption\': \'\'} ,  { \'src\': \'http://dedeporsche.files.wordpress.com/2012/02/t12_0055_fine.jpg\', \'id\': \'7213\', \'caption\': \'\'} ,  { \'src\': \'http://dedeporsche.files.wordpress.com/2012/02/t12_0061_fine.jpg\', \'id\': \'7214\', \'caption\': \'\'} ,  { \'src\': \'http://dedeporsche.files.wordpress.com/2012/02/t12_0062_fine.jpg\', \'id\': \'7215\', \'caption\': \'\'} ,  { \'src\': \'http://dedeporsche.files.wordpress.com/2012/02/t12_0063_fine.jpg\', \'id\': \'7216\', \'caption\': \'\'} ,  { \'src\': \'http://dedeporsche.files.wordpress.com/2012/02/t12_0064_fine.jpg\', \'id\': \'7217\', \'caption\': \'\'} ,  { \'src\': \'http://dedeporsche.files.wordpress.com/2012/02/t12_0065_fine.jpg\', \'id\': \'7218\', \'caption\': \'\'} ] ;\n\t\tslideShow.init();\n\t} );\n                  </script>\n                  <h3>\n                    <strong>Sabine Lisicki</strong>\n                    had to win to keep her team in the race to the semis, Cheered on by the Stuttgart crowd, the German, who played nowhere near her best the day before, took the first set 6-2.\n                  </h3>\n                  <h4 style="text-align:center;">\n                    <a href="http://dedeporsche.files.wordpress.com/2012/02/t12_0048_fine.jpg" shape="rect">\n                      <img height="486" width="645" alt="" src="http://dedeporsche.files.wordpress.com/2012/02/t12_0048_fine.jpg?w=645&amp;h=486" title="T12_0048_fine" class="aligncenter size-full wp-image-7207"></img>\n                    </a>\n                    <strong>Sabine Lisicki, Porsche Team Deutschland</strong>\n                  </h4>\n                  <h3>She continued to play well in the second set against the Wimbledon champion and the current world No. 2 but eventually succumbed 6-4. In the third, the Czech proved to be too strong when running out a 6-2 winner.</h3>\n                  <blockquote>\n                    <h3>\xc3\xa2\xe2\x82\xac\xc5\x93We\xc3\xa2\xe2\x82\xac\xe2\x84\xa2re obviously very disappointed. Nevertheless I\xc3\xa2\xe2\x82\xac\xe2\x84\xa2m very proud to have played much better today than I did yesterday,\xc3\xa2\xe2\x82\xac\xef\xbf\xbd said Sabine Lisicki, the world No. 14.</h3>\n                    <h3>\xc3\xa2\xe2\x82\xac\xc5\x93Yesterday, I immediately lost plot when things weren\xc3\xa2\xe2\x82\xac\xe2\x84\xa2t going well. Today I served far better and my groundshots were also better. Unfortunately though I didn\xc3\xa2\xe2\x82\xac\xe2\x84\xa2t win the vital points and it made all the difference.</h3>\n                    <h3>However these kind of matches are the ones that help me to improve this aspect of my game.\xc3\xa2\xe2\x82\xac\xef\xbf\xbd</h3>\n                  </blockquote>\n                  <h3>With a bit of luck in the draw, the play-off, whereby the winning nation will contest the 2013 World Group, could also be staged in the Porsche Arena on 21 and 22 April.</h3>\n                  <h4 style="text-align:center;">\n                    <a href="http://dedeporsche.files.wordpress.com/2012/02/t12_0047_fine.jpg" shape="rect">\n                      <img height="455" width="645" alt="" src="http://dedeporsche.files.wordpress.com/2012/02/t12_0047_fine.jpg?w=645&amp;h=455" title="T12_0047_fine" class="aligncenter size-full wp-image-7206"></img>\n                    </a>\n                    <strong>Sabine Lisicki, Porsche Team Deutschland</strong>\n                  </h4>\n                  <h3>Sabine Lisicki would be more than happy:</h3>\n                  <blockquote>\n                    <h3>\xc3\xa2\xe2\x82\xac\xc5\x93It\xc3\xa2\xe2\x82\xac\xe2\x84\xa2s great playing at home.</h3>\n                    <h3>The atmosphere in the Porsche Arena is awesome. It\xc3\xa2\xe2\x82\xac\xe2\x84\xa2s such fun and really motivating.\xc3\xa2\xe2\x82\xac\xef\xbf\xbd</h3>\n                  </blockquote>\n                  <h3>\n                    In the second rubber of the day,\n                    <strong>Angelique Kerber</strong>\n                    notched up the first point for Porsche Team Germany.\n                  </h3>\n                  <h4 style="text-align:center;">\n                    <a href="http://dedeporsche.files.wordpress.com/2012/02/t12_0064_fine.jpg" shape="rect">\n                      <img height="436" width="645" alt="" src="http://dedeporsche.files.wordpress.com/2012/02/t12_0064_fine.jpg?w=645&amp;h=436" title="T12_0064_fine" class="aligncenter size-full wp-image-7217"></img>\n                    </a>\n                    <strong></strong>\n                    <strong>Angelique Kerber, Porsche Team Deutschland</strong>\n                  </h4>\n                  <h3>\n                    The German, who was one of last season\xc3\xa2\xe2\x82\xac\xe2\x84\xa2s top up-and-coming players after reaching the semifinals at the US Open, had relatively little trouble in overcoming\n                    <a rel="wikipedia" href="http://en.wikipedia.org/wiki/Lucie_Hradeck%C3%A1" title="Lucie Hradeck\xc3\x83\xc2\xa1" class="zem_slink" shape="rect">Lucie Hradecka</a>\n                    6-4, 6-4.\n                  </h3>\n                  <h4 style="text-align:center;">\n                    <a href="http://dedeporsche.files.wordpress.com/2012/02/t12_0055_fine.jpg" shape="rect">\n                      <img height="720" width="645" alt="" src="http://dedeporsche.files.wordpress.com/2012/02/t12_0055_fine.jpg?w=645&amp;h=720" title="T12_0055_fine" class="aligncenter size-full wp-image-7213"></img>\n                    </a>\n                    <strong>Lucie Hradecka (CZ)</strong>\n                  </h4>\n                  <p>\xc2\xa0</p>\n                  <h4 style="text-align:center;">\n                    <a href="http://dedeporsche.files.wordpress.com/2012/02/t12_0063_fine.jpg" shape="rect">\n                      <img height="753" width="645" alt="" src="http://dedeporsche.files.wordpress.com/2012/02/t12_0063_fine.jpg?w=645&amp;h=753" title="T12_0063_fine" class="aligncenter size-full wp-image-7216"></img>\n                    </a>\n                    <strong>Angelique Kerber, Porsche Team Deutschland</strong>\n                  </h4>\n                  <h4></h4>\n                  <blockquote>\n                    <h3>\xc3\xa2\xe2\x82\xac\xc5\x93I\xc3\xa2\xe2\x82\xac\xe2\x84\xa2m so proud to have won my first Fed Cup singles for Germany,\xc3\xa2\xe2\x82\xac\xef\xbf\xbd she said.</h3>\n                    <h3>\xc3\xa2\xe2\x82\xac\xc5\x93Even though it made no difference to the result, I gave my all \xc3\xa2\xe2\x82\xac\xe2\x80\x9c also for the crowd which has given us such fantastic support over the past two days.\xc3\xa2\xe2\x82\xac\xef\xbf\xbd</h3>\n                  </blockquote>\n                  <h3>\n                    <strong>Iveta Benesova/Barbora Zahlavova-Strycova won the concluding doubles 6-3, 7-6 against Julia G\xc3\x83\xc2\xb6rges/Anna-Lena Gr\xc3\x83\xc2\xb6nefeld.</strong>\n                  </h3>\n                  <h3>\n                    <strong>SOURCE:</strong>\n                    <a href="https://presse.porsche.de" shape="rect">Porsche AG Media Database </a>\n                  </h3>\n                  <h3>\n                    Communication\n                    <span class="zem_slink">Porsche AG</span>\n                    <br clear="none"></br>\n                    Porsche Tennis Grand Prix\n                  </h3>\n                  <h3>\n                    <strong>Related articles</strong>\n                  </h3>\n                  <ul class="zemanta-article-ul">\n                    <li class="zemanta-article-ul-li">\n                      <h3>\n                        <a href="http://dedeporsche.wordpress.com/2012/02/04/porsche-team-germany-fed-cup-1st-round-in-the-porsche-arena-stuttgart/" shape="rect">Porsche Team Germany \xe2\x80\x93 Fed Cup, 1st Round in the Porsche Arena, Stuttgart</a>\n                        (dedeporsche.wordpress.com)\n                      </h3>\n                    </li>\n                    <li class="zemanta-article-ul-li">\n                      <h3>\n                        <a href="http://dedeporsche.wordpress.com/2012/02/01/porsche-team-germany-quietly-hopeful-going-into-the-fed-cup-opener-against-the-czech-republic/" shape="rect">Porsche Team Germany quietly hopeful going into the Fed Cup opener against the Czech Republic</a>\n                        (dedeporsche.wordpress.com)\n                      </h3>\n                    </li>\n                    <li class="zemanta-article-ul-li">\n                      <h3>\n                        <a href="http://dedeporsche.wordpress.com/2012/02/01/fed-cup-tennis-team-to-become-porsche-team-germany/" shape="rect">Fed Cup Tennis Team to become \xe2\x80\x9cPorsche Team Germany\xe2\x80\x9d</a>\n                        (dedeporsche.wordpress.com)\n                      </h3>\n                    </li>\n                    <li class="zemanta-article-ul-li">\n                      <h3>\n                        <a href="http://r.zemanta.com/?u=http%3A//www.cbssports.com/tennis/story/17123961/czechs-take-20-lead-vs-germany-in-fed-cup/rss&amp;a=73873574&amp;rid=000000ff-fbd5-000F-0000-000000001c19&amp;e=47f6f2770854207dce2f08cc0e82b1f9" shape="rect">Czechs take 2-0 lead against Germany in Fed Cup</a>\n                        (cbssports.com)\n                      </h3>\n                    </li>\n                    <li class="zemanta-article-ul-li">\n                      <h3>\n                        <a href="http://sportsillustrated.cnn.com/tennis/news/20120204/fed-cup-roundup-saturday/index.html" shape="rect">Fed Cup Roundup: Sharapova gives Russia lead on Spain</a>\n                        (sportsillustrated.cnn.com)\n                      </h3>\n                    </li>\n                  </ul>\n                  <div style="position: relative; width:300px; text-align: center; padding: 0; background: #; margin: 10px auto; overflow: hidden;" class="wpadvert">\n                    <a rel="nofollow" href="http://en.wordpress.com/about-these-ads/" style="position: absolute; text-align: left; display: block; font: 9px/1 sans-serif; text-decoration: underline;" shape="rect">About these ads</a>\n                    <script type="text/javascript">\n                      GA_googleAddAttr(&quot;AdOpt&quot;, &quot;1&quot;);\nGA_googleAddAttr(&quot;Origin&quot;, &quot;other&quot;);\nGA_googleAddAttr(&quot;theme_bg&quot;, &quot;ffffff&quot;); \nGA_googleAddAttr(&quot;theme_text&quot;, &quot;444444&quot;); \nGA_googleAddAttr(&quot;theme_link&quot;, &quot;cd4517&quot;); \nGA_googleAddAttr(&quot;theme_border&quot;, &quot;2F2019&quot;); \nGA_googleAddAttr(&quot;theme_url&quot;, &quot;AD92C3&quot;); \nGA_googleAddAttr(&quot;LangId&quot;, &quot;1&quot;);\nGA_googleAddAttr(&quot;Domain&quot;, &quot;dedeporsche.wordpress.com&quot;);\nGA_googleAddAttr(&quot;AdSafe&quot;, &quot;1&quot;);\nGA_googleAddAttr(&quot;Autotag&quot;, &quot;tennis&quot;);\nGA_googleAddAttr(&quot;Tag&quot;, &quot;andrea-petkovic&quot;);\nGA_googleAddAttr(&quot;Tag&quot;, &quot;porsche&quot;);\nGA_googleAddAttr(&quot;Tag&quot;, &quot;porsche-arena&quot;);\nGA_googleAddAttr(&quot;Tag&quot;, &quot;porsche-tennis-grand-prix&quot;);\nGA_googleAddAttr(&quot;Tag&quot;, &quot;sabine-lisicki&quot;);\nGA_googleAddAttr(&quot;Tag&quot;, &quot;andrea-petkovic&quot;);\nGA_googleAddAttr(&quot;Tag&quot;, &quot;angelique-kerber&quot;);\nGA_googleAddAttr(&quot;Tag&quot;, &quot;angelique-kerber-2&quot;);\nGA_googleAddAttr(&quot;Tag&quot;, &quot;anna-lena-gronefeld-2&quot;);\nGA_googleAddAttr(&quot;Tag&quot;, &quot;anna-lena-gronefeld&quot;);\nGA_googleAddAttr(&quot;Tag&quot;, &quot;backs-to-the-wall&quot;);\nGA_googleAddAttr(&quot;Tag&quot;, &quot;barbara-rittner&quot;);\nGA_googleAddAttr(&quot;Tag&quot;, &quot;czech-republic&quot;);\nGA_googleAddAttr(&quot;Tag&quot;, &quot;decisive-moments&quot;);\nGA_googleAddAttr(&quot;Tag&quot;, &quot;fighting-spirit&quot;);\nGA_googleAddAttr(&quot;Tag&quot;, &quot;iveta-benesova&quot;);\nGA_googleAddAttr(&quot;Tag&quot;, &quot;julia-gorges&quot;);\nGA_googleAddAttr(&quot;Tag&quot;, &quot;julia-gorges-2&quot;);\nGA_googleAddAttr(&quot;Tag&quot;, &quot;petra-kvitova&quot;);\nGA_googleAddAttr(&quot;Tag&quot;, &quot;porsche&quot;);\nGA_googleAddAttr(&quot;Tag&quot;, &quot;porsche-arena&quot;);\nGA_googleAddAttr(&quot;Tag&quot;, &quot;porsche-tennis&quot;);\nGA_googleAddAttr(&quot;Tag&quot;, &quot;porsche-tennis-grand-prix&quot;);\nGA_googleAddAttr(&quot;Tag&quot;, &quot;porsche-tennis-team-deutschland&quot;);\nGA_googleAddAttr(&quot;Tag&quot;, &quot;porsche-tennis-team-germany&quot;);\nGA_googleAddAttr(&quot;Tag&quot;, &quot;sabine-lisicki&quot;);\nGA_googleAddAttr(&quot;Tag&quot;, &quot;stuttgart-germany&quot;);\nGA_googleAddAttr(&quot;Tag&quot;, &quot;wimbledon-champion&quot;);\n\nGA_googleFillSlot(&quot;wpcom_below_post_adsafe&quot;);\n                    </script>\n                  </div>\n                  <style type="text/css"> div.wpadvert&gt;div { margin-top: 1em; } </style>\n                  <script type="text/javascript"> jQuery( window ).load( function() { if ( jQuery(&quot;.wpadvert script[src*=\'shareth.ru\']&quot;).length &gt; 0 ) { jQuery( \'.wpadvert\' ).css( \'width\', \'400px\' ); } } ); </script>\n                  <div id="jp-post-flair" class="sharedaddy sd-rating-enabled sd-like-enabled sd-sharing-enabled">\n                    <div class="sd-block sd-rating">\n                      <h3 class="sd-title">Rate this:</h3>\n                      <div id="pd_rating_holder_3080883_post_7193" class="pd-rating"></div>\n                    </div>\n                    <div class="sharedaddy sd-sharing-enabled">\n                      <div class="robots-nocontent sd-block sd-social sd-social-icon-text sd-sharing">\n                        <h3 class="sd-title">Share this:</h3>\n                        <div class="sd-content">\n                          <ul>\n                            <li>\n                              <a href="#" class="sharing-anchor sd-button share-more" shape="rect">\n                                <span>Share</span>\n                              </a>\n                            </li>\n                            <li class="share-end"></li>\n                          </ul>\n                          <div class="sharing-hidden">\n                            <div style="display: none;" class="inner">\n                              <ul>\n                                <li class="share-print">\n                                  <a title="Click to print" href="http://dedeporsche.wordpress.com/2012/02/05/porsche-team-germany-thrills-with-classy-tennis-and-fighting-spirit/#print" rel="nofollow" class="share-print sd-button share-icon" shape="rect">\n                                    <span>Print</span>\n                                  </a>\n                                </li>\n                                <li class="share-email">\n                                  <a title="Click to email this to a friend" href="http://dedeporsche.wordpress.com/2012/02/05/porsche-team-germany-thrills-with-classy-tennis-and-fighting-spirit/?share=email" rel="nofollow" class="share-email sd-button share-icon" shape="rect">\n                                    <span>Email</span>\n                                  </a>\n                                </li>\n                                <li class="share-end"></li>\n                                <li class="share-facebook">\n                                  <a title="Share on Facebook" href="http://dedeporsche.wordpress.com/2012/02/05/porsche-team-germany-thrills-with-classy-tennis-and-fighting-spirit/?share=facebook" rel="nofollow" id="sharing-facebook-7193" class="share-facebook sd-button share-icon" shape="rect">\n                                    <span>Facebook</span>\n                                  </a>\n                                </li>\n                                <li class="share-pinterest">\n                                  <a title="Click to share on Pinterest" href="http://dedeporsche.wordpress.com/2012/02/05/porsche-team-germany-thrills-with-classy-tennis-and-fighting-spirit/?share=pinterest" rel="nofollow" class="share-pinterest sd-button share-icon" shape="rect">\n                                    <span>Pinterest</span>\n                                  </a>\n                                </li>\n                                <li class="share-end"></li>\n                                <li class="share-twitter">\n                                  <a title="Click to share on Twitter" href="http://dedeporsche.wordpress.com/2012/02/05/porsche-team-germany-thrills-with-classy-tennis-and-fighting-spirit/?share=twitter" rel="nofollow" id="sharing-twitter-7193" class="share-twitter sd-button share-icon" shape="rect">\n                                    <span>Twitter</span>\n                                  </a>\n                                </li>\n                                <li class="share-digg">\n                                  <a title="Click to Digg this post" href="http://dedeporsche.wordpress.com/2012/02/05/porsche-team-germany-thrills-with-classy-tennis-and-fighting-spirit/?share=digg" rel="nofollow" class="share-digg sd-button share-icon" shape="rect">\n                                    <span>Digg</span>\n                                  </a>\n                                </li>\n                                <li class="share-end"></li>\n                                <li class="share-google-plus-1">\n                                  <div class="googleplus1_button">\n                                    <div data-href="http://dedeporsche.wordpress.com/2012/02/05/porsche-team-germany-thrills-with-classy-tennis-and-fighting-spirit/" data-callback="sharing_plusone" data-size="medium" class="g-plusone"></div>\n                                  </div>\n                                </li>\n                                <li class="share-stumbleupon">\n                                  <a title="Click to share on StumbleUpon" href="http://dedeporsche.wordpress.com/2012/02/05/porsche-team-germany-thrills-with-classy-tennis-and-fighting-spirit/?share=stumbleupon" rel="nofollow" class="share-stumbleupon sd-button share-icon" shape="rect">\n                                    <span>StumbleUpon</span>\n                                  </a>\n                                </li>\n                                <li class="share-end"></li>\n                                <li class="share-reddit">\n                                  <a title="Click to share on Reddit" href="http://dedeporsche.wordpress.com/2012/02/05/porsche-team-germany-thrills-with-classy-tennis-and-fighting-spirit/?share=reddit" rel="nofollow" class="share-reddit sd-button share-icon" shape="rect">\n                                    <span>Reddit</span>\n                                  </a>\n                                </li>\n                                <li class="share-linkedin">\n                                  <a title="Click to share on LinkedIn" href="http://dedeporsche.wordpress.com/2012/02/05/porsche-team-germany-thrills-with-classy-tennis-and-fighting-spirit/?share=linkedin" rel="nofollow" id="sharing-linkedin-7193" class="share-linkedin sd-button share-icon" shape="rect">\n                                    <span>LinkedIn</span>\n                                  </a>\n                                </li>\n                                <li class="share-end"></li>\n                                <li class="share-tumblr">\n                                  <a title="Click to share on Tumblr" href="http://dedeporsche.wordpress.com/2012/02/05/porsche-team-germany-thrills-with-classy-tennis-and-fighting-spirit/?share=tumblr" rel="nofollow" class="share-tumblr sd-button share-icon" shape="rect">\n                                    <span>Tumblr</span>\n                                  </a>\n                                </li>\n                                <li class="share-custom">\n                                  <a title="Click to share" href="http://dedeporsche.wordpress.com/2012/02/05/porsche-team-germany-thrills-with-classy-tennis-and-fighting-spirit/?share=custom-1291819933" rel="nofollow" class="share-custom sd-button share-icon" shape="rect">\n                                    <span style="background-image:url(http://);">Blog</span>\n                                  </a>\n                                </li>\n                                <li class="share-end"></li>\n                                <li class="share-custom">\n                                  <a title="Click to share" href="http://dedeporsche.wordpress.com/2012/02/05/porsche-team-germany-thrills-with-classy-tennis-and-fighting-spirit/?share=custom-1306964843" rel="nofollow" class="share-custom sd-button share-icon" shape="rect">\n                                    <span style="background-image:url(http://t3.gstatic.com/images?q=tbn:ANd9GcQsEaK9xgBl7OrmK6EP-KmjiIfEmk6KgQcA14ujYwb52huYcmTd);">Post to FriendFeed</span>\n                                  </a>\n                                </li>\n                                <li class="share-end"></li>\n                              </ul>\n                            </div>\n                          </div>\n                          <div class="sharing-clear"></div>\n                        </div>\n                      </div>\n                    </div>\n                    <div class="wpl-likebox sd-block sd-like">\n                      <h3 class="sd-title">Like this:</h3>\n                      <div class="sd-content">\n                        <div id="like-7193" class="wpl-button">\n                          <a rel="nofollow" title="I like this." href="http://dedeporsche.wordpress.com/2012/02/05/porsche-team-germany-thrills-with-classy-tennis-and-fighting-spirit/?like=1&amp;_wpnonce=97316b2dc0" class="like needs-login sd-button" shape="rect">\n                            <span>Like</span>\n                          </a>\n                        </div>\n                        <div class="wpl-count sd-like-count">One blogger likes this.</div>\n                        <ul class="wpl-avatars sd-like-gravatars">\n                          <li>\n                            <a rel="nofollow" title="lesleycarter" href="http://gravatar.com/lesleycarter" class="wpl-liker" shape="rect">\n                              <img height="30" width="30" alt="lesleycarter" src="http://1.gravatar.com/avatar/4fa9e9d40d90ed2c8c4cc5c0594da739?s=30&amp;d=identicon&amp;r=G" class="avatar avatar-30"></img>\n                            </a>\n                          </li>\n                        </ul>\n                      </div>\n                    </div>\n                  </div>\n                  <div class="cl">\xc2\xa0</div>\n                </div>\n                <div id="entry-author-info">\n                  <div id="author-avatar">\n                    <img width="60" height="60" src="http://0.gravatar.com/avatar/63e48f3bb57e4621b7b6c0890beef156?s=60&amp;d=identicon&amp;r=G" alt="" class="avatar avatar-60"></img>\n                  </div>\n                  <div id="author-description">\n                    <h2 id="entry-author-info-heading">About dedeporsche</h2>\n                    I am a girl &quot;Car Enthusiast&quot; of all cars, racers, exotic, vintage and rare.\nI am an official Porsche AG Media Database Wordpress blogger.\n                    <div id="author-link">\n                      <a href="http://dedeporsche.wordpress.com/author/dedeporsche/" shape="rect">\n                        View all posts by dedeporsche\n                        <span class="meta-nav">\xc2\xbb</span>\n                      </a>\n                    </div>\n                  </div>\n                </div>\n                <div class="meta">\n                  <div class="bg">\n                    <span class="comments-num">\n                      <a title="Comment on Porsche Team Germany thrills with classy tennis and fighting\xc2\xa0spirit" href="http://dedeporsche.wordpress.com/2012/02/05/porsche-team-germany-thrills-with-classy-tennis-and-fighting-spirit/#respond" shape="rect">Leave a comment</a>\n                    </span>\n                    <p>\n                      Posted by\n                      <a rel="author" title="Posts by dedeporsche" href="http://dedeporsche.wordpress.com/author/dedeporsche/" shape="rect">dedeporsche</a>\n                      on February 5, 2012 in\n                      <a rel="category tag" title="View all posts in Andrea Petkovic" href="http://dedeporsche.wordpress.com/category/andrea-petkovic/" shape="rect">Andrea Petkovic</a>\n                      ,\n                      <a rel="category tag" title="View all posts in Porsche" href="http://dedeporsche.wordpress.com/category/porsche/" shape="rect">Porsche</a>\n                      ,\n                      <a rel="category tag" title="View all posts in Porsche Arena" href="http://dedeporsche.wordpress.com/category/porsche-arena/" shape="rect">Porsche Arena</a>\n                      ,\n                      <a rel="category tag" title="View all posts in Porsche Tennis Grand Prix" href="http://dedeporsche.wordpress.com/category/porsche-tennis-grand-prix/" shape="rect">Porsche Tennis Grand Prix</a>\n                      ,\n                      <a rel="category tag" title="View all posts in Sabine Lisicki" href="http://dedeporsche.wordpress.com/category/sabine-lisicki/" shape="rect">Sabine Lisicki</a>\n                    </p>\n                  </div>\n                  <div class="bot">\xc2\xa0</div>\n                </div>\n                <p class="tags">\n                  Tags:\n                  <a rel="tag" href="http://dedeporsche.wordpress.com/tag/andrea-petkovic/" shape="rect">Andrea Petkovic</a>\n                  ,\n                  <a rel="tag" href="http://dedeporsche.wordpress.com/tag/angelique-kerber/" shape="rect">angelique kerber</a>\n                  ,\n                  <a rel="tag" href="http://dedeporsche.wordpress.com/tag/angelique-kerber-2/" shape="rect">Angelique Kerber</a>\n                  ,\n                  <a rel="tag" href="http://dedeporsche.wordpress.com/tag/anna-lena-gronefeld-2/" shape="rect">Anna-Lena Gr\xc3\x83\xc2\xb6nefeld</a>\n                  ,\n                  <a rel="tag" href="http://dedeporsche.wordpress.com/tag/anna-lena-gronefeld/" shape="rect">Anna-Lena Gronefeld</a>\n                  ,\n                  <a rel="tag" href="http://dedeporsche.wordpress.com/tag/backs-to-the-wall/" shape="rect">backs to the wall</a>\n                  ,\n                  <a rel="tag" href="http://dedeporsche.wordpress.com/tag/barbara-rittner/" shape="rect">barbara rittner</a>\n                  ,\n                  <a rel="tag" href="http://dedeporsche.wordpress.com/tag/czech-republic/" shape="rect">Czech Republic</a>\n                  ,\n                  <a rel="tag" href="http://dedeporsche.wordpress.com/tag/decisive-moments/" shape="rect">decisive moments</a>\n                  ,\n                  <a rel="tag" href="http://dedeporsche.wordpress.com/tag/fighting-spirit/" shape="rect">fighting spirit</a>\n                  ,\n                  <a rel="tag" href="http://dedeporsche.wordpress.com/tag/iveta-benesova/" shape="rect">iveta benesova</a>\n                  ,\n                  <a rel="tag" href="http://dedeporsche.wordpress.com/tag/julia-gorges/" shape="rect">Julia G\xc3\x83\xc2\xb6rges</a>\n                  ,\n                  <a rel="tag" href="http://dedeporsche.wordpress.com/tag/julia-gorges-2/" shape="rect">Julia Gorges</a>\n                  ,\n                  <a rel="tag" href="http://dedeporsche.wordpress.com/tag/petra-kvitova/" shape="rect">Petra Kvitov\xc3\x83\xc2\xa1</a>\n                  ,\n                  <a rel="tag" href="http://dedeporsche.wordpress.com/tag/porsche/" shape="rect">Porsche</a>\n                  ,\n                  <a rel="tag" href="http://dedeporsche.wordpress.com/tag/porsche-arena/" shape="rect">Porsche Arena</a>\n                  ,\n                  <a rel="tag" href="http://dedeporsche.wordpress.com/tag/porsche-tennis/" shape="rect">Porsche Tennis</a>\n                  ,\n                  <a rel="tag" href="http://dedeporsche.wordpress.com/tag/porsche-tennis-grand-prix/" shape="rect">Porsche Tennis Grand Prix</a>\n                  ,\n                  <a rel="tag" href="http://dedeporsche.wordpress.com/tag/porsche-tennis-team-deutschland/" shape="rect">Porsche Tennis Team Deutschland</a>\n                  ,\n                  <a rel="tag" href="http://dedeporsche.wordpress.com/tag/porsche-tennis-team-germany/" shape="rect">Porsche Tennis Team Germany</a>\n                  ,\n                  <a rel="tag" href="http://dedeporsche.wordpress.com/tag/sabine-lisicki/" shape="rect">Sabine Lisicki</a>\n                  ,\n                  <a rel="tag" href="http://dedeporsche.wordpress.com/tag/stuttgart-germany/" shape="rect">stuttgart germany</a>\n                  ,\n                  <a rel="tag" href="http://dedeporsche.wordpress.com/tag/wimbledon-champion/" shape="rect">wimbledon champion</a>\n                </p>\n</div>\n              <div class="post-navigation clear-fix">\n                <div class="nav-previous">\n                  <a rel="prev" href="http://dedeporsche.wordpress.com/2012/02/04/porsche-team-germany-fed-cup-1st-round-in-the-porsche-arena-stuttgart/" shape="rect">\n                    <span class="meta-nav">\xe2\x86\x90</span>\n                    Porsche Team Germany \xe2\x80\x93 Fed Cup, 1st Round in the Porsche Arena,\xc2\xa0Stuttgart\n                  </a>\n                </div>\n                <div class="nav-next">\n                  <a rel="next" href="http://dedeporsche.wordpress.com/2012/02/05/sneak-preview-jeff-zwarts-pikes-peak-new-ride-2012-porsche-911-gt3-rs-4-0/" shape="rect">\n                    SNEAK PREVIEW: Jeff Zwart\xe2\x80\x99s New Ride 2012 \xe2\x80\x93 Porsche 911 GT3 RS\xc2\xa04.0\n                    <span class="meta-nav">\xe2\x86\x92</span>\n                  </a>\n                </div>\n              </div>\n              <div id="comments">\n                <div id="respond">\n                  <h3 id="reply-title">\n                    Leave a Reply\n                    <small>\n                      <a style="display:none;" href="/2012/02/05/porsche-team-germany-thrills-with-classy-tennis-and-fighting-spirit/#respond" rel="nofollow" id="cancel-comment-reply-link" shape="rect">Cancel reply</a>\n                    </small>\n                  </h3>\n                  <form action="http://dedeporsche.wordpress.com/wp-comments-post.php" id="commentform" method="post" enctype="application/x-www-form-urlencoded">\n                    <input value="guest" name="hc_post_as" id="hc_post_as" type="hidden"></input>\n                    <div class="comment-form-field comment-textarea">\n                      <label for="comment">Enter your comment here...</label>\n                      <div id="comment-form-comment">\n                        <textarea name="comment" id="comment"></textarea>\n                      </div>\n                    </div>\n                    <div id="comment-form-identity">\n                      <div id="comment-form-nascar">\n                        <p>Fill in your details below or click an icon to log in:</p>\n                        <ul>\n                          <li style="display:none;" class="selected">\n                            <a title="Guest" href="#comment-form-guest" id="postas-guest" shape="rect">\n                              <span></span>\n                            </a>\n                          </li>\n                          <li>\n                            <a title="WordPress.com" href="#comment-form-load-service:WordPress.com" id="postas-wordpress" shape="rect">\n                              <span></span>\n                            </a>\n                          </li>\n                          <li>\n                            <a title="Twitter" href="#comment-form-load-service:Twitter" id="postas-twitter" shape="rect">\n                              <span></span>\n                            </a>\n                          </li>\n                          <li>\n                            <a title="Facebook" href="#comment-form-load-service:Facebook" id="postas-facebook" shape="rect">\n                              <span></span>\n                            </a>\n                          </li>\n                        </ul>\n                      </div>\n                      <div id="comment-form-guest" class="comment-form-service selected">\n                        <div class="comment-form-padder">\n                          <div class="comment-form-avatar">\n                            <a target="_blank" href="https://gravatar.com/site/signup/" shape="rect">\n                              <img width="25" alt="Gravatar" src="http://1.gravatar.com/avatar/ad516503a11cd5ca435acc9bb6523536?s=25&amp;d=identicon&amp;forcedefault=y&amp;r=G" class="no-grav"></img>\n                            </a>\n                          </div>\n                          <div class="comment-form-fields">\n                            <div class="comment-form-field comment-form-email">\n                              <label for="email">\n                                Email\n                                <span class="required">(required)</span>\n                                <span class="nopublish">(Address never made public)</span>\n                              </label>\n                              <div class="comment-form-input">\n                                <input value="" name="email" id="email" type="email"></input>\n                              </div>\n                            </div>\n                            <div class="comment-form-field comment-form-author">\n                              <label for="author">\n                                Name\n                                <span class="required">(required)</span>\n                              </label>\n                              <div class="comment-form-input">\n                                <input value="" name="author" id="author" type="text"></input>\n                              </div>\n                            </div>\n                            <div class="comment-form-field comment-form-url">\n                              <label for="url">Website</label>\n                              <div class="comment-form-input">\n                                <input value="" name="url" id="url" type="text"></input>\n                              </div>\n                            </div>\n                          </div>\n                        </div>\n                      </div>\n                      <div id="comment-form-wordpress" class="comment-form-service">\n                        <div class="comment-form-padder">\n                          <div class="comment-form-avatar">\n                            <img width="25" alt="WordPress.com Logo" src="http://s2.wp.com/wp-content/mu-plugins/highlander-comments/images/wplogo.png?m=1289230950g" class="no-grav"></img>\n                          </div>\n                          <div class="comment-form-fields">\n                            <input value="" name="wp_avatar" id="wordpress-avatar" class="comment-meta-wordpress" type="hidden"></input>\n                            <input value="" name="wp_user_id" id="wordpress-user_id" class="comment-meta-wordpress" type="hidden"></input>\n                            <input value="" name="wp_access_token" id="wordpress-access_token" class="comment-meta-wordpress" type="hidden"></input>\n                            <p class="comment-form-posting-as pa-wordpress">\n                              <strong></strong>\n                              You are commenting using your WordPress.com account.\n                              <span class="comment-form-log-out">\n                                (\xc2\xa0\n                                <a href="javascript:HighlanderComments.doExternalLogout( \'wordpress\' );" shape="rect">Log\xc2\xa0Out</a>\n                                \xc2\xa0/\xc2\xa0\n                                <a onclick="javascript:HighlanderComments.switchAccount();return false;" href="#" shape="rect">Change</a>\n                                \xc2\xa0)\n                              </span>\n                            </p>\n                          </div>\n                        </div>\n                      </div>\n                      <div id="comment-form-twitter" class="comment-form-service">\n                        <div class="comment-form-padder">\n                          <div class="comment-form-avatar">\n                            <img width="25" alt="Twitter picture" src="http://1.gravatar.com/avatar/ad516503a11cd5ca435acc9bb6523536?s=25&amp;d=identicon&amp;forcedefault=y&amp;r=G" class="no-grav"></img>\n                          </div>\n                          <div class="comment-form-fields">\n                            <input value="" name="twitter_avatar" id="twitter-avatar" class="comment-meta-twitter" type="hidden"></input>\n                            <input value="" name="twitter_user_id" id="twitter-user_id" class="comment-meta-twitter" type="hidden"></input>\n                            <input value="" name="twitter_access_token" id="twitter-access_token" class="comment-meta-twitter" type="hidden"></input>\n                            <p class="comment-form-posting-as pa-twitter">\n                              <strong></strong>\n                              You are commenting using your Twitter account.\n                              <span class="comment-form-log-out">\n                                (\xc2\xa0\n                                <a href="javascript:HighlanderComments.doExternalLogout( \'twitter\' );" shape="rect">Log\xc2\xa0Out</a>\n                                \xc2\xa0/\xc2\xa0\n                                <a onclick="javascript:HighlanderComments.switchAccount();return false;" href="#" shape="rect">Change</a>\n                                \xc2\xa0)\n                              </span>\n                            </p>\n                          </div>\n                        </div>\n                      </div>\n                      <div id="comment-form-facebook" class="comment-form-service">\n                        <div class="comment-form-padder">\n                          <div class="comment-form-avatar">\n                            <img width="25" alt="Facebook photo" src="http://1.gravatar.com/avatar/ad516503a11cd5ca435acc9bb6523536?s=25&amp;d=identicon&amp;forcedefault=y&amp;r=G" class="no-grav"></img>\n                          </div>\n                          <div class="comment-form-fields">\n                            <input value="" name="fb_avatar" id="facebook-avatar" class="comment-meta-facebook" type="hidden"></input>\n                            <input value="" name="fb_user_id" id="facebook-user_id" class="comment-meta-facebook" type="hidden"></input>\n                            <input value="" name="fb_access_token" id="facebook-access_token" class="comment-meta-facebook" type="hidden"></input>\n                            <p class="comment-form-posting-as pa-facebook">\n                              <strong></strong>\n                              You are commenting using your Facebook account.\n                              <span class="comment-form-log-out">\n                                (\xc2\xa0\n                                <a href="javascript:HighlanderComments.doExternalLogout( \'facebook\' );" shape="rect">Log\xc2\xa0Out</a>\n                                \xc2\xa0/\xc2\xa0\n                                <a onclick="javascript:HighlanderComments.switchAccount();return false;" href="#" shape="rect">Change</a>\n                                \xc2\xa0)\n                              </span>\n                            </p>\n                          </div>\n                        </div>\n                      </div>\n                      <div id="comment-form-load-service" class="comment-form-service">\n                        <div class="comment-form-posting-as-cancel">\n                          <a href="javascript:HighlanderComments.cancelExternalWindow();" shape="rect">Cancel</a>\n                        </div>\n                        <p>Connecting to %s</p>\n                      </div>\n                    </div>\n                    <script type="text/javascript">\n                      jQuery(document).ready(function(){\n\tvar input = document.createElement( \'input\' ),\n\t    comment = jQuery( \'#comment\' );\n\n\tif ( \'placeholder\' in input ) {\n\t\tcomment.attr( \'placeholder\', jQuery( \'.comment-textarea label\' ).remove().text() );\n\t}\n\n\t// Expando Mode: start small, then auto-resize on first click + text length\n\tjQuery( \'#comment-form-identity\' ).hide();\n\tjQuery( \'#comment-form-subscribe\' ).hide();\n\tjQuery( \'#commentform .form-submit\' ).hide();\n\n\tcomment.css( { \'height\':\'10px\' } ).one( \'focus\', function() {\n\t\tvar timer = setInterval( HighlanderComments.resizeCallback, 10 )\n\t\tjQuery( this ).animate( { \'height\': HighlanderComments.initialHeight } ).delay( 100 ).queue( function(n) { clearInterval( timer ); HighlanderComments.resizeCallback(); n(); } );\n\t\tjQuery( \'#comment-form-identity\' ).slideDown();\n\t\tjQuery( \'#comment-form-subscribe\' ).slideDown();\n\t\tjQuery( \'#commentform .form-submit\' ).slideDown();\n\t});\n});\n                    </script>\n                    <div id="comment-form-subscribe">\n                      <p class="comment-subscription-form">\n                        <input style="width: auto;" value="subscribe" name="subscribe" id="subscribe" type="checkbox" tabindex="6"></input>\n                        <label id="subscribe-label" class="subscribe-label" for="subscribe">Notify me of follow-up comments via email.</label>\n                      </p>\n                    </div>\n                    <p class="form-submit">\n                      <input value="Post Comment" name="submit" id="comment-submit" type="submit"></input>\n                      <input value="7193" name="comment_post_ID" id="comment_post_ID" type="hidden"></input>\n                      <input value="0" name="comment_parent" id="comment_parent" type="hidden"></input>\n                    </p>\n                    <input value="1349321267" name="genseq" type="hidden"></input>\n                    <p style="display: none;">\n                      <input value="768dcedeb2" name="akismet_comment_nonce" id="akismet_comment_nonce" type="hidden"></input>\n                    </p>\n                    <script src="http://s2.wp.com/wp-content/mu-plugins/akismet-2.5/form.js?m=1308783962g" type="text/javascript"></script>\n                    <p style="display: none;">\n                      <input value="219" name="ak_js" id="ak_js" type="hidden"></input>\n                    </p>\n                  </form>\n                </div>\n                <div style="clear: both"></div>\n              </div>\n            </div>\n            <div id="sidebar">\n              <ul class="xoxo">\n                <li id="facebook-likebox-3" class="widget widget_facebook_likebox">\n                  <h4 class="widgettitle">\n                    <a href="https://www.facebook.com/DedeSeward" shape="rect">Facebook Page</a>\n                  </h4>\n                  <iframe \n                  style="border: none; overflow: hidden; width: 200px;  height: 580px; background: #fff" src="http://www.facebook.com/plugins/likebox.php?href=https%3A%2F%2Fwww.facebook.com%2FDedeSeward&amp;width=200&amp;height=580&amp;colorscheme=light&amp;show_faces=true&amp;stream=true&amp;header=false&amp;force_wall=false" scrolling="no" frameborder="0">\n</iframe>\n                </li>\n                <li id="categories-3" class="widget widget_categories">\n                  <h4 class="widgettitle">Categories</h4>\n                  <select name="cat" id="cat" class="postform">\n                    <option value="-1">Select Category</option>\n                    <option value="20141972" class="level-0">\xe2\x80\x9cRisky Business\xe2\x80\x9d Tom Cruise</option>\n                    <option value="54001579" class="level-0">\xe2\x80\x9cThe Lost Spyder\xe2\x80\x9d \xc3\xa2\xe2\x82\xac\xe2\x80\x9c a Mystery Novel by Sean Michael</option>\n                    <option value="55617427" class="level-0">1900 Lohner-Porsche Semper Vivus</option>\n                    <option value="71530308" class="level-0">1997 Porsche 911 GT1 Stra\xc3\x83\xc5\xb8enversion</option>\n                    <option value="63154864" class="level-0">2011 IAA Frankfurt Motor Show</option>\n                    <option value="56096215" class="level-0">2011 Porsche 911 GT3 RS 4.0.</option>\n                    <option value="55614183" class="level-0">2012 Panamera S Hybrid</option>\n                    <option value="55617420" class="level-0">2012 Panamera Turbo S</option>\n                    <option value="55873099" class="level-0">2012 Porsche Turbo Raffle</option>\n                    <option value="3867819" class="level-0">24 Hours of Le Mans</option>\n                    <option value="56100390" class="level-0">80 years of Porsche Designs</option>\n                    <option value="6329636" class="level-0">911 Carrera</option>\n                    <option value="56923954" class="level-0">911 Carrera 4 GTS</option>\n                    <option value="56053753" class="level-0">911 GT3 RS 4.0</option>\n                    <option value="51100387" class="level-0">918 RSR Concept</option>\n                    <option value="81273316" class="level-0">996 Porsche 911 Turbo</option>\n                    <option value="291971" class="level-0">Abu Dhabi</option>\n                    <option value="56789311" class="level-0">Action Drift</option>\n                    <option value="32700" class="level-0">AIESEC</option>\n                    <option value="60264509" class="level-0">AIESEC international student organisation</option>\n                    <option value="5922955" class="level-0">Alessandro Gedda</option>\n                    <option value="32439437" class="level-0">ALEX JOB RACING</option>\n                    <option value="389556" class="level-0">ALMS</option>\n                    <option value="408540" class="level-0">American Le Mans Series</option>\n                    <option value="23309258" class="level-0">Andrea Petkovic</option>\n                    <option value="76593951" class="level-0">Andrew Davis (USA)</option>\n                    <option value="76593975" class="level-0">Andy Lally (USA)</option>\n                    <option value="56789309" class="level-0">Anton Werner</option>\n                    <option value="53910909" class="level-0">Atelier-Bernd-Lehmann</option>\n                    <option value="14857" class="level-0">Audi</option>\n                    <option value="59730593" class="level-0">Autodromo Enzo e Dino Ferrari circuit</option>\n                    <option value="56340457" class="level-0">Automobilsommer 2011</option>\n                    <option value="7561487" class="level-0">Automotive Art</option>\n                    <option value="4657442" class="level-0">Automotive Photography</option>\n                    <option value="254214" class="level-0">Autos &amp; Vehicles</option>\n                    <option value="2423744" class="level-0">Bahrain International Circuit</option>\n                    <option value="41575236" class="level-0">Bernd Lehmann</option>\n                    <option value="588854" class="level-0">Boxster</option>\n                    <option value="52853270" class="level-0">Break it Down \xe2\x80\x93 Porsche in Pieces</option>\n                    <option value="8142927" class="level-0">Brian Redman</option>\n                    <option value="18675719" class="level-0">Bryan Sellers</option>\n                    <option value="51264403" class="level-0">Bryce Miller</option>\n                    <option value="60036900" class="level-0">Bryce Miller (USA)</option>\n                    <option value="12553809" class="level-0">Bugster</option>\n                    <option value="1337" class="level-0">California</option>\n                    <option value="70590027" class="level-0">Camp4S Finland</option>\n                    <option value="60951904" class="level-0">Carrera Motors hot-air balloon</option>\n                    <option value="60951999" class="level-0">Carrera Motors Porsche Centre</option>\n                    <option value="2171135" class="level-0">Carrera Panamericana</option>\n                    <option value="56580938" class="level-0">Cayman S Black Edition</option>\n                    <option value="61787467" class="level-0">Chairman of the Group Works Council of Porsche AG.</option>\n                    <option value="56679142" class="level-0">Christian Engelhart</option>\n                    <option value="67086419" class="level-0">Clemens Schmid (A)</option>\n                    <option value="19653005" class="level-0">Craig Baird</option>\n                    <option value="62159802" class="level-0">Darren Law (USA)</option>\n                    <option value="54163096" class="level-0">Denise McCluggage</option>\n                    <option value="1576349" class="level-0">Derek Bell</option>\n                    <option value="57096577" class="level-0">Detlev von Platen President and CEO of Porsche Cars North America</option>\n                    <option value="58383632" class="level-0">Dr. Ing hc F. Porsche AG</option>\n                    <option value="30088153" class="level-0">Dr. Ing. h.c. F. Porsche AG</option>\n                    <option value="51665880" class="level-0">Ex-Steve McQueen Lemans 1970 Porsche 911S Coupe</option>\n                    <option value="81819" class="level-0">Facebook</option>\n                    <option value="47366030" class="level-0">Ferdinand Alexander Porsche</option>\n                    <option value="70582832" class="level-0">First Porsche 356 Toy</option>\n                    <option value="56248941" class="level-0">Floating Porsche</option>\n                    <option value="18675711" class="level-0">FLYING LIZARD MOTORSPORTS</option>\n                    <option value="757220" class="level-0">Geneva Motor Show</option>\n                    <option value="39597215" class="level-0">Geoff Brabham</option>\n                    <option value="3550" class="level-0">Germany</option>\n                    <option value="79391868" class="level-0">Global Motorsports Group (GMG)</option>\n                    <option value="2143067" class="level-0">green hell</option>\n                    <option value="59099096" class="level-0">GT3 Cup Challenge New Zealand</option>\n                    <option value="81359988" class="level-0">Gullwing America P/904 Carrera</option>\n                    <option value="54369509" class="level-0">Half Boxster: Bugster</option>\n                    <option value="54369493" class="level-0">Half VW Bug</option>\n                    <option value="4975982" class="level-0">Hans Herrmann</option>\n                    <option value="59918950" class="level-0">Hartmut Kristen Head of Porsche Motorsport</option>\n                    <option value="56067346" class="level-0">Head of Porsche Motorsport</option>\n                    <option value="61055269" class="level-0">Hella KGaA Hueck &amp; Co.</option>\n                    <option value="56294454" class="level-0">Herberth Motorsport</option>\n                    <option value="24092440" class="level-0">IAA Frankfurt Motor Show</option>\n                    <option value="36476464" class="level-0">Intercontinental Le Mans Cup</option>\n                    <option value="49932837" class="level-0">International Big Wave Surfer</option>\n                    <option value="8211848" class="level-0">iRacing</option>\n                    <option value="59349474" class="level-0">Jaap van Lagen (NL)</option>\n                    <option value="285831" class="level-0">James Dean</option>\n                    <option value="59228996" class="level-0">Jan Seyffarth (D)</option>\n                    <option value="54463536" class="level-0">Janis Joplin\xe2\x80\x99s psychedelic painted 1965 Porsche 356c Cabriolet</option>\n                    <option value="186301" class="level-0">JAWS</option>\n                    <option value="58383792" class="level-0">J\xc3\x83\xc5\x92rgen Gassebner</option>\n                    <option value="114300" class="level-0">Jenson Button</option>\n                    <option value="59228991" class="level-0">Jeroen Bleekemolen (NL)</option>\n                    <option value="406411" class="level-0">Jerry Seinfeld</option>\n                    <option value="18675716" class="level-0">Joerg Bergmeister</option>\n                    <option value="69123186" class="level-0">Juergen Gessler</option>\n                    <option value="59604426" class="level-0">Kuba Giermaziak (PL)</option>\n                    <option value="774052" class="level-0">Le Mans</option>\n                    <option value="2618814" class="level-0">Le Mans 24 Hours</option>\n                    <option value="56635623" class="level-0">Le Mans Series / Intercontinental Le Mans Cup</option>\n                    <option value="52853200" class="level-0">Los Angeles Dismantler for Porsche</option>\n                    <option value="21662802" class="level-0">Lucas Luhr</option>\n                    <option value="49846931" class="level-0">Magnus Racing</option>\n                    <option value="79461963" class="level-0">MAGNUS WALKER</option>\n                    <option value="57935915" class="level-0">Manthey Porsche</option>\n                    <option value="20003524" class="level-0">Marc Lieb</option>\n                    <option value="20439126" class="level-0">Marco Holzer</option>\n                    <option value="976" class="level-0">Maria Sharapova</option>\n                    <option value="10192236" class="level-0">Mark Visser</option>\n                    <option value="49932863" class="level-0">Mark Visser Rides JAWS at Night</option>\n                    <option value="59228993" class="level-0">Martin Ragginger (A)</option>\n                    <option value="18022938" class="level-0">Matthias M\xc3\x83\xc5\x92ller</option>\n                    <option value="58393829" class="level-0">Matthias M\xc3\x83\xc5\x92ller CEO of Dr. Ing hc F. Porsche AG</option>\n                    <option value="59918866" class="level-0">Matthias M\xc3\x83\xc5\x92ller President of the Executive Board at Porsche AG</option>\n                    <option value="9133291" class="level-0">Mazda Raceway Laguna Seca</option>\n                    <option value="12577238" class="level-0">Mike Rockenfeller</option>\n                    <option value="76013768" class="level-0">Mobil 1 Twelve Hours of Sebring</option>\n                    <option value="39319101" class="level-0">Mosport International Raceway</option>\n                    <option value="48011335" class="level-0">Motorsport in Germany</option>\n                    <option value="185497" class="level-0">Motorsport News</option>\n                    <option value="56548188" class="level-0">Motorsport Newsletter</option>\n                    <option value="58133790" class="level-0">Nard\xc3\x83\xc2\xb2 Ring</option>\n                    <option value="52853232" class="level-0">National Geographic NATGEO Channel</option>\n                    <option value="56067342" class="level-0">N\xc3\x83\xc5\x92rburgring Long Distance Championship</option>\n                    <option value="5076555" class="level-0">New York International Auto Show</option>\n                    <option value="59226414" class="level-0">Nick Tandy (GB)</option>\n                    <option value="59226391" class="level-0">Nicki Thiim (DK)</option>\n                    <option value="59226423" class="level-0">Nicolas Armindo (F)</option>\n                    <option value="59604427" class="level-0">Norbert Siedler (A)</option>\n                    <option value="1224988" class="level-0">Nordschleife</option>\n                    <option value="60408983" class="level-0">Northeast Grand Prix in Lime Rock</option>\n                    <option value="152073" class="level-0">Nurburgring</option>\n                    <option value="48055345" class="level-0">Olaf Dobberkau</option>\n                    <option value="61350566" class="level-0">Patrick Huisman (NL)</option>\n                    <option value="50418390" class="level-0">Paul Miller Racing</option>\n                    <option value="5277254" class="level-0">PCNA</option>\n                    <option value="67086427" class="level-0">Philipp Eng (A)</option>\n                    <option value="18435246" class="level-0">Pikes Peak International Hill Climb</option>\n                    <option value="1499" class="level-0">Porsche</option>\n                    <option value="116003197" class="level-0">Porsche 356</option>\n                    <option value="68087540" class="level-0">Porsche 356 1500 Super 1953</option>\n                    <option value="5349496" class="level-0">Porsche 550 Spyder</option>\n                    <option value="27000512" class="level-0">Porsche 904 Carrera GTS</option>\n                    <option value="994504" class="level-0">Porsche 911</option>\n                    <option value="15097455" class="level-0">Porsche 911 GT1</option>\n                    <option value="35512844" class="level-0">Porsche 911 GT2 RS</option>\n                    <option value="18992339" class="level-0">Porsche 911 GT3 Cup</option>\n                    <option value="31548509" class="level-0">Porsche 911 GT3 R Hybrid</option>\n                    <option value="56067341" class="level-0">Porsche 911 GT3 R Hybrid 2.0</option>\n                    <option value="55996820" class="level-0">Porsche 911 GT3 RS 4.0</option>\n                    <option value="7310498" class="level-0">Porsche 917</option>\n                    <option value="74177468" class="level-0">PORSCHE 917-021 THE FABULOUS STORY</option>\n                    <option value="32277516" class="level-0">Porsche 918</option>\n                    <option value="32263839" class="level-0">Porsche 918 Spyder Concept</option>\n                    <option value="46812547" class="level-0">Porsche 924S</option>\n                    <option value="6406911" class="level-0">Porsche 928</option>\n                    <option value="60965671" class="level-0">Porsche 929</option>\n                    <option value="67552207" class="level-0">Porsche 934 and 935</option>\n                    <option value="61055519" class="level-0">Porsche AG Board of Management</option>\n                    <option value="59099099" class="level-0">Porsche AG VIP-911</option>\n                    <option value="55621694" class="level-0">Porsche AG\xc3\xa2\xe2\x82\xac\xe2\x84\xa2s Research and Development Center in Weissach</option>\n                    <option value="13969860" class="level-0">Porsche Arena</option>\n                    <option value="64841938" class="level-0">Porsche Art</option>\n                    <option value="78714487" class="level-0">Porsche Artist</option>\n                    <option value="62737938" class="level-0">Porsche at the 2011 Monterey Classic Car Weekend</option>\n                    <option value="30134174" class="level-0">Porsche Camps</option>\n                    <option value="58241533" class="level-0">Porsche Carrera Cup Australia</option>\n                    <option value="19443726" class="level-0">Porsche Carrera Cup Deutschland</option>\n                    <option value="54580784" class="level-0">Porsche Carrera World Cup</option>\n                    <option value="32963585" class="level-0">Porsche Cars North America</option>\n                    <option value="796028" class="level-0">Porsche Cayenne</option>\n                    <option value="3187652" class="level-0">Porsche Cayman S</option>\n                    <option value="15721711" class="level-0">Porsche Classic</option>\n                    <option value="20475680" class="level-0">Porsche Consulting</option>\n                    <option value="111507211" class="level-0">PORSCHE CREST</option>\n                    <option value="2613042" class="level-0">Porsche Design</option>\n                    <option value="7128313" class="level-0">Porsche Design Group</option>\n                    <option value="73838078" class="level-0">Porsche Design Mega Yacht RFF135</option>\n                    <option value="53304596" class="level-0">Porsche Design San Francisco</option>\n                    <option value="53304595" class="level-0">Porsche Design Store \xe2\x80\x93 San Francisco</option>\n                    <option value="6141440" class="level-0">Porsche Design Studio</option>\n                    <option value="54308249" class="level-0">Porsche Everyday</option>\n                    <option value="81898720" class="level-0">Porsche Excellence Magazine</option>\n                    <option value="69050596" class="level-0">Porsche Experience Center</option>\n                    <option value="57936065" class="level-0">Porsche head of motorsport Hartmut Kristen</option>\n                    <option value="16191942" class="level-0">Porsche Human Performance Centre</option>\n                    <option value="52853251" class="level-0">Porsche in Pieces</option>\n                    <option value="79857734" class="level-0">PORSCHE IN WET CEMENT</option>\n                    <option value="19201277" class="level-0">Porsche Mobil 1 Supercup</option>\n                    <option value="8997269" class="level-0">Porsche Mobil1 Supercup</option>\n                    <option value="6293482" class="level-0">Porsche Motorsport</option>\n                    <option value="19201098" class="level-0">Porsche Motorsport around the world</option>\n                    <option value="62281991" class="level-0">PORSCHE MOVIES</option>\n                    <option value="106766118" class="level-0">Porsche Museum</option>\n                    <option value="680780" class="level-0">Porsche Panamera</option>\n                    <option value="63320988" class="level-0">Porsche Park to be Center of Rennsport IV</option>\n                    <option value="52718337" class="level-0">Porsche Race Car Classic</option>\n                    <option value="55064417" class="level-0">Porsche Race Car Classic at Quail Lodge in Carmel</option>\n                    <option value="52718336" class="level-0">Porsche Rennsport Reunion IV</option>\n                    <option value="55628927" class="level-0">Porsche Reveals New Panamera Models</option>\n                    <option value="12896148" class="level-0">Porsche RS Spyder</option>\n                    <option value="5923545" class="level-0">Porsche Supercup</option>\n                    <option value="61055286" class="level-0">Porsche Supplier Awards</option>\n                    <option value="79385207" class="level-0">Porsche SUV Macan</option>\n                    <option value="13415047" class="level-0">Porsche Tennis Grand Prix</option>\n                    <option value="61055382" class="level-0">Porsche works in Leipzig</option>\n                    <option value="40179499" class="level-0">Porsche Zentrum</option>\n                    <option value="60906380" class="level-0">Porsche Zuffenhausen plant</option>\n                    <option value="67552193" class="level-0">Porsche-Gulf team</option>\n                    <option value="54308300" class="level-0">PorscheEveryday.com</option>\n                    <option value="56119527" class="level-0">Porscheplatz</option>\n                    <option value="47680284" class="level-0">PorschePurist.com</option>\n                    <option value="62739743" class="level-0">power train development at Porsche</option>\n                    <option value="58169353" class="level-0">President of Porsche Motorsport North America Jens Walther</option>\n                    <option value="4746397" class="level-0">Pure Sound</option>\n                    <option value="48916029" class="level-0">RaceFansTV.com</option>\n                    <option value="5846373" class="level-0">Raindance Film Festival</option>\n                    <option value="333725" class="level-0">Rallye</option>\n                    <option value="56495102" class="level-0">Rare 964 Porsche 911</option>\n                    <option value="59226404" class="level-0">Ren\xc3\x83\xc2\xa9 Rast (D)</option>\n                    <option value="987953" class="level-0">Rennsport</option>\n                    <option value="61787424" class="level-0">Research and Development Centre in Weissach (Baden-W\xc3\x83\xc5\x92rttemberg)</option>\n                    <option value="20003525" class="level-0">Richard Lietz</option>\n                    <option value="62546741" class="level-0">Road America circuit in Elkhart Lake</option>\n                    <option value="61350560" class="level-0">Robert Lukas (Poland)</option>\n                    <option value="59226408" class="level-0">Robert Renauer (D)</option>\n                    <option value="19490438" class="level-0">Romain Dumas</option>\n                    <option value="5689430" class="level-0">Sabine Lisicki</option>\n                    <option value="21212954" class="level-0">Sascha Maassen</option>\n                    <option value="47987176" class="level-0">Save The N\xc3\x83\xc5\x92rburgring</option>\n                    <option value="59228989" class="level-0">Sean Edwards (GB)</option>\n                    <option value="28954328" class="level-0">Sebring 12 Hour</option>\n                    <option value="18221192" class="level-0">Sebring International Raceway</option>\n                    <option value="52048088" class="level-0">Semper Vivus</option>\n                    <option value="654520" class="level-0">Serena Williams</option>\n                    <option value="18675721" class="level-0">Seth Neiman</option>\n                    <option value="60410677" class="level-0">Seth Neiman (USA)</option>\n                    <option value="87285" class="level-0">Silverstone</option>\n                    <option value="42647983" class="level-0">Spa-Francorchamps Belgium</option>\n                    <option value="61350563" class="level-0">Stefan Rosina (SK)</option>\n                    <option value="1153137" class="level-0">Steve McQueen</option>\n                    <option value="1501" class="level-0">Stuttgart</option>\n                    <option value="106765853" class="level-0">Stuttgart artist Hanns Lohrer</option>\n                    <option value="54613047" class="level-0">Swarm in a Porsche</option>\n                    <option value="26344941" class="level-0">Team Bleekemolen</option>\n                    <option value="798092" class="level-0">Th\xc3\x83\xc5\x92ringen</option>\n                    <option value="75841896" class="level-0">The Porsche Design Group (Porsche Lizenz- und Handelsgesellschaft mbH &amp; Co. KG)</option>\n                    <option value="70589897" class="level-0">The Porsche Driving Experience</option>\n                    <option value="16098482" class="level-0">THE RACERS GROUP</option>\n                    <option value="217281" class="level-0">The Ring</option>\n                    <option value="19490437" class="level-0">Timo Bernhard</option>\n                    <option value="43333814" class="level-0">Tom Blomqvist</option>\n                    <option value="9885133" class="level-0">Track Events</option>\n                    <option value="916007" class="level-0">TRG</option>\n                    <option value="1708144" class="level-0">Udo Lindenberg</option>\n                    <option value="1" class="level-0">Uncategorized</option>\n                    <option value="59228997" class="level-0">Uwe Alzen (D)</option>\n                    <option value="60990308" class="level-0">Uwe Alzen (GER)</option>\n                    <option value="59349496" class="level-0">Uwe Alzen (PZ Aschaffenburg Uwe Alzen Automotive)</option>\n                    <option value="59110825" class="level-0">Uwe Brettel Head of Motorsport Sales at Porsche AG</option>\n                    <option value="14380" class="level-0">Volkswagen</option>\n                    <option value="21001654" class="level-0">Weissach</option>\n                    <option value="222159" class="level-0">Wimbledon</option>\n                    <option value="58393881" class="level-0">Winfried Kretschmann Prime Minister visited Porsche</option>\n                    <option value="18675717" class="level-0">Wolf Henzler</option>\n                    <option value="59918916" class="level-0">Wolfgang Hatz Board Member for Research and Development at Porsche AG</option>\n                    <option value="54612934" class="level-0">woman\xe2\x80\x99s Porsche was taken over by thousands of bees</option>\n                    <option value="116159791" class="level-0">World Endurance Championship</option>\n                    <option value="3007558" class="level-0">World Sportscar Championship</option>\n                    <option value="5027147" class="level-0">Zuffenhausen</option>\n                  </select>\n                  <script type="text/javascript">\n                    /* &lt;![CDATA[ */\n\tvar dropdown = document.getElementById(&quot;cat&quot;);\n\tfunction onCatChange() {\n\t\tif ( dropdown.options[dropdown.selectedIndex].value &gt; 0 ) {\n\t\t\tlocation.href = &quot;http://dedeporsche.wordpress.com/?cat=&quot;+dropdown.options[dropdown.selectedIndex].value;\n\t\t}\n\t}\n\tdropdown.onchange = onCatChange;\n/* ]]&gt; */\n                  </script>\n                </li>\n                <li id="wp_tag_cloud" class="widget wp_widget_tag_cloud">\n                  <h4 class="widgettitle">Porsche Cloud</h4>\n                  <div style="overflow:hidden">\n                    <a style="font-size: 8.2477876106195pt;" title="21 topics" href="http://dedeporsche.wordpress.com/tag/alms/" class="tag-link-389556" shape="rect">ALMS</a>\n                    <a style="font-size: 9.3628318584071pt;" title="26 topics" href="http://dedeporsche.wordpress.com/tag/american-le-mans-series/" class="tag-link-408540" shape="rect">American Le Mans Series</a>\n                    <a style="font-size: 18.902654867257pt;" title="159 topics" href="http://dedeporsche.wordpress.com/tag/autos-vehicles/" class="tag-link-254214" shape="rect">Autos &amp; Vehicles</a>\n                    <a style="font-size: 14.566371681416pt;" title="69 topics" href="http://dedeporsche.wordpress.com/tag/dr-ing-h-c-f-porsche-ag/" class="tag-link-30088153" shape="rect">Dr. Ing. h.c. F. Porsche AG</a>\n                    <a style="font-size: 13.203539823009pt;" title="54 topics" href="http://dedeporsche.wordpress.com/tag/dr-ing-hc-f-porsche-ag/" class="tag-link-58383632" shape="rect">Dr. Ing hc F. Porsche AG</a>\n                    <a style="font-size: 9.9823008849558pt;" title="29 topics" href="http://dedeporsche.wordpress.com/tag/flying-lizard-motorsports/" class="tag-link-18675711" shape="rect">FLYING LIZARD MOTORSPORTS</a>\n                    <a style="font-size: 14.442477876106pt;" title="68 topics" href="http://dedeporsche.wordpress.com/tag/germany/" class="tag-link-3550" shape="rect">Germany</a>\n                    <a style="font-size: 9.6106194690265pt;" title="27 topics" href="http://dedeporsche.wordpress.com/tag/head-of-porsche-motorsport/" class="tag-link-56067346" shape="rect">Head of Porsche Motorsport</a>\n                    <a style="font-size: 9.9823008849558pt;" title="29 topics" href="http://dedeporsche.wordpress.com/tag/jeroen-bleekemolen-nl/" class="tag-link-59228991" shape="rect">Jeroen Bleekemolen (NL)</a>\n                    <a style="font-size: 8.7433628318584pt;" title="23 topics" href="http://dedeporsche.wordpress.com/tag/joerg-bergmeister/" class="tag-link-18675716" shape="rect">Joerg Bergmeister</a>\n                    <a style="font-size: 10.725663716814pt;" title="34 topics" href="http://dedeporsche.wordpress.com/tag/joerg-bergmeister-2/" class="tag-link-50292753" shape="rect">JOERG BERGMEISTER</a>\n                    <a style="font-size: 9.3628318584071pt;" title="26 topics" href="http://dedeporsche.wordpress.com/tag/konrad-motorsport/" class="tag-link-20595586" shape="rect">Konrad Motorsport</a>\n                    <a style="font-size: 8pt;" title="20 topics" href="http://dedeporsche.wordpress.com/tag/le-mans/" class="tag-link-774052" shape="rect">Le Mans</a>\n                    <a style="font-size: 11.097345132743pt;" title="36 topics" href="http://dedeporsche.wordpress.com/tag/marc-lieb/" class="tag-link-20003524" shape="rect">Marc Lieb</a>\n                    <a style="font-size: 12.955752212389pt;" title="52 topics" href="http://dedeporsche.wordpress.com/tag/marco-holzer/" class="tag-link-20439126" shape="rect">Marco Holzer</a>\n                    <a style="font-size: 12.955752212389pt;" title="52 topics" href="http://dedeporsche.wordpress.com/tag/motorsport-in-germany/" class="tag-link-48011335" shape="rect">Motorsport in Germany</a>\n                    <a style="font-size: 15.557522123894pt;" title="84 topics" href="http://dedeporsche.wordpress.com/tag/motorsport-news/" class="tag-link-185497" shape="rect">Motorsport News</a>\n                    <a style="font-size: 12.70796460177pt;" title="49 topics" href="http://dedeporsche.wordpress.com/tag/motorsport-newsletter/" class="tag-link-56548188" shape="rect">Motorsport Newsletter</a>\n                    <a style="font-size: 12.088495575221pt;" title="44 topics" href="http://dedeporsche.wordpress.com/tag/motorsports/" class="tag-link-7185" shape="rect">Motorsports</a>\n                    <a style="font-size: 10.106194690265pt;" title="30 topics" href="http://dedeporsche.wordpress.com/tag/nick-tandy-gb/" class="tag-link-59226414" shape="rect">Nick Tandy (GB)</a>\n                    <a style="font-size: 10.106194690265pt;" title="30 topics" href="http://dedeporsche.wordpress.com/tag/nordschleife/" class="tag-link-1224988" shape="rect">Nordschleife</a>\n                    <a style="font-size: 10.725663716814pt;" title="34 topics" href="http://dedeporsche.wordpress.com/tag/nurburgring/" class="tag-link-152073" shape="rect">Nurburgring</a>\n                    <a style="font-size: 8.2477876106195pt;" title="21 topics" href="http://dedeporsche.wordpress.com/tag/nurburgring-nordschleife/" class="tag-link-4468019" shape="rect">Nurburgring Nordschleife</a>\n                    <a style="font-size: 8.4955752212389pt;" title="22 topics" href="http://dedeporsche.wordpress.com/tag/nurburgring-nordschleife-2/" class="tag-link-59110778" shape="rect">N\xc3\x83\xc5\x92rburgring-Nordschleife</a>\n                    <a style="font-size: 10.725663716814pt;" title="34 topics" href="http://dedeporsche.wordpress.com/tag/patrick-long/" class="tag-link-19490442" shape="rect">Patrick Long</a>\n                    <a style="font-size: 11.592920353982pt;" title="40 topics" href="http://dedeporsche.wordpress.com/tag/patrick-long-2/" class="tag-link-50292742" shape="rect">PATRICK LONG</a>\n                    <a style="font-size: 8pt;" title="20 topics" href="http://dedeporsche.wordpress.com/tag/patrick-pilet/" class="tag-link-30387327" shape="rect">Patrick Pilet</a>\n                    <a style="font-size: 22pt;" title="278 topics" href="http://dedeporsche.wordpress.com/tag/porsche/" class="tag-link-1499" shape="rect">Porsche</a>\n                    <a style="font-size: 13.451327433628pt;" title="56 topics" href="http://dedeporsche.wordpress.com/tag/porsche-911/" class="tag-link-994504" shape="rect">Porsche 911</a>\n                    <a style="font-size: 10.353982300885pt;" title="31 topics" href="http://dedeporsche.wordpress.com/tag/porsche-911-gt3/" class="tag-link-5028777" shape="rect">porsche 911 gt3</a>\n                    <a style="font-size: 11.592920353982pt;" title="40 topics" href="http://dedeporsche.wordpress.com/tag/porsche-911-gt3-rsr/" class="tag-link-15995976" shape="rect">Porsche 911 GT3 RSR</a>\n                    <a style="font-size: 9.9823008849558pt;" title="29 topics" href="http://dedeporsche.wordpress.com/tag/porsche-cars-north-america/" class="tag-link-32963585" shape="rect">Porsche Cars North America</a>\n                    <a style="font-size: 15.929203539823pt;" title="91 topics" href="http://dedeporsche.wordpress.com/tag/porsche-motorsport/" class="tag-link-6293482" shape="rect">Porsche Motorsport</a>\n                    <a style="font-size: 13.203539823009pt;" title="54 topics" href="http://dedeporsche.wordpress.com/tag/porsche-motorsport-around-the-world/" class="tag-link-19201098" shape="rect">Porsche Motorsport around the world</a>\n                    <a style="font-size: 10.973451327434pt;" title="35 topics" href="http://dedeporsche.wordpress.com/tag/porsche-performance-intelligence/" class="tag-link-45847123" shape="rect">Porsche Performance Intelligence</a>\n                    <a style="font-size: 11.097345132743pt;" title="36 topics" href="http://dedeporsche.wordpress.com/tag/rene-rast-d/" class="tag-link-59226404" shape="rect">Ren\xc3\x83\xc2\xa9 Rast (D)</a>\n                    <a style="font-size: 11.345132743363pt;" title="38 topics" href="http://dedeporsche.wordpress.com/tag/richard-lietz/" class="tag-link-20003525" shape="rect">Richard Lietz</a>\n                    <a style="font-size: 8.2477876106195pt;" title="21 topics" href="http://dedeporsche.wordpress.com/tag/save-the-nurburgring/" class="tag-link-47987176" shape="rect">Save The N\xc3\x83\xc5\x92rburgring</a>\n                    <a style="font-size: 10.973451327434pt;" title="35 topics" href="http://dedeporsche.wordpress.com/tag/sean-edwards-gb/" class="tag-link-59228989" shape="rect">Sean Edwards (GB)</a>\n                    <a style="font-size: 15.309734513274pt;" title="80 topics" href="http://dedeporsche.wordpress.com/tag/stuttgart/" class="tag-link-1501" shape="rect">Stuttgart</a>\n                    <a style="font-size: 11.345132743363pt;" title="38 topics" href="http://dedeporsche.wordpress.com/tag/stuttgart-zuffenhausen-2/" class="tag-link-58393845" shape="rect">Stuttgart-Zuffenhausen</a>\n                    <a style="font-size: 8.2477876106195pt;" title="21 topics" href="http://dedeporsche.wordpress.com/tag/the-ring/" class="tag-link-217281" shape="rect">The Ring</a>\n                    <a style="font-size: 15.433628318584pt;" title="82 topics" href="http://dedeporsche.wordpress.com/tag/track-events/" class="tag-link-9885133" shape="rect">Track Events</a>\n                    <a style="font-size: 20.265486725664pt;" title="204 topics" href="http://dedeporsche.wordpress.com/tag/uncategorized/" class="tag-link-1" shape="rect">Uncategorized</a>\n                    <a style="font-size: 12.088495575221pt;" title="44 topics" href="http://dedeporsche.wordpress.com/tag/wolf-henzler/" class="tag-link-18675717" shape="rect">Wolf Henzler</a>\n                  </div>\n                </li>\n                <li id="search-2" class="widget widget_search">\n                  <h4 class="widgettitle">SEARCH HERE</h4>\n                  <form action="http://dedeporsche.wordpress.com/" id="searchform" method="get" enctype="application/x-www-form-urlencoded">\n                    <label class="screen-reader-text" for="s">Search</label>\n                    <div class="field-place">\n                      <input value="" name="s" id="s" class="field" type="text"></input>\n                      <input value="Search" id="searchsubmit" class="button" type="submit"></input>\n                    </div>\n                  </form>\n                </li>\n                <li id="calendar-4" class="widget widget_calendar">\n                  <h4 class="widgettitle">Calendar</h4>\n                  <div id="calendar_wrap">\n                    <table id="wp-calendar">\n                      <caption>February 2012</caption>\n                      <thead>\n                        <tr>\n                          <th title="Sunday" scope="col" rowspan="1" colspan="1">S</th>\n                          <th title="Monday" scope="col" rowspan="1" colspan="1">M</th>\n                          <th title="Tuesday" scope="col" rowspan="1" colspan="1">T</th>\n                          <th title="Wednesday" scope="col" rowspan="1" colspan="1">W</th>\n                          <th title="Thursday" scope="col" rowspan="1" colspan="1">T</th>\n                          <th title="Friday" scope="col" rowspan="1" colspan="1">F</th>\n                          <th title="Saturday" scope="col" rowspan="1" colspan="1">S</th>\n                        </tr>\n                      </thead>\n                      <tfoot>\n                        <tr>\n                          <td id="prev" rowspan="1" colspan="3">\n                            <a title="View posts for January 2012" href="http://dedeporsche.wordpress.com/2012/01/" shape="rect">\xc2\xab Jan</a>\n                          </td>\n                          <td class="pad" rowspan="1" colspan="1">\xc2\xa0</td>\n                          <td id="next" rowspan="1" colspan="3">\n                            <a title="View posts for March 2012" href="http://dedeporsche.wordpress.com/2012/03/" shape="rect">Mar \xc2\xbb</a>\n                          </td>\n                        </tr>\n                      </tfoot>\n                      <tbody>\n                        <tr>\n                          <td class="pad" rowspan="1" colspan="3">\xc2\xa0</td>\n                          <td rowspan="1" colspan="1">\n                            <a title="Daytona 24 hour race makes Porsche Mobil 1 Supercup pilots\xc2\xa0shine Fed Cup Tennis Team to become \xc3\xa2\xe2\x82\xac\xc5\x93Porsche Team\xc2\xa0Germany\xc3\xa2\xe2\x82\xac\xef\xbf\xbd Porsche Team Germany quietly hopeful going into the Fed Cup opener against the Czech\xc2\xa0Republic" href="http://dedeporsche.wordpress.com/2012/02/01/" shape="rect">1</a>\n                          </td>\n                          <td rowspan="1" colspan="1">\n                            <a title="COOLEST \xe2\x80\xa6Wire Sculpture of 1948 PORSCHE 356 Number One\xc2\xa0!" href="http://dedeporsche.wordpress.com/2012/02/02/" shape="rect">2</a>\n                          </td>\n                          <td rowspan="1" colspan="1">3</td>\n                          <td rowspan="1" colspan="1">\n                            <a title="Porsche Team Germany \xe2\x80\x93 Fed Cup, 1st Round in the Porsche Arena,\xc2\xa0Stuttgart" href="http://dedeporsche.wordpress.com/2012/02/04/" shape="rect">4</a>\n                          </td>\n                        </tr>\n                        <tr>\n                          <td rowspan="1" colspan="1">\n                            <a title="Porsche Team Germany thrills with classy tennis and fighting\xc2\xa0spirit SNEAK PREVIEW: Jeff Zwart\xe2\x80\x99s New Ride 2012 \xe2\x80\x93 Porsche 911 GT3 RS\xc2\xa04.0" href="http://dedeporsche.wordpress.com/2012/02/05/" shape="rect">5</a>\n                          </td>\n                          <td rowspan="1" colspan="1">\n                            <a title="PORSCHE Collection of Matthew Drendel offered at Gooding \xe2\x80\x93 Amelia Island Auction \xe2\x80\x93 March 9th,\xc2\xa02012" href="http://dedeporsche.wordpress.com/2012/02/06/" shape="rect">6</a>\n                          </td>\n                          <td rowspan="1" colspan="1">7</td>\n                          <td rowspan="1" colspan="1">\n                            <a title="Andy Lally joins Flying Lizard Motorsports Driver Lineup for 2012 Mobil 1 Twelve Hours of\xc2\xa0Sebring" href="http://dedeporsche.wordpress.com/2012/02/08/" shape="rect">8</a>\n                          </td>\n                          <td rowspan="1" colspan="1">\n                            <a title="PORSCHE Brand PEPSI Cola Six Pack from Brazilian Pepsi\xc2\xa0Company 1955 Winter Vintage Porsche Motor Skiing (With a Twist) the World\xe2\x80\x99s Most Dangerous\xc2\xa0Sport" href="http://dedeporsche.wordpress.com/2012/02/09/" shape="rect">9</a>\n                          </td>\n                          <td rowspan="1" colspan="1">10</td>\n                          <td rowspan="1" colspan="1">11</td>\n                        </tr>\n                        <tr>\n                          <td rowspan="1" colspan="1">\n                            <a title="Porsche Team Germany player Angelique Kerber WINS the Paris\xc2\xa0tournament" href="http://dedeporsche.wordpress.com/2012/02/12/" shape="rect">12</a>\n                          </td>\n                          <td rowspan="1" colspan="1">13</td>\n                          <td rowspan="1" colspan="1">14</td>\n                          <td rowspan="1" colspan="1">\n                            <a title="Tom Cruise\xe2\x80\x99s 1979 Porsche 928 Fetches at $49,000 \xe2\x80\x9cThere Is No Substitute\xe2\x80\x9d \xe2\x80\x93 Risky\xc2\xa0Business" href="http://dedeporsche.wordpress.com/2012/02/15/" shape="rect">15</a>\n                          </td>\n                          <td rowspan="1" colspan="1">\n                            <a title="TEASER VIDEO: The New Porsche SUV \xe2\x80\x9cMacan\xe2\x80\x9d Coming\xc2\xa02013 GMG Racing Fuels up with Shell Racing Solutions Porsche 911 Air Jordan VI \xe2\x80\x93 shoe inspiration by C2\xc2\xa0Customs" href="http://dedeporsche.wordpress.com/2012/02/16/" shape="rect">16</a>\n                          </td>\n                          <td rowspan="1" colspan="1">17</td>\n                          <td rowspan="1" colspan="1">18</td>\n                        </tr>\n                        <tr>\n                          <td rowspan="1" colspan="1">19</td>\n                          <td rowspan="1" colspan="1">\n                            <a title="LATEST VIDEO: PORSCHE DRIVES INTO WET\xc2\xa0CEMENT" href="http://dedeporsche.wordpress.com/2012/02/20/" shape="rect">20</a>\n                          </td>\n                          <td rowspan="1" colspan="1">\n                            <a title="Porsche Junior Program \xe2\x80\x93 Six finalists shine at young driver\xc2\xa0selection" href="http://dedeporsche.wordpress.com/2012/02/21/" shape="rect">21</a>\n                          </td>\n                          <td rowspan="1" colspan="1">22</td>\n                          <td rowspan="1" colspan="1">23</td>\n                          <td rowspan="1" colspan="1">\n                            <a title="Co.Design And Porsche Bring You The $20,000 Next Design\xc2\xa0Challenge" href="http://dedeporsche.wordpress.com/2012/02/24/" shape="rect">24</a>\n                          </td>\n                          <td rowspan="1" colspan="1">\n                            <a title="Impressive performance by Porsche Team Germany player Julia G\xc3\x83\xc2\xb6rges in\xc2\xa0Dubai" href="http://dedeporsche.wordpress.com/2012/02/25/" shape="rect">25</a>\n                          </td>\n                        </tr>\n                        <tr>\n                          <td rowspan="1" colspan="1">26</td>\n                          <td rowspan="1" colspan="1">27</td>\n                          <td rowspan="1" colspan="1">\n                            <a title="German tuner TechArt 2012 Porsche 911 (991)\xc2\xa0Revealed" href="http://dedeporsche.wordpress.com/2012/02/28/" shape="rect">28</a>\n                          </td>\n                          <td rowspan="1" colspan="1">29</td>\n                          <td class="pad" rowspan="1" colspan="3">\xc2\xa0</td>\n                        </tr>\n                      </tbody>\n                    </table>\n                  </div>\n                </li>\n                <li id="blog_subscription-3" class="widget widget_blog_subscription">\n                  <h4 class="widgettitle">\n                    <label for="subscribe-field">Email Subscription</label>\n                  </h4>\n                  <form accept-charset="utf-8" action="https://subscribe.wordpress.com" id="subscribe-blog" method="post" enctype="application/x-www-form-urlencoded">\n                    <p>Enter your email address to subscribe to this blog and receive notifications of new posts by email.</p>\n                    <p>Join 83 other followers</p>\n                    <p>\n                      <input value="" style="width: 95%; padding: 1px 2px" name="email" id="subscribe-field" type="text"></input>\n                    </p>\n                    <p>\n                      <input value="subscribe" name="action" type="hidden"></input>\n                      <input value="16776149" name="blog_id" type="hidden"></input>\n                      <input value="http://dedeporsche.wordpress.com/2012/02/05/porsche-team-germany-thrills-with-classy-tennis-and-fighting-spirit/" name="source" type="hidden"></input>\n                      <input value="widget" name="sub-type" type="hidden"></input>\n                      <input value="blog_subscription-3" name="redirect_fragment" type="hidden"></input>\n                      <input value="ef41ce6741" name="_wpnonce" id="_wpnonce" type="hidden"></input>\n                      <input value="Sign me up!" type="submit"></input>\n                    </p>\n                  </form>\n                </li>\n                <li id="blog_subscription-4" class="widget widget_blog_subscription">\n                  <h4 class="widgettitle">\n                    <label for="subscribe-field">Follow Dedeporsche Blog via Email</label>\n                  </h4>\n                  <form accept-charset="utf-8" action="https://subscribe.wordpress.com" id="subscribe-blog-2" method="post" enctype="application/x-www-form-urlencoded">\n                    <p>Enter your email address to follow this blog and receive notifications of new posts by email.</p>\n                    <p>Join 83 other followers</p>\n                    <p>\n                      <input value="" style="width: 95%; padding: 1px 2px" name="email" id="subscribe-field-2" type="text"></input>\n                    </p>\n                    <p>\n                      <input value="subscribe" name="action" type="hidden"></input>\n                      <input value="16776149" name="blog_id" type="hidden"></input>\n                      <input value="http://dedeporsche.wordpress.com/2012/02/05/porsche-team-germany-thrills-with-classy-tennis-and-fighting-spirit/" name="source" type="hidden"></input>\n                      <input value="widget" name="sub-type" type="hidden"></input>\n                      <input value="blog_subscription-4" name="redirect_fragment" type="hidden"></input>\n                      <input value="ef41ce6741" name="_wpnonce" id="_wpnonce" type="hidden"></input>\n                      <input value="Follow" type="submit"></input>\n                    </p>\n                  </form>\n                </li>\n                <li id="recent-posts-3" class="widget widget_recent_entries">\n                  <h4 class="widgettitle">Latest Posts</h4>\n                  <ul>\n                    <li>\n                      <a title="DOCUMENTARY FILM OCT 15TH, 2012: Meet MAGNUS WALKER \xe2\x80\x93 Urban Outlaw, rebel Porsche\xc2\xa0Customizer" href="http://dedeporsche.wordpress.com/2012/09/29/documentary-film-oct-15th-2012-meet-magnus-walker-urban-outlaw-rebel-porsche-customizer/" shape="rect">\n                        DOCUMENTARY FILM OCT 15TH, 2012: Meet MAGNUS WALKER \xe2\x80\x93 Urban Outlaw, rebel Porsche\xc2\xa0Customizer\n                      </a>\n                    </li>\n                    <li>\n                      <a title="Porsche in the GTE Am class 2nd win of the season at World Endurance Championship,rd 6\xc2\xa0Sakhir/Bahrain" href="http://dedeporsche.wordpress.com/2012/09/29/porsche-in-the-gte-am-class-2nd-win-of-the-season-at-world-endurance-championshiprd-6-sakhirbahrain/" shape="rect">\n                        Porsche in the GTE Am class 2nd win of the season at World Endurance Championship,rd 6\xc2\xa0Sakhir/Bahrain\n                      </a>\n                    </li>\n                    <li>\n                      <a title="Latest Porsche photos of free practice World Endurance Championship, rd 6 Sakhir,Bahrain International\xc2\xa0Circuit" href="http://dedeporsche.wordpress.com/2012/09/28/latest-porsche-photos-of-free-practice-world-endurance-championship-rd-6-sakhirbahrain-international-circuit/" shape="rect">\n                        Latest Porsche photos of free practice World Endurance Championship, rd 6 Sakhir,Bahrain International\xc2\xa0Circuit\n                      </a>\n                    </li>\n                    <li>\n                      <a title="Sandra Markov\xc3\x83\xc2\xa1 and Porsche 356 Speedster \xe2\x80\xa6perfect\xc2\xa0photoshoot" href="http://dedeporsche.wordpress.com/2012/09/27/sandra-markova-and-porsche-356-speedster-perfect-photoshoot/" shape="rect">Sandra Markov\xc3\x83\xc2\xa1 and Porsche 356 Speedster \xe2\x80\xa6perfect\xc2\xa0photoshoot</a>\n                    </li>\n                    <li>\n                      <a \n                      title="Porsche 918 Spyder Prototype Successful Testing / lap time 7 mins 14 secs on the\xc2\xa0\xc3\xa2\xe2\x82\xac\xc5\x93N\xc3\x83\xc5\x92rburgring-Nordschleife\xc3\xa2\xe2\x82\xac\xef\xbf\xbd" href="http://dedeporsche.wordpress.com/2012/09/20/porsche-918-spyder-prototype-successful-testing-lap-time-of-7-minutes-14-seconds-on-the-nurburgring-nordschleife/" shape="rect">\n                        Porsche 918 Spyder Prototype Successful Testing / lap time 7 mins 14 secs on the\xc2\xa0\xc3\xa2\xe2\x82\xac\xc5\x93N\xc3\x83\xc5\x92rburgring-Nordschleife\xc3\xa2\xe2\x82\xac\xef\xbf\xbd\n</a>\n                    </li>\n                    <li>\n                      <a title="What\xe2\x80\x99s on the hood of every Porsche? \xe2\x80\x93 The complex re-production of the Porsche Crest, made in\xc2\xa0Germany" href="http://dedeporsche.wordpress.com/2012/09/15/whats-on-the-hood-of-every-porsche-the-complex-re-production-of-the-porsche-crest-made-in-germany/" shape="rect">\n                        What\xe2\x80\x99s on the hood of every Porsche? \xe2\x80\x93 The complex re-production of the Porsche Crest, made in\xc2\xa0Germany\n                      </a>\n                    </li>\n                    <li>\n                      <a title="Porsche pilots celebrate second victory at gripping street race ALMS, rd 8 Baltimore,\xc2\xa0USA" href="http://dedeporsche.wordpress.com/2012/09/01/porsche-pilots-celebrate-second-victory-at-gripping-street-race-alms-rd-8-baltimore-usa/" shape="rect">\n                        Porsche pilots celebrate second victory at gripping street race ALMS, rd 8 Baltimore,\xc2\xa0USA\n                      </a>\n                    </li>\n                    <li>\n                      <a title="ALMS, rd 8 Baltimore, USA \xe2\x80\x93 Best Porsche 4th grid\xc2\xa0spot" href="http://dedeporsche.wordpress.com/2012/08/31/alms-rd-8-baltimore-usa-best-porsche-4th-grid-spot/" shape="rect">ALMS, rd 8 Baltimore, USA \xe2\x80\x93 Best Porsche 4th grid\xc2\xa0spot</a>\n                    </li>\n                    <li>\n                      <a title="Fifth win for Ren\xc3\x83\xc2\xa9 Rast at Porsche Carrera Cup Deutschland, race 13\xc2\xa0Zandvoort/Netherlands" href="http://dedeporsche.wordpress.com/2012/08/26/fifth-win-for-rene-rast-at-porsche-carrera-cup-deutschland-race-13-zandvoortnetherlands/" shape="rect">\n                        Fifth win for Ren\xc3\x83\xc2\xa9 Rast at Porsche Carrera Cup Deutschland, race 13\xc2\xa0Zandvoort/Netherlands\n                      </a>\n                    </li>\n                    <li>\n                      <a title="Porsche Carrera Cup Deutschland, race 12 in Zandvoort/Netherlands, Sean Edwards wins in rain\xc2\xa0chaos" href="http://dedeporsche.wordpress.com/2012/08/25/porsche-carrera-cup-deutschland-race-12-in-zandvoortnetherlands-sean-edwards-wins-in-rain-chaos/" shape="rect">\n                        Porsche Carrera Cup Deutschland, race 12 in Zandvoort/Netherlands, Sean Edwards wins in rain\xc2\xa0chaos\n                      </a>\n                    </li>\n                    <li>\n                      <a title="PORSCHE PRESS RELEASE: World Endurance Championship, rd 4 Silverstone/Great\xc2\xa0Britain" href="http://dedeporsche.wordpress.com/2012/08/25/porsche-press-release-world-endurance-championship-rd-4-silverstonegreat-britain/" shape="rect">\n                        PORSCHE PRESS RELEASE: World Endurance Championship, rd 4 Silverstone/Great\xc2\xa0Britain\n                      </a>\n                    </li>\n                    <li>\n                      <a \n                      title="American Le Mans Series, rd 8 Baltimore, USA, Four Porsche 911 GT3 RSR compete on city course before record\xc2\xa0crowds" href="http://dedeporsche.wordpress.com/2012/08/25/american-le-mans-series-rd-8-baltimore-usa-four-porsche-911-gt3-rsr-compete-on-city-course-before-record-crowds/" shape="rect">\n                        American Le Mans Series, rd 8 Baltimore, USA, Four Porsche 911 GT3 RSR compete on city course before record\xc2\xa0crowds\n</a>\n                    </li>\n                    <li>\n                      <a \n                      title="PORSCHE PRESS RELEASE \xe2\x80\x93 American Le Mans Series, rd 7 Elkhart Lake, USA, qualifying: One-two in qualifying for Porsche 911 GT3\xc2\xa0RSR" href="http://dedeporsche.wordpress.com/2012/08/17/porsche-press-release-american-le-mans-series-rd-7-elkhart-lake-usa-qualifying-one-two-in-qualifying-for-porsche-911-gt3-rsr/" shape="rect">\n                        PORSCHE PRESS RELEASE \xe2\x80\x93 American Le Mans Series, rd 7 Elkhart Lake, USA, qualifying: One-two in qualifying for Porsche 911 GT3\xc2\xa0RSR\n</a>\n                    </li>\n                    <li>\n                      <a title="PORSCHE PRESS RELEASE: New special exhibition \xe2\x80\x93 Art, Graphics and Design \xc3\xa2\xe2\x82\xac\xe2\x80\x9c Hanns Lohrer and\xc2\xa0Porsche" href="http://dedeporsche.wordpress.com/2012/08/16/porsche-press-release-new-special-exhibition-art-graphics-and-design-hanns-lohrer-and-porsche/" shape="rect">\n                        PORSCHE PRESS RELEASE: New special exhibition \xe2\x80\x93 Art, Graphics and Design \xc3\xa2\xe2\x82\xac\xe2\x80\x9c Hanns Lohrer and\xc2\xa0Porsche\n                      </a>\n                    </li>\n                    <li>\n                      <a title="Previous\xc2\xa0Post" href="http://dedeporsche.wordpress.com/2012/08/15/porsche-959-series-2-in-belgravia-this-is/" shape="rect">Previous\xc2\xa0Post</a>\n                    </li>\n                    <li>\n                      <a title="Previous\xc2\xa0Post" href="http://dedeporsche.wordpress.com/2012/08/15/porsche-club-holland-schloss-bensberg-for-more/" shape="rect">Previous\xc2\xa0Post</a>\n                    </li>\n                    <li>\n                      <a title="9991" href="http://dedeporsche.wordpress.com/2012/08/14/porsche-356-carrera-in-fleherbrucke-neuss-nw/" shape="rect">9991</a>\n                    </li>\n                    <li>\n                      <a title="9994" href="http://dedeporsche.wordpress.com/2012/08/14/https-www-facebook-com-photo-php-fbid-4101209260446-set-2/" shape="rect">9994</a>\n                    </li>\n                    <li>\n                      <a title="9964" href="http://dedeporsche.wordpress.com/2012/08/14/state-of-art-vw-extended-volkswagen-t1/" shape="rect">9964</a>\n                    </li>\n                    <li>\n                      <a title="9967" href="http://dedeporsche.wordpress.com/2012/08/12/vanity-by-theupper-on-flickr-via-dedeporsches/" shape="rect">9967</a>\n                    </li>\n                    <li>\n                      <a title="9970" href="http://dedeporsche.wordpress.com/2012/08/12/studie-of-colour-one-of-a-three-print-series/" shape="rect">9970</a>\n                    </li>\n                    <li>\n                      <a title="9984" href="http://dedeporsche.wordpress.com/2012/08/12/9984/" shape="rect">9984</a>\n                    </li>\n                    <li>\n                      <a title="9974" href="http://dedeporsche.wordpress.com/2012/08/12/9974/" shape="rect">9974</a>\n                    </li>\n                    <li>\n                      <a title="9975" href="http://dedeporsche.wordpress.com/2012/08/12/who-says-you-cant-go-surfing-with-a-porsche/" shape="rect">9975</a>\n                    </li>\n                    <li>\n                      <a title="Previous\xc2\xa0Post" href="http://dedeporsche.wordpress.com/2012/08/12/cars-entertainment-brought-to-you-by/" shape="rect">Previous\xc2\xa0Post</a>\n                    </li>\n                    <li>\n                      <a title="9980" href="http://dedeporsche.wordpress.com/2012/08/12/all-the-colors-you-want-which-one-porsche-sloan/" shape="rect">9980</a>\n                    </li>\n                    <li>\n                      <a title="9844" href="http://dedeporsche.wordpress.com/2012/08/12/356-love-early-60s-porsche-356-coupe-a-true/" shape="rect">9844</a>\n                    </li>\n                    <li>\n                      <a \n                      title="&lt;strong&gt;&lt;a href=&quot;http://jalopnik.com/5933949/help-find-this-rare-porsche-stolen-at-the-nurburgring&quot;&gt;click on the photos to see&lt;/a&gt;\xc3\x82\xc2\xa0more information @jalopnik&lt;/strong&gt; &lt;a href=&quot;http://jalopnik.com/5933949/help-find-this-rare-porsche-stolen-at-the-nurburgring&quot;&gt;&lt;/a&gt;&lt;a href=&quot;http://jalopnik.com/5933949/help-find-this-rare-porsche-stolen-at-the-nurburgring&quot;&gt;&lt;/a&gt;\xc3\x82\xc2\xa0Earlier this weekend, 66-year-old Thorkil Simonsen of Denmark brought his Porsche 356 to a classic car race event at the N\xc3\x83\xc5\x92rburgring. Unfortunately, he didn\xe2\x80\x99t leave with the Porsche \xc3\xa2\xe2\x82\xac\xe2\x80\x9d How about it, fellow European Friends/Jalops? Let\xe2\x80\x99s see if we can\xe2\x80\x99t help this gentleman get his Porsche back. SPREAD THE WORD\xe2\x80\xa6he has offered a reward of 15,000 euro (!) for any kind of information, that leads him to the\xc2\xa0car." href="http://dedeporsche.wordpress.com/2012/08/12/car-crime-help-find-this-rare-porsche-stolen-at-the/" shape="rect">\n                        <strong>\n                          <a href="http://jalopnik.com/5933949/help-find-this-rare-porsche-stolen-at-the-nurburgring" shape="rect">click on the photos to see</a>\n                          \xc3\x82\xc2\xa0more information @jalopnik\n                        </strong>\n</a>\n                      <a href="http://jalopnik.com/5933949/help-find-this-rare-porsche-stolen-at-the-nurburgring" shape="rect"></a>\n                      <a href="http://jalopnik.com/5933949/help-find-this-rare-porsche-stolen-at-the-nurburgring" shape="rect"></a>\n                      \xc3\x82\xc2\xa0Earlier this weekend, 66-year-old Thorkil Simonsen of Denmark brought his Porsche 356 to a classic car race event at the N\xc3\x83\xc5\x92rburgring. Unfortunately, he didn\xe2\x80\x99t leave with the Porsche \xc3\xa2\xe2\x82\xac\xe2\x80\x9d\nHow about it, fellow European Friends/Jalops? Let\xe2\x80\x99s see if we can\xe2\x80\x99t help this gentleman get his Porsche back. SPREAD THE WORD\xe2\x80\xa6he has offered a reward of 15,000 euro (!) for any kind of information, that leads him to the\xc2\xa0car.\n                    </li>\n                    <li>\n                      <a title="9848" href="http://dedeporsche.wordpress.com/2012/08/12/https-www-facebook-com-photo-php-fbid-460820850615276-se/" shape="rect">9848</a>\n                    </li>\n                    <li>\n                      <a title="Previous\xc2\xa0Post" href="http://dedeporsche.wordpress.com/2012/08/11/https-www-facebook-com-photo-php-fbid-460673870629974-se/" shape="rect">Previous\xc2\xa0Post</a>\n                    </li>\n                    <li>\n                      <a title="Previous\xc2\xa0Post" href="http://dedeporsche.wordpress.com/2012/08/11/porsche-youd-think-they-could-spare-just-one/" shape="rect">Previous\xc2\xa0Post</a>\n                    </li>\n                    <li>\n                      <a title="9857" href="http://dedeporsche.wordpress.com/2012/08/11/porsche-rear-ends-can-you-name-any-of-them/" shape="rect">9857</a>\n                    </li>\n                    <li>\n                      <a title="9860" href="http://dedeporsche.wordpress.com/2012/08/10/https-www-facebook-com-media-set-set-a-346828148681214-8/" shape="rect">9860</a>\n                    </li>\n                    <li>\n                      <a title="Next\xc2\xa0Post" href="http://dedeporsche.wordpress.com/2012/08/10/celebrating-porsche-history-via-dedeporsches-blog/" shape="rect">Next\xc2\xa0Post</a>\n                    </li>\n                    <li>\n                      <a title="9866" href="http://dedeporsche.wordpress.com/2012/08/10/keep-calm-drive-a-porsche-my-motto-via/" shape="rect">9866</a>\n                    </li>\n                    <li>\n                      <a title="9869" href="http://dedeporsche.wordpress.com/2012/08/10/https-www-facebook-com-photo-php-fbid-4101212580529-set/" shape="rect">9869</a>\n                    </li>\n                    <li>\n                      <a title="9872" href="http://dedeporsche.wordpress.com/2012/08/10/https-www-facebook-com-photo-php-fbid-4101212940538-set/" shape="rect">9872</a>\n                    </li>\n                    <li>\n                      <a title="9875" href="http://dedeporsche.wordpress.com/2012/08/10/https-www-facebook-com-photo-php-fbid-4101213620555-set/" shape="rect">9875</a>\n                    </li>\n                    <li>\n                      <a title="9878" href="http://dedeporsche.wordpress.com/2012/08/10/https-www-facebook-com-photo-php-fbid-4101209820460-set/" shape="rect">9878</a>\n                    </li>\n                    <li>\n                      <a title="9884" href="http://dedeporsche.wordpress.com/2012/08/10/956-porsche-curves-24hrs-of-le-mans-june/" shape="rect">9884</a>\n                    </li>\n                    <li>\n                      <a title="9881" href="http://dedeporsche.wordpress.com/2012/08/10/https-www-facebook-com-photo-php-fbid-4101209260446-set/" shape="rect">9881</a>\n                    </li>\n                    <li>\n                      <a title="9887" href="http://dedeporsche.wordpress.com/2012/08/09/timewastingmachine-features-1972-porsche-914/" shape="rect">9887</a>\n                    </li>\n                    <li>\n                      <a title="9890" href="http://dedeporsche.wordpress.com/2012/08/09/porsche-museum-secrets-part-2-by-porsche/" shape="rect">9890</a>\n                    </li>\n                    <li>\n                      <a title="9892" href="http://dedeporsche.wordpress.com/2012/08/09/https-www-facebook-com-media-set-set-a-459927924037902-1/" shape="rect">9892</a>\n                    </li>\n                    <li>\n                      <a title="9899" href="http://dedeporsche.wordpress.com/2012/08/08/https-www-facebook-com-photo-php-fbid-414089465288415-se/" shape="rect">9899</a>\n                    </li>\n                    <li>\n                      <a title="PORSCHE Press Release \xe2\x80\x93 Porsche Motorsport around the world: Newsletter 5 \xe2\x80\x93 August\xc2\xa02012" href="http://dedeporsche.wordpress.com/2012/08/08/porsche-press-release-porsche-motorsport-around-the-world-newsletter-5-august-2012/" shape="rect">\n                        PORSCHE Press Release \xe2\x80\x93 Porsche Motorsport around the world: Newsletter 5 \xe2\x80\x93 August\xc2\xa02012\n                      </a>\n                    </li>\n                    <li>\n                      <a title="9903" href="http://dedeporsche.wordpress.com/2012/08/06/the-beautiful-marisa-miller-victorias-secret/" shape="rect">9903</a>\n                    </li>\n                    <li>\n                      <a title="9906" href="http://dedeporsche.wordpress.com/2012/08/06/penthouse-magazine-pinup-silvia-saint-porsche/" shape="rect">9906</a>\n                    </li>\n                    <li>\n                      <a title="Previous\xc2\xa0Post" href="http://dedeporsche.wordpress.com/2012/08/06/porsche-911-orange-porschesicle-heres/" shape="rect">Previous\xc2\xa0Post</a>\n                    </li>\n                    <li>\n                      <a title="9916" href="http://dedeporsche.wordpress.com/2012/08/06/my-car-today-morning-in-the-office-parking/" shape="rect">9916</a>\n                    </li>\n                  </ul>\n                </li>\n              </ul>\n            </div>\n            <div class="cl">\xc2\xa0</div>\n          </div>\n        </div>\n      </div>\n      <div id="footer">\n        <p>\n          <a rel="generator" href="http://wordpress.com/?ref=footer" shape="rect">Blog at WordPress.com</a>\n          .\nTheme:\n          <a title="Learn more about this theme" href="http://theme.wordpress.com/themes/choco/" shape="rect">Choco</a>\n          by\n          <a rel="designer" href="http://cssmayo.com" shape="rect">.css{mayo}</a>\n          .\n        </p>\n        <p class="rss">\n          <a href="http://dedeporsche.wordpress.com/feed/rss/" shape="rect">Entries (RSS)</a>\n          and\n          <a href="http://dedeporsche.wordpress.com/comments/feed/" shape="rect">Comments (RSS)</a>\n        </p>\n      </div>\n    </div>\n    <script type="text/javascript">\n      var _qevents = _qevents || [], wpcomQuantcastData = {&quot;qacct&quot;:&quot;p-18-mFEk4J448M&quot;,&quot;labels&quot;:&quot;,language.en,type.wpcom,posttag.andrea-petkovic,posttag.angelique-kerber,posttag.angelique-kerber-2,posttag.anna-lena-gronefeld-2,posttag.anna-lena-gronefeld,posttag.backs-to-the-wall,posttag.barbara-rittner,posttag.czech-republic,posttag.decisive-moments,posttag.fighting-spirit,posttag.iveta-benesova,posttag.julia-gorges,posttag.julia-gorges-2,posttag.petra-kvitova,posttag.porsche,posttag.porsche-arena,posttag.porsche-tennis,posttag.porsche-tennis-grand-prix,posttag.porsche-tennis-team-deutschland,posttag.porsche-tennis-team-germany,posttag.sabine-lisicki,posttag.stuttgart-germany,posttag.wimbledon-champion,as&quot;};\nfunction wpcomQuantcastPixel( labels, options ) {\n\tvar i, defaults = wpcomQuantcastData, data = { event: \'ajax\' };\n\n\tlabels  = labels  || \'\';\n\toptions = options || {};\n\n\tif ( typeof labels != \'string\' )\n\t\toptions = labels;\n\n\tfor ( i in defaults ) {\n\t\tdata[i] = defaults[i];\n\t}\n\n\tfor ( i in options ) {\n\t\tdata[i] = options[i];\n\t}\n\n\tif ( data.labels ) {\n\t\tdata.labels += \',\' + labels;\n\t} else {\n\t\tdata.labels = labels;\n\t}\n\n\t_qevents.push( data );\n};\n(function() {var elem = document.createElement(\'script\');elem.src = (document.location.protocol == &quot;https:&quot; ? &quot;https://secure&quot; : &quot;http://edge&quot;) + &quot;.quantserve.com/quant.js&quot;;elem.async = true;elem.type = &quot;text/javascript&quot;;var scpt = document.getElementsByTagName(\'script\')[0];scpt.parentNode.insertBefore(elem, scpt);  })();\n_qevents.push( wpcomQuantcastData );\n    </script>\n    <noscript>\n      <div style="display: none;">\n        <img \n        alt="" width="1" height="1" src="//pixel.quantserve.com/pixel/p-18-mFEk4J448M.gif?labels=%2Clanguage.en%2Ctype.wpcom%2Cposttag.andrea-petkovic%2Cposttag.angelique-kerber%2Cposttag.angelique-kerber-2%2Cposttag.anna-lena-gronefeld-2%2Cposttag.anna-lena-gronefeld%2Cposttag.backs-to-the-wall%2Cposttag.barbara-rittner%2Cposttag.czech-republic%2Cposttag.decisive-moments%2Cposttag.fighting-spirit%2Cposttag.iveta-benesova%2Cposttag.julia-gorges%2Cposttag.julia-gorges-2%2Cposttag.petra-kvitova%2Cposttag.porsche%2Cposttag.porsche-arena%2Cposttag.porsche-tennis%2Cposttag.porsche-tennis-grand-prix%2Cposttag.porsche-tennis-team-deutschland%2Cposttag.porsche-tennis-team-germany%2Cposttag.sabine-lisicki%2Cposttag.stuttgart-germany%2Cposttag.wimbledon-champion%2Cas">\n</img>\n      </div>\n    </noscript>\n    <script type="text/javascript">\n      /* &lt;![CDATA[ */\n\t(function($){\n\t\t$(document).on( \'ready post-load\', function() {\n\n\t\t\t// Remove the login box when clicking the page\n\t\t\t$( document ).mousedown( function( e ) {\n\t\t\t\tif ( null == $( e.target ).closest( \'#wpl-mustlogin\' ).get( 0 ) ) {\n\t\t\t\t\t$( \'#wpl-mustlogin\' ).remove();\n\t\t\t\t}\n\t\t\t});\n\n\t\t\t// Handle clicking the like button itself\n\t\t\t$(\'.wpl-button &gt; a.like\').click( function(e) {\n\t\t\t\te.preventDefault();\n\n\t\t\t\tvar postid = $(this).parent().attr(\'id\').split(\'like-\')[1];\n\t\t\t\t$.post( \'http://dedeporsche.wordpress.com/wp-admin/admin-ajax.php\', {\n\t\t\t\t\t\'action\': \'wpl_record_stat\',\n\t\t\t\t\t\'stat_name\': \'loggedout_like_click\'\n\t\t\t\t} );\n\n\t\t\t\tvar tenMins = new Date();\n\t\t\t\ttenMins.setTime( tenMins.getTime() + 600000 );\n\t\t\t\tdocument.cookie = \'wpl_rand=365542df88; expires=\' + tenMins.toGMTString() + \'; domain=wordpress.com; path=/;\';\n\n\t\t\t\t$(this).parent().siblings(\'.wpl-count\').after( \'\\\n\t\t\t\t\t&lt;div id=&quot;wpl-mustlogin&quot;&gt; \\\n\t\t\t\t\t\t&lt;form action=&quot;https://dedeporsche.wordpress.com/wp-login.php&quot; method=&quot;post&quot;&gt; \\\n\t\t\t\t\t\t\t&lt;p&gt;Just one more step to like this:&lt;/p&gt; \\\n\t\t\t\t\t\t\t&lt;label&gt;&lt;span&gt;Username&lt;/span&gt; &lt;input type=&quot;text&quot; name=&quot;log&quot; id=&quot;user_login&quot; class=&quot;input&quot; value=&quot;&quot; size=&quot;20&quot; tabindex=&quot;80&quot; /&gt;&lt;/label&gt; \\\n\t\t\t\t\t\t\t&lt;label&gt;&lt;span&gt;Password&lt;/span&gt; &lt;input type=&quot;password&quot; name=&quot;pwd&quot; id=&quot;user_pass&quot; class=&quot;input&quot; value=&quot;&quot; size=&quot;20&quot; tabindex=&quot;81&quot; /&gt;&lt;/label&gt; \\\n\t\t\t\t\t\t\t&lt;input type=&quot;submit&quot; name=&quot;wp-submit&quot; id=&quot;wp-submit&quot; class=&quot;button-primary&quot; value=&quot;Log In&quot; tabindex=&quot;82&quot; /&gt; \\\n\t\t\t\t\t\t\t&lt;input type=&quot;hidden&quot; name=&quot;postid&quot; value=&quot;\' + postid + \'&quot; /&gt; \\\n\t\t\t\t\t\t\t&lt;input type=&quot;hidden&quot; name=&quot;redirect_to&quot; value=&quot;http://dedeporsche.wordpress.com/2012/02/05/porsche-team-germany-thrills-with-classy-tennis-and-fighting-spirit?year=2012&amp;#038;monthnum=02&amp;#038;day=05&amp;#038;name=porsche-team-germany-thrills-with-classy-tennis-and-fighting-spirit&amp;#038;like=1&quot; /&gt; \\\n\t\t\t\t\t\t\t&lt;input type=&quot;hidden&quot; name=&quot;wpl_rand&quot; value=&quot;365542df88&quot; /&gt; \\\n\t\t\t\t\t\t\t&lt;p&gt;Not a member yet? &lt;a href=&quot;http://wordpress.com/signup/?ref=likebox&quot; id=&quot;wpl-signup-link&quot;&gt;Sign up with WordPress.com&lt;/a&gt;&lt;/p&gt; \\\n\t\t\t\t\t\t&lt;/form&gt; \\\n\t\t\t\t\t&lt;/div&gt; \\\n\t\t\t\t\');\n\n\t\t\t\t$(\'#wpl-mustlogin\').hide().slideDown(\'fast\');\n\t\t\t} );\n\n\t\t\t$(\'#wpl-mustlogin input.input\').live( \'focus\', function() {\n\t\t\t\t$(this).prev().hide();\n\t\t\t}).live( \'blur\', function() {\n\t\t\t\tif ( $(this).val() == \'\' ) {\n\t\t\t\t\t$(this).prev().show();\n\t\t\t\t}\n\t\t\t});\n\n\t\t\t$(\'#wpl-mustlogin input#wp-submit\').live( \'click\', function(e) {\n\t\t\t\te.preventDefault();\n\n\t\t\t\t$.post( \'http://dedeporsche.wordpress.com/wp-admin/admin-ajax.php\', {\n\t\t\t\t\t\'action\': \'wpl_record_stat\',\n\t\t\t\t\t\'stat_name\': \'loggedout_login_submit\'\n\t\t\t\t}, function() {\n\t\t\t\t\t$(\'#wpl-mustlogin form\').submit();\n\t\t\t\t} );\n\t\t\t});\n\n\t\t\t$(\'#wpl-mustlogin a#wpl-signup-link\').live( \'click\', function(e) {\n\t\t\t\te.preventDefault();\n\n\t\t\t\tvar link = $(this).attr(\'href\');\n\n\t\t\t\t$.post( \'http://dedeporsche.wordpress.com/wp-admin/admin-ajax.php\', {\n\t\t\t\t\t\'action\': \'wpl_record_stat\',\n\t\t\t\t\t\'stat_name\': \'loggedout_signup_click\'\n\t\t\t\t}, function() {\n\t\t\t\t\tlocation.href = link;\n\t\t\t\t} );\n\t\t\t});\n\t\t})\n\t})(jQuery);\n\t/* ]]&gt; */\n    </script>\n    <script src="http://s.gravatar.com/js/gprofiles.js?ver=201240ab" type="text/javascript"></script>\n    <script type="text/javascript"> /* &lt;![CDATA[ */ var WPGroHo = {&quot;my_hash&quot;:&quot;&quot;}; /* ]]&gt; */ </script>\n    <script src="http://s1.wp.com/wp-content/mu-plugins/gravatar-hovercards/wpgroho.js?m=1318621548g" type="text/javascript"></script>\n    <script>jQuery(document).ready(function($){ Gravatar.profile_cb = function( h, d ) { WPGroHo.syncProfileData( h, d ); }; Gravatar.my_hash = WPGroHo.my_hash; Gravatar.init( \'body\', \'#wp-admin-bar-my-account\' ); });</script>\n    <div style="display:none">\n      <div class="grofile-hash-map-63e48f3bb57e4621b7b6c0890beef156"> </div>\n    </div>\n    <script type="text/javascript">\n      /* &lt;![CDATA[ */\nvar HighlanderComments = {&quot;loggingInText&quot;:&quot;Logging In\\u2026&quot;,&quot;submittingText&quot;:&quot;Posting Comment\\u2026&quot;,&quot;postCommentText&quot;:&quot;Post Comment&quot;,&quot;connectingToText&quot;:&quot;Connecting to %s&quot;,&quot;commentingAsText&quot;:&quot;%1$s: You are commenting using your %2$s account.&quot;,&quot;logoutText&quot;:&quot;Log Out&quot;,&quot;loginText&quot;:&quot;Log In&quot;,&quot;connectURL&quot;:&quot;http:\\/\\/dedeporsche.wordpress.com\\/public.api\\/connect\\/?action=request&quot;,&quot;logoutURL&quot;:&quot;http:\\/\\/dedeporsche.wordpress.com\\/wp-login.php?action=logout&amp;_wpnonce=f2b07c2214&quot;,&quot;homeURL&quot;:&quot;http:\\/\\/dedeporsche.wordpress.com\\/&quot;,&quot;postID&quot;:&quot;7193&quot;,&quot;gravDefault&quot;:&quot;identicon&quot;,&quot;enterACommentError&quot;:&quot;Please enter a comment&quot;,&quot;enterEmailError&quot;:&quot;Please enter your email address here&quot;,&quot;invalidEmailError&quot;:&quot;Invalid email address&quot;,&quot;enterAuthorError&quot;:&quot;Please enter your name here&quot;,&quot;gravatarFromEmail&quot;:&quot;This picture will show whenever you leave a comment. Click to customize it.&quot;,&quot;logInToExternalAccount&quot;:&quot;Log in to use details from one of these accounts.&quot;,&quot;change&quot;:&quot;Change&quot;,&quot;changeAccount&quot;:&quot;Change Account&quot;,&quot;comment_registration&quot;:&quot;0&quot;,&quot;userIsLoggedIn&quot;:&quot;&quot;,&quot;isJetpack&quot;:&quot;0&quot;};\n/* ]]&gt; */\n    </script>\n    <script src="http://s0.wp.com/wp-content/mu-plugins/highlander-comments/script.js?m=1342824083g" type="text/javascript"></script>\n    <div id="bit" class="loggedout-follow-normal">\n      <a href="javascript:void(0)" class="bsub" shape="rect">\n        <span id="bsub-text">Follow</span>\n      </a>\n      <div id="bitsubscribe">\n        <h3>\n          <label for="loggedout-follow-field">Follow \xe2\x80\x9cDedeporsches Blog\xe2\x80\x9d</label>\n        </h3>\n        <form accept-charset="utf-8" action="https://subscribe.wordpress.com" id="loggedout-follow" method="post" enctype="application/x-www-form-urlencoded">\n          <p>Get every new post delivered to your Inbox.</p>\n          <p style="display: none;" id="loggedout-follow-error"></p>\n          <p class="bit-follow-count">Join 83 other followers</p>\n          <p>\n            <input \n            onblur="this.value=(this.value==&quot;&quot;) ? &quot;Enter email address&quot; : this.value;" onfocus="this.value=(this.value==&quot;Enter your email address&quot;) ? &quot;&quot; : this.value;" value="Enter your email address" style="width: 95%; padding: 1px 2px" name="email" id="loggedout-follow-field" type="email">\n</input>\n          </p>\n          <input value="subscribe" name="action" type="hidden"></input>\n          <input value="16776149" name="blog_id" type="hidden"></input>\n          <input value="http://dedeporsche.wordpress.com/2012/02/05/porsche-team-germany-thrills-with-classy-tennis-and-fighting-spirit/" name="source" type="hidden"></input>\n          <input value="loggedout-follow" name="sub-type" type="hidden"></input>\n          <input value="ef41ce6741" name="_wpnonce" id="_wpnonce" type="hidden"></input>\n          <input value="/2012/02/05/porsche-team-germany-thrills-with-classy-tennis-and-fighting-spirit/" name="_wp_http_referer" type="hidden"></input>\n          <p id="bsub-subscribe-button">\n            <input value="Sign me up" type="submit"></input>\n          </p>\n        </form>\n        <div id="bsub-credit">\n          <a href="http://wordpress.com/signup/?ref=lof" shape="rect">Powered by WordPress.com</a>\n        </div>\n      </div>\n    </div>\n    <script charset="UTF-8" type="text/javascript" id="polldaddyRatings">\n      &lt;!--//--&gt;&lt;![CDATA[//&gt;&lt;!--\nPDRTJS_settings_3080883_post_7193={&quot;id&quot;:3080883,&quot;unique_id&quot;:&quot;wp-post-7193&quot;,&quot;title&quot;:&quot;Porsche%20Team%20Germany%20thrills%20with%20classy%20tennis%20and%20fighting%26nbsp%3Bspirit&quot;,&quot;permalink&quot;:&quot;http:\\/\\/dedeporsche.wordpress.com\\/2012\\/02\\/05\\/porsche-team-germany-thrills-with-classy-tennis-and-fighting-spirit\\/&quot;,&quot;item_id&quot;:&quot;_post_7193&quot;}; if ( typeof PDRTJS_RATING !== \'undefined\' ){if ( typeof PDRTJS_3080883_post_7193 == \'undefined\' ){PDRTJS_3080883_post_7193 = new PDRTJS_RATING( PDRTJS_settings_3080883_post_7193 );}}\n//--&gt;&lt;!]]&gt;\n    </script>\n    <script src="http://i.polldaddy.com/ratings/rating.js" charset="UTF-8" type="text/javascript"></script>\n    <script type="text/javascript"> WPCOM_sharing_counts = {&quot;http:\\/\\/dedeporsche.wordpress.com\\/2012\\/02\\/05\\/porsche-team-germany-thrills-with-classy-tennis-and-fighting-spirit\\/&quot;:7193} </script>\n    <script src="http://s0.wp.com/wp-content/mu-plugins/post-flair/sharing/sharing.js?m=1345189394g" type="text/javascript"></script>\n    <div style="display: none;" id="sharing_email">\n      <form action="" method="post" enctype="application/x-www-form-urlencoded">\n        <label for="target_email">Send to Email Address</label>\n        <input value="" name="target_email" id="target_email" type="text"></input>\n        <label for="source_name">Your Name</label>\n        <input value="" name="source_name" id="source_name" type="text"></input>\n        <label for="source_email">Your Email Address</label>\n        <input value="" name="source_email" id="source_email" type="text"></input>\n        <div id="sharing_recaptcha" class="recaptcha"></div>\n        <input value="6LcYW8MSAAAAADBAuEH9yaPcF7lWh11Iq62ZKtoo" name="recaptcha_public_key" id="recaptcha_public_key" type="hidden"></input>\n        <img height="16" width="16" alt="loading" src="http://s2.wp.com/wp-content/mu-plugins/post-flair/sharing/images/loading.gif?m=1315610318g" style="float: right; display: none" class="loading"></img>\n        <input value="Send Email" class="sharing_send" type="submit"></input>\n        <a href="#cancel" class="sharing_cancel" shape="rect">Cancel</a>\n        <div style="display: none;" class="errors errors-1"> Post was not sent - check your email addresses! </div>\n        <div style="display: none;" class="errors errors-2"> Email check failed, please try again </div>\n        <div style="display: none;" class="errors errors-3"> Sorry, your blog cannot share posts by email. </div>\n      </form>\n    </div>\n    <script charset="utf-8" type="text/javascript"> jQuery(document).ready(function(){ jQuery( \'.share-facebook\' ).click(function(){ window.open( jQuery(this).attr( \'href\' ), \'wpcomfacebook\', \'menubar=1,resizable=1,width=600,height=400\' ); return false; }); }); </script>\n    <script charset="utf-8" type="text/javascript"> jQuery(document).ready(function(){ jQuery( \'.share-pinterest\' ).click(function(){ window.open( jQuery(this).attr( \'href\' ), \'wpcompinterest\', \'menubar=1,resizable=1,width=650,height=280\' ); return false; }); }); </script>\n    <script charset="utf-8" type="text/javascript"> jQuery(document).ready(function(){ jQuery( \'.share-twitter\' ).click(function(){ window.open( jQuery(this).attr( \'href\' ), \'wpcomtwitter\', \'menubar=1,resizable=1,width=600,height=350\' ); return false; }); }); </script>\n    <script charset="utf-8" type="text/javascript"> function sharing_plusone( obj ) { jQuery.ajax( { url: \'http://dedeporsche.wordpress.com/2012/02/05/porsche-team-germany-thrills-with-classy-tennis-and-fighting-spirit/?share=google-plus-1\', type: \'POST\', data: obj } ); } </script>\n    <script src="http://apis.google.com/js/plusone.js" type="text/javascript"></script>\n    <script charset="utf-8" type="text/javascript"> jQuery(document).ready(function(){ jQuery( \'.share-linkedin\' ).click(function(){ window.open( jQuery(this).attr( \'href\' ), \'wpcomlinkedin\', \'menubar=1,resizable=1,width=580,height=450\' ); return false; }); }); </script>\n    <script charset="utf-8" type="text/javascript"> jQuery(document).ready(function(){ jQuery( \'.share-tumblr\' ).click(function(){ window.open( jQuery(this).attr( \'href\' ), \'wpcomtumblr\', \'menubar=1,resizable=1,width=450,height=450\' ); return false; }); }); </script>\n    <script src="http://b.scorecardresearch.com/beacon.js" type="text/javascript"></script>\n    <script type="text/javascript">try{COMSCORE.beacon({c1:2,c2:7518284});}catch(e){}</script>\n    <noscript>\n      <p class="robots-nocontent">\n        <img height="1" width="1" style="display:none" alt="" src="http://b.scorecardresearch.com/p?cj=1c1=2&amp;c2=7518284"></img>\n      </p>\n    </noscript>\n    <script src="http://s1.wp.com/_static/??/wp-content/js/devicepx.js,/wp-content/mu-plugins/slideshow/jquery.cycle.js,/wp-content/mu-plugins/slideshow/slideshow.js?m=1349105731j" type="text/javascript"></script>\n    <script type="text/javascript">\n      // &lt;![CDATA[\n(function() {\ntry{\n  if ( window.external &amp;&amp;\'msIsSiteMode\' in window.external) {\n    if (window.external.msIsSiteMode()) {\n      var jl = document.createElement(\'script\');\n      jl.type=\'text/javascript\';\n      jl.async=true;\n      jl.src=\'/wp-content/plugins/ie-sitemode/custom-jumplist.php\';\n      var s = document.getElementsByTagName(\'script\')[0];\n      s.parentNode.insertBefore(jl, s);\n    }\n  }\n}catch(e){}\n})();\n// ]]&gt;\n    </script>\n    <script type="text/javascript" src="http://s.stats.wordpress.com/w.js?21"></script>\n    <script type="text/javascript">\n      st_go({\'blog\':\'16776149\',\'v\':\'wpcom\',\'user_id\':\'0\',\'post\':\'7193\',\'subd\':\'dedeporsche\'});\nex_go({\'crypt\':\'UE5XaGUuOTlwaD85flAmcm1mcmZsaDhkV11YdT1UeVRla1NLdXYlUnJLd195UG5zW1ssQzFdQmpYaUFKY2VpVXJUYTFEVTNILU9sc0JqeVota1hCZCt6ZUYuU345P19KRE9OV0NdJURRbXhEcD11fl9QbHRacjFBW005a09FdFUrNFI2bXZmZltWJlIwckFOb1kyTUlQeVRPMUlFMk1IRmEmaG05Y2hVTEFQRjRDbUNVZHdwdXJQQVB1Wk44bXBfZnZ4MmNffHQ2Wk8wRl1dUExMdXxOPz1ddXlQWDd0Y2glWmFkK0RZRXpzMCsseS5CNGcmdGNmL2VFRXMwXWY/TDFdUWhuKy9IeVhESEVla0paSUxrKz81K0RkaThGL3xRYTRBNzZrd2htRHcxdVBqRz1xMFF6OHomLl9ZYmI1NDVrQUpnaGNPUEdXOFJMbD9aSHJ0\'});\naddLoadEvent(function(){linktracker_init(\'16776149\',7193);});\n    </script>\n    <noscript>\n      <img alt="" style="height:0px;width:0px;overflow:hidden" src="http://stats.wordpress.com/b.gif?v=noscript"></img>\n    </noscript>\n  </body>\n</html>'
p11
sbsS'mentions'
p12
(lp13
(iedu.umass.cs.iesl.wikilink.expanded.data.ttypes
Mention
p14
(dp15
S'anchor_text'
p16
S'Fed Cup'
p17
sS'context'
p18
(iedu.umass.cs.iesl.wikilink.expanded.data.ttypes
Context
p19
(dp20
S'middle'
p21
S'Fed Cup'
p22
sS'right'
p23
S', 1st Round in the Porsche Arena , Stuttgart: Germany \xc3\xa2\xe2\x82\xac\xe2\x80\x9c Czech Republic Fans in der Porsche-Arena Stuttgart. In the opening tie of the 2012'
p24
sS'left'
p25
S'Arena,\xc2\xa0Stuttgart SNEAK PREVIEW: Jeff Zwart\xe2\x80\x99s New Ride 2012 \xe2\x80\x93 Porsche 911 GT3 RS\xc2\xa04.0 \xe2\x86\x92 Porsche Team Germany thrills with classy tennis and fighting\xc2\xa0spirit 05 Feb'
p26
sbsS'freebase_id'
p27
S'9202a8c04000641f8000000000435e60'
p28
sS'raw_text_offset'
p29
I14461
sS'wiki_url'
p30
S'http://en.wikipedia.org/wiki/Fed_Cup'
p31
sba(iedu.umass.cs.iesl.wikilink.expanded.data.ttypes
Mention
p32
(dp33
g16
S'Porsche Arena'
p34
sg18
(iedu.umass.cs.iesl.wikilink.expanded.data.ttypes
Context
p35
(dp36
g21
S'Porsche Arena'
p37
sg23
S', Stuttgart: Germany \xc3\xa2\xe2\x82\xac\xe2\x80\x9c Czech Republic Fans in der Porsche-Arena Stuttgart. In the opening tie of the 2012 Fed Cup season, Porsche Team Germany thrilled'
p38
sg25
S'2012 \xe2\x80\x93 Porsche 911 GT3 RS\xc2\xa04.0 \xe2\x86\x92 Porsche Team Germany thrills with classy tennis and fighting\xc2\xa0spirit 05 Feb Fed Cup , 1st Round in the'
p39
sbsg27
S'9202a8c04000641f8000000000ce1933'
p40
sg29
I14600
sg30
S'http://en.wikipedia.org/wiki/Porsche_Arena'
p41
sba(iedu.umass.cs.iesl.wikilink.expanded.data.ttypes
Mention
p42
(dp43
g16
S'Sabine Lisicki'
p44
sg18
(iedu.umass.cs.iesl.wikilink.expanded.data.ttypes
Context
p45
(dp46
g21
S'Sabine Lisicki'
p47
sg23
S', Julia G\xc3\x83\xc2\xb6rges , Angelique Kerber and Anna-Lena Gr\xc3\x83\xc2\xb6nefeld nevertheless showed themselves to be a strong team in the 4-1 defeat. Barbara Rittner (l.), Angelique'
p48
sg25
S'against title-holders the Czech Republic. Image via Wikipedia - Eingang Porsche Arena in Stuttgart Though unable able to take their chances in the decisive moments,'
p49
sbsg27
S'9202a8c04000641f8000000006f9da3f'
p50
sg29
I16071
sg30
S'http://en.wikipedia.org/wiki/Sabine_Lisicki'
p51
sba(iedu.umass.cs.iesl.wikilink.expanded.data.ttypes
Mention
p52
(dp53
g16
S'Julia G\xc3\x83\xc2\xb6rges'
p54
sg18
(iedu.umass.cs.iesl.wikilink.expanded.data.ttypes
Context
p55
(dp56
g21
S'Julia G\xc3\x83\xc2\xb6rges'
p57
sg23
S', Angelique Kerber and Anna-Lena Gr\xc3\x83\xc2\xb6nefeld nevertheless showed themselves to be a strong team in the 4-1 defeat. Barbara Rittner (l.), Angelique Kerber, Porsche Team'
p58
sg25
S'Czech Republic. Image via Wikipedia - Eingang Porsche Arena in Stuttgart Though unable able to take their chances in the decisive moments, Sabine Lisicki ,'
p59
sbsg27
Nsg29
I16204
sg30
S'http://en.wikipedia.org/wiki/Julia_G%C3%B6rges'
p60
sba(iedu.umass.cs.iesl.wikilink.expanded.data.ttypes
Mention
p61
(dp62
g16
S'Angelique Kerber'
p63
sg18
(iedu.umass.cs.iesl.wikilink.expanded.data.ttypes
Context
p64
(dp65
g21
S'Angelique Kerber'
p66
sg23
S'and Anna-Lena Gr\xc3\x83\xc2\xb6nefeld nevertheless showed themselves to be a strong team in the 4-1 defeat. Barbara Rittner (l.), Angelique Kerber, Porsche Team Deutschland \xc3\xa2\xe2\x82\xac\xc5\x93We\xc3\xa2\xe2\x82\xac\xe2\x84\xa2re leaving'
p67
sg25
S'via Wikipedia - Eingang Porsche Arena in Stuttgart Though unable able to take their chances in the decisive moments, Sabine Lisicki , Julia G\xc3\x83\xc2\xb6rges ,'
p68
sbsg27
S'9202a8c04000641f8000000005b3da4f'
p69
sg29
I16338
sg30
S'http://en.wikipedia.org/wiki/Angelique_Kerber'
p70
sba(iedu.umass.cs.iesl.wikilink.expanded.data.ttypes
Mention
p71
(dp72
g16
S'Anna-Lena Gr\xc3\x83\xc2\xb6nefeld'
p73
sg18
(iedu.umass.cs.iesl.wikilink.expanded.data.ttypes
Context
p74
(dp75
g21
S'Anna-Lena Gr\xc3\x83\xc2\xb6nefeld'
p76
sg23
S'nevertheless showed themselves to be a strong team in the 4-1 defeat. Barbara Rittner (l.), Angelique Kerber, Porsche Team Deutschland \xc3\xa2\xe2\x82\xac\xc5\x93We\xc3\xa2\xe2\x82\xac\xe2\x84\xa2re leaving Stuttgart with a'
p77
sg25
S'Eingang Porsche Arena in Stuttgart Though unable able to take their chances in the decisive moments, Sabine Lisicki , Julia G\xc3\x83\xc2\xb6rges , Angelique Kerber and'
p78
sbsg27
Nsg29
I16490
sg30
S'http://en.wikipedia.org/wiki/Anna-Lena_Gr%C3%B6nefeld'
p79
sba(iedu.umass.cs.iesl.wikilink.expanded.data.ttypes
Mention
p80
(dp81
g16
S'Iveta Benesova'
p82
sg18
(iedu.umass.cs.iesl.wikilink.expanded.data.ttypes
Context
p83
(dp84
g21
S'Iveta Benesova'
p85
sg23
S'and Julia G\xc3\x83\xc2\xb6rges\xc3\xa2\xe2\x82\xac\xe2\x84\xa2 6-3, 3-6, 8-10 defeat against Petra Kvitova in a high-class tennis thriller, Porsche Team Germany stood with their backs to the wall'
p86
sg25
S'will do our very best to stay in the World Group.\xc3\xa2\xe2\x82\xac\xef\xbf\xbd After Sabine Lisicki surprisingly lost the first rubber on Saturday 6-2, 4-6, 2-6 against'
p87
sbsg27
Nsg29
I17675
sg30
S'http://en.wikipedia.org/wiki/Iveta_Bene%C5%A1ov%C3%A1'
p88
sba(iedu.umass.cs.iesl.wikilink.expanded.data.ttypes
Mention
p89
(dp90
g16
S'Petra Kvitova'
p91
sg18
(iedu.umass.cs.iesl.wikilink.expanded.data.ttypes
Context
p92
(dp93
g21
S'Petra Kvitova'
p94
sg23
S'in a high-class tennis thriller, Porsche Team Germany stood with their backs to the wall on Sunday. This slideshow requires JavaScript. Sabine Lisicki had to'
p95
sg25
S'Group.\xc3\xa2\xe2\x82\xac\xef\xbf\xbd After Sabine Lisicki surprisingly lost the first rubber on Saturday 6-2, 4-6, 2-6 against Iveta Benesova and Julia G\xc3\x83\xc2\xb6rges\xc3\xa2\xe2\x82\xac\xe2\x84\xa2 6-3, 3-6, 8-10 defeat against'
p96
sbsg27
Nsg29
I17860
sg30
S'http://en.wikipedia.org/wiki/Petra_Kvitov%C3%A1'
p97
sba(iedu.umass.cs.iesl.wikilink.expanded.data.ttypes
Mention
p98
(dp99
g16
S'Lucie Hradecka'
p100
sg18
(iedu.umass.cs.iesl.wikilink.expanded.data.ttypes
Context
p101
(dp102
g21
S'Lucie Hradecka'
p103
sg23
S'6-4, 6-4. Lucie Hradecka (CZ) \xc2\xa0 Angelique Kerber, Porsche Team Deutschland \xc3\xa2\xe2\x82\xac\xc5\x93I\xc3\xa2\xe2\x82\xac\xe2\x84\xa2m so proud to have won my first Fed Cup singles for Germany,\xc3\xa2\xe2\x82\xac\xef\xbf\xbd she'
p104
sg25
S'The German, who was one of last season\xc3\xa2\xe2\x82\xac\xe2\x84\xa2s top up-and-coming players after reaching the semifinals at the US Open, had relatively little trouble in overcoming'
p105
sbsg27
Nsg29
I24191
sg30
S'http://en.wikipedia.org/wiki/Lucie_Hradeck%C3%A1'
p106
sbasS'doc_id'
p107
I179918
sS'rare_words'
p108
(lp109
(iedu.umass.cs.iesl.wikilink.expanded.data.ttypes
RareWord
p110
(dp111
S'word'
p112
S'ones'
p113
sS'offset'
p114
I22566
sba(iedu.umass.cs.iesl.wikilink.expanded.data.ttypes
RareWord
p115
(dp116
g112
S'off'
p117
sg114
I22686
sba(iedu.umass.cs.iesl.wikilink.expanded.data.ttypes
RareWord
p118
(dp119
g112
S'Open'
p120
sg114
I24024
sba(iedu.umass.cs.iesl.wikilink.expanded.data.ttypes
RareWord
p121
(dp122
g112
S'weekend'
p123
sg114
I17104
sba(iedu.umass.cs.iesl.wikilink.expanded.data.ttypes
RareWord
p124
(dp125
g112
S'concluding'
p126
sg114
I25298
sba(iedu.umass.cs.iesl.wikilink.expanded.data.ttypes
RareWord
p127
(dp128
g112
S'continued'
p129
sg114
I21892
sba(iedu.umass.cs.iesl.wikilink.expanded.data.ttypes
RareWord
p130
(dp131
g112
S'coming'
p132
sg114
I23969
sba(iedu.umass.cs.iesl.wikilink.expanded.data.ttypes
RareWord
p133
(dp134
g112
S'us'
p135
sg114
I25164
sba(iedu.umass.cs.iesl.wikilink.expanded.data.ttypes
RareWord
p136
(dp137
g112
S'vital'
p138
sg114
I22474
sba(iedu.umass.cs.iesl.wikilink.expanded.data.ttypes
RareWord
p139
(dp140
g112
S'semis'
p141
sg114
I21391
sbasb.