(iedu.umass.cs.iesl.wikilink.expanded.data.ttypes
WikiLinkItem
p0
(dp1
S'url'
p2
S'http://pawn-stars.eu/season-5/163-trigger-happy'
p3
sS'content'
p4
(iedu.umass.cs.iesl.wikilink.expanded.data.ttypes
PageContentItem
p5
(dp6
S'articleText'
p7
NsS'raw'
p8
NsS'fullText'
p9
NsS'dom'
p10
S'<html xml:lang="en-gb" lang="en-gb">\n  <head>\n    <base href="http://pawn-stars.eu/season-5/163-trigger-happy"></base>\n    <meta content="text/html; charset=utf-8" http-equiv="content-type"></meta>\n    <meta content="pawn, stars, full, episodes" name="keywords"></meta>\n    <meta content="Super User" name="author"></meta>\n    <meta content="Pawn stars - Full episodes" name="description"></meta>\n    <meta content="Joomla! - Open Source Content Management" name="generator"></meta>\n    <title>Pawn stars - Episode36 - Trigger Happy</title>\n    <link type="application/opensearchdescription+xml" title="Search Pawn stars" rel="search" href="http://pawn-stars.eu/component/search/?Itemid=107&amp;catid=12&amp;id=163&amp;format=opensearch"></link>\n    <link type="text/css" href="/plugins/content/jw_allvideos/jw_allvideos/tmpl/Classic/css/template.css" rel="stylesheet"></link>\n    <script type="text/javascript" src="/media/system/js/mootools-core.js"></script>\n    <script type="text/javascript" src="/media/system/js/core.js"></script>\n    <script type="text/javascript" src="/media/system/js/caption.js"></script>\n    <script type="text/javascript" src="/plugins/content/jw_allvideos/jw_allvideos/includes/js/behaviour.js"></script>\n    <script type="text/javascript" src="/plugins/content/jw_allvideos/jw_allvideos/includes/js/mediaplayer/jwplayer.js"></script>\n    <script type="text/javascript" src="/plugins/content/jw_allvideos/jw_allvideos/includes/js/wmvplayer/silverlight.js"></script>\n    <script type="text/javascript" src="/plugins/content/jw_allvideos/jw_allvideos/includes/js/wmvplayer/wmvplayer.js"></script>\n    <script type="text/javascript" src="/plugins/content/jw_allvideos/jw_allvideos/includes/js/quicktimeplayer/AC_QuickTime.js"></script>\n    <script type="text/javascript" src="/media/system/js/mootools-more.js"></script>\n    <script type="text/javascript"> window.addEvent(\'load\', function() { new JCaption(\'img.caption\'); }); </script>\n    <link type="text/css" href="/templates/cinemascope/css/defaut.css" rel="stylesheet"></link>\n    <script src="/templates/cinemascope/js/scroll.js" type="text/javascript"></script>\n    <script src="/templates/cinemascope/js/jquery.js" type="text/javascript"></script>\n    <script src="/templates/cinemascope/js/superfish.js" type="text/javascript"></script>\n    <script src="/templates/cinemascope/js/hover.js" type="text/javascript"></script>\n    <script src="/templates/cinemascope/js/innerfade.js" type="text/javascript"></script>\n    <script src="/templates/cinemascope/js/faded.js" type="text/javascript"></script>\n    <script type="text/javascript"> $(document).ready(function() { $(\' .navigation ul \').superfish({ delay: 800, animation: {opacity:\'show\',height:\'show\'}, speed: \'normal\', autoArrows: false, dropShadows: false }); }); </script>\n    <script type="text/javascript"> $(document).ready( function(){ $(\'#news\').innerfade({ animationtype: \'slide\', speed: 750, timeout: 2000, type: \'random\', containerheight: \'1em\' }); }); </script>\n    <script type="text/javascript"> $(function(){ $(&quot;#faded&quot;).faded({ speed: 4000, crossfade: true, autoplay: 5000, autorestart: 500, autopagination:false }); }); </script>\n  </head>\n  <body>\n    <div id="content">\n      <div class="pagewidth">\n        <div id="sitename">\n          <a href="/index.php" shape="rect">\n            <img alt="logotype" height="83" width="546" src="/templates/cinemascope/images/logo.png"></img>\n          </a>\n        </div>\n        <div class="pagewidth2">\n          <div id="content-top">\n            <div id="topmenu">\n              <div class="navigation">\n                <ul class="menu">\n                  <li class="item-101">\n                    <a href="/" shape="rect">Home</a>\n                  </li>\n                  <li class="item-102">\n                    <a href="/season-1" shape="rect">Season 1</a>\n                  </li>\n                  <li class="item-103">\n                    <a href="/season-2" shape="rect">Season 2</a>\n                  </li>\n                  <li class="item-104">\n                    <a href="/season-3" shape="rect">Season 3</a>\n                  </li>\n                  <li class="item-105">\n                    <a href="/season-4" shape="rect">Season 4</a>\n                  </li>\n                  <li class="item-107 current active">\n                    <a href="/season-5" shape="rect">Season 5</a>\n                  </li>\n                  <li class="item-108">\n                    <a href="http://cajun.pawn-stars.eu" shape="rect">Cajun</a>\n                  </li>\n                  <li class="item-109">\n                    <a href="http://hardcorepawn.eu/download" shape="rect">Download</a>\n                  </li>\n                  <li class="item-106">\n                    <a href="http://www.hardcorepawn.eu/contact" shape="rect">Contact</a>\n                  </li>\n                </ul>\n              </div>\n            </div>\n            <div id="content-bottom">\n              <div id="hightlight-t">HOT NEWS:</div>\n              <div id="hightlight-b">\n                <ul id="news">\n                  <li>\n                    <a href="#n1" shape="rect">Season 5 available to watch</a>\n                  </li>\n                  <li>\n                    <a href="#n2" shape="rect">Season 4 available to watch</a>\n                  </li>\n                  <li>\n                    <a href="#n3" shape="rect">Cajun Season 1 and 2 available to watch </a>\n                  </li>\n                </ul>\n              </div>\n              <div id="search">\n                <form action="/season-5" class="inline" method="post" enctype="application/x-www-form-urlencoded">\n                  <div class="search">\n                    <input onfocus="if (this.value==\'Search...\') this.value=\'\';" onblur="if (this.value==\'\') this.value=\'Search...\';" value="Search..." size="20" name="searchword" id="mod-search-searchword" class="inputbox" type="text" maxlength="20"></input>\n                    <input value="search" name="task" type="hidden"></input>\n                    <input value="com_search" name="option" type="hidden"></input>\n                    <input value="107" name="Itemid" type="hidden"></input>\n                  </div>\n                </form>\n              </div>\n            </div>\n          </div>\n          <div id="pathway-w">\n            <div id="pathway">\n              <div id="pathway-b">\n                <div class="breadcrumbs">\n                  <span class="showHere">You are here: </span>\n                  <a href="/" class="pathway" shape="rect">Home</a>\n                  <img alt="" src="/media/system/images/arrow.png"></img>\n                  <a href="/season-5" class="pathway" shape="rect">Season 5</a>\n                  <img alt="" src="/media/system/images/arrow.png"></img>\n                  <span>Episode36 - Trigger Happy</span>\n                </div>\n              </div>\n              <div id="datetime"> 04 -October -2012 - 06:11 </div>\n            </div>\n          </div>\n          <div id="wrapper">\n            <div id="main-full">\n              <link media="all" type="text/css" href="/plugins/content/custompagenavigation/style/style.css" rel="stylesheet"></link>\n              <div class="item-page">\n                <p> </p>\n                <ul class="pagenav">\n                  <li class="pagenav-prev">\n                    <a title="Episode35 - Chum-p Change" rel="next" href="/season-5/162-chum-p-change" shape="rect">\n                      <img src="/plugins/content/custompagenavigation/style/button_L.png"></img>\n                      <span>Episode35 - Chum-p Change </span>\n                    </a>\n                  </li>\n                  <li class="pagenav-next">\n                    <a title="Episode37 - Bossy Pants" rel="prev" href="/season-5/164-bossy-pants" shape="rect">\n                      <img src="/plugins/content/custompagenavigation/style/button_R.png"></img>\n                      <span> Episode37 - Bossy Pants</span>\n                    </a>\n                  </li>\n                </ul>\n                <div style="display:none;" class="pagenavigation_credits">\n                  Powered by\n                  <a target="_blank" title="Web Marketing" href="http://www.e-max.it" shape="rect">Web Marketing</a>\n                </div>\n                <br clear="none"></br>\n                <div class="avPlayerWrapper avVideo">\n                  <div style="width:624px;" class="avPlayerContainer">\n                    <div id="AVPlayerID_f720c8c9_1670873089" class="avPlayerBlock">\n                      <div title="JoomlaWorks allvideos player" style="width:624px;height:352px;" id="avID_AVPlayerID_f720c8c9_1670873089"></div>\n                      <script type="text/javascript">\n                        jwplayer(\'avID_AVPlayerID_f720c8c9_1670873089\').setup({\n        \'file\': \'http://decodni.com/starsodes/season5/PawnStarsS05E36.flv\',\n        \'image\': \'http://decodni.com/starsodes/season5/PawnStarsS05E36.jpg\',\n        \'height\': \'352\',\n        \'width\': \'624\',\n\t\t\'modes\': [\n\t\t\t{ type: \'html5\' },\n\t\t  { type: \'flash\', src: \'/plugins/content/jw_allvideos/jw_allvideos/includes/js/mediaplayer/player.swf\' },\n\t\t  { type: \'download\' }\n\t\t],\n\t\t\'autostart\': \'false\',\n\t\t\'backcolor\': \'#000000\',\n\t\t\'plugins\': {\n\t\t\t\'viral-2\': {\n\t\t\t\t\'onpause\': \'false\',\n\t\t\t\t\'oncomplete\': \'true\'\n\t\t\t}\n\t\t},\n\t\t\'controlbar\': \'bottom\',\n\t\t\'skin\': \'/plugins/content/jw_allvideos/jw_allvideos/includes/js/mediaplayer/skins/bekle/bekle.zip\'\n\t});\n                      </script>\n                    </div>\n                  </div>\n                </div>\n                <center>\n                  <script type="text/javascript">\n                    // &lt;![CDATA[\ngoogle_ad_client = &quot;pub-3287353190323487&quot;;\ngoogle_ad_width = 728;\ngoogle_ad_height = 90;\ngoogle_ad_format = &quot;728x90_as&quot;;\ngoogle_ad_type = &quot;text_image&quot;;\n//2007-07-07: serialreminder\ngoogle_ad_channel = &quot;0027030536&quot;;\ngoogle_color_border = &quot;FFFFFF&quot;;\ngoogle_color_bg = &quot;FFFFFF&quot;;\ngoogle_color_link = &quot;0066CC&quot;;\ngoogle_color_text = &quot;000000&quot;;\ngoogle_color_url = &quot;008000&quot;;\ngoogle_ui_features = &quot;rc:10&quot;;\n// ]]&gt;\n                  </script>\n                  <script src="http://pagead2.googlesyndication.com/pagead/show_ads.js" type="text/javascript">// &lt;![CDATA[ // ]]&gt;</script>\n                </center>\n                <p>\xc3\x82\xc2\xa0</p>\n                <p style="text-align: justify;">\n                  Items appraised include a 35mm\n                  <a title="Bell &amp; Howell" href="http://en.wikipedia.org/wiki/Bell_%26_Howell" shape="rect">Bell &amp; Howell</a>\n                  documentary film camera used by the U.S. Military during World War II; a rare, three-trigger\n                  <a title="Stevens Arms" href="http://en.wikipedia.org/wiki/Stevens_Arms" shape="rect">Stevens shotgun</a>\n                  ; a\n                  <a title="Mercedes-Benz W120/121" href="http://en.wikipedia.org/wiki/Mercedes-Benz_W120/121" shape="rect">1961 Mercedes-Benz 190</a>\n                  that\'s been customized to include features such as 19-inch wheels; and an\n                  <a title="Abraham Lincoln" href="http://en.wikipedia.org/wiki/Abraham_Lincoln" shape="rect">Abraham Lincoln</a>\n                  campaign token from the\n                  <a title="United States presidential election, 1864" href="http://en.wikipedia.org/wiki/United_States_presidential_election,_1864" shape="rect">1864 Presidential election</a>\n                  , which is brought in during the night shift, and requires Olivia to contact Rick.\n                </p>\n                <p>\xc3\x82\xc2\xa0</p>\n              </div>\n            </div>\n          </div>\n          <div id="ftb-f">\n            <div class="ftb">\n              2012\xc2\xa0 Pawn stars\xc2\xa0\xc2\xa0\n              <a title="" href="/" target="_blank" shape="rect"></a>\n              <a title="" href="/" target="_blank" shape="rect"></a>\n            </div>\n            <div id="top">\n              <div class="top_button">\n                <a onclick="scrollToTop();return false;" href="#" shape="rect">\n                  <img alt="top" height="30" width="30" src="/templates/cinemascope/images/top.png"></img>\n                </a>\n              </div>\n            </div>\n          </div>\n          <center>\n            <script type="text/javascript">\n              &lt;!--\ngoogle_ad_client = &quot;pub-3287353190323487&quot;;\ngoogle_ad_width = 728;\ngoogle_ad_height = 90;\ngoogle_ad_format = &quot;728x90_as&quot;;\ngoogle_ad_type = &quot;text_image&quot;;\n//2007-07-07: serialreminder\ngoogle_ad_channel = &quot;0027030536&quot;;\ngoogle_color_border = &quot;FFFFFF&quot;;\ngoogle_color_bg = &quot;FFFFFF&quot;;\ngoogle_color_link = &quot;0066CC&quot;;\ngoogle_color_text = &quot;000000&quot;;\ngoogle_color_url = &quot;008000&quot;;\ngoogle_ui_features = &quot;rc:10&quot;;\n//--&gt;\n            </script>\n            <script src="http://pagead2.googlesyndication.com/pagead/show_ads.js" type="text/javascript"> </script>\n          </center>\n        </div>\n      </div>\n    </div>\n  </body>\n</html>'
p11
sbsS'mentions'
p12
(lp13
(iedu.umass.cs.iesl.wikilink.expanded.data.ttypes
Mention
p14
(dp15
S'anchor_text'
p16
S'Bell & Howell'
p17
sS'context'
p18
(iedu.umass.cs.iesl.wikilink.expanded.data.ttypes
Context
p19
(dp20
S'middle'
p21
S'Bell & Howell'
p22
sS'right'
p23
S"documentary film camera used by the U.S. Military during World War II; a rare, three-trigger Stevens shotgun ; a 1961 Mercedes-Benz 190 that's been customized"
p24
sS'left'
p25
S'Trigger Happy 04 -October -2012 - 06:11 Episode35 - Chum-p Change Episode37 - Bossy Pants Powered by Web Marketing \xc3\x82\xc2\xa0 Items appraised include a 35mm'
p26
sbsS'freebase_id'
p27
NsS'raw_text_offset'
p28
I12055
sS'wiki_url'
p29
S'http://en.wikipedia.org/wiki/Bell_%26_Howell'
p30
sba(iedu.umass.cs.iesl.wikilink.expanded.data.ttypes
Mention
p31
(dp32
g16
S'Stevens shotgun'
p33
sg18
(iedu.umass.cs.iesl.wikilink.expanded.data.ttypes
Context
p34
(dp35
g21
S'Stevens shotgun'
p36
sg23
S"; a 1961 Mercedes-Benz 190 that's been customized to include features such as 19-inch wheels; and an Abraham Lincoln campaign token from the 1864 Presidential"
p37
sg25
S'Marketing \xc3\x82\xc2\xa0 Items appraised include a 35mm Bell & Howell documentary film camera used by the U.S. Military during World War II; a rare, three-trigger'
p38
sbsg27
S'9202a8c04000641f800000000471a2aa'
p39
sg28
I12243
sg29
S'http://en.wikipedia.org/wiki/Stevens_Arms'
p40
sba(iedu.umass.cs.iesl.wikilink.expanded.data.ttypes
Mention
p41
(dp42
g16
S'1961 Mercedes-Benz 190'
p43
sg18
(iedu.umass.cs.iesl.wikilink.expanded.data.ttypes
Context
p44
(dp45
g21
S'1961 Mercedes-Benz 190'
p46
sg23
S"that's been customized to include features such as 19-inch wheels; and an Abraham Lincoln campaign token from the 1864 Presidential election , which is brought"
p47
sg25
S'include a 35mm Bell & Howell documentary film camera used by the U.S. Military during World War II; a rare, three-trigger Stevens shotgun ; a'
p48
sbsg27
Nsg28
I12359
sg29
S'http://en.wikipedia.org/wiki/Mercedes-Benz_W120/121'
p49
sba(iedu.umass.cs.iesl.wikilink.expanded.data.ttypes
Mention
p50
(dp51
g16
S'Abraham Lincoln'
p52
sg18
(iedu.umass.cs.iesl.wikilink.expanded.data.ttypes
Context
p53
(dp54
g21
S'Abraham Lincoln'
p55
sg23
S'campaign token from the 1864 Presidential election , which is brought in during the night shift, and requires Olivia to contact Rick. \xc3\x82\xc2\xa0 2012\xc2\xa0 Pawn'
p56
sg25
S"World War II; a rare, three-trigger Stevens shotgun ; a 1961 Mercedes-Benz 190 that's been customized to include features such as 19-inch wheels; and an"
p57
sbsg27
S'9202a8c04000641f8000000000003bcf'
p58
sg28
I12539
sg29
S'http://en.wikipedia.org/wiki/Abraham_Lincoln'
p59
sba(iedu.umass.cs.iesl.wikilink.expanded.data.ttypes
Mention
p60
(dp61
g16
S'1864 Presidential election'
p62
sg18
(iedu.umass.cs.iesl.wikilink.expanded.data.ttypes
Context
p63
(dp64
g21
S'1864 Presidential election'
p65
sg23
S', which is brought in during the night shift, and requires Olivia to contact Rick. \xc3\x82\xc2\xa0 2012\xc2\xa0 Pawn stars\xc2\xa0\xc2\xa0'
p66
sg25
S"Stevens shotgun ; a 1961 Mercedes-Benz 190 that's been customized to include features such as 19-inch wheels; and an Abraham Lincoln campaign token from the"
p67
sbsg27
S'9202a8c04000641f8000000000050c29'
p68
sg28
I12714
sg29
S'http://en.wikipedia.org/wiki/United_States_presidential_election,_1864'
p69
sbasS'doc_id'
p70
I1525612
sS'rare_words'
p71
(lp72
(iedu.umass.cs.iesl.wikilink.expanded.data.ttypes
RareWord
p73
(dp74
S'word'
p75
S'US'
p76
sS'offset'
p77
I12113
sba(iedu.umass.cs.iesl.wikilink.expanded.data.ttypes
RareWord
p78
(dp79
g75
S"that's"
p80
sg77
I12386
sba(iedu.umass.cs.iesl.wikilink.expanded.data.ttypes
RareWord
p81
(dp82
g75
S'Stevens'
p83
sg77
I12243
sba(iedu.umass.cs.iesl.wikilink.expanded.data.ttypes
RareWord
p84
(dp85
g75
S'Howell'
p86
sg77
I12066
sba(iedu.umass.cs.iesl.wikilink.expanded.data.ttypes
RareWord
p87
(dp88
g75
S'token'
p89
sg77
I12568
sba(iedu.umass.cs.iesl.wikilink.expanded.data.ttypes
RareWord
p90
(dp91
g75
S'customized'
p92
sg77
I12398
sba(iedu.umass.cs.iesl.wikilink.expanded.data.ttypes
RareWord
p93
(dp94
g75
S'World'
p95
sg77
I12134
sba(iedu.umass.cs.iesl.wikilink.expanded.data.ttypes
RareWord
p96
(dp97
g75
S'appraised'
p98
sg77
I11949
sba(iedu.umass.cs.iesl.wikilink.expanded.data.ttypes
RareWord
p99
(dp100
g75
S'such'
p101
sg77
I12429
sba(iedu.umass.cs.iesl.wikilink.expanded.data.ttypes
RareWord
p102
(dp103
g75
S'rare'
p104
sg77
I12150
sbasb.