(iedu.umass.cs.iesl.wikilink.expanded.data.ttypes
WikiLinkItem
p0
(dp1
S'url'
p2
S'http://acommonblog.com/2012/01/what-is-a-geode/'
p3
sS'content'
p4
(iedu.umass.cs.iesl.wikilink.expanded.data.ttypes
PageContentItem
p5
(dp6
S'articleText'
p7
NsS'raw'
p8
NsS'fullText'
p9
NsS'dom'
p10
S'<html lang="en-US" dir="ltr">\n  <head profile="http://gmpg.org/xfn/11">\n    <meta content="text/html; charset=UTF-8" http-equiv="Content-Type"></meta>\n    <title> \xc2\xbb What IS a Geode? A COMMON BLOG</title>\n    <link href="http://acommonblog.com/wp-content/themes/modularity-lite/style.css" type="text/css" rel="stylesheet"></link>\n    <link media="print" type="text/css" href="http://acommonblog.com/wp-content/themes/modularity-lite/css/print.css" rel="stylesheet"></link>\n    <link href="http://acommonblog.com/xmlrpc.php" rel="pingback"></link>\n    <link href="http://acommonblog.com/feed/" title="A COMMON BLOG \xc2\xbb Feed" type="application/rss+xml" rel="alternate"></link>\n    <link href="http://acommonblog.com/comments/feed/" title="A COMMON BLOG \xc2\xbb Comments Feed" type="application/rss+xml" rel="alternate"></link>\n    <link href="http://acommonblog.com/2012/01/what-is-a-geode/feed/" title="A COMMON BLOG \xc2\xbb What IS a Geode? Comments Feed" type="application/rss+xml" rel="alternate"></link>\n    <link media="all" type="text/css" href="http://acommonblog.com/wp-content/plugins/five-star-rating/assets/css/five-star-rating.css?ver=3.2.1" rel="stylesheet" id="five-star-rating-CSS-css"></link>\n    <script src="http://acommonblog.com/wp-includes/js/l10n.js?ver=20101110" type="text/javascript"></script>\n    <script src="http://acommonblog.com/wp-includes/js/jquery/jquery.js?ver=1.6.1" type="text/javascript"></script>\n    <script src="http://acommonblog.com/wp-content/plugins/five-star-rating/assets/js/five-star-rating.min.js?ver=0.1" type="text/javascript"></script>\n    <script src="http://acommonblog.com/wp-content/themes/modularity-lite/js/jquery.cycle.js?ver=3.2.1" type="text/javascript"></script>\n    <link href="http://acommonblog.com/xmlrpc.php?rsd" title="RSD" type="application/rsd+xml" rel="EditURI"></link>\n    <link href="http://acommonblog.com/wp-includes/wlwmanifest.xml" type="application/wlwmanifest+xml" rel="wlwmanifest"></link>\n    <link href="http://acommonblog.com/" title="A COMMON BLOG" rel="index"></link>\n    <link href="http://acommonblog.com/2010/06/hello-pals/" title="Hello Pals!" rel="start"></link>\n    <link href="http://acommonblog.com/2012/01/geode-5-venice-ca/" title="Geode #5, Venice CA" rel="prev"></link>\n    <link href="http://acommonblog.com/2012/01/test-geode/" title="Test Geode" rel="next"></link>\n    <meta content="WordPress 3.2.1" name="generator"></meta>\n    <link href="http://acommonblog.com/2012/01/what-is-a-geode/" rel="canonical"></link>\n    <link href="http://wp.me/p1bv93-df" rel="shortlink"></link>\n    <meta content="A COMMON BLOG" property="og:site_name"></meta>\n    <meta content="What IS a Geode?" property="og:title"></meta>\n    <meta content="http://acommonblog.com/2012/01/what-is-a-geode/" property="og:url"></meta>\n    <meta content="http://acommonblog.com/wp-content/uploads/2012/01/quartz_geode.jpg" property="og:image"></meta>\n    <meta \n    content="My sister had a brilliant idea today. We\'ve been noticing not everyone knows what a geode is or how exactly to pronounce it. We also noticed that many people do know what they are, they just don\'t know they know what they are. The idea was to post about what geodes actually are to help people see wh..." property="og:description">\n</meta>\n    <meta content="article" property="og:type"></meta>\n    <script type="text/javascript">\n      /* &lt;![CDATA[ */ var _wpaudio = {url: \'http://acommonblog.com/wp-content/plugins/wpaudio-mp3-player\', enc: {}, convert_mp3_links: true, style: {text_font:\'Sans-serif\',text_size:\'18px\',text_weight:\'normal\',text_letter_spacing:\'normal\',text_color:\'inherit\',link_color:\'#24f\',link_hover_color:\'#02f\',bar_base_bg:\'#eee\',bar_load_bg:\'#ccc\',bar_position_bg:\'#46f\',sub_color:\'#aaa\'}}; /* ]]&gt; */\n    </script>\n    <style type="text/css"> body { background-color: #e9e9e9; } </style>\n    <style type="text/css"> body { background-image: none; } </style>\n    <script type="text/javascript"> /* &lt;![CDATA[ */ jQuery(document).ready(function(){ jQuery(function() { jQuery(&quot;#slideshow&quot;).cycle({ speed: \'2500\', timeout: \'500\', pause: 1 }); }); }); /* ]]&gt; */ </script>\n  </head>\n  <body class="single single-post postid-821 single-format-standard">\n    <div id="top">\n      <div id="masthead">\n        <h4 class="left">\n          <a title="Home" href="http://acommonblog.com/" class="logo" shape="rect">A COMMON BLOG</a>\n          <span class="description">exploring art and design, one day at a time</span>\n        </h4>\n      </div>\n      <div class="main-nav">\n        <ul id="menu-a-common-name" class="menu">\n          <li id="menu-item-516" class="menu-item menu-item-type-custom menu-item-object-custom menu-item-home menu-item-516">\n            <a href="http://acommonblog.com/" shape="rect">Home</a>\n          </li>\n          <li id="menu-item-515" class="menu-item menu-item-type-post_type menu-item-object-page menu-item-515">\n            <a href="http://acommonblog.com/about/" shape="rect">About</a>\n          </li>\n          <li id="menu-item-513" class="menu-item menu-item-type-custom menu-item-object-custom menu-item-513">\n            <a href="http://www.acommonname.com" shape="rect">A Common Name</a>\n          </li>\n          <li id="menu-item-812" class="menu-item menu-item-type-custom menu-item-object-custom menu-item-812">\n            <a href="http://acommonname.com/street-art-project/" shape="rect">Street Art Project</a>\n          </li>\n          <li id="menu-item-651" class="menu-item menu-item-type-taxonomy menu-item-object-category menu-item-651">\n            <a href="http://acommonblog.com/category/paper-art/" shape="rect">Paper Art</a>\n          </li>\n        </ul>\n      </div>\n      <div class="clear"></div>\n    </div>\n    <div class="container">\n      <div class="container-inner">\n        <div class="span-15 colborder home">\n          <div class="content">\n            <h2>What IS a Geode?</h2>\n            <div style="padding-top:5px;padding-right:0px;padding-bottom:5px;padding-left:0px;;">\n              <iframe \n              src="http://www.linksalpha.com/social?blog=A+COMMON+BLOG&amp;link=http%3A%2F%2Facommonblog.com%2F2012%2F01%2Fwhat-is-a-geode%2F&amp;title=What+IS+a+Geode%3F&amp;desc=My+sister+had+a+brilliant+idea+today.+We%27ve+been+noticing+not+everyone+knows+what+a+geode+is+or+how+exactly+to+pronounce+it.+We+also+noticed+that+many+people+do+know+what+they+are%2C+they+just+don%27t+kno&amp;fc=333333&amp;fs=arial&amp;fblname=like&amp;fblref=facebook&amp;fbllang=en_US&amp;fblshow=1&amp;fbsbutton=1&amp;fbsctr=1&amp;fbslang=en&amp;fbsendbutton=1&amp;twbutton=1&amp;twlang=en&amp;twmention=&amp;twrelated1=&amp;twrelated2=&amp;twctr=1&amp;lnkdshow=noshow&amp;lnkdctr=1&amp;buzzbutton=1&amp;buzzlang=en&amp;buzzctr=1&amp;diggbutton=1&amp;diggctr=1&amp;stblbutton=1&amp;stblctr=1&amp;g1button=1&amp;g1ctr=1&amp;g1lang=en-US" allowtransparency="true" style="height:25px !important; border:0px solid gray !important; overflow:hidden !important; width:550px !important;" scrolling="no" frameborder="0">\n</iframe>\n            </div>\n            <p>\n              My sister had a brilliant idea today. We\xe2\x80\x99ve been noticing not everyone knows what a geode is or how exactly to pronounce it. We also noticed that many people do know what they are, they just don\xe2\x80\x99t know they know what they are. The idea was to post about what geodes actually are to help people see where this project has evolved from. Thanks for the help\xc3\x82\xc2\xa0\n              <a target="_blank" href="http://www.wikipedia.org/" title="Wikipedia" shape="rect">Wikipedia</a>\n              ! (sorry for the not great quality of the photos, I liked these examples most)\n            </p>\n            <p>\n              <a target="_blank" href="http://en.wikipedia.org/wiki/Geode" title="Geode Wikipedia" shape="rect">From Wikipedia</a>\n            </p>\n            <p>\n              <strong>Geodes</strong>\n              \xc3\x82\xc2\xa0(\n              <a href="http://en.wikipedia.org/wiki/Greek_language" title="Greek language" shape="rect">Greek</a>\n              \xc3\x82\xc2\xa0\n              <em>\xc3\x8e\xc2\xb3\xc3\x8e\xc2\xb5\xc3\x8f\xc5\xbd\xc3\x8e\xc5\xbd\xc3\x8e\xc2\xb7\xc3\x8f\xe2\x80\x9a \xe2\x80\x93 ge-\xc3\x85\xef\xbf\xbdd\xc3\x84\xe2\x80\x9cs</em>\n              , \xe2\x80\x9cearthlike\xe2\x80\x9d) are\xc3\x82\xc2\xa0\n              <a href="http://en.wikipedia.org/wiki/Geology" title="Geology" shape="rect">geological</a>\n              \xc3\x82\xc2\xa0secondary sedimentary structures which occur in\xc3\x82\xc2\xa0\n              <a href="http://en.wikipedia.org/wiki/Sedimentary_rocks" title="Sedimentary rocks" shape="rect">sedimentary</a>\n              \xc3\x82\xc2\xa0and certain\xc3\x82\xc2\xa0\n              <a href="http://en.wikipedia.org/wiki/Volcanic" title="Volcanic" shape="rect">volcanic</a>\n              \xc3\x82\xc2\xa0rocks. Geodes are essentially spherical masses of mineral matter that were deposited syngenetically within the rock formations they are found in. Geodes have a\xc3\x82\xc2\xa0\n              <a href="http://en.wikipedia.org/wiki/Chalcedony" title="Chalcedony" shape="rect">chalcedony</a>\n              \xc3\x82\xc2\xa0shell containing various minerals, usually\xc3\x82\xc2\xa0\n              <a href="http://en.wikipedia.org/wiki/Quartz" title="Quartz" shape="rect">quartz</a>\n              . Geodes differ from\xc3\x82\xc2\xa0\n              <a href="http://en.wikipedia.org/wiki/Vug" title="Vug" shape="rect">vugs</a>\n              \xc3\x82\xc2\xa0in that they were formed as a separate entity from the surrounding rock, whereas vugs are voids or cavities within a rock formation. Geodes also differ from \xe2\x80\x9cnodules\xe2\x80\x9d in that a nodule is a mass of mineral matter that has accreted around the nodule nucleous. Both structures had the minerals contained within deposited from groundwater or hydrothermal processes. The exterior of most geodes generally consists of chalcedony, a cryptocrystalline form of quartz. Inside the chalcedony shell many minerals have been found such as\xc3\x82\xc2\xa0\n              <a href="http://en.wikipedia.org/wiki/Calcite" title="Calcite" shape="rect">calcite</a>\n              ,\xc3\x82\xc2\xa0\n              <a href="http://en.wikipedia.org/wiki/Pyrite" title="Pyrite" shape="rect">pyrite</a>\n              ,\xc3\x82\xc2\xa0\n              <a href="http://en.wikipedia.org/wiki/Kaolinite" title="Kaolinite" shape="rect">kaolinite</a>\n              ,\xc3\x82\xc2\xa0\n              <a href="http://en.wikipedia.org/wiki/Sphalerite" title="Sphalerite" shape="rect">sphalerite</a>\n              ,\xc3\x82\xc2\xa0\n              <a href="http://en.wikipedia.org/wiki/Millerite" title="Millerite" shape="rect">millerite</a>\n              ,\xc3\x82\xc2\xa0\n              <a href="http://en.wikipedia.org/wiki/Barite" title="Barite" shape="rect">barite</a>\n              ,\xc3\x82\xc2\xa0\n              <a href="http://en.wikipedia.org/wiki/Dolomite" title="Dolomite" shape="rect">dolomite</a>\n              ,\xc3\x82\xc2\xa0\n              <a href="http://en.wikipedia.org/wiki/Limonite" title="Limonite" shape="rect">limonite</a>\n              ,\xc3\x82\xc2\xa0\n              <a href="http://en.wikipedia.org/wiki/Smithsonite" title="Smithsonite" shape="rect">smithsonite</a>\n              \xc3\x82\xc2\xa0and quartz, which is by far the most common and abundant mineral found in geodes. Geodes are found mostly in\xc3\x82\xc2\xa0\n              <a href="http://en.wikipedia.org/wiki/Basalt" title="Basalt" shape="rect">basaltic</a>\n              \xc3\x82\xc2\xa0\n              <a href="http://en.wikipedia.org/wiki/Lava" title="Lava" shape="rect">lavas</a>\n              \xc3\x82\xc2\xa0and\xc3\x82\xc2\xa0\n              <a href="http://en.wikipedia.org/wiki/Limestone" title="Limestone" shape="rect">limestones</a>\n              . The\xc3\x82\xc2\xa0\n              <a href="http://en.wikipedia.org/w/index.php?title=Warsaw_Formation&amp;action=edit&amp;redlink=1" title="Warsaw Formation (page does not exist)" shape="rect">Warsaw Formation</a>\n              \xc3\x82\xc2\xa0in the\xc3\x82\xc2\xa0\n              <a href="http://en.wikipedia.org/wiki/Keokuk,_Iowa" title="Keokuk, Iowa" shape="rect">Keokuk</a>\n              \xc3\x82\xc2\xa0region near the area where Missouri, Iowa, and Illinois join contains abundant geodes.\n            </p>\n            <p>\xc2\xa0</p>\n            <h2>Formation</h2>\n            <p>\n              Geodes can form in any cavity, but the term is usually reserved for more or less rounded formations in igneous and sedimentary rocks, while the more general term \xe2\x80\x9cvug\xe2\x80\x9d is applied to cavities in fissures and veins. They can form in gas bubbles in\xc3\x82\xc2\xa0\n              <a href="http://en.wikipedia.org/wiki/Igneous_rock" title="Igneous rock" shape="rect">igneous rocks</a>\n              , such as vesicles in basaltic\xc3\x82\xc2\xa0\n              <a href="http://en.wikipedia.org/wiki/Lavas" title="Lavas" shape="rect">lavas</a>\n              , or as in the American\xc3\x82\xc2\xa0\n              <a href="http://en.wikipedia.org/wiki/Midwest" title="Midwest" shape="rect">Midwest</a>\n              , rounded cavities in sedimentary formations. After rock around the cavity hardens, dissolved\xc3\x82\xc2\xa0\n              <a href="http://en.wikipedia.org/wiki/Silicate" title="Silicate" shape="rect">silicates</a>\n              \xc3\x82\xc2\xa0and/or\xc3\x82\xc2\xa0\n              <a href="http://en.wikipedia.org/wiki/Carbonate" title="Carbonate" shape="rect">carbonates</a>\n              \xc3\x82\xc2\xa0are deposited on the inside surface. Over time, this slow feed of mineral constituents from\xc3\x82\xc2\xa0\n              <a href="http://en.wikipedia.org/wiki/Groundwater" title="Groundwater" shape="rect">groundwater</a>\n              \xc3\x82\xc2\xa0or\xc3\x82\xc2\xa0\n              <a href="http://en.wikipedia.org/wiki/Hydrothermal" title="Hydrothermal" shape="rect">hydrothermal</a>\n              \xc3\x82\xc2\xa0solutions allows crystals to form inside the hollow chamber. Bedrock containing geodes eventually weathers and decomposes, leaving them present at the surface if they are composed of resistant material such as quartz.\n            </p>\n            <div style="width: 610px" id="attachment_822" class="wp-caption aligncenter">\n              <a rel="attachment wp-att-822" href="http://acommonblog.com/2012/01/what-is-a-geode/quartz_geode/" shape="rect">\n                <img height="946" width="600" alt="" src="http://acommonblog.com/wp-content/uploads/2012/01/quartz_geode.jpg" title="Quartz Geode" class="size-full wp-image-822"></img>\n              </a>\n              <p class="wp-caption-text">Quartz Geode</p>\n            </div>\n            <div style="width: 610px" id="attachment_823" class="wp-caption aligncenter">\n              <a rel="attachment wp-att-823" href="http://acommonblog.com/2012/01/what-is-a-geode/amethyst_geode/" shape="rect">\n                <img height="421" width="600" alt="Amethyst Geode" src="http://acommonblog.com/wp-content/uploads/2012/01/amethyst_geode.jpg" title="Amethyst Geode" class="size-full wp-image-823"></img>\n              </a>\n              <p class="wp-caption-text">Amethyst Geode</p>\n            </div>\n            <div style="width: 610px" id="attachment_824" class="wp-caption aligncenter">\n              <a rel="attachment wp-att-824" href="http://acommonblog.com/2012/01/what-is-a-geode/amethyst_geode2/" shape="rect">\n                <img height="450" width="600" alt="" src="http://acommonblog.com/wp-content/uploads/2012/01/amethyst_geode2.jpg" title="Amethyst Geode" class="size-full wp-image-824"></img>\n              </a>\n              <p class="wp-caption-text">Amethyst Geode 2</p>\n            </div>\n            <div style="padding-top:5px;padding-right:0px;padding-bottom:5px;padding-left:0px;;">\n              <iframe \n              src="http://www.linksalpha.com/social?blog=A+COMMON+BLOG&amp;link=http%3A%2F%2Facommonblog.com%2F2012%2F01%2Fwhat-is-a-geode%2F&amp;title=What+IS+a+Geode%3F&amp;desc=My+sister+had+a+brilliant+idea+today.+We%27ve+been+noticing+not+everyone+knows+what+a+geode+is+or+how+exactly+to+pronounce+it.+We+also+noticed+that+many+people+do+know+what+they+are%2C+they+just+don%27t+kno&amp;fc=333333&amp;fs=arial&amp;fblname=like&amp;fblref=facebook&amp;fbllang=en_US&amp;fblshow=1&amp;fbsbutton=1&amp;fbsctr=1&amp;fbslang=en&amp;fbsendbutton=1&amp;twbutton=1&amp;twlang=en&amp;twmention=&amp;twrelated1=&amp;twrelated2=&amp;twctr=1&amp;lnkdshow=noshow&amp;lnkdctr=1&amp;buzzbutton=1&amp;buzzlang=en&amp;buzzctr=1&amp;diggbutton=1&amp;diggctr=1&amp;stblbutton=1&amp;stblctr=1&amp;g1button=1&amp;g1ctr=1&amp;g1lang=en-US" allowtransparency="true" style="height:25px !important; border:0px solid gray !important; overflow:hidden !important; width:550px !important;" scrolling="no" frameborder="0">\n</iframe>\n            </div>\n          </div>\n          <div class="clear"></div>\n          <p class="postmetadata alt">\n            <small>\n              This entry was posted on January 5, 2012. It was filed under\n              <a rel="category tag" title="View all posts in Inspiration" href="http://acommonblog.com/category/inspiration/" shape="rect">Inspiration</a>\n              and was tagged with\n              <a rel="tag" href="http://acommonblog.com/tag/a-common-name/" shape="rect">A Common Name</a>\n              ,\n              <a rel="tag" href="http://acommonblog.com/tag/geodes/" shape="rect">geodes</a>\n              ,\n              <a rel="tag" href="http://acommonblog.com/tag/paige-smith/" shape="rect">Paige Smith</a>\n              ,\n              <a rel="tag" href="http://acommonblog.com/tag/wikipedia-link/" shape="rect">wikipedia link</a>\n              .\n            </small>\n          </p>\n          <div class="nav next right">\n            <a rel="next" href="http://acommonblog.com/2012/01/test-geode/" shape="rect">\xe2\x86\x92</a>\n          </div>\n          <div class="nav prev left">\n            <a rel="prev" href="http://acommonblog.com/2012/01/geode-5-venice-ca/" shape="rect">\xe2\x86\x90</a>\n          </div>\n          <div class="clear"></div>\n          <h3 id="comments">9 Responses</h3>\n          <ol class="commentlist snap_preview">\n            <li class="pingback">\n              <p>\n                Pingback:\n                <a rel="external nofollow" href="http://www.null-entropy.com/2012/03/street-art-geodes-made-of-paper-by-paige-smith-via-colossal/" class="url" shape="rect">Street art geodes made of paper, by Paige Smith. (Via Colossal) | Null Entropy</a>\n              </p>\n            </li>\n            <li class="pingback">\n              <p>\n                Pingback:\n                <a rel="external nofollow" href="http://gjproject.com/2012/03/29/geological-street-art/" class="url" shape="rect">Geological Street Art | GJ Project</a>\n              </p>\n            </li>\n            <li class="pingback">\n              <p>\n                Pingback:\n                <a rel="external nofollow" href="http://poulpe-et-cocaine.com/laurent/writerdatabase/2012/03/30/paige-smith-of-a-common-name-has-been-installing/" class="url" shape="rect">Paige Smith of\xc3\x82\xc2\xa0A Common Name\xc3\x82\xc2\xa0has been installing\xe2\x80\xa6 | HEY LAURENT IS HERE</a>\n              </p>\n            </li>\n            <li class="pingback">\n              <p>\n                Pingback:\n                <a rel="external nofollow" href="http://www.artitsok.com/geological-street-art-seen-on-the-streets-of-l-a/" class="url" shape="rect">Geological Street Art Seen on the Streets of L.A. | art it\'s ok</a>\n              </p>\n            </li>\n            <li class="pingback">\n              <p>\n                Pingback:\n                <a rel="external nofollow" href="http://www.null-entropy.com/2012/03/geological-street-art-seen-on-the-streets-of-l-a/" class="url" shape="rect">Geological Street Art Seen on the Streets of L.A. | Null Entropy</a>\n              </p>\n            </li>\n            <li class="pingback">\n              <p>\n                Pingback:\n                <a rel="external nofollow" href="http://the-design-ark.com/2012/03/geological-street-art-on-the-streets-of-l-a/" class="url" shape="rect">The Design Ark - Design and Lifestyle Blog</a>\n              </p>\n            </li>\n            <li class="pingback">\n              <p>\n                Pingback:\n                <a rel="external nofollow" href="http://funniez.com/geological-street-art-seen-on-the-streets-of-l-a/" class="url" shape="rect">Geological Street Art Seen on the Streets of L.A. | Funniez.com</a>\n              </p>\n            </li>\n            <li class="pingback">\n              <p>\n                Pingback:\n                <a rel="external nofollow" href="http://www.mutantspace.com/street-art-using-paper-in-crumbling-buildings/" class="url" shape="rect">Street Art Using Paper In Crumbling Buildings | Mutantspace</a>\n              </p>\n            </li>\n            <li class="pingback">\n              <p>\n                Pingback:\n                <a rel="external nofollow" href="http://sexyfunnyawesome.com/wordpress/archives/1200" class="url" shape="rect">Sexy Funny Awesome</a>\n              </p>\n            </li>\n          </ol>\n          <div id="respond">\n            <h3 id="reply-title">\n              Leave a Reply\n              <small>\n                <a style="display:none;" href="/2012/01/what-is-a-geode/#respond" rel="nofollow" id="cancel-comment-reply-link" shape="rect">Cancel reply</a>\n              </small>\n            </h3>\n            <form action="http://acommonblog.com/wp-comments-post.php" id="commentform" method="post" enctype="application/x-www-form-urlencoded">\n              <p class="comment-notes">\n                Your email address will not be published. Required fields are marked\n                <span class="required">*</span>\n              </p>\n              <p class="comment-form-author">\n                <label for="author">Name</label>\n                <span class="required">*</span>\n                <input aria-required="true" size="30" value="" name="author" id="author" type="text"></input>\n              </p>\n              <p class="comment-form-email">\n                <label for="email">Email</label>\n                <span class="required">*</span>\n                <input aria-required="true" size="30" value="" name="email" id="email" type="text"></input>\n              </p>\n              <p class="comment-form-url">\n                <label for="url">Website</label>\n                <input size="30" value="" name="url" id="url" type="text"></input>\n              </p>\n              <div class="captchaSizeDivLarge">\n                <img title="CAPTCHA Image" alt="CAPTCHA Image" height="60" width="175" src="http://acommonblog.com/wp-content/plugins/si-captcha-for-wordpress/captcha/securimage_show.php?si_form_id=com&amp;prefix=lr34P5zNqbuQ8vfC" id="si_image_com" class="si-captcha"></img>\n                <input value="lr34P5zNqbuQ8vfC" name="si_code_com" id="si_code_com" type="hidden"></input>\n                <div id="si_refresh_com">\n                  <a \n                  onclick="si_captcha_refresh(\'si_image_com\',\'com\',\'noaudio\',\'/wp-content/plugins/si-captcha-for-wordpress/captcha\',\'http://acommonblog.com/wp-content/plugins/si-captcha-for-wordpress/captcha/securimage_show.php?si_form_id=com&amp;prefix=\'); return false;" title="Refresh Image" rel="nofollow" href="#" shape="rect">\n                    <img onclick="this.blur();" alt="Refresh Image" height="20" width="22" src="http://acommonblog.com/wp-content/plugins/si-captcha-for-wordpress/captcha/images/refresh.png" class="captchaImgRefresh"></img>\n</a>\n                </div>\n              </div>\n              <br clear="none"></br>\n              <p>\n                <input size="6" name="captcha_code" id="captcha_code" type="text"></input>\n                <label id="captcha_code_label" for="captcha_code">CAPTCHA Code</label>\n                <span class="required"> *</span>\n              </p>\n              <p class="comment-form-comment">\n                <label for="comment">Comment</label>\n                <textarea aria-required="true" name="comment" id="comment" rows="8" cols="45"></textarea>\n              </p>\n              <p class="form-allowed-tags">\n                You may use these\n                <abbr title="HyperText Markup Language">HTML</abbr>\n                tags and attributes:\n                <code>\n                  &lt;a href=&quot;&quot; title=&quot;&quot;&gt; &lt;abbr title=&quot;&quot;&gt; &lt;acronym title=&quot;&quot;&gt; &lt;b&gt; &lt;blockquote cite=&quot;&quot;&gt; &lt;cite&gt; &lt;code&gt; &lt;del datetime=&quot;&quot;&gt; &lt;em&gt; &lt;i&gt; &lt;q cite=&quot;&quot;&gt; &lt;strike&gt; &lt;strong&gt;\n                </code>\n              </p>\n              <p class="form-submit">\n                <input value="Post Comment" name="submit" id="submit" type="submit"></input>\n                <input value="821" name="comment_post_ID" id="comment_post_ID" type="hidden"></input>\n                <input value="0" name="comment_parent" id="comment_parent" type="hidden"></input>\n              </p>\n              <p style="display: none;">\n                <input value="ca89413220" name="akismet_comment_nonce" id="akismet_comment_nonce" type="hidden"></input>\n              </p>\n              <p class="comment-subscription-form">\n                <input style="width: auto; -moz-appearance: checkbox; -webkit-appearance: checkbox;" value="subscribe" name="subscribe_comments" id="subscribe_comments" type="checkbox"></input>\n                <label id="subscribe-label" class="subscribe-label" for="subscribe_comments">Notify me of follow-up comments by email.</label>\n              </p>\n              <p class="comment-subscription-form">\n                <input style="width: auto; -moz-appearance: checkbox; -webkit-appearance: checkbox;" value="subscribe" name="subscribe_blog" id="subscribe_blog" type="checkbox"></input>\n                <label id="subscribe-blog-label" class="subscribe-label" for="subscribe_blog">Notify me of new posts by email.</label>\n              </p>\n            </form>\n          </div>\n        </div>\n      </div>\n      <div class="span-8 last">\n        <div id="sidebar">\n          <div id="image-3" class="item widget_image">\n            <h3 class="sub">Welcome to A Common Name\xe2\x80\x99s Blog</h3>\n            <div style="overflow:hidden;">\n              <div style="width: 322px" class="wp-caption alignleft">\n                <a href="http://www.acommonname.com" shape="rect">\n                  <img height="312" width="312" title="Paige Smith" src="http://www.acommonname.com/acommonname.jpg"></img>\n                </a>\n                <p class="wp-caption-text">Artist and graphic designer blog dedicated to exploring creative process and making paper things.</p>\n              </div>\n            </div>\n          </div>\n          <div id="blog_subscription-4" class="item jetpack_subscription_widget">\n            <h3 class="sub">\n              <label for="subscribe-field">Subscribe to A Common Blog via Email</label>\n            </h3>\n            <a name="subscribe-blog" shape="rect"></a>\n            <form accept-charset="utf-8" action="" id="subscribe-blog" method="post" enctype="application/x-www-form-urlencoded">\n              <p>Enter your email address to subscribe to this blog and receive notifications of new posts by email.</p>\n              <p>\n                <input onblur="if ( this.value == \'\' ) { this.value = \'Email Address\'; }" onclick="if ( this.value == \'Email Address\' ) { this.value = \'\'; }" value="Email Address" style="width: 95%; padding: 1px 2px" name="email" id="subscribe-field" type="text"></input>\n              </p>\n              <p>\n                <input value="subscribe" name="action" type="hidden"></input>\n                <input value="http://acommonblog.com/2012/01/what-is-a-geode/" name="source" type="hidden"></input>\n                <input value="widget" name="sub-type" type="hidden"></input>\n                <input value="blog_subscription-4" name="redirect_fragment" type="hidden"></input>\n                <input value="a23cafc31e" name="_wpnonce" id="_wpnonce" type="hidden"></input>\n                <input name="jetpack_subscriptions_widget" value="Subscribe" type="submit"></input>\n              </p>\n            </form>\n          </div>\n          <div id="text-3" class="item widget_text">\n            <div class="textwidget">\n              <a title="A Common Name" style="font-family: &quot;lucida grande&quot;,tahoma,verdana,arial,sans-serif; font-size: 11px; font-variant: normal; font-style: normal; font-weight: normal; color: #3B5998; text-decoration: none;" target="_TOP" href="https://www.facebook.com/ACommonName" shape="rect">\n                A Common Name on Facebook\n              </a>\n              <span style="font-family: &quot;lucida grande&quot;,tahoma,verdana,arial,sans-serif; font-size: 11px; line-height: 16px; font-variant: normal; font-style: normal; font-weight: normal; color: #555555; text-decoration: none;"></span>\n              <br clear="none"></br>\n              <a title="A Common Name" target="_TOP" href="https://www.facebook.com/ACommonName" shape="rect">\n                <img style="border: 0px;" src="https://badge.facebook.com/badge/370733319637505.2594.1593797107.png"></img>\n              </a>\n            </div>\n          </div>\n          <div id="twitter-5" class="item widget_twitter">\n            <h3 class="sub">\n              <a href="http://twitter.com/ACommonBlog" shape="rect">Twitter @ACommonBlog</a>\n            </h3>\n            <p>Error: Twitter did not respond. Please wait a few minutes and refresh this page.</p>\n          </div>\n          <div id="categories-4" class="item widget_categories">\n            <h3 class="sub">Categories</h3>\n            <ul>\n              <li class="cat-item cat-item-126">\n                <a title="View all posts filed under Ceramics" href="http://acommonblog.com/category/ceramics/" shape="rect">Ceramics</a>\n              </li>\n              <li class="cat-item cat-item-16">\n                <a title="View all posts filed under Drawing" href="http://acommonblog.com/category/drawing/" shape="rect">Drawing</a>\n              </li>\n              <li class="cat-item cat-item-93">\n                <a title="View all posts filed under Graphic Design" href="http://acommonblog.com/category/graphic-design/" shape="rect">Graphic Design</a>\n              </li>\n              <li class="cat-item cat-item-10">\n                <a title="View all posts filed under Illustration" href="http://acommonblog.com/category/illustration/" shape="rect">Illustration</a>\n              </li>\n              <li class="cat-item cat-item-8">\n                <a title="View all posts filed under Inspiration" href="http://acommonblog.com/category/inspiration/" shape="rect">Inspiration</a>\n              </li>\n              <li class="cat-item cat-item-7">\n                <a title="View all posts filed under Knitting" href="http://acommonblog.com/category/knitting/" shape="rect">Knitting</a>\n              </li>\n              <li class="cat-item cat-item-120">\n                <a title="View all posts filed under Logo Design" href="http://acommonblog.com/category/logo-design/" shape="rect">Logo Design</a>\n              </li>\n              <li class="cat-item cat-item-12">\n                <a title="View all posts filed under Motion Graphics" href="http://acommonblog.com/category/motion-graphics/" shape="rect">Motion Graphics</a>\n              </li>\n              <li class="cat-item cat-item-203">\n                <a title="View all posts filed under Painting" href="http://acommonblog.com/category/painting-2/" shape="rect">Painting</a>\n              </li>\n              <li class="cat-item cat-item-9">\n                <a title="View all posts filed under Paper Art" href="http://acommonblog.com/category/paper-art/" shape="rect">Paper Art</a>\n              </li>\n              <li class="cat-item cat-item-14">\n                <a title="View all posts filed under Photography" href="http://acommonblog.com/category/photography/" shape="rect">Photography</a>\n              </li>\n              <li class="cat-item cat-item-121">\n                <a title="View all posts filed under Printing" href="http://acommonblog.com/category/printing/" shape="rect">Printing</a>\n              </li>\n              <li class="cat-item cat-item-13">\n                <a title="View all posts filed under Sculpture" href="http://acommonblog.com/category/sculpture/" shape="rect">Sculpture</a>\n              </li>\n              <li class="cat-item cat-item-167">\n                <a title="View all posts filed under Street Art" href="http://acommonblog.com/category/street-art/" shape="rect">Street Art</a>\n              </li>\n              <li class="cat-item cat-item-63">\n                <a title="View all posts filed under Tactile Art" href="http://acommonblog.com/category/tactile-art/" shape="rect">Tactile Art</a>\n              </li>\n              <li class="cat-item cat-item-15">\n                <a title="View all posts filed under Typography" href="http://acommonblog.com/category/typography/" shape="rect">Typography</a>\n              </li>\n              <li class="cat-item cat-item-1">\n                <a title="View all posts filed under Uncategorized" href="http://acommonblog.com/category/uncategorized/" shape="rect">Uncategorized</a>\n              </li>\n              <li class="cat-item cat-item-26">\n                <a title="View all posts filed under Video" href="http://acommonblog.com/category/video/" shape="rect">Video</a>\n              </li>\n              <li class="cat-item cat-item-11">\n                <a title="View all posts filed under Websites" href="http://acommonblog.com/category/websites/" shape="rect">Websites</a>\n              </li>\n            </ul>\n          </div>\n        </div>\n      </div>\n      <div class="clear"></div>\n    </div>\n    <div id="footer-wrap">\n      <div id="footer">\n        <div class="span-6 small"> </div>\n        <div class="column span-6 small"> </div>\n        <div class="column span-6 small"> </div>\n        <div class="column span-6 small last"> </div>\n        <div class="clear"></div>\n        <p class="small quiet">\n          Theme: Modularity Lite by\n          <a rel="designer" href="http://graphpaperpress.com/" shape="rect">Graph Paper Press</a>\n          .\n        </p>\n      </div>\n    </div>\n    <script src="http://acommonblog.com/wp-content/plugins/wpaudio-mp3-player/wpaudio.min.js?ver=3.1" type="text/javascript"></script>\n    <script src="http://acommonblog.com/wp-content/plugins/si-captcha-for-wordpress/captcha/si_captcha.js?ver=1.0" type="text/javascript"></script>\n    <script type="text/javascript">\n      //&lt;![CDATA[\nvar si_captcha_styles = &quot;\\\n&lt;!-- begin SI Captcha Anti-Spam - comment form style --&gt;\\\n&lt;style type=\'text/css\'&gt;\\\ndiv#captchaImgDiv { display:block; }\\\n.captchaSizeDivSmall { width:175px; height:45px; padding-top:10px; }\\\n.captchaSizeDivLarge { width:250px; height:60px; padding-top:10px; }\\\nimg#si_image_com,#si_image_reg,#si_image_log,#si_image_side_login { border-style:none; margin:0; padding-right:5px; float:left; }\\\n.captchaImgAudio { border-style:none; margin:0; vertical-align:top; }\\\n.captchaImgRefresh { border-style:none; margin:0; vertical-align:bottom; }\\\ndiv#captchaInputDiv { display:block; padding-top:15px; padding-bottom:5px; }\\\nlabel#captcha_code_label { margin:0; }\\\ninput#captcha_code { width:65px; }\\\n&lt;/style&gt;\\\n&lt;!-- end SI Captcha Anti-Spam - comment form style --&gt;\\\n&quot;;\njQuery(document).ready(function($) {\n$(\'head\').append(si_captcha_styles);\n});\n//]]&gt;\n    </script>\n    <script src="http://s.gravatar.com/js/gprofiles.js?aa&amp;ver=3.2.1" type="text/javascript"></script>\n    <script type="text/javascript"> /* &lt;![CDATA[ */ var WPGroHo = { my_hash: &quot;&quot; }; /* ]]&gt; */ </script>\n    <script src="http://acommonblog.com/wp-content/plugins/jetpack/modules/wpgroho.js?ver=3.2.1" type="text/javascript"></script>\n    <div style="display:none"> </div>\n    <script type="text/javascript" src="http://stats.wordpress.com/e-201240.js"></script>\n    <script type="text/javascript"> st_go({v:\'ext\',j:\'1:1.2.2\',blog:\'17517669\',post:\'821\'}); var load_cmc = function(){linktracker_init(17517669,821,2);}; if ( typeof addLoadEvent != \'undefined\' ) addLoadEvent(load_cmc); else load_cmc(); </script>\n    <style type="text/css">img#wpstats{display:none}</style>\n  </body>\n</html>'
p11
sbsS'mentions'
p12
(lp13
(iedu.umass.cs.iesl.wikilink.expanded.data.ttypes
Mention
p14
(dp15
S'anchor_text'
p16
S'Greek'
p17
sS'context'
p18
(iedu.umass.cs.iesl.wikilink.expanded.data.ttypes
Context
p19
(dp20
S'middle'
p21
S'Greek'
p22
sS'right'
p23
S'\xc3\x82\xc2\xa0 \xc3\x8e\xc2\xb3\xc3\x8e\xc2\xb5\xc3\x8f\xc5\xbd\xc3\x8e\xc5\xbd\xc3\x8e\xc2\xb7\xc3\x8f\xe2\x80\x9a \xe2\x80\x93 ge-\xc3\x85\xef\xbf\xbdd\xc3\x84\xe2\x80\x9cs , \xe2\x80\x9cearthlike\xe2\x80\x9d) are\xc3\x82\xc2\xa0 geological \xc3\x82\xc2\xa0secondary sedimentary structures which occur in\xc3\x82\xc2\xa0 sedimentary \xc3\x82\xc2\xa0and certain\xc3\x82\xc2\xa0 volcanic \xc3\x82\xc2\xa0rocks. Geodes are essentially spherical masses of'
p24
sS'left'
p25
S'from. Thanks for the help\xc3\x82\xc2\xa0 Wikipedia ! (sorry for the not great quality of the photos, I liked these examples most) From Wikipedia Geodes \xc3\x82\xc2\xa0('
p26
sbsS'freebase_id'
p27
S'9202a8c04000641f8000000000019138'
p28
sS'raw_text_offset'
p29
I8000
sS'wiki_url'
p30
S'http://en.wikipedia.org/wiki/Greek_language'
p31
sba(iedu.umass.cs.iesl.wikilink.expanded.data.ttypes
Mention
p32
(dp33
g16
S'sedimentary'
p34
sg18
(iedu.umass.cs.iesl.wikilink.expanded.data.ttypes
Context
p35
(dp36
g21
S'sedimentary'
p37
sg23
S'\xc3\x82\xc2\xa0and certain\xc3\x82\xc2\xa0 volcanic \xc3\x82\xc2\xa0rocks. Geodes are essentially spherical masses of mineral matter that were deposited syngenetically within the rock formations they are found in. Geodes'
p38
sg25
S'photos, I liked these examples most) From Wikipedia Geodes \xc3\x82\xc2\xa0( Greek \xc3\x82\xc2\xa0 \xc3\x8e\xc2\xb3\xc3\x8e\xc2\xb5\xc3\x8f\xc5\xbd\xc3\x8e\xc5\xbd\xc3\x8e\xc2\xb7\xc3\x8f\xe2\x80\x9a \xe2\x80\x93 ge-\xc3\x85\xef\xbf\xbdd\xc3\x84\xe2\x80\x9cs , \xe2\x80\x9cearthlike\xe2\x80\x9d) are\xc3\x82\xc2\xa0 geological \xc3\x82\xc2\xa0secondary sedimentary structures which occur in\xc3\x82\xc2\xa0'
p39
sbsg27
S'9202a8c04000641f8000000000058cee'
p40
sg29
I8293
sg30
S'http://en.wikipedia.org/wiki/Sedimentary_rocks'
p41
sba(iedu.umass.cs.iesl.wikilink.expanded.data.ttypes
Mention
p42
(dp43
g16
S'volcanic'
p44
sg18
(iedu.umass.cs.iesl.wikilink.expanded.data.ttypes
Context
p45
(dp46
g21
S'volcanic'
p47
sg23
S'\xc3\x82\xc2\xa0rocks. Geodes are essentially spherical masses of mineral matter that were deposited syngenetically within the rock formations they are found in. Geodes have a\xc3\x82\xc2\xa0 chalcedony'
p48
sg25
S'these examples most) From Wikipedia Geodes \xc3\x82\xc2\xa0( Greek \xc3\x82\xc2\xa0 \xc3\x8e\xc2\xb3\xc3\x8e\xc2\xb5\xc3\x8f\xc5\xbd\xc3\x8e\xc5\xbd\xc3\x8e\xc2\xb7\xc3\x8f\xe2\x80\x9a \xe2\x80\x93 ge-\xc3\x85\xef\xbf\xbdd\xc3\x84\xe2\x80\x9cs , \xe2\x80\x9cearthlike\xe2\x80\x9d) are\xc3\x82\xc2\xa0 geological \xc3\x82\xc2\xa0secondary sedimentary structures which occur in\xc3\x82\xc2\xa0 sedimentary \xc3\x82\xc2\xa0and certain\xc3\x82\xc2\xa0'
p49
sbsg27
S'9202a8c04000641f800000000003fd3f'
p50
sg29
I8388
sg30
S'http://en.wikipedia.org/wiki/Volcanic'
p51
sba(iedu.umass.cs.iesl.wikilink.expanded.data.ttypes
Mention
p52
(dp53
g16
S'chalcedony'
p54
sg18
(iedu.umass.cs.iesl.wikilink.expanded.data.ttypes
Context
p55
(dp56
g21
S'chalcedony'
p57
sg23
S'\xc3\x82\xc2\xa0shell containing various minerals, usually\xc3\x82\xc2\xa0 quartz . Geodes differ from\xc3\x82\xc2\xa0 vugs \xc3\x82\xc2\xa0in that they were formed as a separate entity from the surrounding rock, whereas'
p58
sg25
S'volcanic \xc3\x82\xc2\xa0rocks. Geodes are essentially spherical masses of mineral matter that were deposited syngenetically within the rock formations they are found in. Geodes have a\xc3\x82\xc2\xa0'
p59
sbsg27
S'9202a8c04000641f8000000000059287'
p60
sg29
I8632
sg30
S'http://en.wikipedia.org/wiki/Chalcedony'
p61
sba(iedu.umass.cs.iesl.wikilink.expanded.data.ttypes
Mention
p62
(dp63
g16
S'quartz'
p64
sg18
(iedu.umass.cs.iesl.wikilink.expanded.data.ttypes
Context
p65
(dp66
g21
S'quartz'
p67
sg23
S'. Geodes differ from\xc3\x82\xc2\xa0 vugs \xc3\x82\xc2\xa0in that they were formed as a separate entity from the surrounding rock, whereas vugs are voids or cavities within'
p68
sg25
S'masses of mineral matter that were deposited syngenetically within the rock formations they are found in. Geodes have a\xc3\x82\xc2\xa0 chalcedony \xc3\x82\xc2\xa0shell containing various minerals, usually\xc3\x82\xc2\xa0'
p69
sbsg27
S'9202a8c04000641f80000000000326a0'
p70
sg29
I8753
sg30
S'http://en.wikipedia.org/wiki/Quartz'
p71
sba(iedu.umass.cs.iesl.wikilink.expanded.data.ttypes
Mention
p72
(dp73
g16
S'calcite'
p74
sg18
(iedu.umass.cs.iesl.wikilink.expanded.data.ttypes
Context
p75
(dp76
g21
S'calcite'
p77
sg23
S',\xc3\x82\xc2\xa0 pyrite ,\xc3\x82\xc2\xa0 kaolinite ,\xc3\x82\xc2\xa0 sphalerite ,\xc3\x82\xc2\xa0 millerite ,\xc3\x82\xc2\xa0 barite ,\xc3\x82\xc2\xa0 dolomite ,\xc3\x82\xc2\xa0 limonite ,\xc3\x82\xc2\xa0 smithsonite \xc3\x82\xc2\xa0and quartz, which is by far the most common'
p78
sg25
S'The exterior of most geodes generally consists of chalcedony, a cryptocrystalline form of quartz. Inside the chalcedony shell many minerals have been found such as\xc3\x82\xc2\xa0'
p79
sbsg27
S'9202a8c04000641f80000000000592a3'
p80
sg29
I9452
sg30
S'http://en.wikipedia.org/wiki/Calcite'
p81
sba(iedu.umass.cs.iesl.wikilink.expanded.data.ttypes
Mention
p82
(dp83
g16
S'pyrite'
p84
sg18
(iedu.umass.cs.iesl.wikilink.expanded.data.ttypes
Context
p85
(dp86
g21
S'pyrite'
p87
sg23
S',\xc3\x82\xc2\xa0 kaolinite ,\xc3\x82\xc2\xa0 sphalerite ,\xc3\x82\xc2\xa0 millerite ,\xc3\x82\xc2\xa0 barite ,\xc3\x82\xc2\xa0 dolomite ,\xc3\x82\xc2\xa0 limonite ,\xc3\x82\xc2\xa0 smithsonite \xc3\x82\xc2\xa0and quartz, which is by far the most common and abundant'
p88
sg25
S'of most geodes generally consists of chalcedony, a cryptocrystalline form of quartz. Inside the chalcedony shell many minerals have been found such as\xc3\x82\xc2\xa0 calcite ,\xc3\x82\xc2\xa0'
p89
sbsg27
S'9202a8c04000641f800000000005b37f'
p90
sg29
I9527
sg30
S'http://en.wikipedia.org/wiki/Pyrite'
p91
sba(iedu.umass.cs.iesl.wikilink.expanded.data.ttypes
Mention
p92
(dp93
g16
S'kaolinite'
p94
sg18
(iedu.umass.cs.iesl.wikilink.expanded.data.ttypes
Context
p95
(dp96
g21
S'kaolinite'
p97
sg23
S',\xc3\x82\xc2\xa0 sphalerite ,\xc3\x82\xc2\xa0 millerite ,\xc3\x82\xc2\xa0 barite ,\xc3\x82\xc2\xa0 dolomite ,\xc3\x82\xc2\xa0 limonite ,\xc3\x82\xc2\xa0 smithsonite \xc3\x82\xc2\xa0and quartz, which is by far the most common and abundant mineral found'
p98
sg25
S'geodes generally consists of chalcedony, a cryptocrystalline form of quartz. Inside the chalcedony shell many minerals have been found such as\xc3\x82\xc2\xa0 calcite ,\xc3\x82\xc2\xa0 pyrite ,\xc3\x82\xc2\xa0'
p99
sbsg27
S'9202a8c04000641f800000000002287c'
p100
sg29
I9607
sg30
S'http://en.wikipedia.org/wiki/Kaolinite'
p101
sba(iedu.umass.cs.iesl.wikilink.expanded.data.ttypes
Mention
p102
(dp103
g16
S'sphalerite'
p104
sg18
(iedu.umass.cs.iesl.wikilink.expanded.data.ttypes
Context
p105
(dp106
g21
S'sphalerite'
p107
sg23
S',\xc3\x82\xc2\xa0 millerite ,\xc3\x82\xc2\xa0 barite ,\xc3\x82\xc2\xa0 dolomite ,\xc3\x82\xc2\xa0 limonite ,\xc3\x82\xc2\xa0 smithsonite \xc3\x82\xc2\xa0and quartz, which is by far the most common and abundant mineral found in geodes.'
p108
sg25
S'consists of chalcedony, a cryptocrystalline form of quartz. Inside the chalcedony shell many minerals have been found such as\xc3\x82\xc2\xa0 calcite ,\xc3\x82\xc2\xa0 pyrite ,\xc3\x82\xc2\xa0 kaolinite ,\xc3\x82\xc2\xa0'
p109
sbsg27
S'9202a8c04000641f8000000000133017'
p110
sg29
I9692
sg30
S'http://en.wikipedia.org/wiki/Sphalerite'
p111
sba(iedu.umass.cs.iesl.wikilink.expanded.data.ttypes
Mention
p112
(dp113
g16
S'millerite'
p114
sg18
(iedu.umass.cs.iesl.wikilink.expanded.data.ttypes
Context
p115
(dp116
g21
S'millerite'
p117
sg23
S',\xc3\x82\xc2\xa0 barite ,\xc3\x82\xc2\xa0 dolomite ,\xc3\x82\xc2\xa0 limonite ,\xc3\x82\xc2\xa0 smithsonite \xc3\x82\xc2\xa0and quartz, which is by far the most common and abundant mineral found in geodes. Geodes are'
p118
sg25
S'chalcedony, a cryptocrystalline form of quartz. Inside the chalcedony shell many minerals have been found such as\xc3\x82\xc2\xa0 calcite ,\xc3\x82\xc2\xa0 pyrite ,\xc3\x82\xc2\xa0 kaolinite ,\xc3\x82\xc2\xa0 sphalerite ,\xc3\x82\xc2\xa0'
p119
sbsg27
S'9202a8c04000641f8000000000111d17'
p120
sg29
I9776
sg30
S'http://en.wikipedia.org/wiki/Millerite'
p121
sba(iedu.umass.cs.iesl.wikilink.expanded.data.ttypes
Mention
p122
(dp123
g16
S'barite'
p124
sg18
(iedu.umass.cs.iesl.wikilink.expanded.data.ttypes
Context
p125
(dp126
g21
S'barite'
p127
sg23
S',\xc3\x82\xc2\xa0 dolomite ,\xc3\x82\xc2\xa0 limonite ,\xc3\x82\xc2\xa0 smithsonite \xc3\x82\xc2\xa0and quartz, which is by far the most common and abundant mineral found in geodes. Geodes are found mostly'
p128
sg25
S'cryptocrystalline form of quartz. Inside the chalcedony shell many minerals have been found such as\xc3\x82\xc2\xa0 calcite ,\xc3\x82\xc2\xa0 pyrite ,\xc3\x82\xc2\xa0 kaolinite ,\xc3\x82\xc2\xa0 sphalerite ,\xc3\x82\xc2\xa0 millerite ,\xc3\x82\xc2\xa0'
p129
sbsg27
S'9202a8c04000641f80000000000717e1'
p130
sg29
I9853
sg30
S'http://en.wikipedia.org/wiki/Barite'
p131
sba(iedu.umass.cs.iesl.wikilink.expanded.data.ttypes
Mention
p132
(dp133
g16
S'dolomite'
p134
sg18
(iedu.umass.cs.iesl.wikilink.expanded.data.ttypes
Context
p135
(dp136
g21
S'dolomite'
p137
sg23
S',\xc3\x82\xc2\xa0 limonite ,\xc3\x82\xc2\xa0 smithsonite \xc3\x82\xc2\xa0and quartz, which is by far the most common and abundant mineral found in geodes. Geodes are found mostly in\xc3\x82\xc2\xa0 basaltic'
p138
sg25
S'of quartz. Inside the chalcedony shell many minerals have been found such as\xc3\x82\xc2\xa0 calcite ,\xc3\x82\xc2\xa0 pyrite ,\xc3\x82\xc2\xa0 kaolinite ,\xc3\x82\xc2\xa0 sphalerite ,\xc3\x82\xc2\xa0 millerite ,\xc3\x82\xc2\xa0 barite ,\xc3\x82\xc2\xa0'
p139
sbsg27
S'9202a8c04000641f80000000000af5f6'
p140
sg29
I9931
sg30
S'http://en.wikipedia.org/wiki/Dolomite'
p141
sba(iedu.umass.cs.iesl.wikilink.expanded.data.ttypes
Mention
p142
(dp143
g16
S'limonite'
p144
sg18
(iedu.umass.cs.iesl.wikilink.expanded.data.ttypes
Context
p145
(dp146
g21
S'limonite'
p147
sg23
S',\xc3\x82\xc2\xa0 smithsonite \xc3\x82\xc2\xa0and quartz, which is by far the most common and abundant mineral found in geodes. Geodes are found mostly in\xc3\x82\xc2\xa0 basaltic \xc3\x82\xc2\xa0 lavas'
p148
sg25
S'Inside the chalcedony shell many minerals have been found such as\xc3\x82\xc2\xa0 calcite ,\xc3\x82\xc2\xa0 pyrite ,\xc3\x82\xc2\xa0 kaolinite ,\xc3\x82\xc2\xa0 sphalerite ,\xc3\x82\xc2\xa0 millerite ,\xc3\x82\xc2\xa0 barite ,\xc3\x82\xc2\xa0 dolomite ,\xc3\x82\xc2\xa0'
p149
sbsg27
S'9202a8c04000641f8000000000073e78'
p150
sg29
I10011
sg30
S'http://en.wikipedia.org/wiki/Limonite'
p151
sba(iedu.umass.cs.iesl.wikilink.expanded.data.ttypes
Mention
p152
(dp153
g16
S'smithsonite'
p154
sg18
(iedu.umass.cs.iesl.wikilink.expanded.data.ttypes
Context
p155
(dp156
g21
S'smithsonite'
p157
sg23
S'\xc3\x82\xc2\xa0and quartz, which is by far the most common and abundant mineral found in geodes. Geodes are found mostly in\xc3\x82\xc2\xa0 basaltic \xc3\x82\xc2\xa0 lavas \xc3\x82\xc2\xa0and\xc3\x82\xc2\xa0 limestones'
p158
sg25
S'chalcedony shell many minerals have been found such as\xc3\x82\xc2\xa0 calcite ,\xc3\x82\xc2\xa0 pyrite ,\xc3\x82\xc2\xa0 kaolinite ,\xc3\x82\xc2\xa0 sphalerite ,\xc3\x82\xc2\xa0 millerite ,\xc3\x82\xc2\xa0 barite ,\xc3\x82\xc2\xa0 dolomite ,\xc3\x82\xc2\xa0 limonite ,\xc3\x82\xc2\xa0'
p159
sbsg27
S'9202a8c04000641f8000000000323f28'
p160
sg29
I10097
sg30
S'http://en.wikipedia.org/wiki/Smithsonite'
p161
sba(iedu.umass.cs.iesl.wikilink.expanded.data.ttypes
Mention
p162
(dp163
g16
S'Keokuk'
p164
sg18
(iedu.umass.cs.iesl.wikilink.expanded.data.ttypes
Context
p165
(dp166
g21
S'Keokuk'
p167
sg23
S'\xc3\x82\xc2\xa0region near the area where Missouri, Iowa, and Illinois join contains abundant geodes. \xc2\xa0 Formation Geodes can form in any cavity, but the term is'
p168
sg25
S'the most common and abundant mineral found in geodes. Geodes are found mostly in\xc3\x82\xc2\xa0 basaltic \xc3\x82\xc2\xa0 lavas \xc3\x82\xc2\xa0and\xc3\x82\xc2\xa0 limestones . The\xc3\x82\xc2\xa0 Warsaw Formation \xc3\x82\xc2\xa0in the\xc3\x82\xc2\xa0'
p169
sbsg27
S'9202a8c04000641f80000000000c8242'
p170
sg29
I10709
sg30
S'http://en.wikipedia.org/wiki/Keokuk,_Iowa'
p171
sba(iedu.umass.cs.iesl.wikilink.expanded.data.ttypes
Mention
p172
(dp173
g16
S'igneous rocks'
p174
sg18
(iedu.umass.cs.iesl.wikilink.expanded.data.ttypes
Context
p175
(dp176
g21
S'igneous rocks'
p177
sg23
S', such as vesicles in basaltic\xc3\x82\xc2\xa0 lavas , or as in the American\xc3\x82\xc2\xa0 Midwest , rounded cavities in sedimentary formations. After rock around the cavity'
p178
sg25
S'igneous and sedimentary rocks, while the more general term \xe2\x80\x9cvug\xe2\x80\x9d is applied to cavities in fissures and veins. They can form in gas bubbles in\xc3\x82\xc2\xa0'
p179
sbsg27
S'9202a8c04000641f800000000001fc4d'
p180
sg29
I11180
sg30
S'http://en.wikipedia.org/wiki/Igneous_rock'
p181
sba(iedu.umass.cs.iesl.wikilink.expanded.data.ttypes
Mention
p182
(dp183
g16
S'lavas'
p184
sg18
(iedu.umass.cs.iesl.wikilink.expanded.data.ttypes
Context
p185
(dp186
g21
S'lavas'
p187
sg23
S', or as in the American\xc3\x82\xc2\xa0 Midwest , rounded cavities in sedimentary formations. After rock around the cavity hardens, dissolved\xc3\x82\xc2\xa0 silicates \xc3\x82\xc2\xa0and/or\xc3\x82\xc2\xa0 carbonates \xc3\x82\xc2\xa0are deposited'
p188
sg25
S'term \xe2\x80\x9cvug\xe2\x80\x9d is applied to cavities in fissures and veins. They can form in gas bubbles in\xc3\x82\xc2\xa0 igneous rocks , such as vesicles in basaltic\xc3\x82\xc2\xa0'
p189
sbsg27
S'9202a8c04000641f800000000004b054'
p190
sg29
I11288
sg30
S'http://en.wikipedia.org/wiki/Lavas'
p191
sba(iedu.umass.cs.iesl.wikilink.expanded.data.ttypes
Mention
p192
(dp193
g16
S'Midwest'
p194
sg18
(iedu.umass.cs.iesl.wikilink.expanded.data.ttypes
Context
p195
(dp196
g21
S'Midwest'
p197
sg23
S', rounded cavities in sedimentary formations. After rock around the cavity hardens, dissolved\xc3\x82\xc2\xa0 silicates \xc3\x82\xc2\xa0and/or\xc3\x82\xc2\xa0 carbonates \xc3\x82\xc2\xa0are deposited on the inside surface. Over time, this'
p198
sg25
S'fissures and veins. They can form in gas bubbles in\xc3\x82\xc2\xa0 igneous rocks , such as vesicles in basaltic\xc3\x82\xc2\xa0 lavas , or as in the American\xc3\x82\xc2\xa0'
p199
sbsg27
S'9202a8c04000641f80000000000b1cce'
p200
sg29
I11385
sg30
S'http://en.wikipedia.org/wiki/Midwest'
p201
sba(iedu.umass.cs.iesl.wikilink.expanded.data.ttypes
Mention
p202
(dp203
g16
S'groundwater'
p204
sg18
(iedu.umass.cs.iesl.wikilink.expanded.data.ttypes
Context
p205
(dp206
g21
S'groundwater'
p207
sg23
S'\xc3\x82\xc2\xa0or\xc3\x82\xc2\xa0 hydrothermal \xc3\x82\xc2\xa0solutions allows crystals to form inside the hollow chamber. Bedrock containing geodes eventually weathers and decomposes, leaving them present at the surface if'
p208
sg25
S'After rock around the cavity hardens, dissolved\xc3\x82\xc2\xa0 silicates \xc3\x82\xc2\xa0and/or\xc3\x82\xc2\xa0 carbonates \xc3\x82\xc2\xa0are deposited on the inside surface. Over time, this slow feed of mineral constituents from\xc3\x82\xc2\xa0'
p209
sbsg27
S'9202a8c04000641f80000000001a00bd'
p210
sg29
I11826
sg30
S'http://en.wikipedia.org/wiki/Groundwater'
p211
sba(iedu.umass.cs.iesl.wikilink.expanded.data.ttypes
Mention
p212
(dp213
g16
S'hydrothermal'
p214
sg18
(iedu.umass.cs.iesl.wikilink.expanded.data.ttypes
Context
p215
(dp216
g21
S'hydrothermal'
p217
sg23
S'\xc3\x82\xc2\xa0solutions allows crystals to form inside the hollow chamber. Bedrock containing geodes eventually weathers and decomposes, leaving them present at the surface if they are'
p218
sg25
S'around the cavity hardens, dissolved\xc3\x82\xc2\xa0 silicates \xc3\x82\xc2\xa0and/or\xc3\x82\xc2\xa0 carbonates \xc3\x82\xc2\xa0are deposited on the inside surface. Over time, this slow feed of mineral constituents from\xc3\x82\xc2\xa0 groundwater \xc3\x82\xc2\xa0or\xc3\x82\xc2\xa0'
p219
sbsg27
S'9202a8c04000641f80000000001b0950'
p220
sg29
I11920
sg30
S'http://en.wikipedia.org/wiki/Hydrothermal'
p221
sbasS'doc_id'
p222
I10016
sS'rare_words'
p223
(lp224
(iedu.umass.cs.iesl.wikilink.expanded.data.ttypes
RareWord
p225
(dp226
S'word'
p227
S'smithsonite'
p228
sS'offset'
p229
I10097
sba(iedu.umass.cs.iesl.wikilink.expanded.data.ttypes
RareWord
p230
(dp231
g227
S'entity'
p232
sg229
I8889
sba(iedu.umass.cs.iesl.wikilink.expanded.data.ttypes
RareWord
p233
(dp234
g227
S'solutions'
p235
sg229
I11938
sba(iedu.umass.cs.iesl.wikilink.expanded.data.ttypes
RareWord
p236
(dp237
g227
S'material'
p238
sg229
I12131
sba(iedu.umass.cs.iesl.wikilink.expanded.data.ttypes
RareWord
p239
(dp240
g227
S'Over'
p241
sg229
I11699
sba(iedu.umass.cs.iesl.wikilink.expanded.data.ttypes
RareWord
p242
(dp243
g227
S'millerite'
p244
sg229
I9776
sba(iedu.umass.cs.iesl.wikilink.expanded.data.ttypes
RareWord
p245
(dp246
g227
S'any'
p247
sg229
I10867
sba(iedu.umass.cs.iesl.wikilink.expanded.data.ttypes
RareWord
p248
(dp249
g227
S'but'
p250
sg229
I10879
sba(iedu.umass.cs.iesl.wikilink.expanded.data.ttypes
RareWord
p251
(dp252
g227
S'syngenetically'
p253
sg229
I8487
sba(iedu.umass.cs.iesl.wikilink.expanded.data.ttypes
RareWord
p254
(dp255
g227
S'They'
p256
sg229
I11074
sbasb.