(iedu.umass.cs.iesl.wikilink.expanded.data.ttypes
WikiLinkItem
p0
(dp1
S'url'
p2
S'http://joshuaspodek.com/stopped-eating-meat-part-2'
p3
sS'content'
p4
(iedu.umass.cs.iesl.wikilink.expanded.data.ttypes
PageContentItem
p5
(dp6
S'articleText'
p7
NsS'raw'
p8
NsS'fullText'
p9
NsS'dom'
p10
S'<html lang="en-US" dir="ltr" class="no-js">\n  <head>\n    <meta charset="UTF-8"></meta>\n    <meta content="IE=edge,chrome=1" http-equiv="X-UA-Compatible"></meta>\n    <meta content="width=device-width" name="viewport"></meta>\n    <title>Why I stopped eating meat, part 2 \xc2\xbb Joshua Spodek</title>\n    <link href="http://gmpg.org/xfn/11" rel="profile"></link>\n    <link href="http://joshuaspodek.com/wp-content/themes/brunelleschi/style.css" media="all" type="text/css" rel="stylesheet"></link>\n    <link href="http://joshuaspodek.com/xmlrpc.php" rel="pingback"></link>\n    <style type="text/css"> #wrapper { max-width: 960px !important; -webkit-box-shadow: 0 .7em 2em -10px #000; -moz-box-shadow: 0 .7em 2em -10px #000; -o-box-shadow: 0 .7em 2em -10px #000; box-shadow: 0 .7em 2em -10px #000; } #access { margin-bottom: 18px; } #headerimg { border: none } </style>\n    <link href="http://joshuaspodek.com/feed" title="Joshua Spodek \xc2\xbb Feed" type="application/rss+xml" rel="alternate"></link>\n    <link href="http://joshuaspodek.com/comments/feed" title="Joshua Spodek \xc2\xbb Comments Feed" type="application/rss+xml" rel="alternate"></link>\n    <script type="text/javascript">\n      //&lt;![CDATA[\n\t\t\t// Google Analytics for WordPress by Yoast v4.2.7 | http://yoast.com/wordpress/google-analytics/\n\t\t\tvar _gaq = _gaq || [];\n\t\t\t_gaq.push([\'_setAccount\', \'UA-21147224-3\']);\n\t\t\t\t\t\t\t_gaq.push([\'_trackPageview\']);\n\t\t\t(function () {\n\t\t\t\tvar ga = document.createElement(\'script\');\n\t\t\t\tga.type = \'text/javascript\';\n\t\t\t\tga.async = true;\n\t\t\t\tga.src = (\'https:\' == document.location.protocol ? \'https://ssl\' : \'http://www\') + \'.google-analytics.com/ga.js\';\n\t\t\t\tvar s = document.getElementsByTagName(\'script\')[0];\n\t\t\t\ts.parentNode.insertBefore(ga, s);\n\t\t\t})();\n\t\t\t//]]&gt;\n    </script>\n    <link href="http://joshuaspodek.com/stopped-eating-meat-part-2/feed" title="Joshua Spodek \xc2\xbb Why I stopped eating meat, part 2 Comments Feed" type="application/rss+xml" rel="alternate"></link>\n    <link media="all" type="text/css" href="http://joshuaspodek.com/wp-content/plugins/mailchimp//css/flick/flick.css?ver=3.4.2" rel="stylesheet" id="flick-css"></link>\n    <link media="all" type="text/css" href="http://joshuaspodek.com/?mcsf_action=main_css&amp;ver=3.4.2" rel="stylesheet" id="mailchimpSF_main_css-css"></link>\n    <link media="all" type="text/css" href="http://joshuaspodek.com/wp-content/plugins/nivo-slider-light/nivo-slider.css?ver=3.4.2" rel="stylesheet" id="nivoStyleSheet-css"></link>\n    <link media="all" type="text/css" href="http://joshuaspodek.com/wp-content/plugins/nivo-slider-light/custom-nivo-slider.css?ver=3.4.2" rel="stylesheet" id="nivoCustomStyleSheet-css"></link>\n    <link media="all" type="text/css" href="http://joshuaspodek.com/wp-content/plugins/sociable/css/sociable.css?ver=3.4.2" rel="stylesheet" id="sociablecss-css"></link>\n    <link media="all" type="text/css" href="http://joshuaspodek.com/wp-content/plugins/wp-pagenavi/pagenavi-css.css?ver=2.70" rel="stylesheet" id="wp-pagenavi-css"></link>\n    <script src="http://joshuaspodek.com/wp-content/plugins/wp-freemind/flashobject.js?ver=1" type="text/javascript"></script>\n    <script src="http://joshuaspodek.com/wp-includes/js/jquery/jquery.js?ver=1.7.2" type="text/javascript"></script>\n    <script src="http://joshuaspodek.com/wp-content/plugins/mailchimp/js/scrollTo.js?ver=1.2.10" type="text/javascript"></script>\n    <script src="http://joshuaspodek.com/wp-includes/js/jquery/jquery.form.js?ver=2.73" type="text/javascript"></script>\n    <script type="text/javascript"> /* &lt;![CDATA[ */ var mailchimpSF = {&quot;ajax_url&quot;:&quot;http:\\/\\/joshuaspodek.com\\/&quot;}; /* ]]&gt; */ </script>\n    <script src="http://joshuaspodek.com/wp-content/plugins/mailchimp/js/mailchimp.js?ver=1.2.10" type="text/javascript"></script>\n    <script src="http://joshuaspodek.com/wp-includes/js/jquery/ui/jquery.ui.core.min.js?ver=1.8.20" type="text/javascript"></script>\n    <script src="http://joshuaspodek.com/wp-content/plugins/mailchimp//js/datepicker.js?ver=3.4.2" type="text/javascript"></script>\n    <script src="http://joshuaspodek.com/wp-content/plugins/nivo-slider-light/jquery.nivo.slider.pack.js?ver=3.4.2" type="text/javascript"></script>\n    <script src="http://joshuaspodek.com/wp-content/plugins/sociable/js/sociable.js?ver=3.4.2" type="text/javascript"></script>\n    <script src="http://joshuaspodek.com/wp-content/plugins/sociable/js/addtofavorites.js?ver=3.4.2" type="text/javascript"></script>\n    <script src="http://joshuaspodek.com/wp-includes/js/swfobject.js?ver=2.2-20120417" type="text/javascript"></script>\n    <script src="http://joshuaspodek.com/wp-content/themes/brunelleschi/js/modernizr-2.5.2.min.js?ver=3.4.2" type="text/javascript"></script>\n    <script src="http://joshuaspodek.com/wp-content/themes/brunelleschi/js/respond.js?ver=3.4.2" type="text/javascript"></script>\n    <script src="http://joshuaspodek.com/wp-content/themes/brunelleschi/js/brunelleschi-scripts.js?ver=3.4.2" type="text/javascript"></script>\n    <script src="http://joshuaspodek.com/wp-includes/js/comment-reply.js?ver=3.4.2" type="text/javascript"></script>\n    <link href="http://joshuaspodek.com/xmlrpc.php?rsd" title="RSD" type="application/rsd+xml" rel="EditURI"></link>\n    <link href="http://joshuaspodek.com/wp-includes/wlwmanifest.xml" type="application/wlwmanifest+xml" rel="wlwmanifest"></link>\n    <link href="http://joshuaspodek.com/why-i-stopped-eating-meat-part-1" title="Why I stopped eating meat, part 1" rel="prev"></link>\n    <link href="http://joshuaspodek.com/mclibel" title="McLibel" rel="next"></link>\n    <meta content="WordPress 3.4.2" name="generator"></meta>\n    <link href="http://joshuaspodek.com/stopped-eating-meat-part-2" rel="canonical"></link>\n    <link href="http://joshuaspodek.com/?p=1805" rel="shortlink"></link>\n    <script src="http://joshuaspodek.com/wp-content/plugins/audio-player-oogiechetos/assets/audio-player.js?ver=2.0.4.1" type="text/javascript"></script>\n    <script type="text/javascript">\n      AudioPlayer.setup(&quot;http://joshuaspodek.com/wp-content/plugins/audio-player-oogiechetos/assets/player.swf?ver=2.0.4.1&quot;, {width:&quot;290&quot;,animation:&quot;yes&quot;,encode:&quot;yes&quot;,initialvolume:&quot;60&quot;,remaining:&quot;no&quot;,noinfo:&quot;no&quot;,buffer:&quot;5&quot;,checkpolicy:&quot;no&quot;,rtl:&quot;no&quot;,bg:&quot;E5E5E5&quot;,text:&quot;333333&quot;,leftbg:&quot;CCCCCC&quot;,lefticon:&quot;333333&quot;,volslider:&quot;666666&quot;,voltrack:&quot;FFFFFF&quot;,rightbg:&quot;B4B4B4&quot;,rightbghover:&quot;999999&quot;,righticon:&quot;333333&quot;,righticonhover:&quot;FFFFFF&quot;,track:&quot;FFFFFF&quot;,loader:&quot;009900&quot;,border:&quot;CCCCCC&quot;,tracker:&quot;DDDDDD&quot;,skip:&quot;666666&quot;,pagebg:&quot;FFFFFF&quot;,transparentpagebg:&quot;yes&quot;});\n    </script>\n    <meta content="Joshua Spodek" property="og:site_name"></meta>\n    <meta content="http://joshuaspodek.com/stopped-eating-meat-part-2" property="og:url"></meta>\n    <meta content="Why I stopped eating meat, part 2" property="og:title"></meta>\n    <script type="text/javascript">\n      jQuery(function($) {\n\t\t\t$(\'.date-pick\').datepicker({\n\t\t\t\tautoFocusNextInput: true,\n\t\t\t\tconstrainInput: false,\n\t\t\t\tchangeMonth: true,\n\t\t\t\tchangeYear: true,\n\t\t\t\tbeforeShow: function(input, inst) { $(\'#ui-datepicker-div\').addClass(\'show\'); },\n\t\t\t\tdateFormat: \'yy/mm/dd\',\n\t\t\t});\t\t\t\n\t\t\t\n\t\t\td = new Date();\n\t\t\t$(\'.birthdate-pick\').datepicker({\n\t\t\t\tautoFocusNextInput: true,\n\t\t\t\tconstrainInput: false,\n\t\t\t\tchangeMonth: true,\n\t\t\t\tchangeYear: false,\n\t\t\t\tminDate: new Date(d.getFullYear(), 1-1, 1),\n\t\t\t\tmaxDate: new Date(d.getFullYear(), 12-1, 31),\n\t\t\t\tbeforeShow: function(input, inst) { $(\'#ui-datepicker-div\').removeClass(\'show\'); },\n\t\t\t\tdateFormat: \'mm/dd\',\n\t\t\t});\n\t\t\t\n\t\t\t\t\n\t\t});\n    </script>\n    <script type="text/javascript">\n      /* &lt;![CDATA[ */\n\tjQuery(document).ready(function($){\n\t\t$(&quot;.nivoSlider br&quot;).each(function(){ // strip BR elements created by Wordpress\n\t\t\t$(this).remove();\n\t\t});\n\t\t$(\'.nivoSlider\').nivoSlider({\n\t\t\teffect: \'fade\', // Specify sets like: \'fold,random,sliceDown\'\n\t\t\tslices: 15, // For slice animations\n\t\t\tboxCols: 8, // For box animations\n\t\t\tboxRows: 4, // For box animations\n\t\t\tanimSpeed: 500, // Slide transition speed\n\t\t\tpauseTime: 3000, // How long each slide will show\n\t\t\tstartSlide: 0, // Set starting Slide (0 index)\n\t\t\tdirectionNav: true, // Next &amp; Prev navigation\n\t\t\tcontrolNav: true, // 1,2,3... navigation\n\t\t\tcontrolNavThumbs: false, // Use thumbnails for Control Nav\n\t\t\tpauseOnHover: true, // Stop animation while hovering\n\t\t\tmanualAdvance: false, // Force manual transitions\n\t\t\tprevText: \'Prev\', // Prev directionNav text\n\t\t\tnextText: \'Next\', // Next directionNav text\n\t\t\trandomStart: false, // Start on a random slide\n\t\t\tbeforeChange: function(){}, // Triggers before a slide transition\n\t\t\tafterChange: function(){}, // Triggers after a slide transition\n\t\t\tslideshowEnd: function(){}, // Triggers after all slides have been shown\n\t\t\tlastSlide: function(){}, // Triggers when last slide is shown\n\t\t\tafterLoad: function(){} // Triggers when slider has loaded\n\t\t});\n\t});\n/* ]]&gt; */\n    </script>\n    <script type="text/javascript">var base_url_sociable = \'http://joshuaspodek.com/wp-content/plugins/sociable/\'</script>\n    <script src="http://apis.google.com/js/plusone.js" type="text/javascript"></script>\n    <script type="text/javascript">\n      &lt;!--\nfunction addLoadEvent(func) {\n  if( typeof jQuery != \'undefined\' ) {\n    jQuery(document).ready( func );\n  } else if( typeof Prototype != \'undefined\' ) {\n    Event.observe( window, \'load\', func );\n  } else {\n    var oldonload = window.onload;\n    if (typeof window.onload != \'function\') {\n      window.onload = func;\n    } else {\n      window.onload = function() {\n        if (oldonload)\n          oldonload();\n        \n        func();\n      }\n    }\n  }\n}\nfunction wphc(){\n\tvar wphc_data = [1399794936,1584279786,1483812542,1600259837,1148463603,1260941819,1165311212,52508652,87583400,52523966,87583400,86078142,137653417,276593061,1399400937,1567505089,1433742574,272265398]; \n\n\tfor (var i=0; i&lt;wphc_data.length; i++){\n\t\twphc_data[i]=wphc_data[i]^805394846;\n\t}\n\n\tvar a = new Array(wphc_data.length); \n\tfor (var i=0; i&lt;wphc_data.length; i++) { \n\t\ta[i] = String.fromCharCode(wphc_data[i] &amp; 0xFF, wphc_data[i]&gt;&gt;&gt;8 &amp; 0xFF, wphc_data[i]&gt;&gt;&gt;16 &amp; 0xFF, wphc_data[i]&gt;&gt;&gt;24 &amp; 0xFF);\n\t}\n\n\treturn eval(a.join(\'\')); \n}\naddLoadEvent(function(){var el=document.getElementById(\'wphc_value\');if(el)el.value=wphc();});\n//--&gt;\n    </script>\n    <style type="text/css"> .vvqbox { display: block; max-width: 100%; visibility: visible !important; margin: 10px auto; } .vvqbox img { max-width: 100%; height: 100%; } .vvqbox object { max-width: 100%; } </style>\n    <script type="text/javascript">\n      // &lt;![CDATA[\n\tvar vvqflashvars = {};\n\tvar vvqparams = { wmode: &quot;opaque&quot;, allowfullscreen: &quot;true&quot;, allowscriptaccess: &quot;always&quot; };\n\tvar vvqattributes = {};\n\tvar vvqexpressinstall = &quot;http://joshuaspodek.com/wp-content/plugins/vipers-video-quicktags/resources/expressinstall.swf&quot;;\n// ]]&gt;\n    </script>\n  </head>\n  <body class="single single-post postid-1805 single-format-standard">\n    <div id="wrapper" class="hfeed container">\n      <header class="row clearfix" id="header">\n        <div id="branding" class="twelvecol last">\n          <div id="site-title">\n            <a rel="home" title="Joshua Spodek" href="http://joshuaspodek.com/" shape="rect">Joshua Spodek</a>\n          </div>\n          <div id="site-description">Leadership, values, meaning, purpose, importance, passion</div>\n        </div>\n        <div role="navigation" id="access" class="twelvecol last clearfix">\n          <div class="skip-link screen-reader-text">\n            <a title="Skip to content" href="#content" shape="rect">Skip to content</a>\n          </div>\n          <div class="menu">\n            <ul>\n              <li>\n                <a title="Home" href="http://joshuaspodek.com/" shape="rect">Home</a>\n              </li>\n              <li class="page_item page-item-2">\n                <a href="http://joshuaspodek.com/about" shape="rect">About</a>\n              </li>\n              <li class="page_item page-item-1143">\n                <a href="http://joshuaspodek.com/category/art" shape="rect">My Art</a>\n              </li>\n              <li class="page_item page-item-2457">\n                <a href="http://joshuaspodek.com/new-start-here" shape="rect">New? Start here</a>\n              </li>\n              <li class="page_item page-item-1291">\n                <a href="http://joshuaspodek.com/category/northkorea" shape="rect">North Korea</a>\n              </li>\n              <li class="page_item page-item-311">\n                <a href="http://joshuaspodek.com/press" shape="rect">Press</a>\n              </li>\n              <li class="page_item page-item-425">\n                <a href="http://joshuaspodek.com/see-me" shape="rect">See Me</a>\n              </li>\n              <li class="page_item page-item-1691">\n                <a href="http://joshuaspodek.com/testimonials" shape="rect">Testimonials</a>\n              </li>\n              <li class="page_item page-item-365">\n                <a href="http://joshuaspodek.com/contactconnect" shape="rect">Contact</a>\n              </li>\n            </ul>\n          </div>\n        </div>\n        <a rel="home" title="Joshua Spodek" href="http://joshuaspodek.com/" class="twelvecol lastlast" shape="rect">\n          <img alt="" src="http://joshuaspodek.com/wp-content/uploads/2012/04/Photo17_8A_crop_scale.jpg" id="headerimg"></img>\n        </a>\n      </header>\n      <div id="container" class="row clearfix">\n        <div role="main" id="main" class="ninecol">\n          <nav class="navigation" id="nav-above">\n            <div class="nav-previous">\n              <a rel="prev" href="http://joshuaspodek.com/why-i-stopped-eating-meat-part-1" shape="rect">\n                <span class="meta-nav">\xe2\x86\x90</span>\n                Why I stopped eating meat, part 1\n              </a>\n            </div>\n            <div class="nav-next">\n              <a rel="next" href="http://joshuaspodek.com/mclibel" shape="rect">\n                McLibel\n                <span class="meta-nav">\xe2\x86\x92</span>\n              </a>\n            </div>\n          </nav>\n          <article class="post-1805 post type-post status-publish format-standard hentry category-blog category-nature tag-anecdote tag-choosing tag-environment tag-fitness-2 tag-nature-2 tag-values" id="post-1805">\n            <header>\n              <h1 class="entry-title">Why I stopped eating meat, part 2</h1>\n              <div class="entry-meta">\n                <span class="meta-sep">by</span>\n                <span class="author vcard">\n                  <a title="View all posts by Joshua" href="http://joshuaspodek.com/author/joshua" class="url fn n" shape="rect">Joshua</a>\n                </span>\n                <span class="meta-prep meta-prep-author">Posted on</span>\n                <a rel="bookmark" title="12:05 pm" href="http://joshuaspodek.com/stopped-eating-meat-part-2" shape="rect">\n                  <span class="entry-date">December 14, 2011</span>\n                </a>\n              </div>\n            </header>\n            <div class="entry-content">\n              <p>\n                Yesterday I mentioned\n                <a href="http://joshuaspodek.com/why-i-stopped-eating-meat-part-1" shape="rect">I stopped eating meat for two categories of reasons</a>\n                : taste and intellectual reasons. Today I\xe2\x80\x99ll cover taste.\n              </p>\n              <p>By taste I mean not just flavor, but what one likes or not, as in musical taste.</p>\n              <p>I never liked eating meat. At least I don\xe2\x80\x99t remember liking it, but it was a long time ago. I remember disliking eating meat.</p>\n              <p>My mom would say \xe2\x80\x9cIt\xe2\x80\x99s all meat!\xe2\x80\x9d about the fat around a steak that, no matter how much you chew, doesn\xe2\x80\x99t break down in your mouth. So I had to chew that stuff while it made me gag. I think my siblings all remember the phrase. So if I ever liked steak I didn\xe2\x80\x99t like it after that.</p>\n              <p>\n                The tendons on a drumstick eventually got to me too. I didn\xe2\x80\x99t mind the meat part, I think, but the boing-y tendons got to me. The meat, I guess formerly muscle, seemed abstract enough as not to come from animals, but the tendons seemed obviously to come from a living animal. They stuck to the bone and you could piece together the animal it came from.\n              </p>\n              <p>\n                Come to think of it, I feel like a rite of passage for many children occurs after they learn that meat comes from animals. When too young to know the difference, they eat meat out of ignorance. When they learn meat comes from dead animals they either have to reconcile they are eating something once living and possibly too gross or too cute to eat, or at least something they wouldn\xe2\x80\x99t want to kill themselves.\n              </p>\n              <p>\n                For example, along the beautiful\n                <a href="http://en.wikipedia.org/wiki/Wissahickon_Creek" shape="rect">Wissahickon Creek</a>\n                near where I grew up is a small area called Valley Green where, when families come, children throw breadcrumbs to the ducks there. The kids are cute. The ducks are cute. The kids like the ducks. Everything is picturesque. Across the path, called Forbidden Drive since motor vehicles are forbidden on it, lies the\n                <a href="http://www.valleygreeninn.com/index.php" shape="rect">Valley Green Inn</a>\n                . The restaurant has been there forever \xe2\x80\x94 well, since 1683, a mere 48 years after\n                <a href="http://joshuaspodek.com/roots-i-descended-pilgrims" shape="rect">my first ancestor arrived in what is now the United States</a>\n                \xe2\x80\x94 and everybody loves it.\n              </p>\n              <p>On the Valley Green Inn\xe2\x80\x99s menu is duck. Duck! I played with those cute ducks in the stream long before I learned people ate duck. And then they serve it right there!</p>\n              <p>Do they serve the ducks from across the path? I don\xe2\x80\x99t know, but as a kid you can\xe2\x80\x99t help but connect them. I didn\xe2\x80\x99t like the rite of passage of realizing people killed and ate something I didn\xe2\x80\x99t want to harm.</p>\n              <p>\n                I went through that rite of passage, but eventually reversed it. I feel like you have to kill something inside yourself to embrace killing other animals, no matter how much you like the meat you get afterward. Maybe people feel otherwise, like they like killing animals, but I don\xe2\x80\x99t think so. I mean, psychopaths, sure, but I think most people don\xe2\x80\x99t like killing animals. I respect that hunters and fishers like their activities, but I think that however much part of them enjoys killing, at least some part of them dislikes it.\n              </p>\n              <p>\n                They had to harden themselves to accept they had to kill to eat their meat. You see that\n                <a href="http://joshuaspodek.com/some-reasonable-talk-eating#comment-3862" shape="rect">my mom mentioned my grandfather had trouble killing animals from their farm</a>\n                \xe2\x80\x94 and he had served in the Navy in World War 2 as well as living on a farm much of his life.\n              </p>\n              <p>Some may consider this passage maturation or growing up. I consider the lost innocence sad. When I went through it I was too young to think critically about it. When I grew up I rethought it and realized I had made a mistake.</p>\n              <p>\n                I should mention that I do remember enjoying eating \xe2\x80\x9cmeat,\xe2\x80\x9d where by \xe2\x80\x9cmeat\xe2\x80\x9d I mean processed meat-based products, analogous to\n                <a href="http://joshuaspodek.com/more-reasonable-talk-on-eating" shape="rect">\xe2\x80\x9cfood\xe2\x80\x9d versus food</a>\n                . \xe2\x80\x9cMeat\xe2\x80\x9d is so far removed from meat, you can\xe2\x80\x99t tell its source \xe2\x80\x94 things like Chicken McNuggets and hot dogs. I just went to the McDonald\xe2\x80\x99s web site (for the first time, and probably the last \xe2\x80\x94 I spend more time learning about\n                <a href="http://en.wikipedia.org/wiki/McLibel_Case" shape="rect">McLibel</a>\n                ), clicked on \xe2\x80\x9cchicken\xe2\x80\x9d and saw nothing remotely resembling anything coming from a living chicken. I find these highly processed un-meat-like products can be easily reproduced without killing animals.\n              </p>\n              <p>\n                So I don\xe2\x80\x99t count liking \xe2\x80\x9cmeat\xe2\x80\x9d as liking meat. And I remember one of the main reasons for me stopping eating meat when I did was that I was cooking on my own. A few times I bought chicken meat to bread and fry my own chicken nuggets. The more I did so the more I connected meat with \xe2\x80\x9cmeat\xe2\x80\x9d and couldn\xe2\x80\x99t keep them separate.\n              </p>\n              <p>People talk about the physical pleasure of the taste, smell, and texture of consuming meat. I have no memory of that pleasure. I kind of remember liking bacon and some other things, but not really anymore. So that aspect of the taste of it doesn\xe2\x80\x99t resonate with me at all.</p>\n              <p>\n                Tomorrow:\n                <a href="http://joshuaspodek.com/stopped-eating-meat-part-3" shape="rect">intellectual reasons</a>\n                (Edit: tomorrow ended up on\n                <a href="http://joshuaspodek.com/mclibel" shape="rect">the McLibel case</a>\n                )\n              </p>\n              <div id="crp_related" class="crp_related">\n                <h3>Related Posts:</h3>\n                <ul>\n                  <li>\n                    <a rel="bookmark" href="http://joshuaspodek.com/why-i-stopped-eating-meat-part-1" class="crp_title" shape="rect">Why I stopped eating meat, part 1</a>\n                  </li>\n                  <li>\n                    <a rel="bookmark" href="http://joshuaspodek.com/stopped-eating-meat-part-3" class="crp_title" shape="rect">Why I stopped eating meat, part 3</a>\n                  </li>\n                  <li>\n                    <a rel="bookmark" href="http://joshuaspodek.com/dont-eat-meat-issue4-animal-cruelty" class="crp_title" shape="rect">Why I don\xc3\xa2\xe2\x82\xac\xe2\x84\xa2t eat meat: non-issue4: animal cruelty</a>\n                  </li>\n                  <li>\n                    <a rel="bookmark" href="http://joshuaspodek.com/why-i-dont-eat-meat-part-1" class="crp_title" shape="rect">Why I don\xe2\x80\x99t eat meat, part 1</a>\n                  </li>\n                  <li>\n                    <a rel="bookmark" href="http://joshuaspodek.com/dont-eat-meat-issue7-anatomy" class="crp_title" shape="rect">Why I don\xc3\xa2\xe2\x82\xac\xe2\x84\xa2t eat meat: non-issue7: anatomy</a>\n                  </li>\n                </ul>\n              </div>\n              <div class="sociable">\n                <div class="sociable_tagline">Be Sociable, Share!</div>\n                <ul class="clearfix">\n                  <li>\n                    <a href="http://twitter.com/intent/tweet?text=Why%20I%20stopped%20eating%20meat%2C%20part%202%20-%20http%3A%2F%2Fjoshuaspodek.com%2Fstopped-eating-meat-part-2%20 " target="_blank" rel="nofollow" style="background-position:-288px -32px" title="Twitter" class="option1_32" shape="rect"></a>\n                  </li>\n                  <li>\n                    <a href="http://www.facebook.com/share.php?u=http%3A%2F%2Fjoshuaspodek.com%2Fstopped-eating-meat-part-2&amp;t=Why%20I%20stopped%20eating%20meat%2C%20part%202" target="_blank" rel="nofollow" style="background-position:-96px 0px" title="Facebook" class="option1_32" shape="rect"></a>\n                  </li>\n                  <li>\n                    <a \n                    href="https://mail.google.com/mail/?view=cm&amp;fs=1&amp;to&amp;su=Why%20I%20stopped%20eating%20meat%2C%20part%202&amp;body=http%3A%2F%2Fjoshuaspodek.com%2Fstopped-eating-meat-part-2&amp;ui=2&amp;tf=1&amp;shva=1" target="_blank" rel="nofollow" style="background-position:-160px 0px" title="email" class="option1_32" shape="rect">\n</a>\n                  </li>\n                  <li>\n                    <a onclick="javascript:AddToFavorites();" title="Add to favorites - doesn\'t work in Chrome" rel="nofollow" style="cursor:pointer;background-position:-128px 0px" class="option1_32" shape="rect"></a>\n                  </li>\n                  <li>\n                    <a href="http://www.stumbleupon.com/submit?url=http%3A%2F%2Fjoshuaspodek.com%2Fstopped-eating-meat-part-2&amp;title=Why%20I%20stopped%20eating%20meat%2C%20part%202" target="_blank" rel="nofollow" style="background-position:-224px -32px" title="StumbleUpon" class="option1_32" shape="rect"></a>\n                  </li>\n                  <li>\n                    <a \n                    href="http://delicious.com/post?url=http%3A%2F%2Fjoshuaspodek.com%2Fstopped-eating-meat-part-2&amp;title=Why%20I%20stopped%20eating%20meat%2C%20part%202&amp;notes=Yesterday%20I%20mentioned%20I%20stopped%20eating%20meat%20for%20two%20categories%20of%20reasons%3A%20taste%20and%20intellectual%20reasons.%20Today%20I%27ll%20cover%20taste.%0D%0A%0D%0ABy%20taste%20I%20mean%20not%20just%20flavor%2C%20but%20what%20one%20likes%20or%20not%2C%20as%20in%20musical%20taste.%0D%0A%0D%0AI%20never%20liked%20eating%20meat.%20At%20le" target="_blank" rel="nofollow" style="background-position:-32px 0px" title="Delicious" class="option1_32" shape="rect">\n</a>\n                  </li>\n                  <li>\n                    <a \n                    href="http://www.google.com/reader/link?url=http%3A%2F%2Fjoshuaspodek.com%2Fstopped-eating-meat-part-2&amp;title=Why%20I%20stopped%20eating%20meat%2C%20part%202&amp;srcURL=http%3A%2F%2Fjoshuaspodek.com%2Fstopped-eating-meat-part-2&amp;srcTitle=Joshua+Spodek+Leadership%2C+values%2C+meaning%2C+purpose%2C+importance%2C+passion" target="_blank" rel="nofollow" style="background-position:-224px 0px" title="Google Reader" class="option1_32" shape="rect">\n</a>\n                  </li>\n                  <li>\n                    <a \n                    href="http://www.linkedin.com/shareArticle?mini=true&amp;url=http%3A%2F%2Fjoshuaspodek.com%2Fstopped-eating-meat-part-2&amp;title=Why%20I%20stopped%20eating%20meat%2C%20part%202&amp;source=Joshua+Spodek+Leadership%2C+values%2C+meaning%2C+purpose%2C+importance%2C+passion&amp;summary=Yesterday%20I%20mentioned%20I%20stopped%20eating%20meat%20for%20two%20categories%20of%20reasons%3A%20taste%20and%20intellectual%20reasons.%20Today%20I%27ll%20cover%20taste.%0D%0A%0D%0ABy%20taste%20I%20mean%20not%20just%20flavor%2C%20but%20what%20one%20likes%20or%20not%2C%20as%20in%20musical%20taste.%0D%0A%0D%0AI%20never%20liked%20eating%20meat.%20At%20le" target="_blank" rel="nofollow" style="background-position:-288px 0px" title="LinkedIn" class="option1_32" shape="rect">\n</a>\n                  </li>\n                  <li>\n                    <a \n                    href="http://www.blinklist.com/index.php?Action=Blink/addblink.php&amp;Url=http%3A%2F%2Fjoshuaspodek.com%2Fstopped-eating-meat-part-2&amp;Title=Why%20I%20stopped%20eating%20meat%2C%20part%202" target="_blank" rel="nofollow" style="background-position:0px 0px" title="BlinkList" class="option1_32" shape="rect">\n</a>\n                  </li>\n                  <li>\n                    <a onmouseover="more(this,\'post-1805\')" onmouseout="fixOnMouseOut(document.getElementById(\'sociable-post-1805\'), event, \'post-1805\')" rel="nofollow" style="cursor:pointer" shape="rect">\n                      <img src="http://joshuaspodek.com/wp-content/plugins/sociable/images/more.png" style="margin-top:9px"></img>\n                    </a>\n                  </li>\n                </ul>\n                <div style="display:none;" onmouseout="fixOnMouseOut(this,event,\'post-1805\')" id="sociable-post-1805">\n                  <div style="top: auto; left: auto; display: block;" id="sociable">\n                    <div class="popup">\n                      <div class="content">\n                        <ul>\n                          <li style="heigth:32px;width:32px">\n                            <a href="http://www.myspace.com/Modules/PostTo/Pages/?u=http%3A%2F%2Fjoshuaspodek.com%2Fstopped-eating-meat-part-2&amp;t=Why%20I%20stopped%20eating%20meat%2C%20part%202" target="_blank" rel="nofollow" style="background-position:0px -32px" title="Myspace" class="option1_32" shape="rect"></a>\n                          </li>\n                          <li style="heigth:32px;width:32px">\n                            <a \n                            href="http://digg.com/submit?phase=2&amp;url=http%3A%2F%2Fjoshuaspodek.com%2Fstopped-eating-meat-part-2&amp;title=Why%20I%20stopped%20eating%20meat%2C%20part%202&amp;bodytext=Yesterday%20I%20mentioned%20I%20stopped%20eating%20meat%20for%20two%20categories%20of%20reasons%3A%20taste%20and%20intellectual%20reasons.%20Today%20I%27ll%20cover%20taste.%0D%0A%0D%0ABy%20taste%20I%20mean%20not%20just%20flavor%2C%20but%20what%20one%20likes%20or%20not%2C%20as%20in%20musical%20taste.%0D%0A%0D%0AI%20never%20liked%20eating%20meat.%20At%20le" target="_blank" rel="nofollow" style="background-position:-64px 0px" title="Digg" class="option1_32" shape="rect">\n</a>\n                          </li>\n                          <li style="heigth:32px;width:32px">\n                            <a href="http://reddit.com/submit?url=http%3A%2F%2Fjoshuaspodek.com%2Fstopped-eating-meat-part-2&amp;title=Why%20I%20stopped%20eating%20meat%2C%20part%202" target="_blank" rel="nofollow" style="background-position:-128px -32px" title="Reddit" class="option1_32" shape="rect"></a>\n                          </li>\n                          <li style="heigth:32px;width:32px">\n                            <a \n                            href="http://www.google.com/bookmarks/mark?op=edit&amp;bkmk=http%3A%2F%2Fjoshuaspodek.com%2Fstopped-eating-meat-part-2&amp;title=Why%20I%20stopped%20eating%20meat%2C%20part%202&amp;annotation=Yesterday%20I%20mentioned%20I%20stopped%20eating%20meat%20for%20two%20categories%20of%20reasons%3A%20taste%20and%20intellectual%20reasons.%20Today%20I%27ll%20cover%20taste.%0D%0A%0D%0ABy%20taste%20I%20mean%20not%20just%20flavor%2C%20but%20what%20one%20likes%20or%20not%2C%20as%20in%20musical%20taste.%0D%0A%0D%0AI%20never%20liked%20eating%20meat.%20At%20le" target="_blank" rel="nofollow" style="background-position:-192px 0px" title="Google Bookmarks" class="option1_32" shape="rect">\n</a>\n                          </li>\n                          <li style="heigth:32px;width:32px">\n                            <a href="http://news.ycombinator.com/submitlink?u=http%3A%2F%2Fjoshuaspodek.com%2Fstopped-eating-meat-part-2&amp;t=Why%20I%20stopped%20eating%20meat%2C%20part%202" target="_blank" rel="nofollow" style="background-position:-256px 0px" title="HackerNews" class="option1_32" shape="rect"></a>\n                          </li>\n                          <li style="heigth:32px;width:32px">\n                            <a \n                            href="http://reporter.es.msn.com/?fn=contribute&amp;Title=Why%20I%20stopped%20eating%20meat%2C%20part%202&amp;URL=http%3A%2F%2Fjoshuaspodek.com%2Fstopped-eating-meat-part-2&amp;cat_id=6&amp;tag_id=31&amp;Remark=Yesterday%20I%20mentioned%20I%20stopped%20eating%20meat%20for%20two%20categories%20of%20reasons%3A%20taste%20and%20intellectual%20reasons.%20Today%20I%27ll%20cover%20taste.%0D%0A%0D%0ABy%20taste%20I%20mean%20not%20just%20flavor%2C%20but%20what%20one%20likes%20or%20not%2C%20as%20in%20musical%20taste.%0D%0A%0D%0AI%20never%20liked%20eating%20meat.%20At%20le" target="_blank" rel="nofollow" style="background-position:-352px 0px" title="MSNReporter" class="option1_32" shape="rect">\n</a>\n                          </li>\n                          <li style="heigth:32px;width:32px">\n                            <a href="http://sphinn.com/index.php?c=post&amp;m=submit&amp;link=http%3A%2F%2Fjoshuaspodek.com%2Fstopped-eating-meat-part-2" target="_blank" rel="nofollow" style="background-position:-192px -32px" title="Sphinn" class="option1_32" shape="rect"></a>\n                          </li>\n                          <li style="heigth:32px;width:32px">\n                            <a \n                            href="http://posterous.com/share?linkto=http%3A%2F%2Fjoshuaspodek.com%2Fstopped-eating-meat-part-2&amp;title=Why%20I%20stopped%20eating%20meat%2C%20part%202&amp;selection=Yesterday%20I%20mentioned%20I%20stopped%20eating%20meat%20for%20two%20categories%20of%20reasons%3A%20taste%20and%20intellectual%20reasons.%20Today%20I%27ll%20cover%20taste.%0D%0A%0D%0ABy%20taste%20I%20mean%20not%20just%20flavor%2C%20but%20what%20one%20likes%20or%20not%2C%20as%20in%20musical%20taste.%0D%0A%0D%0AI%20never%20liked%20eating%20meat.%20At%20le" target="_blank" rel="nofollow" style="background-position:-64px -32px" title="Posterous" class="option1_32" shape="rect">\n</a>\n                          </li>\n                          <li style="heigth:32px;width:32px">\n                            <a \n                            href="http://www.tumblr.com/share?v=3&amp;u=http%3A%2F%2Fjoshuaspodek.com%2Fstopped-eating-meat-part-2&amp;t=Why%20I%20stopped%20eating%20meat%2C%20part%202&amp;s=Yesterday%20I%20mentioned%20I%20stopped%20eating%20meat%20for%20two%20categories%20of%20reasons%3A%20taste%20and%20intellectual%20reasons.%20Today%20I%27ll%20cover%20taste.%0D%0A%0D%0ABy%20taste%20I%20mean%20not%20just%20flavor%2C%20but%20what%20one%20likes%20or%20not%2C%20as%20in%20musical%20taste.%0D%0A%0D%0AI%20never%20liked%20eating%20meat.%20At%20le" target="_blank" rel="nofollow" style="background-position:-256px -32px" title="Tumblr" class="option1_32" shape="rect">\n</a>\n                          </li>\n                        </ul>\n                      </div>\n                      <a onclick="hide_sociable(\'post-1805\',true)" style="cursor:pointer" class="close" shape="rect">\n                        <img src="http://joshuaspodek.com/wp-content/plugins/sociable/images/closelabel.png" title="close" onclick="hide_sociable(\'post-1805\',true)"></img>\n                      </a>\n                    </div>\n                  </div>\n                </div>\n              </div>\n              <div style="float:none" class="sociable">\n                <ul class="clearfix">\n                  <li id="Twitter_Counter">\n                    <a data-count="horizontal" data-url="http://joshuaspodek.com/stopped-eating-meat-part-2" data-text="Why I stopped eating meat, part 2 - http://joshuaspodek.com/stopped-eating-meat-part-2" href="https://twitter.com/share" class="twitter-share-button" shape="rect">Tweet</a>\n                    <script src="//platform.twitter.com/widgets.js" type="text/javascript"></script>\n                  </li>\n                  <li id="Facebook_Counter">\n                    <iframe \n                    allowtransparency="true" style="border:none; overflow:hidden;height:32px;width:100px" src="http://www.facebook.com/plugins/like.php?href=http://joshuaspodek.com/stopped-eating-meat-part-2&amp;send=false&amp;layout=button_count&amp;show_faces=false&amp;action=like&amp;colorscheme=light&amp;font" scrolling="no" frameborder="0">\n</iframe>\n                  </li>\n                  <li id="Google_p">\n                    <g:plusone size="medium" href="http://joshuaspodek.com/stopped-eating-meat-part-2" annotation="bubble"></g:plusone>\n                  </li>\n                  <li id="LinkedIn_Counter">\n                    <script type="text/javascript" src="http://platform.linkedin.com/in.js"></script>\n                    <script data-counter="right" data-url="http://joshuaspodek.com/stopped-eating-meat-part-2" type="IN/Share"></script>\n                  </li>\n                  <li id="StumbleUpon_Counter">\n                    <script src="http://www.stumbleupon.com/hostedbadge.php?s=2&amp;r=http://joshuaspodek.com/stopped-eating-meat-part-2"></script>\n                  </li>\n                </ul>\n              </div>\n              <iframe \n              style="border:none; overflow:hidden; width:450px;margin-top:5px;" allowtransparency="true" src="http://www.facebook.com/plugins/like.php?href=http%3A%2F%2Fjoshuaspodek.com%2Fstopped-eating-meat-part-2&amp;layout=standard&amp;show_faces=true&amp;width=450&amp;action=like&amp;colorscheme=light" scrolling="no" frameborder="0">\n</iframe>\n            </div>\n            <div id="entry-author-info">\n              <div id="author-avatar">\n                <img width="60" height="60" src="http://1.gravatar.com/avatar/bd85c218fa25862c632021fc7b689cbe?s=60&amp;d=http%3A%2F%2F1.gravatar.com%2Favatar%2Fad516503a11cd5ca435acc9bb6523536%3Fs%3D60&amp;r=G" alt="" class="avatar avatar-60 photo"></img>\n              </div>\n              <div id="author-description">\n                <h2>About Joshua</h2>\n                Former rocket scientist now entrepreneur, leadership coach, speaker, and artist, Joshua Spodek (PhD \xc3\xa2\xe2\x82\xac\xe2\x84\xa200, Astrophysics; MBA \xc3\xa2\xe2\x82\xac\xe2\x84\xa206; both Columbia University) has succeeded at many big things that few people even try. More importantly, he loves everything he does.\n\nA modern renaissance man, he studied with Nobel Prize winners and helped build a European Space Agency X-ray satellite to observe supernova remnants, then started a business now operating globally based on several of his patents. He coaches leadership with the Columbia Business School Program on Social Intelligence and taught at New York University and the New School. He earned five Ivy-League diplomas; has shown his art in solo gallery shows and museums and installed large public art in New York and around the world; socializes with Academy Award winners; ran five marathons; and competed at national and global sporting events.\n\nHe has been quoted and profiled in the New York Times, Wall Street Journal, Washington Post, USA Today, Fortune, CNN, and the major broadcast networks. Esquire Magazine named him \xc3\xa2\xe2\x82\xac\xc5\x93Best and Brightest\xc3\xa2\xe2\x82\xac\xef\xbf\xbd in its annual Genius issue.\n                <div id="author-link">\n                  <a href="http://joshuaspodek.com/author/joshua" shape="rect">\n                    View all posts by Joshua\n                    <span class="meta-nav">\xe2\x86\x92</span>\n                  </a>\n                </div>\n              </div>\n            </div>\n            <div class="entry-utility">\n              This entry was posted in\n              <a rel="category tag" title="View all posts in Blog" href="http://joshuaspodek.com" shape="rect">Blog</a>\n              ,\n              <a rel="category tag" title="View all posts in Nature" href="http://joshuaspodek.com/category/nature" shape="rect">Nature</a>\n              and tagged\n              <a rel="tag" href="http://joshuaspodek.com/tag/anecdote" shape="rect">anecdote</a>\n              ,\n              <a rel="tag" href="http://joshuaspodek.com/tag/choosing" shape="rect">choosing</a>\n              ,\n              <a rel="tag" href="http://joshuaspodek.com/tag/environment" shape="rect">environment</a>\n              ,\n              <a rel="tag" href="http://joshuaspodek.com/tag/fitness-2" shape="rect">fitness</a>\n              ,\n              <a rel="tag" href="http://joshuaspodek.com/tag/nature-2" shape="rect">nature</a>\n              ,\n              <a rel="tag" href="http://joshuaspodek.com/tag/values" shape="rect">values</a>\n              . Bookmark the\n              <a rel="bookmark" title="Permalink to Why I stopped eating meat, part 2" href="http://joshuaspodek.com/stopped-eating-meat-part-2" shape="rect">permalink</a>\n              .\n            </div>\n          </article>\n          <nav class="navigation" id="nav-below">\n            <div class="nav-previous">\n              <a rel="prev" href="http://joshuaspodek.com/why-i-stopped-eating-meat-part-1" shape="rect">\n                <span class="meta-nav">\xe2\x86\x90</span>\n                Why I stopped eating meat, part 1\n              </a>\n            </div>\n            <div class="nav-next">\n              <a rel="next" href="http://joshuaspodek.com/mclibel" shape="rect">\n                McLibel\n                <span class="meta-nav">\xe2\x86\x92</span>\n              </a>\n            </div>\n          </nav>\n          <div id="comments">\n            <h3 id="comments-title">\n              5 Responses to\n              <em>Why I stopped eating meat, part 2</em>\n            </h3>\n            <ol class="commentlist">\n              <li class="post pingback">\n                <p>\n                  Pingback:\n                  <a rel="external nofollow" href="http://joshuaspodek.com/stopped-eating-meat-part-3" class="url" shape="rect">Why I stopped eating meat, part 3 | Joshua Spodek</a>\n                </p>\n              </li>\n              <li class="post pingback">\n                <p>\n                  Pingback:\n                  <a rel="external nofollow" href="http://joshuaspodek.com/why-i-dont-eat-meat-part-1" class="url" shape="rect">Why I don\xe2\x80\x99t eat meat, part 1 | Joshua Spodek</a>\n                </p>\n              </li>\n              <li class="post pingback">\n                <p>\n                  Pingback:\n                  <a rel="external nofollow" href="http://joshuaspodek.com/kids-understanding-eating-meat" class="url" shape="rect">More on kids\xe2\x80\x99 understanding about eating meat | Joshua Spodek</a>\n                </p>\n              </li>\n              <li class="post pingback">\n                <p>\n                  Pingback:\n                  <a rel="external nofollow" href="http://joshuaspodek.com/why-i-stopped-eating-meat-part-1" class="url" shape="rect">Why I stopped eating meat, part 1 | Joshua Spodek</a>\n                </p>\n              </li>\n              <li id="li-comment-12736" class="comment even thread-even depth-1">\n                <div id="comment-12736">\n                  <div class="comment-author vcard">\n                    <img width="40" height="40" src="http://1.gravatar.com/avatar/dfa09f5be6228adc0f0e8cf31713fd4b?s=40&amp;d=http%3A%2F%2F1.gravatar.com%2Favatar%2Fad516503a11cd5ca435acc9bb6523536%3Fs%3D40&amp;r=G" alt="" class="avatar avatar-40 photo"></img>\n                    <cite class="fn">\n                      <a rel="external nofollow" href="http://www.grassfedduck.com" class="url" shape="rect">GrassFedDuck</a>\n                    </cite>\n                    <span class="says">says:</span>\n                  </div>\n                  <div class="comment-meta commentmetadata">\n                    <a href="http://joshuaspodek.com/stopped-eating-meat-part-2#comment-12736" shape="rect"> March 29, 2012 at 12:15 pm</a>\n                  </div>\n                  <div class="comment-body">\n                    <p>The poor little ducks! I named my site after an eerily realistic \xe2\x80\x9cvegetarian duck\xe2\x80\x9d dish I had as a vegan. But sometimes when I tell people the name of my site they think it\xe2\x80\x99s about ways to cook duck meat, or To Serve Duck, as it were.</p>\n                  </div>\n                  <div class="reply">\n                    <a onclick="return addComment.moveForm(&quot;comment-12736&quot;, &quot;12736&quot;, &quot;respond&quot;, &quot;1805&quot;)" href="/stopped-eating-meat-part-2?replytocom=12736#respond" class="comment-reply-link" shape="rect">Reply</a>\n                  </div>\n                </div>\n              </li>\n            </ol>\n            <div id="respond">\n              <h3 id="reply-title">\n                Leave a Reply\n                <small>\n                  <a style="display:none;" href="/stopped-eating-meat-part-2#respond" rel="nofollow" id="cancel-comment-reply-link" shape="rect">Cancel reply</a>\n                </small>\n              </h3>\n              <form action="http://joshuaspodek.com/wp-comments-post.php" id="commentform" method="post" enctype="application/x-www-form-urlencoded">\n                <p class="comment-notes">\n                  Your email address will not be published. Required fields are marked\n                  <span class="required">*</span>\n                </p>\n                <p class="comment-form-author">\n                  <label for="author">Name</label>\n                  <span class="required">*</span>\n                  <input aria-required="true" size="30" value="" name="author" id="author" type="text"></input>\n                </p>\n                <p class="comment-form-email">\n                  <label for="email">Email</label>\n                  <span class="required">*</span>\n                  <input aria-required="true" size="30" value="" name="email" id="email" type="text"></input>\n                </p>\n                <p class="comment-form-url">\n                  <label for="url">Website</label>\n                  <input size="30" value="" name="url" id="url" type="text"></input>\n                </p>\n                <p class="comment-form-comment">\n                  <label for="comment">Comment</label>\n                  <textarea aria-required="true" name="comment" id="comment" rows="8" cols="45"></textarea>\n                </p>\n                <p class="form-allowed-tags">\n                  You may use these\n                  <abbr title="HyperText Markup Language">HTML</abbr>\n                  tags and attributes:\n                  <code>\n                    &lt;a href=&quot;&quot; title=&quot;&quot;&gt; &lt;abbr title=&quot;&quot;&gt; &lt;acronym title=&quot;&quot;&gt; &lt;b&gt; &lt;blockquote cite=&quot;&quot;&gt; &lt;cite&gt; &lt;code&gt; &lt;del datetime=&quot;&quot;&gt; &lt;em&gt; &lt;i&gt; &lt;q cite=&quot;&quot;&gt; &lt;strike&gt; &lt;strong&gt;\n                  </code>\n                </p>\n                <p class="form-submit">\n                  <input value="Post Comment" name="submit" id="submit" type="submit"></input>\n                  <input value="1805" name="comment_post_ID" id="comment_post_ID" type="hidden"></input>\n                  <input value="0" name="comment_parent" id="comment_parent" type="hidden"></input>\n                </p>\n                <p style="display: none;">\n                  <input value="ce2e39522d" name="akismet_comment_nonce" id="akismet_comment_nonce" type="hidden"></input>\n                </p>\n                <div>\n                  <input value="" name="wphc_value" id="wphc_value" type="hidden"></input>\n                </div>\n                <noscript>\n                  <div>\n                    <small>Wordpress Hashcash needs javascript to work, but your browser has javascript disabled. Your comment will be queued in Akismet!</small>\n                  </div>\n                </noscript>\n              </form>\n            </div>\n            <script type="text/javascript"> jQuery(document).ready(function () { jQuery(\'#commentform\').submit(function () { _gaq.push( [\'_setAccount\', \'UA-21147224-3\'], [\'_trackEvent\', \'comment\', \'submit\'] ); }); }); </script>\n          </div>\n        </div>\n        <div role="complementary" id="sidebar" class="widget-area threecol last">\n          <ul class="xoxo">\n            <li id="search-2" class="widget-container widget_search">\n              <h3 class="widget-title">Search</h3>\n              <form action="http://joshuaspodek.com/" role="search" id="searchform" method="get" enctype="application/x-www-form-urlencoded">\n                <div>\n                  <label class="screen-reader-text" for="s">Search for:</label>\n                  <input name="s" value="" id="s" type="text"></input>\n                  <input value="Search" id="searchsubmit" type="submit"></input>\n                </div>\n              </form>\n            </li>\n            <li id="sgw-2" class="widget-container sgw">\n              <h3 class="widget-title">Buy my book! Understanding North Korea: Demystifying the World\xe2\x80\x99s Most Misunderstood Country</h3>\n              <div class="textwidget">\n                <table style="margin:0px auto;" id="support_great_writers">\n                  <tr>\n                    <td rowspan="1" colspan="1">\n                      <a href="http://www.amazon.com/gp/product/B006PMDXTM?ie=UTF8&amp;tag=joshspod-20&amp;linkCode=as2&amp;camp=1789&amp;creative=9325&amp;creativeASIN=B006PMDXTM" target="_blank" title="Click for more Information" shape="rect">\n                        <img src="http://ecx.images-amazon.com/images/P/B006PMDXTM.01._SCMZZZZZZZ_.jpg" border="0"></img>\n                      </a>\n                      <img style="border:none !important; margin:0px !important;" alt="" border="0" height="1" width="1" src="http://www.assoc-amazon.com/e/ir?t=joshspod-20&amp;l=as2&amp;o=1&amp;a=B006PMDXTM"></img>\n                    </td>\n                  </tr>\n                </table>\n              </div>\n            </li>\n            <li id="mailchimpsf_widget-3" class="widget-container widget_mailchimpsf_widget">\n              <h3 class="widget-title">I lead and organize seminars periodically. I\'m also working on a book. If you\'re interested about hearing about dates, sign up. I\'ll email maybe once a month and never share your information with anyone else.</h3>\n              <div id="mc_signup">\n                <form action="#mc_signup" id="mc_signup_form" method="post" enctype="application/x-www-form-urlencoded">\n                  <input value="html" name="mc_submit_type" id="mc_submit_type" type="hidden"></input>\n                  <input value="mc_submit_signup_form" name="mcsf_action" type="hidden"></input>\n                  <input value="4f1b5ecdad" name="_mc_submit_signup_form_nonce" id="_mc_submit_signup_form_nonce" type="hidden"></input>\n                  <div class="mc_form_inside">\n                    <div id="mc_message" class="updated"> </div>\n                    <div class="mc_merge_var">\n                      <label class="mc_var_label" for="mc_mv_EMAIL">\n                        Email Address\n                        <span class="mc_required">*</span>\n                      </label>\n                      <input name="mc_mv_EMAIL" value="" size="18" id="mc_mv_EMAIL" class="mc_input" type="text"></input>\n                    </div>\n                    <div class="mc_merge_var">\n                      <label class="mc_var_label" for="mc_mv_FNAME">First Name</label>\n                      <input name="mc_mv_FNAME" value="" size="18" id="mc_mv_FNAME" class="mc_input" type="text"></input>\n                    </div>\n                    <div class="mc_merge_var">\n                      <label class="mc_var_label" for="mc_mv_LNAME">Last Name</label>\n                      <input name="mc_mv_LNAME" value="" size="18" id="mc_mv_LNAME" class="mc_input" type="text"></input>\n                    </div>\n                    <div id="mc-indicates-required"> * = required field </div>\n                    <div class="mergeRow">\n                      <label>Preferred Format</label>\n                      <div class="field-group groups">\n                        <ul class="mc_list">\n                          <li>\n                            <input value="html" name="email_type" id="email_type_html" type="radio" checked="checked"></input>\n                            <label for="email_type_html">HTML</label>\n                          </li>\n                          <li>\n                            <input value="text" name="email_type" id="email_type_text" type="radio"></input>\n                            <label for="email_type_text">Text</label>\n                          </li>\n                          <li>\n                            <input value="mobile" name="email_type" id="email_type_mobile" type="radio"></input>\n                            <label for="email_type_mobile">Mobile</label>\n                          </li>\n                        </ul>\n                      </div>\n                    </div>\n                    <div class="mc_signup_submit">\n                      <input value="Subscribe" name="mc_signup_submit" id="mc_signup_submit" class="button" type="submit"></input>\n                    </div>\n                  </div>\n                </form>\n              </div>\n            </li>\n            <li id="s2_form_widget-2" class="widget-container s2_form_widget">\n              <h3 class="widget-title">Subscribe2</h3>\n              <div class="search">\n                Sign up here for notifications of blog posts, generally one or two per day\n                <form action="http://joshuaspodek.com/about" method="post" enctype="application/x-www-form-urlencoded">\n                  <input value="128.119.246.79" name="ip" type="hidden"></input>\n                  <p>\n                    <label for="s2email">Your email:</label>\n                    <br clear="none"></br>\n                    <input onblur="if (this.value == \'\') {this.value = \'Enter email address...\';}" onfocus="if (this.value == \'Enter email address...\') {this.value = \'\';}" size="20" value="Enter email address..." name="email" id="s2email" type="text"></input>\n                  </p>\n                  <p>\n                    <input value="Subscribe" name="subscribe" type="submit"></input>\n                    \xc2\xa0\n                    <input value="Unsubscribe" name="unsubscribe" type="submit"></input>\n                  </p>\n                </form>\n              </div>\n            </li>\n            <li id="recent-posts-6" class="widget-container widget_recent_entries">\n              <h3 class="widget-title">Recent Posts</h3>\n              <ul>\n                <li>\n                  <a title="A sample 360-degree feedback: Overview charts" href="http://joshuaspodek.com/sample-360-degree-feedback-overview" shape="rect">A sample 360-degree feedback: Overview charts</a>\n                </li>\n                <li>\n                  <a title="Coaching highlights from coaching Columbia Business School students: 360-degree feedbacks" href="http://joshuaspodek.com/coaching-highlights-coaching-columbia-2" shape="rect">Coaching highlights from coaching Columbia Business School students: 360-degree feedbacks</a>\n                </li>\n                <li>\n                  <a title="Coaching highlights from coaching Columbia Business School students" href="http://joshuaspodek.com/coaching-highlights-coaching-columbia" shape="rect">Coaching highlights from coaching Columbia Business School students</a>\n                </li>\n                <li>\n                  <a title="See Joshua Spodek at INSEAD Singapore next week" href="http://joshuaspodek.com/joshua-spodek-insead-singapore" shape="rect">See Joshua Spodek at INSEAD Singapore next week</a>\n                </li>\n                <li>\n                  <a title="Amazing essays by amazing writers and thinkers" href="http://joshuaspodek.com/amazing-essays-amazing-writers" shape="rect">Amazing essays by amazing writers and thinkers</a>\n                </li>\n              </ul>\n            </li>\n            <li id="categories-6" class="widget-container widget_categories">\n              <h3 class="widget-title">Categories</h3>\n              <ul>\n                <li class="cat-item cat-item-3">\n                  <a title="View all posts filed under Art" href="http://joshuaspodek.com/category/art" shape="rect">Art</a>\n                </li>\n                <li class="cat-item cat-item-88">\n                  <a title="View all posts filed under Audio" href="http://joshuaspodek.com/category/audio" shape="rect">Audio</a>\n                </li>\n                <li class="cat-item cat-item-7">\n                  <a title="View all posts filed under Awareness" href="http://joshuaspodek.com/category/awareness" shape="rect">Awareness</a>\n                </li>\n                <li class="cat-item cat-item-45">\n                  <a title="Success through values, meaning, purpose, importance, and passion" href="http://joshuaspodek.com" shape="rect">Blog</a>\n                </li>\n                <li class="cat-item cat-item-4">\n                  <a title="View all posts filed under Creativity" href="http://joshuaspodek.com/category/creativity" shape="rect">Creativity</a>\n                </li>\n                <li class="cat-item cat-item-8">\n                  <a title="View all posts filed under Education" href="http://joshuaspodek.com/category/education" shape="rect">Education</a>\n                </li>\n                <li class="cat-item cat-item-29">\n                  <a title="View all posts filed under Entrepreneurship" href="http://joshuaspodek.com/category/entrepreneurship" shape="rect">Entrepreneurship</a>\n                </li>\n                <li class="cat-item cat-item-6">\n                  <a title="View all posts filed under Evolutionary Psychology" href="http://joshuaspodek.com/category/evolutionary-psychology" shape="rect">Evolutionary Psychology</a>\n                </li>\n                <li class="cat-item cat-item-5">\n                  <a title="View all posts filed under Fitness" href="http://joshuaspodek.com/category/fitness" shape="rect">Fitness</a>\n                </li>\n                <li class="cat-item cat-item-9">\n                  <a title="View all posts filed under Freedom" href="http://joshuaspodek.com/category/freedom" shape="rect">Freedom</a>\n                </li>\n                <li class="cat-item cat-item-1">\n                  <a title="View all posts filed under General" href="http://joshuaspodek.com/category/general" shape="rect">General</a>\n                </li>\n                <li class="cat-item cat-item-34">\n                  <a title="View all posts filed under Humor" href="http://joshuaspodek.com/category/humor" shape="rect">Humor</a>\n                </li>\n                <li class="cat-item cat-item-39">\n                  <a title="View all posts filed under Leadership" href="http://joshuaspodek.com/category/leadership" shape="rect">Leadership</a>\n                </li>\n                <li class="cat-item cat-item-10">\n                  <a title="View all posts filed under Nature" href="http://joshuaspodek.com/category/nature" shape="rect">Nature</a>\n                </li>\n                <li class="cat-item cat-item-87">\n                  <a title="View all posts filed under NorthKorea" href="http://joshuaspodek.com/category/northkorea" shape="rect">NorthKorea</a>\n                </li>\n                <li class="cat-item cat-item-33">\n                  <a title="View all posts filed under Tips" href="http://joshuaspodek.com/category/tips" shape="rect">Tips</a>\n                </li>\n              </ul>\n            </li>\n            <li id="tag_cloud-5" class="widget-container widget_tag_cloud">\n              <h3 class="widget-title">Tags</h3>\n              <div class="tagcloud">\n                <a style="font-size: 22pt;" title="274 topics" href="http://joshuaspodek.com/tag/anecdote" class="tag-link-38" shape="rect">anecdote</a>\n                <a style="font-size: 17.367647058824pt;" title="96 topics" href="http://joshuaspodek.com/tag/art-2" class="tag-link-11" shape="rect">art</a>\n                <a style="font-size: 21.588235294118pt;" title="252 topics" href="http://joshuaspodek.com/tag/awareness-2" class="tag-link-12" shape="rect">awareness</a>\n                <a style="font-size: 11.808823529412pt;" title="27 topics" href="http://joshuaspodek.com/tag/choosing" class="tag-link-13" shape="rect">choosing</a>\n                <a style="font-size: 17.573529411765pt;" title="101 topics" href="http://joshuaspodek.com/tag/creativity-2" class="tag-link-14" shape="rect">creativity</a>\n                <a style="font-size: 18.088235294118pt;" title="114 topics" href="http://joshuaspodek.com/tag/education-2" class="tag-link-15" shape="rect">education</a>\n                <a style="font-size: 20.970588235294pt;" title="216 topics" href="http://joshuaspodek.com/tag/emotions" class="tag-link-35" shape="rect">emotions</a>\n                <a style="font-size: 16.338235294118pt;" title="76 topics" href="http://joshuaspodek.com/tag/entrepreneurship-2" class="tag-link-30" shape="rect">entrepreneurship</a>\n                <a style="font-size: 18.088235294118pt;" title="114 topics" href="http://joshuaspodek.com/tag/environment" class="tag-link-16" shape="rect">environment</a>\n                <a style="font-size: 18.397058823529pt;" title="122 topics" href="http://joshuaspodek.com/tag/evaluation" class="tag-link-17" shape="rect">evaluation</a>\n                <a style="font-size: 15.102941176471pt;" title="58 topics" href="http://joshuaspodek.com/tag/evolutionary-psychology-2" class="tag-link-18" shape="rect">evolutionary psychology</a>\n                <a style="font-size: 15.720588235294pt;" title="66 topics" href="http://joshuaspodek.com/tag/fitness-2" class="tag-link-19" shape="rect">fitness</a>\n                <a style="font-size: 21.485294117647pt;" title="244 topics" href="http://joshuaspodek.com/tag/freedom-2" class="tag-link-21" shape="rect">freedom</a>\n                <a style="font-size: 8pt;" title="11 topics" href="http://joshuaspodek.com/tag/freedombox" class="tag-link-41" shape="rect">freedombox</a>\n                <a style="font-size: 11.397058823529pt;" title="25 topics" href="http://joshuaspodek.com/tag/free-software" class="tag-link-20" shape="rect">free software</a>\n                <a style="font-size: 20.661764705882pt;" title="205 topics" href="http://joshuaspodek.com/tag/leadership" class="tag-link-39" shape="rect">Leadership</a>\n                <a style="font-size: 19.014705882353pt;" title="141 topics" href="http://joshuaspodek.com/tag/models" class="tag-link-22" shape="rect">models</a>\n                <a style="font-size: 20.764705882353pt;" title="206 topics" href="http://joshuaspodek.com/tag/motivation" class="tag-link-36" shape="rect">motivation</a>\n                <a style="font-size: 19.426470588235pt;" title="153 topics" href="http://joshuaspodek.com/tag/nature-2" class="tag-link-23" shape="rect">nature</a>\n                <a style="font-size: 17.882352941176pt;" title="108 topics" href="http://joshuaspodek.com/tag/non-judgmental-acceptance" class="tag-link-24" shape="rect">non-judgmental acceptance</a>\n                <a style="font-size: 14.176470588235pt;" title="47 topics" href="http://joshuaspodek.com/tag/responsibility-blame" class="tag-link-31" shape="rect">responsibility &gt; blame</a>\n                <a style="font-size: 21.897058823529pt;" title="271 topics" href="http://joshuaspodek.com/tag/self-improvement" class="tag-link-32" shape="rect">self-improvement</a>\n                <a style="font-size: 14.588235294118pt;" title="52 topics" href="http://joshuaspodek.com/tag/solutions-problems" class="tag-link-40" shape="rect">solutions &gt; problems</a>\n                <a style="font-size: 12.735294117647pt;" title="34 topics" href="http://joshuaspodek.com/tag/systems" class="tag-link-25" shape="rect">systems</a>\n                <a style="font-size: 21.382352941176pt;" title="241 topics" href="http://joshuaspodek.com/tag/tips-2" class="tag-link-37" shape="rect">tips</a>\n                <a style="font-size: 18.808823529412pt;" title="134 topics" href="http://joshuaspodek.com/tag/travel" class="tag-link-26" shape="rect">travel</a>\n                <a style="font-size: 9.2352941176471pt;" title="15 topics" href="http://joshuaspodek.com/tag/unionsquareinmotion" class="tag-link-90" shape="rect">unionsquareinmotion</a>\n                <a style="font-size: 20.455882352941pt;" title="194 topics" href="http://joshuaspodek.com/tag/values" class="tag-link-27" shape="rect">values</a>\n                <a style="font-size: 14.279411764706pt;" title="48 topics" href="http://joshuaspodek.com/tag/zoetropes" class="tag-link-28" shape="rect">zoetropes</a>\n              </div>\n            </li>\n            <li id="archives-2" class="widget-container widget_archive">\n              <h3 class="widget-title">Archives</h3>\n              <ul>\n                <li>\n                  <a title="October 2012" href="http://joshuaspodek.com/2012/10" shape="rect">October 2012</a>\n                  \xc2\xa0(3)\n                </li>\n                <li>\n                  <a title="September 2012" href="http://joshuaspodek.com/2012/09" shape="rect">September 2012</a>\n                  \xc2\xa0(30)\n                </li>\n                <li>\n                  <a title="August 2012" href="http://joshuaspodek.com/2012/08" shape="rect">August 2012</a>\n                  \xc2\xa0(39)\n                </li>\n                <li>\n                  <a title="July 2012" href="http://joshuaspodek.com/2012/07" shape="rect">July 2012</a>\n                  \xc2\xa0(44)\n                </li>\n                <li>\n                  <a title="June 2012" href="http://joshuaspodek.com/2012/06" shape="rect">June 2012</a>\n                  \xc2\xa0(33)\n                </li>\n                <li>\n                  <a title="May 2012" href="http://joshuaspodek.com/2012/05" shape="rect">May 2012</a>\n                  \xc2\xa0(33)\n                </li>\n                <li>\n                  <a title="April 2012" href="http://joshuaspodek.com/2012/04" shape="rect">April 2012</a>\n                  \xc2\xa0(34)\n                </li>\n                <li>\n                  <a title="March 2012" href="http://joshuaspodek.com/2012/03" shape="rect">March 2012</a>\n                  \xc2\xa0(35)\n                </li>\n                <li>\n                  <a title="February 2012" href="http://joshuaspodek.com/2012/02" shape="rect">February 2012</a>\n                  \xc2\xa0(34)\n                </li>\n                <li>\n                  <a title="January 2012" href="http://joshuaspodek.com/2012/01" shape="rect">January 2012</a>\n                  \xc2\xa0(49)\n                </li>\n                <li>\n                  <a title="December 2011" href="http://joshuaspodek.com/2011/12" shape="rect">December 2011</a>\n                  \xc2\xa0(55)\n                </li>\n                <li>\n                  <a title="November 2011" href="http://joshuaspodek.com/2011/11" shape="rect">November 2011</a>\n                  \xc2\xa0(60)\n                </li>\n                <li>\n                  <a title="October 2011" href="http://joshuaspodek.com/2011/10" shape="rect">October 2011</a>\n                  \xc2\xa0(66)\n                </li>\n                <li>\n                  <a title="September 2011" href="http://joshuaspodek.com/2011/09" shape="rect">September 2011</a>\n                  \xc2\xa0(41)\n                </li>\n                <li>\n                  <a title="August 2011" href="http://joshuaspodek.com/2011/08" shape="rect">August 2011</a>\n                  \xc2\xa0(31)\n                </li>\n                <li>\n                  <a title="July 2011" href="http://joshuaspodek.com/2011/07" shape="rect">July 2011</a>\n                  \xc2\xa0(33)\n                </li>\n                <li>\n                  <a title="June 2011" href="http://joshuaspodek.com/2011/06" shape="rect">June 2011</a>\n                  \xc2\xa0(32)\n                </li>\n                <li>\n                  <a title="May 2011" href="http://joshuaspodek.com/2011/05" shape="rect">May 2011</a>\n                  \xc2\xa0(35)\n                </li>\n                <li>\n                  <a title="April 2011" href="http://joshuaspodek.com/2011/04" shape="rect">April 2011</a>\n                  \xc2\xa0(44)\n                </li>\n                <li>\n                  <a title="March 2011" href="http://joshuaspodek.com/2011/03" shape="rect">March 2011</a>\n                  \xc2\xa0(31)\n                </li>\n                <li>\n                  <a title="February 2011" href="http://joshuaspodek.com/2011/02" shape="rect">February 2011</a>\n                  \xc2\xa0(33)\n                </li>\n                <li>\n                  <a title="January 2011" href="http://joshuaspodek.com/2011/01" shape="rect">January 2011</a>\n                  \xc2\xa0(19)\n                </li>\n                <li>\n                  <a title="July 2010" href="http://joshuaspodek.com/2010/07" shape="rect">July 2010</a>\n                  \xc2\xa0(1)\n                </li>\n                <li>\n                  <a title="March 2010" href="http://joshuaspodek.com/2010/03" shape="rect">March 2010</a>\n                  \xc2\xa0(2)\n                </li>\n                <li>\n                  <a title="February 2010" href="http://joshuaspodek.com/2010/02" shape="rect">February 2010</a>\n                  \xc2\xa0(1)\n                </li>\n                <li>\n                  <a title="January 2010" href="http://joshuaspodek.com/2010/01" shape="rect">January 2010</a>\n                  \xc2\xa0(1)\n                </li>\n                <li>\n                  <a title="October 2009" href="http://joshuaspodek.com/2009/10" shape="rect">October 2009</a>\n                  \xc2\xa0(1)\n                </li>\n                <li>\n                  <a title="June 2009" href="http://joshuaspodek.com/2009/06" shape="rect">June 2009</a>\n                  \xc2\xa0(2)\n                </li>\n                <li>\n                  <a title="April 2009" href="http://joshuaspodek.com/2009/04" shape="rect">April 2009</a>\n                  \xc2\xa0(1)\n                </li>\n                <li>\n                  <a title="February 2009" href="http://joshuaspodek.com/2009/02" shape="rect">February 2009</a>\n                  \xc2\xa0(1)\n                </li>\n                <li>\n                  <a title="August 2008" href="http://joshuaspodek.com/2008/08" shape="rect">August 2008</a>\n                  \xc2\xa0(1)\n                </li>\n                <li>\n                  <a title="April 2008" href="http://joshuaspodek.com/2008/04" shape="rect">April 2008</a>\n                  \xc2\xa0(1)\n                </li>\n                <li>\n                  <a title="February 2008" href="http://joshuaspodek.com/2008/02" shape="rect">February 2008</a>\n                  \xc2\xa0(1)\n                </li>\n              </ul>\n            </li>\n            <li id="meta-4" class="widget-container widget_meta">\n              <h3 class="widget-title">Meta</h3>\n              <ul>\n                <li>\n                  <a href="http://joshuaspodek.com/wp-login.php?action=register" shape="rect">Register</a>\n                </li>\n                <li>\n                  <a href="http://joshuaspodek.com/wp-login.php" shape="rect">Log in</a>\n                </li>\n                <li>\n                  <a title="Syndicate this site using RSS 2.0" href="http://joshuaspodek.com/feed" shape="rect">\n                    Entries\n                    <abbr title="Really Simple Syndication">RSS</abbr>\n                  </a>\n                </li>\n                <li>\n                  <a title="The latest comments to all posts in RSS" href="http://joshuaspodek.com/comments/feed" shape="rect">\n                    Comments\n                    <abbr title="Really Simple Syndication">RSS</abbr>\n                  </a>\n                </li>\n                <li>\n                  <a title="Powered by WordPress, state-of-the-art semantic personal publishing platform." href="http://wordpress.org/" shape="rect">WordPress.org</a>\n                </li>\n              </ul>\n            </li>\n          </ul>\n        </div>\n      </div>\n      <footer class="row" role="contentinfo" id="footer">\n        <div id="footerbar" class="twelvecol last"> </div>\n        <div id="colophon" class="twelvecol last">\n          <div id="site-info" class="sixcol">\n            <a rel="home" title="Joshua Spodek" href="http://joshuaspodek.com/" shape="rect"> Joshua Spodek </a>\n          </div>\n          <div id="site-generator" class="sixcol last">\n            <a title="Semantic Personal Publishing Platform" href="http://wordpress.org/" shape="rect">Proudly powered by WordPress.</a>\n          </div>\n        </div>\n      </footer>\n    </div>\n  </body>\n</html>'
p11
sbsS'mentions'
p12
(lp13
(iedu.umass.cs.iesl.wikilink.expanded.data.ttypes
Mention
p14
(dp15
S'anchor_text'
p16
S'Wissahickon Creek'
p17
sS'context'
p18
(iedu.umass.cs.iesl.wikilink.expanded.data.ttypes
Context
p19
(dp20
S'middle'
p21
S'Wissahickon Creek'
p22
sS'right'
p23
S'near where I grew up is a small area called Valley Green where, when families come, children throw breadcrumbs to the ducks there. The kids'
p24
sS'left'
p25
S'living and possibly too gross or too cute to eat, or at least something they wouldn\xe2\x80\x99t want to kill themselves. For example, along the beautiful'
p26
sbsS'freebase_id'
p27
S'9202a8c04000641f8000000000289347'
p28
sS'raw_text_offset'
p29
I16609
sS'wiki_url'
p30
S'http://en.wikipedia.org/wiki/Wissahickon_Creek'
p31
sba(iedu.umass.cs.iesl.wikilink.expanded.data.ttypes
Mention
p32
(dp33
g16
S'McLibel'
p34
sg18
(iedu.umass.cs.iesl.wikilink.expanded.data.ttypes
Context
p35
(dp36
g21
S'McLibel'
p37
sg23
S'), clicked on \xe2\x80\x9cchicken\xe2\x80\x9d and saw nothing remotely resembling anything coming from a living chicken. I find these highly processed un-meat-like products can be easily'
p38
sg25
S'hot dogs. I just went to the McDonald\xe2\x80\x99s web site (for the first time, and probably the last \xe2\x80\x94 I spend more time learning about'
p39
sbsg27
Nsg29
I19379
sg30
S'http://en.wikipedia.org/wiki/McLibel_Case'
p40
sbasS'doc_id'
p41
I324556
sS'rare_words'
p42
(lp43
(iedu.umass.cs.iesl.wikilink.expanded.data.ttypes
RareWord
p44
(dp45
S'word'
p46
S'Across'
p47
sS'offset'
p48
I16853
sba(iedu.umass.cs.iesl.wikilink.expanded.data.ttypes
RareWord
p49
(dp50
g46
S'harden'
p51
sg48
I18243
sba(iedu.umass.cs.iesl.wikilink.expanded.data.ttypes
RareWord
p52
(dp53
g46
S'connected'
p54
sg48
I19891
sba(iedu.umass.cs.iesl.wikilink.expanded.data.ttypes
RareWord
p55
(dp56
g46
S'everybody'
p57
sg48
I17238
sba(iedu.umass.cs.iesl.wikilink.expanded.data.ttypes
RareWord
p58
(dp59
g46
S'stuck'
p60
sg48
I16016
sba(iedu.umass.cs.iesl.wikilink.expanded.data.ttypes
RareWord
p61
(dp62
g46
S'little'
p63
sg48
I37186
sba(iedu.umass.cs.iesl.wikilink.expanded.data.ttypes
RareWord
p64
(dp65
g46
S'small'
p66
sg48
I16657
sba(iedu.umass.cs.iesl.wikilink.expanded.data.ttypes
RareWord
p67
(dp68
g46
S'eerily'
p69
sg48
I37226
sba(iedu.umass.cs.iesl.wikilink.expanded.data.ttypes
RareWord
p70
(dp71
g46
S'should'
p72
sg48
I18816
sba(iedu.umass.cs.iesl.wikilink.expanded.data.ttypes
RareWord
p73
(dp74
g46
S'resonate'
p75
sg48
I20230
sbasb.