(iedu.umass.cs.iesl.wikilink.expanded.data.ttypes
WikiLinkItem
p0
(dp1
S'url'
p2
S'http://adly.hadifataya.com/12350/film-the-raid/1497/28552.html'
p3
sS'content'
p4
(iedu.umass.cs.iesl.wikilink.expanded.data.ttypes
PageContentItem
p5
(dp6
S'articleText'
p7
NsS'raw'
p8
NsS'fullText'
p9
NsS'dom'
p10
S'<html>\n  <head>\n    <meta content="text/html; charset=utf-8" http-equiv="Content-Type"></meta>\n    <title>THE RAID </title>\n    <script type="text/javascript" language="JavaScript">\n      &lt;!--\n\nvar Cnt=11;\n\nfunction Timer(){\n td=document.getElementById(\'ch1\');\n te=document.getElementById(\'ch2\');\n td.innerHTML=\'Your page being prepared will be ready &lt;br/&gt;in &lt;span style=&quot;font-weight:bold; color:red&quot;&gt;\'+Cnt+\'&lt;/span&gt;  seconds.\';\n Cnt--;\n if (Cnt &gt; 0){ setTimeout(\'Timer();\',1000); }\n else {\n  td.style.display=\'none\';\n  te.innerHTML=\'&lt;span style=&quot;color:red; font-size:19px; font-weight:bold; text-decoration:underline; cursor:pointer;&quot; onclick=&quot;document[\\\'up\\\'].submit()&quot;&gt;Click Here to continue&lt;/span&gt;&lt;br/&gt;Your page is ready now.\'\n }\n}\n//--&gt;\n    </script>\n    <style type="text/css">\n      body{\n\tfont-family: Times, &quot;Times New Roman&quot;, serif;\n\tfont-size: 18px;\n}\n\nh2{\n}\n\na{\n\tcolor:blue;\n}\n\n.logo{\n\tcolor:#369;\n\ttext-decoration:none;\n\tmargin: 0px 10px 0px 10px;\n\ttext-align:center;\n\tfont-size: 24px;\n\tfont-weight: bold;\n}\n\n.ad728{\n\tmargin: 10px;\n}\n\n.ad160{\n\tfloat:right;\n\tmargin-right:10px;\n}\n\n.ad468{\n\tmargin: 5px auto 10px auto;\n}\n\n.ad250{\n\tmargin: 10px auto;\n}\n\n.ad300{\n\tmargin: 10px auto;\n}\n.ad336{\n\tmargin: 5px auto;\n}\n\n.ad200{\n\tmargin: 7px auto 20px auto;\n}\n\n#ch1{\n\tmargin: auto;\n\twidth:inherit;\n\ttext-align:center;\n\theight:50px;\n}\n#ch2{\n\tmargin: auto;\n\twidth:inherit;\n\ttext-align:center;\n\theight:50px;\n}\n    </style>\n  </head>\n  <body onload="Timer();">\n    <table style="border: 0px hidden; background:#fff" width="750" align="center">\n      <tr>\n        <td rowspan="1" colspan="1" align="center">\n          <div style="width:730px; height:92px; " class="ad728">\n            <script type="text/javascript">&lt;!-- google_ad_client = &quot;ca-pub-3385298847202201&quot;; /* Redirect 728x90 */ google_ad_slot = &quot;2357612318&quot;; google_ad_width = 728; google_ad_height = 90; //--&gt; </script>\n            <script src="http://pagead2.googlesyndication.com/pagead/show_ads.js" type="text/javascript"> </script>\n          </div>\n        </td>\n      </tr>\n      <tr>\n        <td rowspan="1" colspan="1" align="center">\n          <div class="logo">THE RAID </div>\n        </td>\n      </tr>\n      <tr>\n        <td width="500" rowspan="1" colspan="1">\n          <div style="width:468px; height:60px;" class="ad468">\n            <script type="text/javascript">&lt;!-- google_ad_client = &quot;ca-pub-3385298847202201&quot;; /* Redirect 468x60 */ google_ad_slot = &quot;5327097753&quot;; google_ad_width = 468; google_ad_height = 60; //--&gt; </script>\n            <script src="http://pagead2.googlesyndication.com/pagead/show_ads.js" type="text/javascript"> </script>\n          </div>\n        </td>\n      </tr>\n      <tr>\n        <td rowspan="1" colspan="1">\n          <div style="width:302px; height:252px;" class="ad300">\n            <script type="text/javascript">&lt;!-- google_ad_client = &quot;ca-pub-3385298847202201&quot;; /* Redirect 300x250 */ google_ad_slot = &quot;3830368732&quot;; google_ad_width = 300; google_ad_height = 250; //--&gt; </script>\n            <script src="http://pagead2.googlesyndication.com/pagead/show_ads.js" type="text/javascript"> </script>\n          </div>\n        </td>\n      </tr>\n      <tr>\n        <td rowspan="1" colspan="1">\n          <div id="ch1">\n            Your page being prepared will be ready\n            <br clear="none"></br>\n            in\n            <span style="font-weight:bold; color:red">12</span>\n            seconds.\n          </div>\n          <div id="ch2"></div>\n        </td>\n        <td rowspan="1" colspan="1"> </td>\n      </tr>\n      <tr>\n        <form action="" name="up" id="up" method="post" enctype="application/x-www-form-urlencoded">\n          <td style="color:#333" rowspan="1" colspan="1"> </td>\n          <input value="" name="ip2" type="hidden"></input>\n        </form>\n      </tr>\n      <tr>\n        <td rowspan="1" colspan="3">\n          <p>\n            <strong>About___</strong>\n          </p>\n          <p>\n            <strong>The Raid: Redemption</strong>\n            \xc2\xa0(Indonesian:\xc2\xa0\n            <span xml:lang="id" lang="id">Serbuan maut</span>\n            ; also known as\xc2\xa0\n            <strong>The Raid</strong>\n            ) is a 2011\xc2\xa0\n            <a title="Indonesia" href="http://en.wikipedia.org/wiki/Indonesia" shape="rect">Indonesian</a>\n            <a title="Action film" href="http://en.wikipedia.org/wiki/Action_film" shape="rect">action film</a>\n            \xc2\xa0written and directed by\xc2\xa0\n            <a title="Gareth Evans (director)" href="http://en.wikipedia.org/wiki/Gareth_Evans_(director)" shape="rect">Gareth Evans</a>\n            \xc2\xa0and starring\xc2\xa0\n            <a title="Iko Uwais" href="http://en.wikipedia.org/wiki/Iko_Uwais" shape="rect">Iko Uwais</a>\n            . This is the second collaboration of Evans and Uwais after their first action film,\xc2\xa0\n            <a title="Merantau" href="http://en.wikipedia.org/wiki/Merantau" shape="rect">Merantau</a>\n            \xc2\xa0released in 2009. Both films showcase the traditional Indonesian martial art\xc2\xa0\n            <a title="Pencak silat" href="http://en.wikipedia.org/wiki/Pencak_silat" shape="rect">pencak silat</a>\n            . The fight choreographers of\xc2\xa0The Raid\xc2\xa0are Iko Uwais and Yayan Ruhian who also worked on\xc2\xa0Merantau. The U.S. release of the film features music by\xc2\xa0\n            <a title="Mike Shinoda" href="http://en.wikipedia.org/wiki/Mike_Shinoda" shape="rect">Mike Shinoda</a>\n            \xc2\xa0and\xc2\xa0\n            <a title="Joseph Trapanese" href="http://en.wikipedia.org/wiki/Joseph_Trapanese" shape="rect">Joseph Trapanese</a>\n            .\n          </p>\n          <p>\n            After its world premiere at the\xc2\xa0\n            <a title="Toronto International Film Festival" href="http://en.wikipedia.org/wiki/Toronto_International_Film_Festival" shape="rect">Toronto International Film Festival</a>\n            \xc2\xa0(TIFF),\xc2\xa0The Raid\xc2\xa0received positive reviews from critics. The name of the film was changed to\xc2\xa0The Raid: Redemption\xc2\xa0in the United States because the production company\xc2\xa0\n            <a title="Sony Pictures Classics" href="http://en.wikipedia.org/wiki/Sony_Pictures_Classics" shape="rect">SPC</a>\n            \xc2\xa0could not secure the rights to the title; this also allowed Evans to plan out future titles in the series.\xc2\xa0It was released on DVD and Blu-ray Disc on August 14, 2012 in the US.\n          </p>\n          <p>\n            <a href="http://en.wikipedia.org/wiki/The_Raid:_Redemption" shape="rect">Read more from Wikipedia...</a>\n          </p>\n        </td>\n      </tr>\n    </table>\n    <script type="text/javascript">document.write(unescape(&quot;%3Cscript src=%27http://s10.histats.com/js15.js%27 type=%27text/javascript%27%3E%3C/script%3E&quot;));</script>\n    <a title="blog stats" target="_blank" href="http://www.histats.com" shape="rect">\n      <script type="text/javascript"> try {Histats.start(1,2021094,4,0,0,0,&quot;&quot;); Histats.track_hits();} catch(err){}; </script>\n    </a>\n    <noscript>\n      <a target="_blank" href="http://www.histats.com" shape="rect">\n        <img border="0" alt="blog stats" src="http://sstatic1.histats.com/0.gif?2021094&amp;101"></img>\n      </a>\n    </noscript>\n  </body>\n</html>'
p11
sbsS'mentions'
p12
(lp13
(iedu.umass.cs.iesl.wikilink.expanded.data.ttypes
Mention
p14
(dp15
S'anchor_text'
p16
S'action film'
p17
sS'context'
p18
(iedu.umass.cs.iesl.wikilink.expanded.data.ttypes
Context
p19
(dp20
S'middle'
p21
S'action film'
p22
sS'right'
p23
S'\xc2\xa0written and directed by\xc2\xa0 Gareth Evans \xc2\xa0and starring\xc2\xa0 Iko Uwais . This is the second collaboration of Evans and Uwais after their first action film,\xc2\xa0'
p24
sS'left'
p25
S'prepared will be ready in 12 seconds. About___ The Raid: Redemption \xc2\xa0(Indonesian:\xc2\xa0 Serbuan maut ; also known as\xc2\xa0 The Raid ) is a 2011\xc2\xa0 Indonesian'
p26
sbsS'freebase_id'
p27
S'9202a8c04000641f80000000051668b2'
p28
sS'raw_text_offset'
p29
I3780
sS'wiki_url'
p30
S'http://en.wikipedia.org/wiki/Action_film'
p31
sba(iedu.umass.cs.iesl.wikilink.expanded.data.ttypes
Mention
p32
(dp33
g16
S'Gareth Evans'
p34
sg18
(iedu.umass.cs.iesl.wikilink.expanded.data.ttypes
Context
p35
(dp36
g21
S'Gareth Evans'
p37
sg23
S'\xc2\xa0and starring\xc2\xa0 Iko Uwais . This is the second collaboration of Evans and Uwais after their first action film,\xc2\xa0 Merantau \xc2\xa0released in 2009. Both films'
p38
sg25
S'seconds. About___ The Raid: Redemption \xc2\xa0(Indonesian:\xc2\xa0 Serbuan maut ; also known as\xc2\xa0 The Raid ) is a 2011\xc2\xa0 Indonesian action film \xc2\xa0written and directed by\xc2\xa0'
p39
sbsg27
S'9202a8c04000641f800000001e63e10c'
p40
sg29
I3925
sg30
S'http://en.wikipedia.org/wiki/Gareth_Evans_(director)'
p41
sba(iedu.umass.cs.iesl.wikilink.expanded.data.ttypes
Mention
p42
(dp43
g16
S'Iko Uwais'
p44
sg18
(iedu.umass.cs.iesl.wikilink.expanded.data.ttypes
Context
p45
(dp46
g21
S'Iko Uwais'
p47
sg23
S'. This is the second collaboration of Evans and Uwais after their first action film,\xc2\xa0 Merantau \xc2\xa0released in 2009. Both films showcase the traditional Indonesian'
p48
sg25
S'Redemption \xc2\xa0(Indonesian:\xc2\xa0 Serbuan maut ; also known as\xc2\xa0 The Raid ) is a 2011\xc2\xa0 Indonesian action film \xc2\xa0written and directed by\xc2\xa0 Gareth Evans \xc2\xa0and starring\xc2\xa0'
p49
sbsg27
S'9202a8c04000641f8000000012eb1aa0'
p50
sg29
I4032
sg30
S'http://en.wikipedia.org/wiki/Iko_Uwais'
p51
sba(iedu.umass.cs.iesl.wikilink.expanded.data.ttypes
Mention
p52
(dp53
g16
S'Merantau'
p54
sg18
(iedu.umass.cs.iesl.wikilink.expanded.data.ttypes
Context
p55
(dp56
g21
S'Merantau'
p57
sg23
S'\xc2\xa0released in 2009. Both films showcase the traditional Indonesian martial art\xc2\xa0 pencak silat . The fight choreographers of\xc2\xa0The Raid\xc2\xa0are Iko Uwais and Yayan Ruhian who'
p58
sg25
S'\xc2\xa0written and directed by\xc2\xa0 Gareth Evans \xc2\xa0and starring\xc2\xa0 Iko Uwais . This is the second collaboration of Evans and Uwais after their first action film,\xc2\xa0'
p59
sbsg27
Nsg29
I4200
sg30
S'http://en.wikipedia.org/wiki/Merantau'
p60
sba(iedu.umass.cs.iesl.wikilink.expanded.data.ttypes
Mention
p61
(dp62
g16
S'pencak silat'
p63
sg18
(iedu.umass.cs.iesl.wikilink.expanded.data.ttypes
Context
p64
(dp65
g21
S'pencak silat'
p66
sg23
S'. The fight choreographers of\xc2\xa0The Raid\xc2\xa0are Iko Uwais and Yayan Ruhian who also worked on\xc2\xa0Merantau. The U.S. release of the film features music by\xc2\xa0 Mike'
p67
sg25
S'is the second collaboration of Evans and Uwais after their first action film,\xc2\xa0 Merantau \xc2\xa0released in 2009. Both films showcase the traditional Indonesian martial art\xc2\xa0'
p68
sbsg27
S'9202a8c04000641f8000000006ae2753'
p69
sg29
I4373
sg30
S'http://en.wikipedia.org/wiki/Pencak_silat'
p70
sba(iedu.umass.cs.iesl.wikilink.expanded.data.ttypes
Mention
p71
(dp72
g16
S'Mike Shinoda'
p73
sg18
(iedu.umass.cs.iesl.wikilink.expanded.data.ttypes
Context
p74
(dp75
g21
S'Mike Shinoda'
p76
sg23
S'\xc2\xa0and\xc2\xa0 Joseph Trapanese . After its world premiere at the\xc2\xa0 Toronto International Film Festival \xc2\xa0(TIFF),\xc2\xa0The Raid\xc2\xa0received positive reviews from critics. The name of the film'
p77
sg25
S'silat . The fight choreographers of\xc2\xa0The Raid\xc2\xa0are Iko Uwais and Yayan Ruhian who also worked on\xc2\xa0Merantau. The U.S. release of the film features music by\xc2\xa0'
p78
sbsg27
S'9202a8c04000641f8000000000113eca'
p79
sg29
I4628
sg30
S'http://en.wikipedia.org/wiki/Mike_Shinoda'
p80
sba(iedu.umass.cs.iesl.wikilink.expanded.data.ttypes
Mention
p81
(dp82
g16
S'Joseph Trapanese'
p83
sg18
(iedu.umass.cs.iesl.wikilink.expanded.data.ttypes
Context
p84
(dp85
g21
S'Joseph Trapanese'
p86
sg23
S'. After its world premiere at the\xc2\xa0 Toronto International Film Festival \xc2\xa0(TIFF),\xc2\xa0The Raid\xc2\xa0received positive reviews from critics. The name of the film was changed to\xc2\xa0The'
p87
sg25
S'fight choreographers of\xc2\xa0The Raid\xc2\xa0are Iko Uwais and Yayan Ruhian who also worked on\xc2\xa0Merantau. The U.S. release of the film features music by\xc2\xa0 Mike Shinoda \xc2\xa0and\xc2\xa0'
p88
sbsg27
S'9202a8c04000641f8000000008771a17'
p89
sg29
I4740
sg30
S'http://en.wikipedia.org/wiki/Joseph_Trapanese'
p90
sba(iedu.umass.cs.iesl.wikilink.expanded.data.ttypes
Mention
p91
(dp92
g16
S'Toronto International Film Festival'
p93
sg18
(iedu.umass.cs.iesl.wikilink.expanded.data.ttypes
Context
p94
(dp95
g21
S'Toronto International Film Festival'
p96
sg23
S'\xc2\xa0(TIFF),\xc2\xa0The Raid\xc2\xa0received positive reviews from critics. The name of the film was changed to\xc2\xa0The Raid: Redemption\xc2\xa0in the United States because the production company\xc2\xa0 SPC \xc2\xa0could'
p97
sg25
S'who also worked on\xc2\xa0Merantau. The U.S. release of the film features music by\xc2\xa0 Mike Shinoda \xc2\xa0and\xc2\xa0 Joseph Trapanese . After its world premiere at the\xc2\xa0'
p98
sbsg27
S'9202a8c04000641f8000000000142f4d'
p99
sg29
I4929
sg30
S'http://en.wikipedia.org/wiki/Toronto_International_Film_Festival'
p100
sbasS'doc_id'
p101
I11953
sS'rare_words'
p102
(lp103
(iedu.umass.cs.iesl.wikilink.expanded.data.ttypes
RareWord
p104
(dp105
S'word'
p106
S'known'
p107
sS'offset'
p108
I3571
sba(iedu.umass.cs.iesl.wikilink.expanded.data.ttypes
RareWord
p109
(dp110
g106
S'pencak'
p111
sg108
I4373
sba(iedu.umass.cs.iesl.wikilink.expanded.data.ttypes
RareWord
p112
(dp113
g106
S'showcase'
p114
sg108
I4247
sba(iedu.umass.cs.iesl.wikilink.expanded.data.ttypes
RareWord
p115
(dp116
g106
S'worked'
p117
sg108
I4478
sba(iedu.umass.cs.iesl.wikilink.expanded.data.ttypes
RareWord
p118
(dp119
g106
S'series'
p120
sg108
I5370
sba(iedu.umass.cs.iesl.wikilink.expanded.data.ttypes
RareWord
p121
(dp122
g106
S'fight'
p123
sg108
I4395
sba(iedu.umass.cs.iesl.wikilink.expanded.data.ttypes
RareWord
p124
(dp125
g106
S'rights'
p126
sg108
I5292
sba(iedu.umass.cs.iesl.wikilink.expanded.data.ttypes
RareWord
p127
(dp128
g106
S'because'
p129
sg108
I5129
sba(iedu.umass.cs.iesl.wikilink.expanded.data.ttypes
RareWord
p130
(dp131
g106
S'reviews'
p132
sg108
I5019
sba(iedu.umass.cs.iesl.wikilink.expanded.data.ttypes
RareWord
p133
(dp134
g106
S'Ruhian'
p135
sg108
I4462
sbasb.