(iedu.umass.cs.iesl.wikilink.expanded.data.ttypes
WikiLinkItem
p0
(dp1
S'url'
p2
S'http://adamustafa.blogspot.com/2009/08/code-geass-lelouch-of-rebellion.html'
p3
sS'content'
p4
(iedu.umass.cs.iesl.wikilink.expanded.data.ttypes
PageContentItem
p5
(dp6
S'articleText'
p7
NsS'raw'
p8
NsS'fullText'
p9
NsS'dom'
p10
S'<html b:version="2" dir="ltr" class="v2">\n  <head>\n    <meta content="IE=EmulateIE7" http-equiv="X-UA-Compatible"></meta>\n    <meta content="width=1100" name="viewport"></meta>\n    <meta content="text/html; charset=UTF-8" http-equiv="Content-Type"></meta>\n    <script type="text/javascript">\n      (function() { var a=window,b=&quot;jstiming&quot;,d=&quot;tick&quot;;var e=function(c){this.t={};this.tick=function(c,p,h){h=void 0!=h?h:(new Date).getTime();this.t[c]=[h,p]};this[d](&quot;start&quot;,null,c)},f=new e;a.jstiming={Timer:e,load:f};if(a.performance&amp;&amp;a.performance.timing){var g=a.performance.timing,j=a[b].load,k=g.navigationStart,l=g.responseStart;0&lt;k&amp;&amp;l&gt;=k&amp;&amp;(j[d](&quot;_wtsrt&quot;,void 0,k),j[d](&quot;wtsrt_&quot;,&quot;_wtsrt&quot;,l),j[d](&quot;tbsd_&quot;,&quot;wtsrt_&quot;))}\ntry{var m=null;a.chrome&amp;&amp;a.chrome.csi&amp;&amp;(m=Math.floor(a.chrome.csi().pageT),j&amp;&amp;0&lt;k&amp;&amp;(j[d](&quot;_tbnd&quot;,void 0,a.chrome.csi().startE),j[d](&quot;tbnd_&quot;,&quot;_tbnd&quot;,k)));null==m&amp;&amp;a.gtbExternal&amp;&amp;(m=a.gtbExternal.pageT());null==m&amp;&amp;a.external&amp;&amp;(m=a.external.pageT,j&amp;&amp;0&lt;k&amp;&amp;(j[d](&quot;_tbnd&quot;,void 0,a.external.startE),j[d](&quot;tbnd_&quot;,&quot;_tbnd&quot;,k)));m&amp;&amp;(a[b].pt=m)}catch(n){};a.tickAboveFold=function(c){var i=0;if(c.offsetParent){do i+=c.offsetTop;while(c=c.offsetParent)}c=i;750&gt;=c&amp;&amp;a[b].load[d](&quot;aft&quot;)};var q=!1;function r(){q||(q=!0,a[b].load[d](&quot;firstScrollTime&quot;))}a.addEventListener?a.addEventListener(&quot;scroll&quot;,r,!1):a.attachEvent(&quot;onscroll&quot;,r);\n })();\n    </script>\n    <meta content="true" name="MSSmartTagsPreventParsing"></meta>\n    <meta content="blogger" name="generator"></meta>\n    <link type="image/x-icon" rel="icon" href="http://adamustafa.blogspot.com/favicon.ico"></link>\n    <link rel="canonical" href="http://adamustafa.blogspot.com/2009/08/code-geass-lelouch-of-rebellion.html"></link>\n    <link href="http://adamustafa.blogspot.com/feeds/posts/default" title="silent thoughts . . - Atom" type="application/atom+xml" rel="alternate"></link>\n    <link href="http://adamustafa.blogspot.com/feeds/posts/default?alt=rss" title="silent thoughts . . - RSS" type="application/rss+xml" rel="alternate"></link>\n    <link href="http://www.blogger.com/feeds/5631556653557183914/posts/default" title="silent thoughts . . - Atom" type="application/atom+xml" rel="service.post"></link>\n    <link href="http://www.blogger.com/rsd.g?blogID=5631556653557183914" title="RSD" type="application/rsd+xml" rel="EditURI"></link>\n    <link href="http://adamustafa.blogspot.com/feeds/4995864566380558766/comments/default" title="silent thoughts . . - Atom" type="application/atom+xml" rel="alternate"></link>\n    <link href="http://3.bp.blogspot.com/_3pjfIdRptv8/SpDaH_XtggI/AAAAAAAAADc/3d7EGFkRnuI/s72-c/Lelouch-geass.jpg" rel="image_src"></link>\n    <title>silent thoughts . .: code geass : lelouch of the rebellion..</title>\n    <script type="text/javascript">\n      if (navigator.userAgent.indexOf(\'MSIE 6\') == -1) {\n  WebFontConfig = {\n    google: { families: [ \'Chewy\', \'Dancing Script\', \'Permanent Marker\', \'Pacifico\', \'Cuprum\' ],\n    api: \'//themes.googleusercontent.com/fonts/css?kit=Z5zN2j2e-Pibp4mihPObWrLJw-o-y_TrilomW0oRwJJ5s2lQaP_VU0Uuv0Tk37ifsUx5lMgGOWLlDndeSvY4ohHOPa0rA0KLAIVfV_EanMM\'\n    },\n    loading: function() {\n      if (window.jstiming) window.jstiming.load.tick(\'webfontLoading\');\n    },\n    active: function() {\n      if (window.jstiming) window.jstiming.load.tick(\'webfontActive\');\n    }\n  };\n  (function() {\n    var wf = document.createElement(\'script\');\n    wf.src = \'//ajax.googleapis.com/ajax/libs/webfont/1/webfont.js\';\n    wf.type = \'text/javascript\';\n    wf.async = \'true\';\n    var s = document.getElementsByTagName(\'script\')[0];\n    s.parentNode.insertBefore(wf, s);\n  })();\n} else {\n  document.documentElement.className = \'wf-inactive\';\n}\n    </script>\n    <style type="text/css">\n      .wf-inactive body, .wf-cuprum-n4-loading body, .wf-cuprum-n4-inactive body {\n  font-family: sans-serif;\n}\n.wf-inactive .header h1, .wf-dancingscript-n4-loading .header h1, .wf-dancingscript-n4-inactive .header h1 {\n  font-family: cursive;\n}\n.wf-inactive .header .description, .wf-pacifico-n4-loading .header .description, .wf-pacifico-n4-inactive .header .description {\n  font-family: cursive;\n}\n.wf-inactive .main-inner .widget h2.date-header, .wf-chewy-n4-loading .main-inner .widget h2.date-header, .wf-chewy-n4-inactive .main-inner .widget h2.date-header, .wf-inactive .main-inner .widget h2.date-header span, .wf-chewy-n4-loading .main-inner .widget h2.date-header span, .wf-chewy-n4-inactive .main-inner .widget h2.date-header span {\n  font-family: cursive;\n}\n.wf-inactive h3.post-title, .wf-permanentmarker-n4-loading h3.post-title, .wf-permanentmarker-n4-inactive h3.post-title, .wf-inactive h4, .wf-permanentmarker-n4-loading h4, .wf-permanentmarker-n4-inactive h4, .wf-inactive h3.post-title a, .wf-permanentmarker-n4-loading h3.post-title a, .wf-permanentmarker-n4-inactive h3.post-title a {\n  font-family: cursive;\n}\n.wf-inactive h2, .wf-permanentmarker-n4-loading h2, .wf-permanentmarker-n4-inactive h2 {\n  font-family: cursive;\n}\n.wf-inactive .sidebar .widget, .wf-cuprum-n4-loading .sidebar .widget, .wf-cuprum-n4-inactive .sidebar .widget {\n  font-family: sans-serif;\n}\n    </style>\n    <link href="//www.blogger.com/static/v1/widgets/4219271310-widget_css_2_bundle.css" rel="stylesheet" type="text/css"></link>\n    <link href="//www.blogger.com/dyn-css/authorization.css?targetBlogID=5631556653557183914&amp;zx=b4bca39d-f204-4035-8fb2-4ce873582142" rel="stylesheet" type="text/css"></link>\n    <style type="text/css" id="page-skin-1">\n      &lt;!--\n/*\n-----------------------------------------------\nBlogger Template Style\nName:     Awesome Inc.\nDesigner: Tina Chen\nURL:      tinachen.org\n----------------------------------------------- */\n/* Variable definitions\n====================\n&lt;Variable name=&quot;keycolor&quot; description=&quot;Main Color&quot; type=&quot;color&quot; default=&quot;#ffffff&quot;/&gt;\n&lt;Group description=&quot;Page&quot; selector=&quot;body&quot;&gt;\n&lt;Variable name=&quot;body.font&quot; description=&quot;Font&quot; type=&quot;font&quot;\ndefault=&quot;normal normal 13px Arial, Tahoma, Helvetica, FreeSans, sans-serif&quot;/&gt;\n&lt;Variable name=&quot;body.background.color&quot; description=&quot;Background Color&quot; type=&quot;color&quot; default=&quot;#000000&quot;/&gt;\n&lt;Variable name=&quot;body.text.color&quot; description=&quot;Text Color&quot; type=&quot;color&quot; default=&quot;#ffffff&quot;/&gt;\n&lt;/Group&gt;\n&lt;Group description=&quot;Links&quot; selector=&quot;.main-inner&quot;&gt;\n&lt;Variable name=&quot;link.color&quot; description=&quot;Link Color&quot; type=&quot;color&quot; default=&quot;#888888&quot;/&gt;\n&lt;Variable name=&quot;link.visited.color&quot; description=&quot;Visited Color&quot; type=&quot;color&quot; default=&quot;#444444&quot;/&gt;\n&lt;Variable name=&quot;link.hover.color&quot; description=&quot;Hover Color&quot; type=&quot;color&quot; default=&quot;#cccccc&quot;/&gt;\n&lt;/Group&gt;\n&lt;Group description=&quot;Blog Title&quot; selector=&quot;.header h1&quot;&gt;\n&lt;Variable name=&quot;header.font&quot; description=&quot;Title Font&quot; type=&quot;font&quot;\ndefault=&quot;normal bold 40px Arial, Tahoma, Helvetica, FreeSans, sans-serif&quot;/&gt;\n&lt;Variable name=&quot;header.text.color&quot; description=&quot;Title Color&quot; type=&quot;color&quot; default=&quot;#ffffff&quot; /&gt;\n&lt;Variable name=&quot;header.background.color&quot; description=&quot;Header Background&quot; type=&quot;color&quot; default=&quot;transparent&quot; /&gt;\n&lt;/Group&gt;\n&lt;Group description=&quot;Blog Description&quot; selector=&quot;.header .description&quot;&gt;\n&lt;Variable name=&quot;description.font&quot; description=&quot;Font&quot; type=&quot;font&quot;\ndefault=&quot;normal normal 14px Arial, Tahoma, Helvetica, FreeSans, sans-serif&quot;/&gt;\n&lt;Variable name=&quot;description.text.color&quot; description=&quot;Text Color&quot; type=&quot;color&quot;\ndefault=&quot;#ffffff&quot; /&gt;\n&lt;/Group&gt;\n&lt;Group description=&quot;Tabs Text&quot; selector=&quot;.tabs-inner .widget li a&quot;&gt;\n&lt;Variable name=&quot;tabs.font&quot; description=&quot;Font&quot; type=&quot;font&quot;\ndefault=&quot;normal bold 14px Arial, Tahoma, Helvetica, FreeSans, sans-serif&quot;/&gt;\n&lt;Variable name=&quot;tabs.text.color&quot; description=&quot;Text Color&quot; type=&quot;color&quot; default=&quot;#ffffff&quot;/&gt;\n&lt;Variable name=&quot;tabs.selected.text.color&quot; description=&quot;Selected Color&quot; type=&quot;color&quot; default=&quot;#ffffff&quot;/&gt;\n&lt;/Group&gt;\n&lt;Group description=&quot;Tabs Background&quot; selector=&quot;.tabs-outer .PageList&quot;&gt;\n&lt;Variable name=&quot;tabs.background.color&quot; description=&quot;Background Color&quot; type=&quot;color&quot; default=&quot;#141414&quot;/&gt;\n&lt;Variable name=&quot;tabs.selected.background.color&quot; description=&quot;Selected Color&quot; type=&quot;color&quot; default=&quot;#444444&quot;/&gt;\n&lt;Variable name=&quot;tabs.border.color&quot; description=&quot;Border Color&quot; type=&quot;color&quot; default=&quot;#222222&quot;/&gt;\n&lt;/Group&gt;\n&lt;Group description=&quot;Date Header&quot; selector=&quot;.main-inner .widget h2.date-header, .main-inner .widget h2.date-header span&quot;&gt;\n&lt;Variable name=&quot;date.font&quot; description=&quot;Font&quot; type=&quot;font&quot;\ndefault=&quot;normal normal 14px Arial, Tahoma, Helvetica, FreeSans, sans-serif&quot;/&gt;\n&lt;Variable name=&quot;date.text.color&quot; description=&quot;Text Color&quot; type=&quot;color&quot; default=&quot;#666666&quot;/&gt;\n&lt;Variable name=&quot;date.border.color&quot; description=&quot;Border Color&quot; type=&quot;color&quot; default=&quot;#222222&quot;/&gt;\n&lt;/Group&gt;\n&lt;Group description=&quot;Post Title&quot; selector=&quot;h3.post-title, h4, h3.post-title a&quot;&gt;\n&lt;Variable name=&quot;post.title.font&quot; description=&quot;Font&quot; type=&quot;font&quot;\ndefault=&quot;normal bold 22px Arial, Tahoma, Helvetica, FreeSans, sans-serif&quot;/&gt;\n&lt;Variable name=&quot;post.title.text.color&quot; description=&quot;Text Color&quot; type=&quot;color&quot; default=&quot;#ffffff&quot;/&gt;\n&lt;/Group&gt;\n&lt;Group description=&quot;Post Background&quot; selector=&quot;.post&quot;&gt;\n&lt;Variable name=&quot;post.background.color&quot; description=&quot;Background Color&quot; type=&quot;color&quot; default=&quot;#141414&quot; /&gt;\n&lt;Variable name=&quot;post.border.color&quot; description=&quot;Border Color&quot; type=&quot;color&quot; default=&quot;#222222&quot; /&gt;\n&lt;Variable name=&quot;post.border.bevel.color&quot; description=&quot;Bevel Color&quot; type=&quot;color&quot; default=&quot;#222222&quot;/&gt;\n&lt;/Group&gt;\n&lt;Group description=&quot;Gadget Title&quot; selector=&quot;h2&quot;&gt;\n&lt;Variable name=&quot;widget.title.font&quot; description=&quot;Font&quot; type=&quot;font&quot;\ndefault=&quot;normal bold 14px Arial, Tahoma, Helvetica, FreeSans, sans-serif&quot;/&gt;\n&lt;Variable name=&quot;widget.title.text.color&quot; description=&quot;Text Color&quot; type=&quot;color&quot; default=&quot;#ffffff&quot;/&gt;\n&lt;/Group&gt;\n&lt;Group description=&quot;Gadget Text&quot; selector=&quot;.sidebar .widget&quot;&gt;\n&lt;Variable name=&quot;widget.font&quot; description=&quot;Font&quot; type=&quot;font&quot;\ndefault=&quot;normal normal 14px Arial, Tahoma, Helvetica, FreeSans, sans-serif&quot;/&gt;\n&lt;Variable name=&quot;widget.text.color&quot; description=&quot;Text Color&quot; type=&quot;color&quot; default=&quot;#ffffff&quot;/&gt;\n&lt;Variable name=&quot;widget.alternate.text.color&quot; description=&quot;Alternate Color&quot; type=&quot;color&quot; default=&quot;#666666&quot;/&gt;\n&lt;/Group&gt;\n&lt;Group description=&quot;Gadget Links&quot; selector=&quot;.sidebar .widget&quot;&gt;\n&lt;Variable name=&quot;widget.link.color&quot; description=&quot;Link Color&quot; type=&quot;color&quot; default=&quot;#7f7f7f&quot;/&gt;\n&lt;Variable name=&quot;widget.link.visited.color&quot; description=&quot;Visited Color&quot; type=&quot;color&quot; default=&quot;#9fc5e8&quot;/&gt;\n&lt;Variable name=&quot;widget.link.hover.color&quot; description=&quot;Hover Color&quot; type=&quot;color&quot; default=&quot;#3d85c6&quot;/&gt;\n&lt;/Group&gt;\n&lt;Group description=&quot;Gadget Background&quot; selector=&quot;.sidebar .widget&quot;&gt;\n&lt;Variable name=&quot;widget.background.color&quot; description=&quot;Background Color&quot; type=&quot;color&quot; default=&quot;#141414&quot;/&gt;\n&lt;Variable name=&quot;widget.border.color&quot; description=&quot;Border Color&quot; type=&quot;color&quot; default=&quot;#222222&quot;/&gt;\n&lt;Variable name=&quot;widget.border.bevel.color&quot; description=&quot;Bevel Color&quot; type=&quot;color&quot; default=&quot;#000000&quot;/&gt;\n&lt;/Group&gt;\n&lt;Group description=&quot;Sidebar Background&quot; selector=&quot;.column-left-inner .column-right-inner&quot;&gt;\n&lt;Variable name=&quot;widget.outer.background.color&quot; description=&quot;Background Color&quot; type=&quot;color&quot; default=&quot;transparent&quot; /&gt;\n&lt;/Group&gt;\n&lt;Group description=&quot;Images&quot; selector=&quot;.main-inner&quot;&gt;\n&lt;Variable name=&quot;image.background.color&quot; description=&quot;Background Color&quot; type=&quot;color&quot; default=&quot;transparent&quot;/&gt;\n&lt;Variable name=&quot;image.border.color&quot; description=&quot;Border Color&quot; type=&quot;color&quot; default=&quot;transparent&quot;/&gt;\n&lt;/Group&gt;\n&lt;Group description=&quot;Feed&quot; selector=&quot;.blog-feeds&quot;&gt;\n&lt;Variable name=&quot;feed.text.color&quot; description=&quot;Text Color&quot; type=&quot;color&quot; default=&quot;#ffffff&quot;/&gt;\n&lt;/Group&gt;\n&lt;Group description=&quot;Feed Links&quot; selector=&quot;.blog-feeds&quot;&gt;\n&lt;Variable name=&quot;feed.link.color&quot; description=&quot;Link Color&quot; type=&quot;color&quot; default=&quot;#7f7f7f&quot;/&gt;\n&lt;Variable name=&quot;feed.link.visited.color&quot; description=&quot;Visited Color&quot; type=&quot;color&quot; default=&quot;#9fc5e8&quot;/&gt;\n&lt;Variable name=&quot;feed.link.hover.color&quot; description=&quot;Hover Color&quot; type=&quot;color&quot; default=&quot;#3d85c6&quot;/&gt;\n&lt;/Group&gt;\n&lt;Group description=&quot;Pager&quot; selector=&quot;.blog-pager&quot;&gt;\n&lt;Variable name=&quot;pager.background.color&quot; description=&quot;Background Color&quot; type=&quot;color&quot; default=&quot;#141414&quot; /&gt;\n&lt;/Group&gt;\n&lt;Group description=&quot;Footer&quot; selector=&quot;.footer-outer&quot;&gt;\n&lt;Variable name=&quot;footer.background.color&quot; description=&quot;Background Color&quot; type=&quot;color&quot; default=&quot;#141414&quot; /&gt;\n&lt;Variable name=&quot;footer.text.color&quot; description=&quot;Text Color&quot; type=&quot;color&quot; default=&quot;#ffffff&quot; /&gt;\n&lt;/Group&gt;\n&lt;Variable name=&quot;title.shadow.spread&quot; description=&quot;Title Shadow&quot; type=&quot;length&quot; default=&quot;-1px&quot;/&gt;\n&lt;Variable name=&quot;body.background&quot; description=&quot;Body Background&quot; type=&quot;background&quot;\ncolor=&quot;#000000&quot;\ndefault=&quot;$(color) none repeat scroll top left&quot;/&gt;\n&lt;Variable name=&quot;body.background.gradient.cap&quot; description=&quot;Body Gradient Cap&quot; type=&quot;url&quot;\ndefault=&quot;none&quot;/&gt;\n&lt;Variable name=&quot;body.background.size&quot; description=&quot;Body Background Size&quot; type=&quot;string&quot; default=&quot;auto&quot;/&gt;\n&lt;Variable name=&quot;tabs.background.gradient&quot; description=&quot;Tabs Background Gradient&quot; type=&quot;url&quot;\ndefault=&quot;none&quot;/&gt;\n&lt;Variable name=&quot;header.background.gradient&quot; description=&quot;Header Background Gradient&quot; type=&quot;url&quot; default=&quot;none&quot; /&gt;\n&lt;Variable name=&quot;header.padding.top&quot; description=&quot;Header Top Padding&quot; type=&quot;length&quot; default=&quot;22px&quot; /&gt;\n&lt;Variable name=&quot;header.margin.top&quot; description=&quot;Header Top Margin&quot; type=&quot;length&quot; default=&quot;0&quot; /&gt;\n&lt;Variable name=&quot;header.margin.bottom&quot; description=&quot;Header Bottom Margin&quot; type=&quot;length&quot; default=&quot;0&quot; /&gt;\n&lt;Variable name=&quot;widget.padding.top&quot; description=&quot;Widget Padding Top&quot; type=&quot;length&quot; default=&quot;8px&quot; /&gt;\n&lt;Variable name=&quot;widget.padding.side&quot; description=&quot;Widget Padding Side&quot; type=&quot;length&quot; default=&quot;15px&quot; /&gt;\n&lt;Variable name=&quot;widget.outer.margin.top&quot; description=&quot;Widget Top Margin&quot; type=&quot;length&quot; default=&quot;0&quot; /&gt;\n&lt;Variable name=&quot;widget.outer.background.gradient&quot; description=&quot;Gradient&quot; type=&quot;url&quot; default=&quot;none&quot; /&gt;\n&lt;Variable name=&quot;widget.border.radius&quot; description=&quot;Gadget Border Radius&quot; type=&quot;length&quot; default=&quot;0&quot; /&gt;\n&lt;Variable name=&quot;outer.shadow.spread&quot; description=&quot;Outer Shadow Size&quot; type=&quot;length&quot; default=&quot;0&quot; /&gt;\n&lt;Variable name=&quot;date.header.border.radius.top&quot; description=&quot;Date Header Border Radius Top&quot; type=&quot;length&quot; default=&quot;0&quot; /&gt;\n&lt;Variable name=&quot;date.header.position&quot; description=&quot;Date Header Position&quot; type=&quot;length&quot; default=&quot;15px&quot; /&gt;\n&lt;Variable name=&quot;date.space&quot; description=&quot;Date Space&quot; type=&quot;length&quot; default=&quot;30px&quot; /&gt;\n&lt;Variable name=&quot;date.position&quot; description=&quot;Date Float&quot; type=&quot;string&quot; default=&quot;static&quot; /&gt;\n&lt;Variable name=&quot;date.padding.bottom&quot; description=&quot;Date Padding Bottom&quot; type=&quot;length&quot; default=&quot;0&quot; /&gt;\n&lt;Variable name=&quot;date.border.size&quot; description=&quot;Date Border Size&quot; type=&quot;length&quot; default=&quot;0&quot; /&gt;\n&lt;Variable name=&quot;date.background&quot; description=&quot;Date Background&quot; type=&quot;background&quot; color=&quot;transparent&quot;\ndefault=&quot;$(color) none no-repeat scroll top left&quot; /&gt;\n&lt;Variable name=&quot;date.first.border.radius.top&quot; description=&quot;Date First top radius&quot; type=&quot;length&quot; default=&quot;0&quot; /&gt;\n&lt;Variable name=&quot;date.last.space.bottom&quot; description=&quot;Date Last Space Bottom&quot; type=&quot;length&quot;\ndefault=&quot;20px&quot; /&gt;\n&lt;Variable name=&quot;date.last.border.radius.bottom&quot; description=&quot;Date Last bottom radius&quot; type=&quot;length&quot; default=&quot;0&quot; /&gt;\n&lt;Variable name=&quot;post.first.padding.top&quot; description=&quot;First Post Padding Top&quot; type=&quot;length&quot; default=&quot;0&quot; /&gt;\n&lt;Variable name=&quot;image.shadow.spread&quot; description=&quot;Image Shadow Size&quot; type=&quot;length&quot; default=&quot;0&quot;/&gt;\n&lt;Variable name=&quot;image.border.radius&quot; description=&quot;Image Border Radius&quot; type=&quot;length&quot; default=&quot;0&quot;/&gt;\n&lt;Variable name=&quot;separator.outdent&quot; description=&quot;Separator Outdent&quot; type=&quot;length&quot; default=&quot;15px&quot; /&gt;\n&lt;Variable name=&quot;title.separator.border.size&quot; description=&quot;Widget Title Border Size&quot; type=&quot;length&quot; default=&quot;1px&quot; /&gt;\n&lt;Variable name=&quot;list.separator.border.size&quot; description=&quot;List Separator Border Size&quot; type=&quot;length&quot; default=&quot;1px&quot; /&gt;\n&lt;Variable name=&quot;shadow.spread&quot; description=&quot;Shadow Size&quot; type=&quot;length&quot; default=&quot;0&quot;/&gt;\n&lt;Variable name=&quot;startSide&quot; description=&quot;Side where text starts in blog language&quot; type=&quot;automatic&quot; default=&quot;left&quot;/&gt;\n&lt;Variable name=&quot;endSide&quot; description=&quot;Side where text ends in blog language&quot; type=&quot;automatic&quot; default=&quot;right&quot;/&gt;\n&lt;Variable name=&quot;date.side&quot; description=&quot;Side where date header is placed&quot; type=&quot;string&quot; default=&quot;right&quot;/&gt;\n&lt;Variable name=&quot;pager.border.radius.top&quot; description=&quot;Pager Border Top Radius&quot; type=&quot;length&quot; default=&quot;0&quot; /&gt;\n&lt;Variable name=&quot;pager.space.top&quot; description=&quot;Pager Top Space&quot; type=&quot;length&quot; default=&quot;1em&quot; /&gt;\n&lt;Variable name=&quot;footer.background.gradient&quot; description=&quot;Background Gradient&quot; type=&quot;url&quot; default=&quot;none&quot; /&gt;\n&lt;Variable name=&quot;mobile.background.size&quot; description=&quot;Mobile Background Size&quot; type=&quot;string&quot;\ndefault=&quot;auto&quot;/&gt;\n&lt;Variable name=&quot;mobile.background.overlay&quot; description=&quot;Mobile Background Overlay&quot; type=&quot;string&quot;\ndefault=&quot;transparent none repeat scroll top left&quot;/&gt;\n&lt;Variable name=&quot;mobile.button.color&quot; description=&quot;Mobile Button Color&quot; type=&quot;color&quot; default=&quot;#ffffff&quot; /&gt;\n*/\n/* Content\n----------------------------------------------- */\nbody {\nfont: normal normal 14px Cuprum;\ncolor: #ffffff;\nbackground: #000000 none no-repeat scroll center center;\n}\nhtml body .content-outer {\nmin-width: 0;\nmax-width: 100%;\nwidth: 100%;\n}\na:link {\ntext-decoration: none;\ncolor: #7f7f7f;\n}\na:visited {\ntext-decoration: none;\ncolor: #9fc5e8;\n}\na:hover {\ntext-decoration: underline;\ncolor: #3d85c6;\n}\n.body-fauxcolumn-outer .cap-top {\nposition: absolute;\nz-index: 1;\nheight: 276px;\nwidth: 100%;\nbackground: transparent none repeat-x scroll top left;\n_background-image: none;\n}\n/* Columns\n----------------------------------------------- */\n.content-inner {\npadding: 0;\n}\n.header-inner .section {\nmargin: 0 16px;\n}\n.tabs-inner .section {\nmargin: 0 16px;\n}\n.main-inner {\npadding-top: 30px;\n}\n.main-inner .column-center-inner,\n.main-inner .column-left-inner,\n.main-inner .column-right-inner {\npadding: 0 5px;\n}\n*+html body .main-inner .column-center-inner {\nmargin-top: -30px;\n}\n#layout .main-inner .column-center-inner {\nmargin-top: 0;\n}\n/* Header\n----------------------------------------------- */\n.header-outer {\nmargin: 0 0 0 0;\nbackground: transparent none repeat scroll 0 0;\n}\n.Header h1 {\nfont: italic bold 40px Dancing Script;\ncolor: #cccccc;\ntext-shadow: 0 0 -1px #000000;\n}\n.Header h1 a {\ncolor: #cccccc;\n}\n.Header .description {\nfont: normal normal 20px Pacifico;\ncolor: #9fc5e8;\n}\n.header-inner .Header .titlewrapper,\n.header-inner .Header .descriptionwrapper {\npadding-left: 0;\npadding-right: 0;\nmargin-bottom: 0;\n}\n.header-inner .Header .titlewrapper {\npadding-top: 22px;\n}\n/* Tabs\n----------------------------------------------- */\n.tabs-outer {\noverflow: hidden;\nposition: relative;\nbackground: #141414 none repeat scroll 0 0;\n}\n#layout .tabs-outer {\noverflow: visible;\n}\n.tabs-cap-top, .tabs-cap-bottom {\nposition: absolute;\nwidth: 100%;\nborder-top: 1px solid #222222;\n}\n.tabs-cap-bottom {\nbottom: 0;\n}\n.tabs-inner .widget li a {\ndisplay: inline-block;\nmargin: 0;\npadding: .6em 1.5em;\nfont: normal bold 14px Arial, Tahoma, Helvetica, FreeSans, sans-serif;\ncolor: #ffffff;\nborder-top: 1px solid #222222;\nborder-bottom: 1px solid #222222;\nborder-left: 1px solid #222222;\nheight: 16px;\nline-height: 16px;\n}\n.tabs-inner .widget li:last-child a {\nborder-right: 1px solid #222222;\n}\n.tabs-inner .widget li.selected a, .tabs-inner .widget li a:hover {\nbackground: #444444 none repeat-x scroll 0 -100px;\ncolor: #ffffff;\n}\n/* Headings\n----------------------------------------------- */\nh2 {\nfont: normal bold 14px Permanent Marker;\ncolor: #ffffff;\n}\n/* Widgets\n----------------------------------------------- */\n.main-inner .section {\nmargin: 0 27px;\npadding: 0;\n}\n.main-inner .column-left-outer,\n.main-inner .column-right-outer {\nmargin-top: 0;\n}\n#layout .main-inner .column-left-outer,\n#layout .main-inner .column-right-outer {\nmargin-top: 0;\n}\n.main-inner .column-left-inner,\n.main-inner .column-right-inner {\nbackground: transparent none repeat 0 0;\n-moz-box-shadow: 0 0 0 rgba(0, 0, 0, .2);\n-webkit-box-shadow: 0 0 0 rgba(0, 0, 0, .2);\n-goog-ms-box-shadow: 0 0 0 rgba(0, 0, 0, .2);\nbox-shadow: 0 0 0 rgba(0, 0, 0, .2);\n-moz-border-radius: 0;\n-webkit-border-radius: 0;\n-goog-ms-border-radius: 0;\nborder-radius: 0;\n}\n#layout .main-inner .column-left-inner,\n#layout .main-inner .column-right-inner {\nmargin-top: 0;\n}\n.sidebar .widget {\nfont: normal normal 14px Cuprum;\ncolor: #ffffff;\n}\n.sidebar .widget a:link {\ncolor: #9fc5e8;\n}\n.sidebar .widget a:visited {\ncolor: #4eabff;\n}\n.sidebar .widget a:hover {\ncolor: #ffffff;\n}\n.sidebar .widget h2 {\ntext-shadow: 0 0 -1px #000000;\n}\n.main-inner .widget {\nbackground-color: #141414;\nborder: 1px solid #222222;\npadding: 0 15px 15px;\nmargin: 20px -16px;\n-moz-box-shadow: 0 0 0 rgba(0, 0, 0, .2);\n-webkit-box-shadow: 0 0 0 rgba(0, 0, 0, .2);\n-goog-ms-box-shadow: 0 0 0 rgba(0, 0, 0, .2);\nbox-shadow: 0 0 0 rgba(0, 0, 0, .2);\n-moz-border-radius: 0;\n-webkit-border-radius: 0;\n-goog-ms-border-radius: 0;\nborder-radius: 0;\n}\n.main-inner .widget h2 {\nmargin: 0 -15px;\npadding: .6em 15px .5em;\nborder-bottom: 1px solid #000000;\n}\n.footer-inner .widget h2 {\npadding: 0 0 .4em;\nborder-bottom: 1px solid #000000;\n}\n.main-inner .widget h2 + div, .footer-inner .widget h2 + div {\nborder-top: 1px solid #222222;\npadding-top: 8px;\n}\n.main-inner .widget .widget-content {\nmargin: 0 -15px;\npadding: 7px 15px 0;\n}\n.main-inner .widget ul, .main-inner .widget #ArchiveList ul.flat {\nmargin: -8px -15px 0;\npadding: 0;\nlist-style: none;\n}\n.main-inner .widget #ArchiveList {\nmargin: -8px 0 0;\n}\n.main-inner .widget ul li, .main-inner .widget #ArchiveList ul.flat li {\npadding: .5em 15px;\ntext-indent: 0;\ncolor: #666666;\nborder-top: 1px solid #222222;\nborder-bottom: 1px solid #000000;\n}\n.main-inner .widget #ArchiveList ul li {\npadding-top: .25em;\npadding-bottom: .25em;\n}\n.main-inner .widget ul li:first-child, .main-inner .widget #ArchiveList ul.flat li:first-child {\nborder-top: none;\n}\n.main-inner .widget ul li:last-child, .main-inner .widget #ArchiveList ul.flat li:last-child {\nborder-bottom: none;\n}\n.post-body {\nposition: relative;\n}\n.main-inner .widget .post-body ul {\npadding: 0 2.5em;\nmargin: .5em 0;\nlist-style: disc;\n}\n.main-inner .widget .post-body ul li {\npadding: 0.25em 0;\nmargin-bottom: .25em;\ncolor: #ffffff;\nborder: none;\n}\n.footer-inner .widget ul {\npadding: 0;\nlist-style: none;\n}\n.widget .zippy {\ncolor: #666666;\n}\n/* Posts\n----------------------------------------------- */\nbody .main-inner .Blog {\npadding: 0;\nmargin-bottom: 1em;\nbackground-color: transparent;\nborder: none;\n-moz-box-shadow: 0 0 0 rgba(0, 0, 0, 0);\n-webkit-box-shadow: 0 0 0 rgba(0, 0, 0, 0);\n-goog-ms-box-shadow: 0 0 0 rgba(0, 0, 0, 0);\nbox-shadow: 0 0 0 rgba(0, 0, 0, 0);\n}\n.main-inner .section:last-child .Blog:last-child {\npadding: 0;\nmargin-bottom: 1em;\n}\n.main-inner .widget h2.date-header {\nmargin: 0 -15px 1px;\npadding: 0 0 0 0;\nfont: normal normal 14px Chewy;\ncolor: #9fc5e8;\nbackground: transparent none no-repeat scroll top left;\nborder-top: 0 solid #ffffff;\nborder-bottom: 1px solid #000000;\n-moz-border-radius-topleft: 0;\n-moz-border-radius-topright: 0;\n-webkit-border-top-left-radius: 0;\n-webkit-border-top-right-radius: 0;\nborder-top-left-radius: 0;\nborder-top-right-radius: 0;\nposition: static;\nbottom: 100%;\nright: 15px;\ntext-shadow: 0 0 -1px #000000;\n}\n.main-inner .widget h2.date-header span {\nfont: normal normal 14px Chewy;\ndisplay: block;\npadding: .5em 15px;\nborder-left: 0 solid #ffffff;\nborder-right: 0 solid #ffffff;\n}\n.date-outer {\nposition: relative;\nmargin: 30px 0 20px;\npadding: 0 15px;\nbackground-color: #141414;\nborder: 1px solid #ffffff;\n-moz-box-shadow: 0 0 0 rgba(0, 0, 0, .2);\n-webkit-box-shadow: 0 0 0 rgba(0, 0, 0, .2);\n-goog-ms-box-shadow: 0 0 0 rgba(0, 0, 0, .2);\nbox-shadow: 0 0 0 rgba(0, 0, 0, .2);\n-moz-border-radius: 0;\n-webkit-border-radius: 0;\n-goog-ms-border-radius: 0;\nborder-radius: 0;\n}\n.date-outer:first-child {\nmargin-top: 0;\n}\n.date-outer:last-child {\nmargin-bottom: 20px;\n-moz-border-radius-bottomleft: 0;\n-moz-border-radius-bottomright: 0;\n-webkit-border-bottom-left-radius: 0;\n-webkit-border-bottom-right-radius: 0;\n-goog-ms-border-bottom-left-radius: 0;\n-goog-ms-border-bottom-right-radius: 0;\nborder-bottom-left-radius: 0;\nborder-bottom-right-radius: 0;\n}\n.date-posts {\nmargin: 0 -15px;\npadding: 0 15px;\nclear: both;\n}\n.post-outer, .inline-ad {\nborder-top: 1px solid #000000;\nmargin: 0 -15px;\npadding: 15px 15px;\n}\n.post-outer {\npadding-bottom: 10px;\n}\n.post-outer:first-child {\npadding-top: 0;\nborder-top: none;\n}\n.post-outer:last-child, .inline-ad:last-child {\nborder-bottom: none;\n}\n.post-body {\nposition: relative;\n}\n.post-body img {\npadding: 8px;\nbackground: #222222;\nborder: 1px solid transparent;\n-moz-box-shadow: 0 0 0 rgba(0, 0, 0, .2);\n-webkit-box-shadow: 0 0 0 rgba(0, 0, 0, .2);\nbox-shadow: 0 0 0 rgba(0, 0, 0, .2);\n-moz-border-radius: 0;\n-webkit-border-radius: 0;\nborder-radius: 0;\n}\nh3.post-title, h4 {\nfont: normal normal 22px Permanent Marker;\ncolor: #4eabff;\n}\nh3.post-title a {\nfont: normal normal 22px Permanent Marker;\ncolor: #4eabff;\n}\nh3.post-title a:hover {\ncolor: #3d85c6;\ntext-decoration: underline;\n}\n.post-header {\nmargin: 0 0 1em;\n}\n.post-body {\nline-height: 1.4;\n}\n.post-outer h2 {\ncolor: #ffffff;\n}\n.post-footer {\nmargin: 1.5em 0 0;\n}\n#blog-pager {\npadding: 15px;\nfont-size: 120%;\nbackground-color: #141414;\nborder: 1px solid #222222;\n-moz-box-shadow: 0 0 0 rgba(0, 0, 0, .2);\n-webkit-box-shadow: 0 0 0 rgba(0, 0, 0, .2);\n-goog-ms-box-shadow: 0 0 0 rgba(0, 0, 0, .2);\nbox-shadow: 0 0 0 rgba(0, 0, 0, .2);\n-moz-border-radius: 0;\n-webkit-border-radius: 0;\n-goog-ms-border-radius: 0;\nborder-radius: 0;\n-moz-border-radius-topleft: 0;\n-moz-border-radius-topright: 0;\n-webkit-border-top-left-radius: 0;\n-webkit-border-top-right-radius: 0;\n-goog-ms-border-top-left-radius: 0;\n-goog-ms-border-top-right-radius: 0;\nborder-top-left-radius: 0;\nborder-top-right-radius-topright: 0;\nmargin-top: 1em;\n}\n.blog-feeds, .post-feeds {\nmargin: 1em 0;\ntext-align: center;\ncolor: #ffffff;\n}\n.blog-feeds a, .post-feeds a {\ncolor: #888888;\n}\n.blog-feeds a:visited, .post-feeds a:visited {\ncolor: #444444;\n}\n.blog-feeds a:hover, .post-feeds a:hover {\ncolor: #cccccc;\n}\n.post-outer .comments {\nmargin-top: 2em;\n}\n/* Comments\n----------------------------------------------- */\n.comments .comments-content .icon.blog-author {\nbackground-repeat: no-repeat;\nbackground-image: url(data:image/png;base64,iVBORw0KGgoAAAANSUhEUgAAABIAAAASCAYAAABWzo5XAAAAAXNSR0IArs4c6QAAAAZiS0dEAP8A/wD/oL2nkwAAAAlwSFlzAAALEgAACxIB0t1+/AAAAAd0SU1FB9sLFwMeCjjhcOMAAAD+SURBVDjLtZSvTgNBEIe/WRRnm3U8RC1neQdsm1zSBIU9VVF1FkUguQQsD9ITmD7ECZIJSE4OZo9stoVjC/zc7ky+zH9hXwVwDpTAWWLrgS3QAe8AZgaAJI5zYAmc8r0G4AHYHQKVwII8PZrZFsBFkeRCABYiMh9BRUhnSkPTNCtVXYXURi1FpBDgArj8QU1eVXUzfnjv7yP7kwu1mYrkWlU33vs1QNu2qU8pwN0UpKoqokjWwCztrMuBhEhmh8bD5UDqur75asbcX0BGUB9/HAMB+r32hznJgXy2v0sGLBcyAJ1EK3LFcbo1s91JeLwAbwGYu7TP/3ZGfnXYPgAVNngtqatUNgAAAABJRU5ErkJggg==);\n}\n.comments .comments-content .loadmore a {\nborder-top: 1px solid #222222;\nborder-bottom: 1px solid #222222;\n}\n.comments .continue {\nborder-top: 2px solid #222222;\n}\n/* Footer\n----------------------------------------------- */\n.footer-outer {\nmargin: -0 0 -1px;\npadding: 0 0 0;\ncolor: #ffffff;\noverflow: hidden;\n}\n.footer-fauxborder-left {\nborder-top: 1px solid #222222;\nbackground: #141414 none repeat scroll 0 0;\n-moz-box-shadow: 0 0 0 rgba(0, 0, 0, .2);\n-webkit-box-shadow: 0 0 0 rgba(0, 0, 0, .2);\n-goog-ms-box-shadow: 0 0 0 rgba(0, 0, 0, .2);\nbox-shadow: 0 0 0 rgba(0, 0, 0, .2);\nmargin: 0 -0;\n}\n/* Mobile\n----------------------------------------------- */\nbody.mobile {\nbackground-size: auto;\n}\n.mobile .body-fauxcolumn-outer {\nbackground: transparent none repeat scroll top left;\n}\n*+html body.mobile .main-inner .column-center-inner {\nmargin-top: 0;\n}\n.mobile .main-inner .widget {\npadding: 0 0 15px;\n}\n.mobile .main-inner .widget h2 + div,\n.mobile .footer-inner .widget h2 + div {\nborder-top: none;\npadding-top: 0;\n}\n.mobile .footer-inner .widget h2 {\npadding: 0.5em 0;\nborder-bottom: none;\n}\n.mobile .main-inner .widget .widget-content {\nmargin: 0;\npadding: 7px 0 0;\n}\n.mobile .main-inner .widget ul,\n.mobile .main-inner .widget #ArchiveList ul.flat {\nmargin: 0 -15px 0;\n}\n.mobile .main-inner .widget h2.date-header {\nright: 0;\n}\n.mobile .date-header span {\npadding: 0.4em 0;\n}\n.mobile .date-outer:first-child {\nmargin-bottom: 0;\nborder: 1px solid #ffffff;\n-moz-border-radius-topleft: 0;\n-moz-border-radius-topright: 0;\n-webkit-border-top-left-radius: 0;\n-webkit-border-top-right-radius: 0;\n-goog-ms-border-top-left-radius: 0;\n-goog-ms-border-top-right-radius: 0;\nborder-top-left-radius: 0;\nborder-top-right-radius: 0;\n}\n.mobile .date-outer {\nborder-color: #ffffff;\nborder-width: 0 1px 1px;\n}\n.mobile .date-outer:last-child {\nmargin-bottom: 0;\n}\n.mobile .main-inner {\npadding: 0;\n}\n.mobile .header-inner .section {\nmargin: 0;\n}\n.mobile .blog-posts {\npadding: 0 10px;\n}\n.mobile .post-outer, .mobile .inline-ad {\npadding: 5px 0;\n}\n.mobile .tabs-inner .section {\nmargin: 0 10px;\n}\n.mobile .main-inner .widget h2 {\nmargin: 0;\npadding: 0;\n}\n.mobile .main-inner .widget h2.date-header span {\npadding: 0;\n}\n.mobile .main-inner .widget .widget-content {\nmargin: 0;\npadding: 7px 0 0;\n}\n.mobile #blog-pager {\nborder: 1px solid transparent;\nbackground: #141414 none repeat scroll 0 0;\n}\n.mobile .main-inner .column-left-inner,\n.mobile .main-inner .column-right-inner {\nbackground: transparent none repeat 0 0;\n-moz-box-shadow: none;\n-webkit-box-shadow: none;\n-goog-ms-box-shadow: none;\nbox-shadow: none;\n}\n.mobile .date-posts {\nmargin: 0;\npadding: 0;\n}\n.mobile .footer-fauxborder-left {\nmargin: 0;\nborder-top: inherit;\n}\n.mobile .main-inner .section:last-child .Blog:last-child {\nmargin-bottom: 0;\n}\n.mobile-index-contents {\ncolor: #ffffff;\n}\n.mobile .mobile-link-button {\nbackground: #7f7f7f none repeat scroll 0 0;\n}\n.mobile-link-button a:link, .mobile-link-button a:visited {\ncolor: #ffffff;\n}\n.mobile .tabs-inner .PageList .widget-content {\nbackground: transparent;\nborder-top: 1px solid;\nborder-color: #222222;\ncolor: #ffffff;\n}\n.mobile .tabs-inner .PageList .widget-content .pagelist-arrow {\nborder-left: 1px solid #222222;\n}\n\n--&gt;\n    </style>\n    <style type="text/css" id="template-skin-1">\n      &lt;!--\nbody {\nmin-width: 1050px;\n}\n.content-outer, .content-fauxcolumn-outer, .region-inner {\nmin-width: 1050px;\nmax-width: 1050px;\n_width: 1050px;\n}\n.main-inner .columns {\npadding-left: 0px;\npadding-right: 360px;\n}\n.main-inner .fauxcolumn-center-outer {\nleft: 0px;\nright: 360px;\n/* IE6 does not respect left and right together */\n_width: expression(this.parentNode.offsetWidth -\nparseInt(&quot;0px&quot;) -\nparseInt(&quot;360px&quot;) + \'px\');\n}\n.main-inner .fauxcolumn-left-outer {\nwidth: 0px;\n}\n.main-inner .fauxcolumn-right-outer {\nwidth: 360px;\n}\n.main-inner .column-left-outer {\nwidth: 0px;\nright: 100%;\nmargin-left: -0px;\n}\n.main-inner .column-right-outer {\nwidth: 360px;\nmargin-right: -360px;\n}\n#layout {\nmin-width: 0;\n}\n#layout .content-outer {\nmin-width: 0;\nwidth: 800px;\n}\n#layout .region-inner {\nmin-width: 0;\nwidth: auto;\n}\n--&gt;\n    </style>\n    <script type="text/javascript">\n      var a=navigator,b=&quot;userAgent&quot;,c=&quot;indexOf&quot;,f=&quot;&amp;m=1&quot;,g=&quot;(^|&amp;)m=&quot;,h=&quot;?&quot;,i=&quot;?m=1&quot;;function j(){var d=window.location.href,e=d.split(h);switch(e.length){case 1:return d+i;case 2:return 0&lt;=e[1].search(g)?null:d+f;default:return null}}if(-1!=a[b][c](&quot;Mobile&quot;)&amp;&amp;-1!=a[b][c](&quot;WebKit&quot;)&amp;&amp;-1==a[b][c](&quot;iPad&quot;)||-1!=a[b][c](&quot;Opera Mini&quot;)||-1!=a[b][c](&quot;IEMobile&quot;)){var k=j();k&amp;&amp;window.location.replace(k)};\n    </script>\n    <script type="text/javascript"> if (window.jstiming) window.jstiming.load.tick(\'headEnd\'); </script>\n  </head>\n  <body class="loading">\n    <div id="navbar" class="navbar section">\n      <div id="Navbar1" class="widget Navbar">\n        <script type="text/javascript"> function setAttributeOnload(object, attribute, val) { if(window.addEventListener) { window.addEventListener(\'load\', function(){ object[attribute] = val; }, false); } else { window.attachEvent(\'onload\', function(){ object[attribute] = val; }); } } </script>\n        <div id="navbar-iframe-container"></div>\n        <script src="https://apis.google.com/js/plusone.js" type="text/javascript"></script>\n        <script type="text/javascript">\n          gapi.load(&quot;iframes-styles-bubble&quot;, function() {\n          if (window.iframes &amp;&amp; iframes.open) {\n            iframes.open(\n                \'//www.blogger.com/navbar.g?targetBlogID\\0755631556653557183914\\46blogName\\75silent+thoughts+.+.\\46publishMode\\75PUBLISH_MODE_BLOGSPOT\\46navbarType\\75LIGHT\\46layoutType\\75LAYOUTS\\46searchRoot\\75http://adamustafa.blogspot.com/search\\46blogLocale\\75en\\46v\\0752\\46homepageUrl\\75http://adamustafa.blogspot.com/\\46targetPostID\\0754995864566380558766\\46blogPostOrPageUrl\\75http://adamustafa.blogspot.com/2009/08/code-geass-lelouch-of-rebellion.html\\46vt\\75-689609434315821286\',\n                {\n                  container: &quot;navbar-iframe-container&quot;,\n                  id: &quot;navbar-iframe&quot;\n                },\n                {\n                });\n          }\n        });\n        </script>\n        <script type="text/javascript">\n          (function() {\nvar script = document.createElement(\'script\');\nscript.type = \'text/javascript\';\nscript.src = \'//pagead2.googlesyndication.com/pagead/js/google_top_exp.js\';\nvar head = document.getElementsByTagName(\'head\')[0];\nif (head) {\nhead.appendChild(script);\n}})();\n        </script>\n      </div>\n    </div>\n    <div class="body-fauxcolumns">\n      <div class="fauxcolumn-outer body-fauxcolumn-outer">\n        <div class="cap-top">\n          <div class="cap-left"></div>\n          <div class="cap-right"></div>\n        </div>\n        <div class="fauxborder-left">\n          <div class="fauxborder-right"></div>\n          <div class="fauxcolumn-inner"> </div>\n        </div>\n        <div class="cap-bottom">\n          <div class="cap-left"></div>\n          <div class="cap-right"></div>\n        </div>\n      </div>\n    </div>\n    <div class="content">\n      <div class="content-fauxcolumns">\n        <div class="fauxcolumn-outer content-fauxcolumn-outer">\n          <div class="cap-top">\n            <div class="cap-left"></div>\n            <div class="cap-right"></div>\n          </div>\n          <div class="fauxborder-left">\n            <div class="fauxborder-right"></div>\n            <div class="fauxcolumn-inner"> </div>\n          </div>\n          <div class="cap-bottom">\n            <div class="cap-left"></div>\n            <div class="cap-right"></div>\n          </div>\n        </div>\n      </div>\n      <div class="content-outer">\n        <div class="content-cap-top cap-top">\n          <div class="cap-left"></div>\n          <div class="cap-right"></div>\n        </div>\n        <div class="fauxborder-left content-fauxborder-left">\n          <div class="fauxborder-right content-fauxborder-right"></div>\n          <div class="content-inner">\n            <header>\n              <div class="header-outer">\n                <div class="header-cap-top cap-top">\n                  <div class="cap-left"></div>\n                  <div class="cap-right"></div>\n                </div>\n                <div class="fauxborder-left header-fauxborder-left">\n                  <div class="fauxborder-right header-fauxborder-right"></div>\n                  <div class="region-inner header-inner">\n                    <div id="header" class="header section">\n                      <div id="Header1" class="widget Header">\n                        <div style="background-image: url(&quot;http://4.bp.blogspot.com/-krBoIibapks/T0jYXWUciiI/AAAAAAAAATE/lIUs7a1IGyc/s1600/Untitled-12.jpg&quot;); background-position: left; width: 948px; min-height: 228px; _height: 228px; background-repeat: no-repeat; " id="header-inner">\n                          <div style="background: transparent" class="titlewrapper">\n                            <h1 style="background: transparent; border-width: 0px" class="title">\n                              <a href="http://adamustafa.blogspot.com/" shape="rect">silent thoughts . .</a>\n                            </h1>\n                          </div>\n                          <div class="descriptionwrapper">\n                            <p class="description">\n                              <span>\n                                i\'m too lazy to make my own private diary .\n                                <br clear="none"></br>\n                                thanks to that , this blog exists . =_=&quot;\n                                <br clear="none"></br>\n                                <br clear="none"></br>\n                                WARNING : this blog might bored you to death . =)\n                              </span>\n                            </p>\n                          </div>\n                        </div>\n                      </div>\n                    </div>\n                  </div>\n                </div>\n                <div class="header-cap-bottom cap-bottom">\n                  <div class="cap-left"></div>\n                  <div class="cap-right"></div>\n                </div>\n              </div>\n            </header>\n            <div class="tabs-outer">\n              <div class="tabs-cap-top cap-top">\n                <div class="cap-left"></div>\n                <div class="cap-right"></div>\n              </div>\n              <div class="fauxborder-left tabs-fauxborder-left">\n                <div class="fauxborder-right tabs-fauxborder-right"></div>\n                <div class="region-inner tabs-inner">\n                  <div id="crosscol" class="tabs section"></div>\n                  <div id="crosscol-overflow" class="tabs section"></div>\n                </div>\n              </div>\n              <div class="tabs-cap-bottom cap-bottom">\n                <div class="cap-left"></div>\n                <div class="cap-right"></div>\n              </div>\n            </div>\n            <div class="main-outer">\n              <div class="main-cap-top cap-top">\n                <div class="cap-left"></div>\n                <div class="cap-right"></div>\n              </div>\n              <div class="fauxborder-left main-fauxborder-left">\n                <div class="fauxborder-right main-fauxborder-right"></div>\n                <div class="region-inner main-inner">\n                  <div class="columns fauxcolumns">\n                    <div class="fauxcolumn-outer fauxcolumn-center-outer">\n                      <div class="cap-top">\n                        <div class="cap-left"></div>\n                        <div class="cap-right"></div>\n                      </div>\n                      <div class="fauxborder-left">\n                        <div class="fauxborder-right"></div>\n                        <div class="fauxcolumn-inner"> </div>\n                      </div>\n                      <div class="cap-bottom">\n                        <div class="cap-left"></div>\n                        <div class="cap-right"></div>\n                      </div>\n                    </div>\n                    <div class="fauxcolumn-outer fauxcolumn-left-outer">\n                      <div class="cap-top">\n                        <div class="cap-left"></div>\n                        <div class="cap-right"></div>\n                      </div>\n                      <div class="fauxborder-left">\n                        <div class="fauxborder-right"></div>\n                        <div class="fauxcolumn-inner"> </div>\n                      </div>\n                      <div class="cap-bottom">\n                        <div class="cap-left"></div>\n                        <div class="cap-right"></div>\n                      </div>\n                    </div>\n                    <div class="fauxcolumn-outer fauxcolumn-right-outer">\n                      <div class="cap-top">\n                        <div class="cap-left"></div>\n                        <div class="cap-right"></div>\n                      </div>\n                      <div class="fauxborder-left">\n                        <div class="fauxborder-right"></div>\n                        <div class="fauxcolumn-inner"> </div>\n                      </div>\n                      <div class="cap-bottom">\n                        <div class="cap-left"></div>\n                        <div class="cap-right"></div>\n                      </div>\n                    </div>\n                    <div class="columns-inner">\n                      <div class="column-center-outer">\n                        <div class="column-center-inner">\n                          <div id="main" class="main section">\n                            <div id="Blog1" class="widget Blog">\n                              <div class="blog-posts hfeed">\n                                <div class="date-outer">\n                                  <h2 class="date-header">\n                                    <span>Sunday, August 23, 2009</span>\n                                  </h2>\n                                  <div class="date-posts">\n                                    <div class="post-outer">\n                                      <div itemtype="http://schema.org/BlogPosting" itemscope="itemscope" class="post hentry"> </div>\n                                    </div>\n                                  </div>\n                                </div>\n                              </div>\n                            </div>\n                          </div>\n                        </div>\n                      </div>\n                    </div>\n                  </div>\n                </div>\n              </div>\n            </div>\n          </div>\n        </div>\n      </div>\n    </div>\n  </body>\n  <head>\n    <meta itemprop="image_url" content="http://3.bp.blogspot.com/_3pjfIdRptv8/SpDaH_XtggI/AAAAAAAAADc/3d7EGFkRnuI/s72-c/Lelouch-geass.jpg"></meta>\n  </head>\n  <body>\n    <a name="4995864566380558766" shape="rect"></a>\n    <h3 itemprop="name" class="post-title entry-title"> code geass : lelouch of the rebellion.. </h3>\n    <div class="post-header">\n      <div class="post-header-line-1"></div>\n    </div>\n    <div itemprop="description articleBody" id="post-body-4995864566380558766" class="post-body entry-content">\n      <div align="left">\n        <br clear="none"></br>\n      </div>\n      <div align="left"></div>\n      <div align="left">\n        <span style="font-family:arial;">\n          so, semalam aku da habiskan\n          <strong>\n            <span style="color:#ffffff;">\n              <a href="http://en.wikipedia.org/wiki/Code_Geass" shape="rect">\n                <em>code geass</em>\n              </a>\n              : lelouch of the rebellion\n            </span>\n          </strong>\n          (S1). umm, cite tu, boleh thn la. sbb aku x ske sgt cite mecha. tapi still boleh kate best.\n        </span>\n        <span style="font-family:arial;">cite ni pasal perang. biasenye aku x tgk cite cam ni. tapi, layan je la. da org bg pinjam en, tak kan nak biar je. hehehe.. </span>\n        <span style="font-family:arial;">\n          cite ni pasal perang la. tapi ade selit\n          <strong>geass</strong>\n          .\n        </span>\n        <span style="font-family:arial;">geass ni cam power r. die leh order org wat ape yg die nak.</span>\n      </div>\n      <div align="left"></div>\n      <div align="left">\n        <br clear="none"></br>\n      </div>\n      <div align="center">\n        <img src="http://3.bp.blogspot.com/_3pjfIdRptv8/SpDaH_XtggI/AAAAAAAAADc/3d7EGFkRnuI/s320/Lelouch-geass.jpg" alt="" border="0" style="TEXT-ALIGN: center; MARGIN: 0px auto 10px; WIDTH: 300px; DISPLAY: block; HEIGHT: 210px; CURSOR: hand" id="BLOGGER_PHOTO_ID_5373034186257826306"></img>\n      </div>\n      <div align="center">\n        <span style="font-family:arial;font-size:85%;">lelouch using the power of geass</span>\n      </div>\n      <div align="center">\n        <span style="font-family:Arial;font-size:85%;"></span>\n      </div>\n      <div align="left">\n        <br clear="none"></br>\n        <span style="font-family:arial;color:#ffffff;">\n          <strong>main characters :</strong>\n        </span>\n      </div>\n      <div align="left"></div>\n      <p align="left"></p>\n      <p></p>\n      <p>\n        <img src="http://4.bp.blogspot.com/_3pjfIdRptv8/SpDWQvMLcfI/AAAAAAAAACs/qj8NfbsJPgs/s320/lelouch.bmp" alt="" border="0" style="TEXT-ALIGN: center; MARGIN: 0px auto 10px; WIDTH: 320px; DISPLAY: block; HEIGHT: 240px; CURSOR: hand" id="BLOGGER_PHOTO_ID_5373029938486800882"></img>\n      </p>\n      <div align="center">\n        <span style="font-family:arial;font-size:85%;">Lelouch Lamperounge/</span>\n      </div>\n      <div align="center">\n        <span style="font-family:arial;font-size:85%;">Lelouch vi Brittania</span>\n      </div>\n      <div align="center">\n        <span style="font-family:Arial;font-size:85%;"></span>\n      </div>\n      <div align="center">\n        <span style="font-family:Arial;font-size:85%;"></span>\n      </div>\n      <div align="center">\n        <span style="font-family:Arial;font-size:85%;"></span>\n      </div>\n      <div align="center"></div>\n      <img src="http://1.bp.blogspot.com/_3pjfIdRptv8/SpDcogkQEDI/AAAAAAAAADk/874hCQm54Yg/s320/zero.bmp" alt="" border="0" style="TEXT-ALIGN: center; MARGIN: 0px auto 10px; WIDTH: 320px; DISPLAY: block; HEIGHT: 220px; CURSOR: hand" id="BLOGGER_PHOTO_ID_5373036943947862066"></img>\n      <p align="center">\n        <span style="font-family:arial;font-size:85%;">Lelouch as Zero</span>\n      </p>\n      <p>\n        <img src="http://1.bp.blogspot.com/_3pjfIdRptv8/SpDXvQ2B0cI/AAAAAAAAAC0/LDQxezCD6oE/s320/cc.bmp" alt="" border="0" style="TEXT-ALIGN: center; MARGIN: 0px auto 10px; WIDTH: 320px; DISPLAY: block; HEIGHT: 224px; CURSOR: hand" id="BLOGGER_PHOTO_ID_5373031562428404162"></img>\n      </p>\n      <p align="center">\n        <span style="font-family:arial;font-size:85%;">C.C</span>\n      </p>\n      <p align="center">\n        <img src="http://4.bp.blogspot.com/_3pjfIdRptv8/SpDZLuqX50I/AAAAAAAAADM/4xGfG71jKlE/s320/Picture1.png" alt="" border="0" style="TEXT-ALIGN: center; MARGIN: 0px auto 10px; WIDTH: 170px; DISPLAY: block; HEIGHT: 250px; CURSOR: hand" id="BLOGGER_PHOTO_ID_5373033150980548418"></img>\n        <span style="font-family:arial;font-size:85%;">Kururugi Suzaku</span>\n      </p>\n      <p align="center">\n        <img src="http://1.bp.blogspot.com/_3pjfIdRptv8/SpDX7HJ-YbI/AAAAAAAAAC8/s8Ei3mBloLo/s320/kallen3.bmp" alt="" border="0" style="TEXT-ALIGN: center; MARGIN: 0px auto 10px; WIDTH: 320px; DISPLAY: block; HEIGHT: 240px; CURSOR: hand" id="BLOGGER_PHOTO_ID_5373031765986140594"></img>\n      </p>\n      <p align="center">\n        <span style="font-family:arial;font-size:85%;">Kallen Stadtfeld</span>\n      </p>\n      <p>\n        <span style="font-family:arial;color:#ffffff;">\n          <strong>music :</strong>\n        </span>\n      </p>\n      <p>\n        <span style="font-family:arial;color:#33ffff;">opening</span>\n      </p>\n      <p>\n        <span style="font-family:arial;">\n          &gt;\n          <span style="color:#ffff00;">\n            Colors\n            <span style="color:#ffccff;">by</span>\n            FLOW\n          </span>\n          *ep 1 - ep 12*\n        </span>\n      </p>\n      <p>\n        <span style="font-family:arial;">\n          &gt;\n          <span style="color:#ffff33;">Kaidoku Funo</span>\n          (Indecipherable) by\n          <span style="color:#ffff33;">Jinn</span>\n          *ep 13 - ep 23*\n        </span>\n      </p>\n      <p>\n        <span style="font-family:arial;">\n          &gt;\n          <span style="color:#ffff33;">Hitomi no Tsubasa</span>\n          (Eye\'s Wing) by\n          <span style="color:#ffff33;">Access</span>\n          *ep 24 &amp; ep 25*\n        </span>\n      </p>\n      <p>\n        <span style="font-family:arial;color:#33ffff;"></span>\n      </p>\n      <p>\n        <span style="font-family:arial;color:#33ffff;">ending</span>\n      </p>\n      <p>\n        <span style="font-family:arial;">\n          &gt;\n          <span style="color:#ffff33;">Yukyo Seishunka</span>\n          (Chivalrous Youth Song) by\n          <span style="color:#ffff33;">Ali Project</span>\n          *ep 1 - ep 12*\n        </span>\n      </p>\n      <p>\n        <span style="font-family:arial;">\n          &gt;\n          <span style="color:#ffff33;">Mosaic Kakera</span>\n          (Mosaic Fragments) by\n          <span style="color:#ffff33;">SunSet Swish</span>\n          *ep 13 - ep 25*\n          <br clear="none"></br>\n        </span>\n      </p>\n      <p></p>\n      <div style="clear: both;"></div>\n    </div>\n    <div class="post-footer">\n      <div class="post-footer-line post-footer-line-1">\n        <span class="post-author vcard">\n          Posted by\n          <span itemtype="http://schema.org/Person" itemscope="itemscope" itemprop="author" class="fn"> </span>\n        </span>\n      </div>\n    </div>\n  </body>\n  <head>\n    <meta itemprop="url" content="http://www.blogger.com/profile/01196147529607678639"></meta>\n    <meta itemprop="articleBody/aiaBlogId" content="5631556653557183914"></meta>\n    <meta itemprop="articleBody/aiaPostId" content="4995864566380558766"></meta>\n  </head>\n  <body>\n    <a title="author profile" rel="author" href="http://www.blogger.com/profile/01196147529607678639" shape="rect">\n      <span itemprop="name">ada</span>\n    </a>\n    <span class="post-timestamp"> at </span>\n  </body>\n  <head>\n    <meta itemprop="url" content="http://adamustafa.blogspot.com/2009/08/code-geass-lelouch-of-rebellion.html"></meta>\n  </head>\n  <body>\n    <a title="permanent link" rel="bookmark" href="http://adamustafa.blogspot.com/2009/08/code-geass-lelouch-of-rebellion.html" class="timestamp-link" shape="rect">\n      <abbr title="2009-08-23T12:44:00+08:00" itemprop="datePublished" class="published">12:44 PM</abbr>\n    </a>\n    <span class="post-comment-link"> </span>\n    <span class="post-icons">\n      <span class="item-control blog-admin pid-1075387295">\n        <a title="Edit Post" href="http://www.blogger.com/post-edit.g?blogID=5631556653557183914&amp;postID=4995864566380558766&amp;from=pencil" shape="rect">\n          <img width="18" src="http://img2.blogblog.com/img/icon18_edit_allbkg.gif" height="18" alt="" class="icon-action"></img>\n        </a>\n      </span>\n    </span>\n    <span class="post-backlinks post-comment-link"> </span>\n    <div class="post-footer-line post-footer-line-2">\n      <span class="post-labels">\n        Labels:\n        <a rel="tag" href="http://adamustafa.blogspot.com/search/label/anime" shape="rect">anime</a>\n      </span>\n    </div>\n    <div class="post-footer-line post-footer-line-3">\n      <span class="post-location"> </span>\n    </div>\n    <div id="comments" class="comments">\n      <a name="comments" shape="rect"></a>\n      <h4>No comments:</h4>\n      <div id="Blog1_comments-block-wrapper">\n        <dl id="comments-block" class="avatar-comment-indent"></dl>\n      </div>\n      <p class="comment-footer"> </p>\n      <div class="comment-form">\n        <a name="comment-form" shape="rect"></a>\n        <h4 id="comment-post-message">Post a Comment</h4>\n        <p> </p>\n        <a href="http://www.blogger.com/comment-iframe.g?blogID=5631556653557183914&amp;postID=4995864566380558766" id="comment-editor-src" shape="rect"></a>\n        <iframe width="100%" src="" name="comment-editor" height="410" allowtransparency="true" id="comment-editor" class="blogger-iframe-colorize blogger-comment-from-post" scrolling="auto" frameborder="0"></iframe>\n        <script src="//www.blogger.com/static/v1/jsbin/4030612614-comment_from_post_iframe.js" type="text/javascript"></script>\n        <script type="text/javascript"> BLOG_CMT_createIframe(\'http://www.blogger.com/rpc_relay.html\', \'05899994143052010294\'); </script>\n      </div>\n      <div id="backlinks-container">\n        <div id="Blog1_backlinks-container">\n          <a name="links" shape="rect"></a>\n          <h4> </h4>\n          <p class="comment-footer">\n            <a target="_blank" href="" id="Blog1_backlinks-create-link" class="comment-link" shape="rect"> </a>\n          </p>\n        </div>\n      </div>\n    </div>\n    <div id="blog-pager" class="blog-pager">\n      <span id="blog-pager-newer-link">\n        <a title="Newer Post" href="http://adamustafa.blogspot.com/2009/08/sleep-zzzzzz.html" id="Blog1_blog-pager-newer-link" class="blog-pager-newer-link" shape="rect">Newer Post</a>\n      </span>\n      <span id="blog-pager-older-link">\n        <a title="Older Post" href="http://adamustafa.blogspot.com/2009/08/merdeka.html" id="Blog1_blog-pager-older-link" class="blog-pager-older-link" shape="rect">Older Post</a>\n      </span>\n      <a href="http://adamustafa.blogspot.com/" class="home-link" shape="rect">Home</a>\n    </div>\n    <div class="clear"></div>\n    <div class="post-feeds">\n      <div class="feed-links">\n        Subscribe to:\n        <a type="application/atom+xml" target="_blank" href="http://adamustafa.blogspot.com/feeds/4995864566380558766/comments/default" class="feed-link" shape="rect">Post Comments (Atom)</a>\n      </div>\n    </div>\n    <div class="column-left-outer">\n      <div class="column-left-inner">\n        <aside> </aside>\n      </div>\n    </div>\n    <div class="column-right-outer">\n      <div class="column-right-inner">\n        <aside>\n          <div id="sidebar-right-1" class="sidebar section">\n            <div id="HTML4" class="widget HTML">\n              <h2 class="title">tik tok !</h2>\n              <div class="widget-content">\n                <embed width="220" height="180" wmode="transparent" type="" src="http://fc03.deviantart.net/fs71/f/2010/172/4/9/Hitman_Reborn_Clock_by_sd0711.swf" pluginspage="http://www.macromedia.com/go/getflashplayer"></embed>\n              </div>\n              <div class="clear"></div>\n              <span class="widget-item-control">\n                <span class="item-control blog-admin">\n                  <a \n                  title="Edit" target="configHTML4" onclick="return _WidgetManager._PopupConfig(document.getElementById(&quot;HTML4&quot;));" href="//www.blogger.com/rearrange?blogID=5631556653557183914&amp;widgetType=HTML&amp;widgetId=HTML4&amp;action=editWidget&amp;sectionId=sidebar-right-1" class="quickedit" shape="rect">\n                    <img width="18" src="http://img1.blogblog.com/img/icon18_wrench_allbkg.png" height="18" alt=""></img>\n</a>\n                </span>\n              </span>\n              <div class="clear"></div>\n            </div>\n            <div id="Profile1" class="widget Profile">\n              <h2>About Me</h2>\n              <div class="widget-content">\n                <a href="http://www.blogger.com/profile/01196147529607678639" shape="rect">\n                  <img width="60" src="http://4.bp.blogspot.com/-b2vWA20jkdo/T0ENmbfHnJI/AAAAAAAAASA/AtBX3xXOzd4/s220/DSC01235.JPG" height="80" alt="My Photo" class="profile-img"></img>\n                </a>\n                <dl class="profile-datablock">\n                  <dt class="profile-data">\n                    <a style="background-image: url(//www.blogger.com/img/logo-16.png);" rel="author" href="http://www.blogger.com/profile/01196147529607678639" class="profile-name-link" shape="rect"> ada </a>\n                  </dt>\n                  <dd class="profile-textblock">\n                    a normal megane malaysian girl called \'ada\' . unimas student - social sciences . love anime , manga and other Japanese stuffs . usually silent and sometimes weird . a good listener . enjoy mostly any kind of music . chocolate lover . obsess with books . an internet addict - sort-of . \n\nnice to meet you ! :)\n                  </dd>\n                </dl>\n                <a rel="author" href="http://www.blogger.com/profile/01196147529607678639" class="profile-link" shape="rect">View my complete profile</a>\n                <div class="clear"></div>\n                <span class="widget-item-control">\n                  <span class="item-control blog-admin">\n                    <a \n                    title="Edit" target="configProfile1" onclick="return _WidgetManager._PopupConfig(document.getElementById(&quot;Profile1&quot;));" href="//www.blogger.com/rearrange?blogID=5631556653557183914&amp;widgetType=Profile&amp;widgetId=Profile1&amp;action=editWidget&amp;sectionId=sidebar-right-1" class="quickedit" shape="rect">\n                      <img width="18" src="http://img1.blogblog.com/img/icon18_wrench_allbkg.png" height="18" alt=""></img>\n</a>\n                  </span>\n                </span>\n                <div class="clear"></div>\n              </div>\n            </div>\n            <div id="HTML7" class="widget HTML">\n              <h2 class="title">soalan !</h2>\n              <div class="widget-content">\n                <iframe style="border:none;" height="275" width="180" src="http://www.formspring.me/widget/view/adamustafa?&amp;size=medium&amp;bgcolor=%23230944&amp;fgcolor=%23F3F3F3" scrolling="no" frameborder="0">\n                  <a href="http://www.formspring.me/adamustafa" shape="rect">http://www.formspring.me/adamustafa</a>\n                </iframe>\n              </div>\n              <div class="clear"></div>\n              <span class="widget-item-control">\n                <span class="item-control blog-admin">\n                  <a \n                  title="Edit" target="configHTML7" onclick="return _WidgetManager._PopupConfig(document.getElementById(&quot;HTML7&quot;));" href="//www.blogger.com/rearrange?blogID=5631556653557183914&amp;widgetType=HTML&amp;widgetId=HTML7&amp;action=editWidget&amp;sectionId=sidebar-right-1" class="quickedit" shape="rect">\n                    <img width="18" src="http://img1.blogblog.com/img/icon18_wrench_allbkg.png" height="18" alt=""></img>\n</a>\n                </span>\n              </span>\n              <div class="clear"></div>\n            </div>\n            <div id="BlogArchive1" class="widget BlogArchive">\n              <h2>Blog Archive</h2>\n              <div class="widget-content">\n                <div id="ArchiveList">\n                  <div id="BlogArchive1_ArchiveList">\n                    <ul class="hierarchy">\n                      <li class="archivedate collapsed">\n                        <a href="javascript:void(0)" class="toggle" shape="rect">\n                          <span class="zippy"> \xe2\x96\xba\xc2\xa0 </span>\n                        </a>\n                        <a href="http://adamustafa.blogspot.com/search?updated-min=2012-01-01T00:00:00%2B08:00&amp;updated-max=2013-01-01T00:00:00%2B08:00&amp;max-results=6" class="post-count-link" shape="rect">2012</a>\n                        <span dir="ltr" class="post-count">(6)</span>\n                        <ul class="hierarchy">\n                          <li class="archivedate collapsed">\n                            <a href="javascript:void(0)" class="toggle" shape="rect">\n                              <span class="zippy"> \xe2\x96\xba\xc2\xa0 </span>\n                            </a>\n                            <a href="http://adamustafa.blogspot.com/2012_07_01_archive.html" class="post-count-link" shape="rect">July</a>\n                            <span dir="ltr" class="post-count">(2)</span>\n                          </li>\n                        </ul>\n                        <ul class="hierarchy">\n                          <li class="archivedate collapsed">\n                            <a href="javascript:void(0)" class="toggle" shape="rect">\n                              <span class="zippy"> \xe2\x96\xba\xc2\xa0 </span>\n                            </a>\n                            <a href="http://adamustafa.blogspot.com/2012_05_01_archive.html" class="post-count-link" shape="rect">May</a>\n                            <span dir="ltr" class="post-count">(1)</span>\n                          </li>\n                        </ul>\n                        <ul class="hierarchy">\n                          <li class="archivedate collapsed">\n                            <a href="javascript:void(0)" class="toggle" shape="rect">\n                              <span class="zippy"> \xe2\x96\xba\xc2\xa0 </span>\n                            </a>\n                            <a href="http://adamustafa.blogspot.com/2012_02_01_archive.html" class="post-count-link" shape="rect">February</a>\n                            <span dir="ltr" class="post-count">(3)</span>\n                          </li>\n                        </ul>\n                      </li>\n                    </ul>\n                    <ul class="hierarchy">\n                      <li class="archivedate collapsed">\n                        <a href="javascript:void(0)" class="toggle" shape="rect">\n                          <span class="zippy"> \xe2\x96\xba\xc2\xa0 </span>\n                        </a>\n                        <a href="http://adamustafa.blogspot.com/search?updated-min=2011-01-01T00:00:00%2B08:00&amp;updated-max=2012-01-01T00:00:00%2B08:00&amp;max-results=13" class="post-count-link" shape="rect">2011</a>\n                        <span dir="ltr" class="post-count">(13)</span>\n                        <ul class="hierarchy">\n                          <li class="archivedate collapsed">\n                            <a href="javascript:void(0)" class="toggle" shape="rect">\n                              <span class="zippy"> \xe2\x96\xba\xc2\xa0 </span>\n                            </a>\n                            <a href="http://adamustafa.blogspot.com/2011_12_01_archive.html" class="post-count-link" shape="rect">December</a>\n                            <span dir="ltr" class="post-count">(1)</span>\n                          </li>\n                        </ul>\n                        <ul class="hierarchy">\n                          <li class="archivedate collapsed">\n                            <a href="javascript:void(0)" class="toggle" shape="rect">\n                              <span class="zippy"> \xe2\x96\xba\xc2\xa0 </span>\n                            </a>\n                            <a href="http://adamustafa.blogspot.com/2011_09_01_archive.html" class="post-count-link" shape="rect">September</a>\n                            <span dir="ltr" class="post-count">(1)</span>\n                          </li>\n                        </ul>\n                        <ul class="hierarchy">\n                          <li class="archivedate collapsed">\n                            <a href="javascript:void(0)" class="toggle" shape="rect">\n                              <span class="zippy"> \xe2\x96\xba\xc2\xa0 </span>\n                            </a>\n                            <a href="http://adamustafa.blogspot.com/2011_08_01_archive.html" class="post-count-link" shape="rect">August</a>\n                            <span dir="ltr" class="post-count">(1)</span>\n                          </li>\n                        </ul>\n                        <ul class="hierarchy">\n                          <li class="archivedate collapsed">\n                            <a href="javascript:void(0)" class="toggle" shape="rect">\n                              <span class="zippy"> \xe2\x96\xba\xc2\xa0 </span>\n                            </a>\n                            <a href="http://adamustafa.blogspot.com/2011_07_01_archive.html" class="post-count-link" shape="rect">July</a>\n                            <span dir="ltr" class="post-count">(3)</span>\n                          </li>\n                        </ul>\n                        <ul class="hierarchy">\n                          <li class="archivedate collapsed">\n                            <a href="javascript:void(0)" class="toggle" shape="rect">\n                              <span class="zippy"> \xe2\x96\xba\xc2\xa0 </span>\n                            </a>\n                            <a href="http://adamustafa.blogspot.com/2011_06_01_archive.html" class="post-count-link" shape="rect">June</a>\n                            <span dir="ltr" class="post-count">(1)</span>\n                          </li>\n                        </ul>\n                        <ul class="hierarchy">\n                          <li class="archivedate collapsed">\n                            <a href="javascript:void(0)" class="toggle" shape="rect">\n                              <span class="zippy"> \xe2\x96\xba\xc2\xa0 </span>\n                            </a>\n                            <a href="http://adamustafa.blogspot.com/2011_05_01_archive.html" class="post-count-link" shape="rect">May</a>\n                            <span dir="ltr" class="post-count">(4)</span>\n                          </li>\n                        </ul>\n                        <ul class="hierarchy">\n                          <li class="archivedate collapsed">\n                            <a href="javascript:void(0)" class="toggle" shape="rect">\n                              <span class="zippy"> \xe2\x96\xba\xc2\xa0 </span>\n                            </a>\n                            <a href="http://adamustafa.blogspot.com/2011_04_01_archive.html" class="post-count-link" shape="rect">April</a>\n                            <span dir="ltr" class="post-count">(2)</span>\n                          </li>\n                        </ul>\n                      </li>\n                    </ul>\n                    <ul class="hierarchy">\n                      <li class="archivedate collapsed">\n                        <a href="javascript:void(0)" class="toggle" shape="rect">\n                          <span class="zippy"> \xe2\x96\xba\xc2\xa0 </span>\n                        </a>\n                        <a href="http://adamustafa.blogspot.com/search?updated-min=2010-01-01T00:00:00%2B08:00&amp;updated-max=2011-01-01T00:00:00%2B08:00&amp;max-results=24" class="post-count-link" shape="rect">2010</a>\n                        <span dir="ltr" class="post-count">(24)</span>\n                        <ul class="hierarchy">\n                          <li class="archivedate collapsed">\n                            <a href="javascript:void(0)" class="toggle" shape="rect">\n                              <span class="zippy"> \xe2\x96\xba\xc2\xa0 </span>\n                            </a>\n                            <a href="http://adamustafa.blogspot.com/2010_10_01_archive.html" class="post-count-link" shape="rect">October</a>\n                            <span dir="ltr" class="post-count">(1)</span>\n                          </li>\n                        </ul>\n                        <ul class="hierarchy">\n                          <li class="archivedate collapsed">\n                            <a href="javascript:void(0)" class="toggle" shape="rect">\n                              <span class="zippy"> \xe2\x96\xba\xc2\xa0 </span>\n                            </a>\n                            <a href="http://adamustafa.blogspot.com/2010_07_01_archive.html" class="post-count-link" shape="rect">July</a>\n                            <span dir="ltr" class="post-count">(4)</span>\n                          </li>\n                        </ul>\n                        <ul class="hierarchy">\n                          <li class="archivedate collapsed">\n                            <a href="javascript:void(0)" class="toggle" shape="rect">\n                              <span class="zippy"> \xe2\x96\xba\xc2\xa0 </span>\n                            </a>\n                            <a href="http://adamustafa.blogspot.com/2010_06_01_archive.html" class="post-count-link" shape="rect">June</a>\n                            <span dir="ltr" class="post-count">(1)</span>\n                          </li>\n                        </ul>\n                        <ul class="hierarchy">\n                          <li class="archivedate collapsed">\n                            <a href="javascript:void(0)" class="toggle" shape="rect">\n                              <span class="zippy"> \xe2\x96\xba\xc2\xa0 </span>\n                            </a>\n                            <a href="http://adamustafa.blogspot.com/2010_05_01_archive.html" class="post-count-link" shape="rect">May</a>\n                            <span dir="ltr" class="post-count">(4)</span>\n                          </li>\n                        </ul>\n                        <ul class="hierarchy">\n                          <li class="archivedate collapsed">\n                            <a href="javascript:void(0)" class="toggle" shape="rect">\n                              <span class="zippy"> \xe2\x96\xba\xc2\xa0 </span>\n                            </a>\n                            <a href="http://adamustafa.blogspot.com/2010_04_01_archive.html" class="post-count-link" shape="rect">April</a>\n                            <span dir="ltr" class="post-count">(1)</span>\n                          </li>\n                        </ul>\n                        <ul class="hierarchy">\n                          <li class="archivedate collapsed">\n                            <a href="javascript:void(0)" class="toggle" shape="rect">\n                              <span class="zippy"> \xe2\x96\xba\xc2\xa0 </span>\n                            </a>\n                            <a href="http://adamustafa.blogspot.com/2010_03_01_archive.html" class="post-count-link" shape="rect">March</a>\n                            <span dir="ltr" class="post-count">(4)</span>\n                          </li>\n                        </ul>\n                        <ul class="hierarchy">\n                          <li class="archivedate collapsed">\n                            <a href="javascript:void(0)" class="toggle" shape="rect">\n                              <span class="zippy"> \xe2\x96\xba\xc2\xa0 </span>\n                            </a>\n                            <a href="http://adamustafa.blogspot.com/2010_02_01_archive.html" class="post-count-link" shape="rect">February</a>\n                            <span dir="ltr" class="post-count">(3)</span>\n                          </li>\n                        </ul>\n                        <ul class="hierarchy">\n                          <li class="archivedate collapsed">\n                            <a href="javascript:void(0)" class="toggle" shape="rect">\n                              <span class="zippy"> \xe2\x96\xba\xc2\xa0 </span>\n                            </a>\n                            <a href="http://adamustafa.blogspot.com/2010_01_01_archive.html" class="post-count-link" shape="rect">January</a>\n                            <span dir="ltr" class="post-count">(6)</span>\n                          </li>\n                        </ul>\n                      </li>\n                    </ul>\n                    <ul class="hierarchy">\n                      <li class="archivedate expanded">\n                        <a href="javascript:void(0)" class="toggle" shape="rect">\n                          <span class="zippy toggle-open">\xe2\x96\xbc\xc2\xa0</span>\n                        </a>\n                        <a href="http://adamustafa.blogspot.com/search?updated-min=2009-01-01T00:00:00%2B08:00&amp;updated-max=2010-01-01T00:00:00%2B08:00&amp;max-results=28" class="post-count-link" shape="rect">2009</a>\n                        <span dir="ltr" class="post-count">(28)</span>\n                        <ul class="hierarchy">\n                          <li class="archivedate collapsed">\n                            <a href="javascript:void(0)" class="toggle" shape="rect">\n                              <span class="zippy"> \xe2\x96\xba\xc2\xa0 </span>\n                            </a>\n                            <a href="http://adamustafa.blogspot.com/2009_11_01_archive.html" class="post-count-link" shape="rect">November</a>\n                            <span dir="ltr" class="post-count">(1)</span>\n                          </li>\n                        </ul>\n                        <ul class="hierarchy">\n                          <li class="archivedate collapsed">\n                            <a href="javascript:void(0)" class="toggle" shape="rect">\n                              <span class="zippy"> \xe2\x96\xba\xc2\xa0 </span>\n                            </a>\n                            <a href="http://adamustafa.blogspot.com/2009_09_01_archive.html" class="post-count-link" shape="rect">September</a>\n                            <span dir="ltr" class="post-count">(5)</span>\n                          </li>\n                        </ul>\n                        <ul class="hierarchy">\n                          <li class="archivedate expanded">\n                            <a href="javascript:void(0)" class="toggle" shape="rect">\n                              <span class="zippy toggle-open">\xe2\x96\xbc\xc2\xa0</span>\n                            </a>\n                            <a href="http://adamustafa.blogspot.com/2009_08_01_archive.html" class="post-count-link" shape="rect">August</a>\n                            <span dir="ltr" class="post-count">(8)</span>\n                            <ul class="posts">\n                              <li>\n                                <a href="http://adamustafa.blogspot.com/2009/08/sleep-zzzzzz.html" shape="rect">sleep.. zZzzZz..</a>\n                              </li>\n                              <li>\n                                <a href="http://adamustafa.blogspot.com/2009/08/code-geass-lelouch-of-rebellion.html" shape="rect">code geass : lelouch of the rebellion..</a>\n                              </li>\n                              <li>\n                                <a href="http://adamustafa.blogspot.com/2009/08/merdeka.html" shape="rect">merdeka!</a>\n                              </li>\n                              <li>\n                                <a href="http://adamustafa.blogspot.com/2009/08/guy-girl-facts.html" shape="rect">guy &amp; girl facts..</a>\n                              </li>\n                              <li>\n                                <a href="http://adamustafa.blogspot.com/2009/08/happy-b-day.html" shape="rect">happy b-day!</a>\n                              </li>\n                              <li>\n                                <a href="http://adamustafa.blogspot.com/2009/08/julai.html" shape="rect">julai..</a>\n                              </li>\n                              <li>\n                                <a href="http://adamustafa.blogspot.com/2009/08/3d-chalk-drawings.html" shape="rect">3D chalk drawings..</a>\n                              </li>\n                              <li>\n                                <a href="http://adamustafa.blogspot.com/2009/08/beli2.html" shape="rect">beli2..</a>\n                              </li>\n                            </ul>\n                          </li>\n                        </ul>\n                        <ul class="hierarchy">\n                          <li class="archivedate collapsed">\n                            <a href="javascript:void(0)" class="toggle" shape="rect">\n                              <span class="zippy"> \xe2\x96\xba\xc2\xa0 </span>\n                            </a>\n                            <a href="http://adamustafa.blogspot.com/2009_07_01_archive.html" class="post-count-link" shape="rect">July</a>\n                            <span dir="ltr" class="post-count">(3)</span>\n                          </li>\n                        </ul>\n                        <ul class="hierarchy">\n                          <li class="archivedate collapsed">\n                            <a href="javascript:void(0)" class="toggle" shape="rect">\n                              <span class="zippy"> \xe2\x96\xba\xc2\xa0 </span>\n                            </a>\n                            <a href="http://adamustafa.blogspot.com/2009_06_01_archive.html" class="post-count-link" shape="rect">June</a>\n                            <span dir="ltr" class="post-count">(11)</span>\n                          </li>\n                        </ul>\n                      </li>\n                    </ul>\n                  </div>\n                </div>\n                <div class="clear"></div>\n                <span class="widget-item-control">\n                  <span class="item-control blog-admin">\n                    <a \n                    title="Edit" target="configBlogArchive1" onclick="return _WidgetManager._PopupConfig(document.getElementById(&quot;BlogArchive1&quot;));" href="//www.blogger.com/rearrange?blogID=5631556653557183914&amp;widgetType=BlogArchive&amp;widgetId=BlogArchive1&amp;action=editWidget&amp;sectionId=sidebar-right-1" class="quickedit" shape="rect">\n                      <img width="18" src="http://img1.blogblog.com/img/icon18_wrench_allbkg.png" height="18" alt=""></img>\n</a>\n                  </span>\n                </span>\n                <div class="clear"></div>\n              </div>\n            </div>\n            <div id="Image1" class="widget Image">\n              <h2>imaginary lover . :)</h2>\n              <div class="widget-content">\n                <a href="http://wiki.d-addicts.com/Mizobata_Junpei" shape="rect">\n                  <img width="257" src="http://2.bp.blogspot.com/-Wr-PdyYkWxU/TiBcWvDJXeI/AAAAAAAAANA/gjYQqHDwHio/s350/junpei-mizobata.jpg" height="350" alt="imaginary lover . :)" id="Image1_img"></img>\n                </a>\n                <br clear="none"></br>\n                <span class="caption">\n                  <br clear="none"></br>\n                  Mizobata Junpei\n                  <br clear="none"></br>\n                  <br clear="none"></br>\n                  ~ \xc3\xa6\xc2\xba\xef\xbf\xbd\xc3\xa7\xc2\xab\xc2\xaf\xc3\xa6\xc2\xb7\xc2\xb3\xc3\xa5\xc2\xb9\xc2\xb3 (\xc3\xa3\xef\xbf\xbd\xc2\xbf\xc3\xa3\xef\xbf\xbd\xc5\xbe\xc3\xa3\xef\xbf\xbd\xc2\xb0\xc3\xa3\xef\xbf\xbd\xc5\xb8 \xc3\xa3\xef\xbf\xbd\xcb\x9c\xc3\xa3\xe2\x80\x9a\xe2\x80\xa6\xc3\xa3\xe2\x80\x9a\xe2\x80\x9c\xc3\xa3\xef\xbf\xbd\xc2\xba\xc3\xa3\xef\xbf\xbd\xe2\x80\x9e)\n                  <br clear="none"></br>\n                  ~ Japanese actor\n                  <br clear="none"></br>\n                  ~ June 14 1989\n                </span>\n              </div>\n              <div class="clear"></div>\n              <span class="widget-item-control">\n                <span class="item-control blog-admin">\n                  <a \n                  title="Edit" target="configImage1" onclick="return _WidgetManager._PopupConfig(document.getElementById(&quot;Image1&quot;));" href="//www.blogger.com/rearrange?blogID=5631556653557183914&amp;widgetType=Image&amp;widgetId=Image1&amp;action=editWidget&amp;sectionId=sidebar-right-1" class="quickedit" shape="rect">\n                    <img width="18" src="http://img1.blogblog.com/img/icon18_wrench_allbkg.png" height="18" alt=""></img>\n</a>\n                </span>\n              </span>\n              <div class="clear"></div>\n            </div>\n          </div>\n          <table cellspacing="0" cellpadding="0" border="0" class="section-columns columns-2">\n            <tbody>\n              <tr>\n                <td class="first columns-cell" rowspan="1" colspan="1">\n                  <div id="sidebar-right-2-1" class="sidebar section">\n                    <div id="HTML1" class="widget HTML">\n                      <h2 class="title">Facebook Badge</h2>\n                      <div class="widget-content">\n                        <a title="Ada Mustafa" style="font-family: &quot;lucida grande&quot;,tahoma,verdana,arial,sans-serif; font-size: 11px; font-variant: normal; font-style: normal; font-weight: normal; color: #3B5998; text-decoration: none;" target="_TOP" href="http://www.facebook.com/adamustafa" shape="rect">\n                          Ada Mustafa\n                        </a>\n                        <br clear="none"></br>\n                        <a title="Ada Mustafa" target="_TOP" href="http://www.facebook.com/adamustafa" shape="rect">\n                          <img style="border: 0px;" height="322" width="120" src="http://badge.facebook.com/badge/1805923651.1648.900571082.png"></img>\n                        </a>\n                        <br clear="none"></br>\n                        <a title="Make your own badge!" style="font-family: &quot;lucida grande&quot;,tahoma,verdana,arial,sans-serif; font-size: 11px; font-variant: normal; font-style: normal; font-weight: normal; color: #3B5998; text-decoration: none;" target="_TOP" href="http://www.facebook.com/badges/" shape="rect">\n                          Create Your Badge\n                        </a>\n                      </div>\n                      <div class="clear"></div>\n                      <span class="widget-item-control">\n                        <span class="item-control blog-admin">\n                          <a \n                          title="Edit" target="configHTML1" onclick="return _WidgetManager._PopupConfig(document.getElementById(&quot;HTML1&quot;));" href="//www.blogger.com/rearrange?blogID=5631556653557183914&amp;widgetType=HTML&amp;widgetId=HTML1&amp;action=editWidget&amp;sectionId=sidebar-right-2-1" class="quickedit" shape="rect">\n                            <img width="18" src="http://img1.blogblog.com/img/icon18_wrench_allbkg.png" height="18" alt=""></img>\n</a>\n                        </span>\n                      </span>\n                      <div class="clear"></div>\n                    </div>\n                  </div>\n                </td>\n                <td class="columns-cell" rowspan="1" colspan="1">\n                  <div id="sidebar-right-2-2" class="sidebar section"></div>\n                </td>\n              </tr>\n            </tbody>\n          </table>\n          <div id="sidebar-right-3" class="sidebar section"></div>\n        </aside>\n      </div>\n    </div>\n    <div style="clear: both"></div>\n    <div class="main-cap-bottom cap-bottom">\n      <div class="cap-left"></div>\n      <div class="cap-right"></div>\n    </div>\n    <footer>\n      <div class="footer-outer">\n        <div class="footer-cap-top cap-top">\n          <div class="cap-left"></div>\n          <div class="cap-right"></div>\n        </div>\n        <div class="fauxborder-left footer-fauxborder-left">\n          <div class="fauxborder-right footer-fauxborder-right"></div>\n          <div class="region-inner footer-inner">\n            <div id="footer-1" class="foot section"></div>\n            <table cellspacing="0" cellpadding="0" border="0" class="section-columns columns-2">\n              <tbody>\n                <tr>\n                  <td class="first columns-cell" rowspan="1" colspan="1">\n                    <div id="footer-2-1" class="foot section"></div>\n                  </td>\n                  <td class="columns-cell" rowspan="1" colspan="1">\n                    <div id="footer-2-2" class="foot section">\n                      <div id="HTML6" class="widget HTML">\n                        <div class="widget-content">\n                          <script type="text/javascript">\n                            // &lt;![CDATA[\nvar colour=&quot;white&quot;;\nvar sparkles=100;\n\nvar x=ox=400;\nvar y=oy=300;\nvar swide=800;\nvar shigh=600;\nvar sleft=sdown=0;\nvar tiny=new Array();\nvar star=new Array();\nvar starv=new Array();\nvar starx=new Array();\nvar stary=new Array();\nvar tinyx=new Array();\nvar tinyy=new Array();\nvar tinyv=new Array();\nwindow.onload=function() { if (document.getElementById) {\nvar i, rats, rlef, rdow;\nfor (var i=0; i&lt;sparkles; i++) {\nvar rats=createDiv(3, 3);\nrats.style.visibility=&quot;hidden&quot;;\ndocument.body.appendChild(tiny[i]=rats);\nstarv[i]=0;\ntinyv[i]=0;\nvar rats=createDiv(5, 5);\nrats.style.backgroundColor=&quot;transparent&quot;;\nrats.style.visibility=&quot;hidden&quot;;\nvar rlef=createDiv(1, 5);\nvar rdow=createDiv(5, 1);\nrats.appendChild(rlef);\nrats.appendChild(rdow);\nrlef.style.top=&quot;3px&quot;;\nrlef.style.left=&quot;0px&quot;;\nrdow.style.top=&quot;0px&quot;;\nrdow.style.left=&quot;3px&quot;;\ndocument.body.appendChild(star[i]=rats);\n}\nset_width();\nsparkle();\n}}\nfunction sparkle() {\nvar c;\nif (x!=ox || y!=oy) {\nox=x;\noy=y;\nfor (c=0; c&lt;sparkles; c++) if (!starv[c]) {\nstar[c].style.left=(starx[c]=x)+&quot;px&quot;;\n\nstar[c].style.top=(stary[c]=y)+&quot;px&quot;;\nstar[c].style.clip=&quot;rect(0px, 5px, 5px, 0px)&quot;;\nstar[c].style.visibility=&quot;visible&quot;;\nstarv[c]=50;\nbreak;\n}\n}\nfor (c=0; c&lt;sparkles; c++) {\nif (starv[c]) update_star(c);\nif (tinyv[c]) update_tiny(c);\n}\nsetTimeout(&quot;sparkle()&quot;, 40);\n}\nfunction update_star(i) {\nif (--starv[i]==25) star[i].style.clip=&quot;rect(1px, 4px, 4px, 1px)&quot;;\nif (starv[i]) {\nstary[i]+=1+Math.random()*3;\nif (stary[i]&lt;shigh+sdown) {\nstar[i].style.top=stary[i]+&quot;px&quot;;\nstarx[i]+=(i%5-2)/5;\nstar[i].style.left=starx[i]+&quot;px&quot;;\n}\nelse {\nstar[i].style.visibility=&quot;hidden&quot;;\nstarv[i]=0;\nreturn;\n}\n\n}\nelse {\ntinyv[i]=50;\ntiny[i].style.top=(tinyy[i]=stary[i])+&quot;px&quot;;\ntiny[i].style.left=(tinyx[i]=starx[i])+&quot;px&quot;;\ntiny[i].style.width=&quot;2px&quot;;\ntiny[i].style.height=&quot;2px&quot;;\nstar[i].style.visibility=&quot;hidden&quot;;\ntiny[i].style.visibility=&quot;visible&quot;\n}\n}\nfunction update_tiny(i) {\nif (--tinyv[i]==25) {\ntiny[i].style.width=&quot;1px&quot;;\ntiny[i].style.height=&quot;1px&quot;;\n}\nif (tinyv[i]) {\ntinyy[i]+=1+Math.random()*3;\nif (tinyy[i]&lt;shigh+sdown) {\ntiny[i].style.top=tinyy[i]+&quot;px&quot;;\ntinyx[i]+=(i%5-2)/5;\ntiny[i].style.left=tinyx[i]+&quot;px&quot;;\n}\nelse {\n\n\ntiny[i].style.visibility=&quot;hidden&quot;;\ntinyv[i]=0;\nreturn;\n}\n}\nelse tiny[i].style.visibility=&quot;hidden&quot;;\n}\ndocument.onmousemove=mouse;\nfunction mouse(e) {\nset_scroll();\ny=(e)?e.pageY:event.y+sdown;\nx=(e)?e.pageX:event.x+sleft;\n}\nfunction set_scroll() {\nif (typeof(self.pageYOffset)==&quot;number&quot;) {\nsdown=self.pageYOffset;\nsleft=self.pageXOffset;\n}\nelse if (document.body.scrollTop || document.body.scrollLeft) {\nsdown=document.body.scrollTop;\nsleft=document.body.scrollLeft;\n}\nelse if (document.documentElement &amp;&amp; (document.documentElement.scrollTop || document.documentElement.scrollLeft)) {\nsleft=document.documentElement.scrollLeft;\nsdown=document.documentElement.scrollTop;\n}\nelse {\nsdown=0;\nsleft=0;\n}\n}\nwindow.onresize=set_width;\nfunction set_width() {\nif (typeof(self.innerWidth)==&quot;number&quot;) {\nswide=self.innerWidth;\nshigh=self.innerHeight;\n}\nelse if (document.documentElement &amp;&amp; document.documentElement.clientWidth) {\nswide=document.documentElement.clientWidth;\nshigh=document.documentElement.clientHeight;\n}\nelse if (document.body.clientWidth) {\nswide=document.body.clientWidth;\nshigh=document.body.clientHeight;\n}\n}\nfunction createDiv(height, width) {\nvar div=document.createElement(&quot;div&quot;);\ndiv.style.position=&quot;absolute&quot;;\ndiv.style.height=height+&quot;px&quot;;\ndiv.style.width=width+&quot;px&quot;;\ndiv.style.overflow=&quot;hidden&quot;;\ndiv.style.backgroundColor=colour;\nreturn (div);\n}\n// ]]&gt;\n                          </script>\n                        </div>\n                        <div class="clear"></div>\n                        <span class="widget-item-control">\n                          <span class="item-control blog-admin">\n                            <a \n                            title="Edit" target="configHTML6" onclick="return _WidgetManager._PopupConfig(document.getElementById(&quot;HTML6&quot;));" href="//www.blogger.com/rearrange?blogID=5631556653557183914&amp;widgetType=HTML&amp;widgetId=HTML6&amp;action=editWidget&amp;sectionId=footer-2-2" class="quickedit" shape="rect">\n                              <img width="18" src="http://img1.blogblog.com/img/icon18_wrench_allbkg.png" height="18" alt=""></img>\n</a>\n                          </span>\n                        </span>\n                        <div class="clear"></div>\n                      </div>\n                    </div>\n                  </td>\n                </tr>\n              </tbody>\n            </table>\n            <div id="footer-3" class="foot section">\n              <div id="Attribution1" class="widget Attribution">\n                <div style="text-align: center;" class="widget-content">\n                  Awesome Inc. template. Powered by\n                  <a target="_blank" href="http://www.blogger.com" shape="rect">Blogger</a>\n                  .\n                </div>\n                <div class="clear"></div>\n                <span class="widget-item-control">\n                  <span class="item-control blog-admin">\n                    <a \n                    title="Edit" target="configAttribution1" onclick="return _WidgetManager._PopupConfig(document.getElementById(&quot;Attribution1&quot;));" href="//www.blogger.com/rearrange?blogID=5631556653557183914&amp;widgetType=Attribution&amp;widgetId=Attribution1&amp;action=editWidget&amp;sectionId=footer-3" class="quickedit" shape="rect">\n                      <img width="18" src="http://img1.blogblog.com/img/icon18_wrench_allbkg.png" height="18" alt=""></img>\n</a>\n                  </span>\n                </span>\n                <div class="clear"></div>\n              </div>\n            </div>\n          </div>\n        </div>\n        <div class="footer-cap-bottom cap-bottom">\n          <div class="cap-left"></div>\n          <div class="cap-right"></div>\n        </div>\n      </div>\n    </footer>\n    <div class="content-cap-bottom cap-bottom">\n      <div class="cap-left"></div>\n      <div class="cap-right"></div>\n    </div>\n    <script type="text/javascript"> window.setTimeout(function() { document.body.className = document.body.className.replace(\'loading\', \'\'); }, 10); </script>\n    <script type="text/javascript"> if (window.jstiming) window.jstiming.load.tick(\'widgetJsBefore\'); </script>\n    <script src="//www.blogger.com/static/v1/widgets/1040267425-widgets.js" type="text/javascript"></script>\n    <script type="text/javascript">\n      if (typeof(BLOG_attachCsiOnload) != \'undefined\' &amp;&amp; BLOG_attachCsiOnload != null) { window[\'blogger_templates_experiment_id\'] = &quot;templatesV2&quot;;window[\'blogger_blog_id\'] = \'5631556653557183914\';BLOG_attachCsiOnload(\'item_\'); }_WidgetManager._Init(\'//www.blogger.com/rearrange?blogID\\x3d5631556653557183914\',\'//adamustafa.blogspot.com/2009/08/code-geass-lelouch-of-rebellion.html\',\'5631556653557183914\');\n_WidgetManager._SetDataContext([{\'name\': \'blog\', \'data\': {\'blogId\': \'5631556653557183914\', \'bloggerUrl\': \'http://www.blogger.com\', \'title\': \'silent thoughts . .\', \'pageType\': \'item\', \'url\': \'http://adamustafa.blogspot.com/2009/08/code-geass-lelouch-of-rebellion.html\', \'canonicalUrl\': \'http://adamustafa.blogspot.com/2009/08/code-geass-lelouch-of-rebellion.html\', \'canonicalHomepageUrl\': \'http://adamustafa.blogspot.com/\', \'homepageUrl\': \'http://adamustafa.blogspot.com/\', \'blogspotFaviconUrl\': \'http://adamustafa.blogspot.com/favicon.ico\', \'enabledCommentProfileImages\': true, \'adultContent\': false, \'disableAdSenseWidget\': false, \'analyticsAccountNumber\': \'\', \'searchLabel\': \'\', \'searchQuery\': \'\', \'pageName\': \'code geass : lelouch of the rebellion..\', \'pageTitle\': \'silent thoughts . .: code geass : lelouch of the rebellion..\', \'encoding\': \'UTF-8\', \'locale\': \'en\', \'isPrivate\': false, \'isMobile\': false, \'isMobileRequest\': false, \'mobileClass\': \'\', \'isPrivateBlog\': false, \'languageDirection\': \'ltr\', \'feedLinks\': \'\\74link rel\\75\\42alternate\\42 type\\75\\42application/atom+xml\\42 title\\75\\42silent thoughts . . - Atom\\42 href\\75\\42http://adamustafa.blogspot.com/feeds/posts/default\\42 /\\76\\n\\74link rel\\75\\42alternate\\42 type\\75\\42application/rss+xml\\42 title\\75\\42silent thoughts . . - RSS\\42 href\\75\\42http://adamustafa.blogspot.com/feeds/posts/default?alt\\75rss\\42 /\\76\\n\\74link rel\\75\\42service.post\\42 type\\75\\42application/atom+xml\\42 title\\75\\42silent thoughts . . - Atom\\42 href\\75\\42http://www.blogger.com/feeds/5631556653557183914/posts/default\\42 /\\76\\n\\74link rel\\75\\42EditURI\\42 type\\75\\42application/rsd+xml\\42 title\\75\\42RSD\\42 href\\75\\42http://www.blogger.com/rsd.g?blogID\\0755631556653557183914\\42 /\\76\\n\\74link rel\\75\\42alternate\\42 type\\75\\42application/atom+xml\\42 title\\75\\42silent thoughts . . - Atom\\42 href\\75\\42http://adamustafa.blogspot.com/feeds/4995864566380558766/comments/default\\42 /\\76\\n\', \'meTag\': \'\', \'openIdOpTag\': \'\', \'postImageThumbnailUrl\': \'http://3.bp.blogspot.com/_3pjfIdRptv8/SpDaH_XtggI/AAAAAAAAADc/3d7EGFkRnuI/s72-c/Lelouch-geass.jpg\', \'imageSrcTag\': \'\\74link rel\\75\\42image_src\\42 href\\75\\42http://3.bp.blogspot.com/_3pjfIdRptv8/SpDaH_XtggI/AAAAAAAAADc/3d7EGFkRnuI/s72-c/Lelouch-geass.jpg\\42 /\\76\\n\', \'latencyHeadScript\': \'\\74script type\\75\\42text/javascript\\42\\76(function() { var a\\75window,b\\75\\42jstiming\\42,d\\75\\42tick\\42;var e\\75function(c){this.t\\75{};this.tick\\75function(c,p,h){h\\75void 0!\\75h?h:(new Date).getTime();this.t[c]\\75[h,p]};this[d](\\42start\\42,null,c)},f\\75new e;a.jstiming\\75{Timer:e,load:f};if(a.performance\\46\\46a.performance.timing){var g\\75a.performance.timing,j\\75a[b].load,k\\75g.navigationStart,l\\75g.responseStart;0\\74k\\46\\46l\\76\\75k\\46\\46(j[d](\\42_wtsrt\\42,void 0,k),j[d](\\42wtsrt_\\42,\\42_wtsrt\\42,l),j[d](\\42tbsd_\\42,\\42wtsrt_\\42))}\\ntry{var m\\75null;a.chrome\\46\\46a.chrome.csi\\46\\46(m\\75Math.floor(a.chrome.csi().pageT),j\\46\\0460\\74k\\46\\46(j[d](\\42_tbnd\\42,void 0,a.chrome.csi().startE),j[d](\\42tbnd_\\42,\\42_tbnd\\42,k)));null\\75\\75m\\46\\46a.gtbExternal\\46\\46(m\\75a.gtbExternal.pageT());null\\75\\75m\\46\\46a.external\\46\\46(m\\75a.external.pageT,j\\46\\0460\\74k\\46\\46(j[d](\\42_tbnd\\42,void 0,a.external.startE),j[d](\\42tbnd_\\42,\\42_tbnd\\42,k)));m\\46\\46(a[b].pt\\75m)}catch(n){};a.tickAboveFold\\75function(c){var i\\0750;if(c.offsetParent){do i+\\75c.offsetTop;while(c\\75c.offsetParent)}c\\75i;750\\76\\75c\\46\\46a[b].load[d](\\42aft\\42)};var q\\75!1;function r(){q||(q\\75!0,a[b].load[d](\\42firstScrollTime\\42))}a.addEventListener?a.addEventListener(\\42scroll\\42,r,!1):a.attachEvent(\\42onscroll\\42,r);\\n })();\\74/script\\076\', \'mobileHeadScript\': \'\', \'ieCssRetrofitLinks\': \'\\74!--[if IE]\\76\\74script type\\75\\42text/javascript\\42 src\\75\\42//www.blogger.com/static/v1/jsbin/3651483553-ieretrofit.js\\42\\76\\74/script\\76\\n\\74![endif]--\\076\', \'view\': \'\', \'dynamicViewsCommentsSrc\': \'//www.blogblog.com/dynamicviews/4224c15c4e7c9321/js/comments.js\', \'dynamicViewsScriptSrc\': \'//www.blogblog.com/dynamicviews/04452fcc9c8aa994\'}}, {\'name\': \'skin\', \'data\': {\'vars\': {\'date_border_size\': \'0\', \'description_font\': \'normal normal 20px Pacifico\', \'body_background_gradient_cap\': \'none\', \'tabs_selected_background_color\': \'#444444\', \'footer_background_gradient\': \'none\', \'date_background\': \'transparent none no-repeat scroll top left\', \'widget_border_radius\': \'0\', \'post_title_text_color\': \'#4eabff\', \'widget_font\': \'normal normal 14px Cuprum\', \'widget_link_hover_color\': \'#ffffff\', \'link_visited_color\': \'#9fc5e8\', \'mobile_background_size\': \'auto\', \'date_space\': \'30px\', \'post_title_font\': \'normal normal 22px Permanent Marker\', \'tabs_text_color\': \'#ffffff\', \'title_separator_border_size\': \'1px\', \'header_background_gradient\': \'none\', \'widget_outer_background_gradient\': \'none\', \'widget_link_color\': \'#9fc5e8\', \'mobile_button_color\': \'#ffffff\', \'widget_title_font\': \'normal bold 14px Permanent Marker\', \'widget_outer_background_color\': \'transparent\', \'date_last_border_radius_bottom\': \'0\', \'widget_outer_margin_top\': \'0\', \'shadow_spread\': \'0\', \'title_shadow_spread\': \'-1px\', \'outer_shadow_spread\': \'0\', \'keycolor\': \'#ffffff\', \'image_shadow_spread\': \'0\', \'image_background_color\': \'#222222\', \'header_font\': \'italic bold 40px Dancing Script\', \'header_background_color\': \'transparent\', \'date_header_border_radius_top\': \'0\', \'widget_border_bevel_color\': \'#000000\', \'tabs_border_color\': \'#222222\', \'widget_background_color\': \'#141414\', \'date_position\': \'static\', \'post_first_padding_top\': \'0\', \'tabs_background_gradient\': \'none\', \'mobile_background_overlay\': \'transparent none repeat scroll top left\', \'date_border_color\': \'#ffffff\', \'tabs_background_color\': \'#141414\', \'widget_link_visited_color\': \'#4eabff\', \'feed_text_color\': \'#ffffff\', \'header_margin_top\': \'0\', \'link_hover_color\': \'#3d85c6\', \'date_last_space_bottom\': \'20px\', \'header_margin_bottom\': \'0\', \'date_padding_bottom\': \'0\', \'list_separator_border_size\': \'1px\', \'description_text_color\': \'#9fc5e8\', \'body_text_color\': \'#ffffff\', \'header_padding_top\': \'22px\', \'post_border_color\': \'#ffffff\', \'footer_text_color\': \'#ffffff\', \'post_background_color\': \'#141414\', \'pager_space_top\': \'1em\', \'endSide\': \'right\', \'startSide\': \'left\', \'body_background_size\': \'auto\', \'tabs_font\': \'normal bold 14px Arial, Tahoma, Helvetica, FreeSans, sans-serif\', \'body_font\': \'normal normal 14px Cuprum\', \'date_first_border_radius_top\': \'0\', \'date_header_position\': \'15px\', \'date_text_color\': \'#9fc5e8\', \'widget_title_text_color\': \'#ffffff\', \'image_border_color\': \'transparent\', \'separator_outdent\': \'15px\', \'widget_text_color\': \'#ffffff\', \'link_color\': \'#7f7f7f\', \'widget_border_color\': \'#222222\', \'pager_border_radius_top\': \'0\', \'feed_link_color\': \'#888888\', \'header_text_color\': \'#cccccc\', \'footer_background_color\': \'#141414\', \'widget_padding_top\': \'8px\', \'feed_link_visited_color\': \'#444444\', \'feed_link_hover_color\': \'#cccccc\', \'date_font\': \'normal normal 14px Chewy\', \'tabs_selected_text_color\': \'#ffffff\', \'date_side\': \'right\', \'post_border_bevel_color\': \'#000000\', \'widget_padding_side\': \'15px\', \'body_background_color\': \'#000000\', \'image_border_radius\': \'0\', \'pager_background_color\': \'#141414\', \'widget_alternate_text_color\': \'#666666\'}, \'override\': \'\'}}, {\'name\': \'view\', \'data\': {\'classic\': {\'name\': \'classic\', \'url\': \'/?view\\75classic\'}, \'flipcard\': {\'name\': \'flipcard\', \'url\': \'/?view\\75flipcard\'}, \'magazine\': {\'name\': \'magazine\', \'url\': \'/?view\\75magazine\'}, \'mosaic\': {\'name\': \'mosaic\', \'url\': \'/?view\\75mosaic\'}, \'sidebar\': {\'name\': \'sidebar\', \'url\': \'/?view\\75sidebar\'}, \'snapshot\': {\'name\': \'snapshot\', \'url\': \'/?view\\75snapshot\'}, \'timeslide\': {\'name\': \'timeslide\', \'url\': \'/?view\\75timeslide\'}}}]);\n_WidgetManager._RegisterWidget(\'_HTMLView\', new _WidgetInfo(\'HTML6\', \'footer-2-2\', null, document.getElementById(\'HTML6\'), {}, \'displayModeFull\'));\n_WidgetManager._RegisterWidget(\'_HeaderView\', new _WidgetInfo(\'Header1\', \'header\', null, document.getElementById(\'Header1\'), {}, \'displayModeFull\'));\n_WidgetManager._RegisterWidget(\'_AttributionView\', new _WidgetInfo(\'Attribution1\', \'footer-3\', null, document.getElementById(\'Attribution1\'), {\'attribution\': \'Awesome Inc. template. Powered by \\74a href\\75\\47http://www.blogger.com\\47 target\\75\\47_blank\\47\\76Blogger\\74/a\\76.\'}, \'displayModeFull\'));\n_WidgetManager._RegisterWidget(\'_BlogView\', new _WidgetInfo(\'Blog1\', \'main\', null, document.getElementById(\'Blog1\'), {\'cmtInteractionsEnabled\': false, \'showBacklinks\': true, \'postId\': \'4995864566380558766\', \'lightboxEnabled\': true, \'lightboxModuleUrl\': \'//www.blogger.com/static/v1/jsbin/1664432155-lbx.js\', \'lightboxCssUrl\': \'//www.blogger.com/static/v1/v-css/228702327-lightbox_bundle.css\'}, \'displayModeFull\'));\n_WidgetManager._RegisterWidget(\'_HTMLView\', new _WidgetInfo(\'HTML4\', \'sidebar-right-1\', null, document.getElementById(\'HTML4\'), {}, \'displayModeFull\'));\n_WidgetManager._RegisterWidget(\'_ProfileView\', new _WidgetInfo(\'Profile1\', \'sidebar-right-1\', null, document.getElementById(\'Profile1\'), {}, \'displayModeFull\'));\n_WidgetManager._RegisterWidget(\'_HTMLView\', new _WidgetInfo(\'HTML7\', \'sidebar-right-1\', null, document.getElementById(\'HTML7\'), {}, \'displayModeFull\'));\n_WidgetManager._RegisterWidget(\'_BlogArchiveView\', new _WidgetInfo(\'BlogArchive1\', \'sidebar-right-1\', null, document.getElementById(\'BlogArchive1\'), {\'languageDirection\': \'ltr\'}, \'displayModeFull\'));\n_WidgetManager._RegisterWidget(\'_ImageView\', new _WidgetInfo(\'Image1\', \'sidebar-right-1\', null, document.getElementById(\'Image1\'), {\'resize\': true}, \'displayModeFull\'));\n_WidgetManager._RegisterWidget(\'_HTMLView\', new _WidgetInfo(\'HTML1\', \'sidebar-right-2-1\', null, document.getElementById(\'HTML1\'), {}, \'displayModeFull\'));\n_WidgetManager._RegisterWidget(\'_NavbarView\', new _WidgetInfo(\'Navbar1\', \'navbar\', null, document.getElementById(\'Navbar1\'), {}, \'displayModeFull\'));\n    </script>\n  </body>\n</html>'
p11
sbsS'mentions'
p12
(lp13
(iedu.umass.cs.iesl.wikilink.expanded.data.ttypes
Mention
p14
(dp15
S'anchor_text'
p16
S'code geass'
p17
sS'context'
p18
(iedu.umass.cs.iesl.wikilink.expanded.data.ttypes
Context
p19
(dp20
S'middle'
p21
S'code geass'
p22
sS'right'
p23
S': lelouch of the rebellion (S1). umm, cite tu, boleh thn la. sbb aku x ske sgt cite mecha. tapi still boleh kate best. cite'
p24
sS'left'
p25
S'this blog might bored you to death . =) Sunday, August 23, 2009 code geass : lelouch of the rebellion.. so, semalam aku da habiskan'
p26
sbsS'freebase_id'
p27
S'9202a8c04000641f8000000000ee5c2b'
p28
sS'raw_text_offset'
p29
I38524
sS'wiki_url'
p30
S'http://en.wikipedia.org/wiki/Code_Geass'
p31
sbasS'doc_id'
p32
I11390
sS'rare_words'
p33
(lp34
(iedu.umass.cs.iesl.wikilink.expanded.data.ttypes
RareWord
p35
(dp36
S'word'
p37
S'yg'
p38
sS'offset'
p39
I39035
sba(iedu.umass.cs.iesl.wikilink.expanded.data.ttypes
RareWord
p40
(dp41
g37
S'power'
p42
sg39
I39000
sba(iedu.umass.cs.iesl.wikilink.expanded.data.ttypes
RareWord
p43
(dp44
g37
S'pinjam'
p45
sg39
I38802
sba(iedu.umass.cs.iesl.wikilink.expanded.data.ttypes
RareWord
p46
(dp47
g37
S'code'
p48
sg39
I38524
sba(iedu.umass.cs.iesl.wikilink.expanded.data.ttypes
RareWord
p49
(dp50
g37
S'wat'
p51
sg39
I39027
sba(iedu.umass.cs.iesl.wikilink.expanded.data.ttypes
RareWord
p52
(dp53
g37
S'best'
p54
sg39
I38673
sba(iedu.umass.cs.iesl.wikilink.expanded.data.ttypes
RareWord
p55
(dp56
g37
S'habiskan'
p57
sg39
I38424
sba(iedu.umass.cs.iesl.wikilink.expanded.data.ttypes
RareWord
p58
(dp59
g37
S'thn'
p60
sg39
I38613
sba(iedu.umass.cs.iesl.wikilink.expanded.data.ttypes
RareWord
p61
(dp62
g37
S'leh'
p63
sg39
I39013
sba(iedu.umass.cs.iesl.wikilink.expanded.data.ttypes
RareWord
p64
(dp65
g37
S'bg'
p66
sg39
I38799
sbasb.