(iedu.umass.cs.iesl.wikilink.expanded.data.ttypes
WikiLinkItem
p0
(dp1
S'url'
p2
S'http://av1611.com/forums/showthread.php?t=414'
p3
sS'content'
p4
(iedu.umass.cs.iesl.wikilink.expanded.data.ttypes
PageContentItem
p5
(dp6
S'articleText'
p7
NsS'raw'
p8
NsS'fullText'
p9
NsS'dom'
p10
S'<html lang="en" dir="ltr">\n  <head>\n    <meta content="text/html; charset=ISO-8859-1" http-equiv="Content-Type"></meta>\n    <meta content="vBulletin 3.8.7" name="generator"></meta>\n    <meta content=" The Na Nach movement, christian,bible,kjv,king james bible,bible forum,christian forum" name="keywords"></meta>\n    <meta content=" The Na Nach movement Current Events" name="description"></meta>\n    <style type="text/css" id="vbulletin_css"> /** * vBulletin 3.8.7 CSS * Style: \'AV Red Carbon\'; Style ID: 5 */ @import url(&quot;clientscript/vbulletin_css/style-5c3db903-00005.css&quot;); </style>\n    <link href="clientscript/vbulletin_important.css?v=387" type="text/css" rel="stylesheet"></link>\n    <script src="clientscript/yui/yahoo-dom-event/yahoo-dom-event.js?v=387" type="text/javascript"></script>\n    <script src="clientscript/yui/connection/connection-min.js?v=387" type="text/javascript"></script>\n    <script type="text/javascript"> &lt;!-- var SESSIONURL = &quot;s=63559e5f4759d5613a861719a1a8081b&amp;&quot;; var SECURITYTOKEN = &quot;guest&quot;; var IMGDIR_MISC = &quot;styles/redcarbon/misc&quot;; var vb_disable_ajax = parseInt(&quot;0&quot;, 10); // --&gt; </script>\n    <script src="clientscript/vbulletin_global.js?v=387" type="text/javascript"></script>\n    <link href="external.php?type=RSS2" title="AV1611 Bible Forum Archive RSS Feed" type="application/rss+xml" rel="alternate"></link>\n    <link href="external.php?type=RSS2&amp;forumids=5" title="AV1611 Bible Forum Archive - Current Events - RSS Feed" type="application/rss+xml" rel="alternate"></link>\n    <title> The Na Nach movement - AV1611 Bible Forum Archive</title>\n    <script src="clientscript/vbulletin_post_loader.js?v=387" type="text/javascript"></script>\n    <style type="text/css" id="vbulletin_showthread_css"> &lt;!-- #links div { white-space: nowrap; } #links img { vertical-align: middle; } --&gt; </style>\n  </head>\n  <body onload="">\n    <a name="top" shape="rect"></a>\n    <table cellspacing="0" cellpadding="0" width="80%" border="0" align="center">\n      <tr>\n        <td rowspan="1" colspan="2">\n          <div align="center">\n            <a href="index.php?s=63559e5f4759d5613a861719a1a8081b" shape="rect">\n              <img alt="AV1611 Bible Forum Archive" border="0" src="/forums/av1611-forum.gif"></img>\n            </a>\n          </div>\n        </td>\n      </tr>\n      <tr>\n        <td width="50%" valign="center" rowspan="1" colspan="1">\n          <div align="center">\n            <a href="http://av1611.com/kjbp" shape="rect">\n              <img style="padding-top:5px" height="80" width="378" border="0" alt="The King James Bible Page" src="/forums/kjbp-button.gif"></img>\n            </a>\n          </div>\n        </td>\n        <td valign="center" rowspan="1" colspan="1">\n          <div align="center">\n            <a href="http://www.swordsearcher.com" shape="rect">\n              <img height="138" width="379" border="0" alt="SwordSearcher Bible Software" src="/forums/swordsearcher-button.gif"></img>\n            </a>\n          </div>\n        </td>\n      </tr>\n    </table>\n    <div align="center">\n      <div style="width:80%; text-align:left" class="page">\n        <div style="padding:0px 25px 0px 25px" align="left">\n          <br clear="none"></br>\n          <table width="100%" border="0" cellspacing="1" cellpadding="6" class="tborder" align="center">\n            <tr>\n              <td width="100%" class="alt1" rowspan="1" colspan="1">\n                <table border="0" cellspacing="0" cellpadding="0">\n                  <tr valign="bottom">\n                    <td rowspan="1" colspan="1">\n                      <a onclick="history.back(1); return false;" href="#" shape="rect">\n                        <img border="0" alt="Go Back" src="styles/redcarbon/misc/navbits_start.gif"></img>\n                      </a>\n                    </td>\n                    <td rowspan="1" colspan="1">\xc2\xa0</td>\n                    <td width="100%" rowspan="1" colspan="1">\n                      <span class="navbar">\n                        <a accesskey="1" href="index.php?s=63559e5f4759d5613a861719a1a8081b" shape="rect">AV1611 Bible Forum Archive</a>\n                      </span>\n                      <span class="navbar">\n                        &gt;\n                        <a href="forumdisplay.php?s=63559e5f4759d5613a861719a1a8081b&amp;f=5" shape="rect">Current Events</a>\n                      </span>\n                    </td>\n                  </tr>\n                  <tr>\n                    <td style="font-size:10pt; padding-top:1px" class="navbar" rowspan="1" colspan="3">\n                      <a href="/forums/showthread.php?t=414" shape="rect">\n                        <img border="0" alt="Reload this Page" src="styles/redcarbon/misc/navbits_finallink_ltr.gif" class="inlineimg"></img>\n                      </a>\n                      <strong> The Na Nach movement </strong>\n                    </td>\n                  </tr>\n                </table>\n              </td>\n              <td style="padding:0px" class="alt2" rowspan="1" nowrap="nowrap" colspan="1">\n                <form onsubmit="md5hash(vb_login_password, vb_login_md5password, vb_login_md5password_utf, 0)" action="login.php?do=login" method="post" enctype="application/x-www-form-urlencoded">\n                  <script src="clientscript/vbulletin_md5.js?v=387" type="text/javascript"></script>\n                  <table border="0" cellspacing="3" cellpadding="0">\n                    <tr>\n                      <td style="white-space: nowrap;" class="smallfont" rowspan="1" colspan="1">\n                        <label for="navbar_username">User Name</label>\n                      </td>\n                      <td rowspan="1" colspan="1">\n                        <input onfocus="if (this.value == \'User Name\') this.value = \'\';" value="User Name" accesskey="u" size="10" name="vb_login_username" style="font-size: 11px" id="navbar_username" class="bginput" type="text" tabindex="101"></input>\n                      </td>\n                      <td class="smallfont" rowspan="1" nowrap="nowrap" colspan="1">\n                        <label for="cb_cookieuser_navbar">\n                          <input accesskey="c" value="1" name="cookieuser" id="cb_cookieuser_navbar" type="checkbox" tabindex="103"></input>\n                          Remember Me?\n                        </label>\n                      </td>\n                    </tr>\n                    <tr>\n                      <td class="smallfont" rowspan="1" colspan="1">\n                        <label for="navbar_password">Password</label>\n                      </td>\n                      <td rowspan="1" colspan="1">\n                        <input size="10" name="vb_login_password" style="font-size: 11px" id="navbar_password" class="bginput" type="password" tabindex="102"></input>\n                      </td>\n                      <td rowspan="1" colspan="1">\n                        <input accesskey="s" title="Enter your username and password in the boxes provided to login, or click the \'register\' button to create a profile for yourself." value="Log in" class="button" type="submit" tabindex="104"></input>\n                      </td>\n                    </tr>\n                  </table>\n                  <input value="63559e5f4759d5613a861719a1a8081b" name="s" type="hidden"></input>\n                  <input value="guest" name="securitytoken" type="hidden"></input>\n                  <input value="login" name="do" type="hidden"></input>\n                  <input name="vb_login_md5password" type="hidden"></input>\n                  <input name="vb_login_md5password_utf" type="hidden"></input>\n                </form>\n              </td>\n            </tr>\n          </table>\n          <div style="padding:1px; border-top-width:0px" class="tborder">\n            <table width="100%" border="0" cellspacing="0" cellpadding="0" align="center">\n              <tr align="center">\n                <td class="vbmenu_control" rowspan="1" colspan="1">\n                  <a accesskey="5" href="faq.php?s=63559e5f4759d5613a861719a1a8081b" rel="help" shape="rect">FAQ</a>\n                </td>\n                <td class="vbmenu_control" rowspan="1" colspan="1">\n                  <a href="calendar.php?s=63559e5f4759d5613a861719a1a8081b" shape="rect">Calendar</a>\n                </td>\n                <td class="vbmenu_control" rowspan="1" colspan="1">\n                  <a accesskey="4" href="search.php?s=63559e5f4759d5613a861719a1a8081b" shape="rect">Search</a>\n                </td>\n                <td class="vbmenu_control" rowspan="1" colspan="1">\n                  <a accesskey="2" href="search.php?s=63559e5f4759d5613a861719a1a8081b&amp;do=getdaily" shape="rect">Today\'s Posts</a>\n                </td>\n                <td class="vbmenu_control" rowspan="1" colspan="1">\n                  <a rel="nofollow" href="forumdisplay.php?s=63559e5f4759d5613a861719a1a8081b&amp;do=markread&amp;markreadhash=guest" shape="rect">Mark Forums Read</a>\n                </td>\n              </tr>\n            </table>\n          </div>\n          <br clear="none"></br>\n          <table width="100%" border="0" cellspacing="1" cellpadding="6" class="tborder" align="center">\n            <tr>\n              <td width="100%" class="alt1" rowspan="1" colspan="1">\n                <strong>Current Events</strong>\n                <span class="smallfont">Current events, including politics and culture.</span>\n              </td>\n            </tr>\n          </table>\n          <br clear="none"></br>\n          <a name="poststop" id="poststop" shape="rect"></a>\n          <table style="margin-bottom:3px" width="100%" border="0" cellspacing="0" cellpadding="0">\n            <tr valign="bottom">\n              <td class="smallfont" rowspan="1" colspan="1">\xc2\xa0</td>\n            </tr>\n          </table>\n          <table style="border-bottom-width:0px" width="100%" border="0" cellspacing="1" cellpadding="6" class="tborder" align="center">\n            <tr>\n              <td width="100%" class="tcat" rowspan="1" colspan="1">\n                <div class="smallfont"> \xc2\xa0 </div>\n              </td>\n              <td id="threadtools" class="vbmenu_control" rowspan="1" nowrap="nowrap" colspan="1">\n                <a href="#goto_threadtools" shape="rect">Thread Tools</a>\n              </td>\n              <td id="displaymodes" class="vbmenu_control" rowspan="1" nowrap="nowrap" colspan="1">\n                <a href="#goto_displaymodes" shape="rect">Display Modes</a>\n              </td>\n            </tr>\n          </table>\n        </div>\n      </div>\n    </div>\n    <div id="posts">\n      <div align="center">\n        <div style="width:80%; text-align:left" class="page">\n          <div style="padding:0px 25px 0px 25px" align="left">\n            <div style="padding:0px 0px 6px 0px" id="edit6866">\n              <table width="100%" border="0" cellspacing="1" cellpadding="6" id="post6866" class="tborder" align="center">\n                <tr>\n                  <td class="thead" rowspan="1" colspan="1">\n                    <div style="float:right" class="normal">\n                      \xc2\xa0\n\t\t\t#\n                      <a name="1" rel="nofollow" target="new" href="showpost.php?s=63559e5f4759d5613a861719a1a8081b&amp;p=6866&amp;postcount=1" id="postcount6866" shape="rect">\n                        <strong>1</strong>\n                      </a>\n                      \xc2\xa0\n                    </div>\n                    <div class="normal">\n                      <a name="post6866" shape="rect">\n                        <img border="0" alt="Old" src="styles/redcarbon/statusicon/post_old.gif" class="inlineimg"></img>\n                      </a>\n                      08-18-2008, 07:58 PM\n                    </div>\n                  </td>\n                </tr>\n                <tr>\n                  <td style="padding:0px" class="alt2" rowspan="1" colspan="1">\n                    <table width="100%" border="0" cellspacing="6" cellpadding="0">\n                      <tr>\n                        <td class="alt2" rowspan="1" colspan="1">\n                          <a href="member.php?s=63559e5f4759d5613a861719a1a8081b&amp;u=226" shape="rect">\n                            <img border="0" alt="stephanos\'s Avatar" height="80" width="80" src="customavatars/avatar226_1.gif"></img>\n                          </a>\n                        </td>\n                        <td rowspan="1" nowrap="nowrap" colspan="1">\n                          <div id="postmenu_6866">\n                            <a href="member.php?s=63559e5f4759d5613a861719a1a8081b&amp;u=226" class="bigusername" shape="rect">stephanos</a>\n                            <img border="0" alt="stephanos is offline" src="styles/redcarbon/statusicon/user_offline.gif" class="inlineimg"></img>\n                            <script type="text/javascript"> vbmenu_register(&quot;postmenu_6866&quot;, true); </script>\n                          </div>\n                        </td>\n                        <td width="100%" rowspan="1" colspan="1">\xc2\xa0</td>\n                        <td valign="top" rowspan="1" nowrap="nowrap" colspan="1">\n                          <div class="smallfont">\n                            <div>Join Date: May 2008</div>\n                            <div>Location: Wenatchee WA</div>\n                            <div> Posts: 906 </div>\n                            <div> </div>\n                          </div>\n                        </td>\n                      </tr>\n                    </table>\n                  </td>\n                </tr>\n                <tr>\n                  <td id="td_post_6866" class="alt1" rowspan="1" colspan="1">\n                    <div class="smallfont">\n                      <img border="0" alt="Default" src="images/icons/icon1.gif" class="inlineimg"></img>\n                      <strong>The Na Nach movement</strong>\n                    </div>\n                    <hr style="color:#e5e5e5; background-color:#e5e5e5" size="1"></hr>\n                    <div id="post_message_6866">\n                      Have any of you heard and kept up with this movement? I\'ve been speaking with one of their followers on youtube recently. It is so alarming to me (yet predicted in the Scriptures) how so many religions are corruptions of Christianity. This guy I\'ve spoken with SABANAR claims to be an ex Christian missionary turned Chassid turned Na Nach. He thinks this video is proof enough that Christianity is false:\n                      <a target="_blank" href="http://www.youtube.com/watch?v=2aW2N46vf4Q" shape="rect">http://www.youtube.com/watch?v=2aW2N46vf4Q</a>\n                      I think personally that Satan created all these false religions to hide the true one. I also wonder if this all started in Babylon with Nimrod, Semiramis and their child Tammuz. I wonder if this was where it all began... I really should finish Hislops The Two Babylons.\n                      <br clear="none"></br>\n                      <br clear="none"></br>\n                      Truly, the great and dreadful day is near. I am sad for the decieved, yet so excited to see and hear my Master in the flesh.\n                      <br clear="none"></br>\n                      <br clear="none"></br>\n                      Peace and Love,\n                      <br clear="none"></br>\n                      Stephen\n                    </div>\n                    <div>\n                      __________________\n                      <br clear="none"></br>\n                      <b>\n                        <font color="DarkOliveGreen">\n                          Behold, God is my salvation; I will trust, and not be afraid: for the LORD JEHOVAH is my strength and my song; he also is become my salvation. (Isaiah 12:2)\n                          <br clear="none"></br>\n                          <br clear="none"></br>\n                          As for me, I will behold thy face in righteousness: I shall be satisfied, when I awake, with thy likeness. (Psalms 17:15)\n                        </font>\n                      </b>\n                    </div>\n                    <div style="margin-top: 10px" align="right"> </div>\n                  </td>\n                </tr>\n              </table>\n              <div style="display:none;" id="postmenu_6866_menu" class="vbmenu_popup">\n                <table border="0" cellspacing="1" cellpadding="4">\n                  <tr>\n                    <td class="thead" rowspan="1" colspan="1">stephanos</td>\n                  </tr>\n                  <tr>\n                    <td class="vbmenu_option" rowspan="1" colspan="1">\n                      <a href="member.php?s=63559e5f4759d5613a861719a1a8081b&amp;u=226" shape="rect">View Public Profile</a>\n                    </td>\n                  </tr>\n                  <tr>\n                    <td class="vbmenu_option" rowspan="1" colspan="1">\n                      <a rel="nofollow" href="search.php?s=63559e5f4759d5613a861719a1a8081b&amp;do=finduser&amp;u=226" shape="rect">Find all posts by stephanos</a>\n                    </td>\n                  </tr>\n                </table>\n              </div>\n            </div>\n          </div>\n        </div>\n      </div>\n      <div align="center">\n        <div style="width:80%; text-align:left" class="page">\n          <div style="padding:0px 25px 0px 25px" align="left">\n            <div style="padding:0px 0px 6px 0px" id="edit6875">\n              <table width="100%" border="0" cellspacing="1" cellpadding="6" id="post6875" class="tborder" align="center">\n                <tr>\n                  <td class="thead" rowspan="1" colspan="1">\n                    <div style="float:right" class="normal">\n                      \xc2\xa0\n\t\t\t#\n                      <a name="2" rel="nofollow" target="new" href="showpost.php?s=63559e5f4759d5613a861719a1a8081b&amp;p=6875&amp;postcount=2" id="postcount6875" shape="rect">\n                        <strong>2</strong>\n                      </a>\n                      \xc2\xa0\n                    </div>\n                    <div class="normal">\n                      <a name="post6875" shape="rect">\n                        <img border="0" alt="Old" src="styles/redcarbon/statusicon/post_old.gif" class="inlineimg"></img>\n                      </a>\n                      08-18-2008, 11:40 PM\n                    </div>\n                  </td>\n                </tr>\n                <tr>\n                  <td style="padding:0px" class="alt2" rowspan="1" colspan="1">\n                    <table width="100%" border="0" cellspacing="6" cellpadding="0">\n                      <tr>\n                        <td class="alt2" rowspan="1" colspan="1">\n                          <a href="member.php?s=63559e5f4759d5613a861719a1a8081b&amp;u=67" shape="rect">\n                            <img border="0" alt="chette777\'s Avatar" height="80" width="53" src="customavatars/avatar67_1.gif"></img>\n                          </a>\n                        </td>\n                        <td rowspan="1" nowrap="nowrap" colspan="1">\n                          <div id="postmenu_6875">\n                            <a href="member.php?s=63559e5f4759d5613a861719a1a8081b&amp;u=67" class="bigusername" shape="rect">chette777</a>\n                            <img border="0" alt="chette777 is offline" src="styles/redcarbon/statusicon/user_offline.gif" class="inlineimg"></img>\n                            <script type="text/javascript"> vbmenu_register(&quot;postmenu_6875&quot;, true); </script>\n                          </div>\n                        </td>\n                        <td width="100%" rowspan="1" colspan="1">\xc2\xa0</td>\n                        <td valign="top" rowspan="1" nowrap="nowrap" colspan="1">\n                          <div class="smallfont">\n                            <div>Join Date: Feb 2008</div>\n                            <div>Location: Puerto Princesa City, Palawan Philippines</div>\n                            <div> Posts: 1,434 </div>\n                            <div> </div>\n                          </div>\n                        </td>\n                      </tr>\n                    </table>\n                  </td>\n                </tr>\n                <tr>\n                  <td id="td_post_6875" class="alt1" rowspan="1" colspan="1">\n                    <div class="smallfont">\n                      <img border="0" alt="Default" src="images/icons/icon1.gif" class="inlineimg"></img>\n                    </div>\n                    <hr style="color:#e5e5e5; background-color:#e5e5e5" size="1"></hr>\n                    <div id="post_message_6875">\n                      when you see him you shall be like him for you shall see him as he is.\n                      <br clear="none"></br>\n                      <br clear="none"></br>\n                      now if you apply your concern here of false religions to worship music and you can see the same enemy Satan is behind it as well.\n                    </div>\n                    <div>\n                      __________________\n                      <br clear="none"></br>\n                      Chette\n                      <br clear="none"></br>\n                      <br clear="none"></br>\n                      <i>\n                        <b>Romans 1:16 For I am not ashamed of the gospel of Christ: for it is the power of God unto salvation to every one that believeth;...</b>\n                      </i>\n                    </div>\n                    <div style="margin-top: 10px" align="right"> </div>\n                  </td>\n                </tr>\n              </table>\n              <div style="display:none;" id="postmenu_6875_menu" class="vbmenu_popup">\n                <table border="0" cellspacing="1" cellpadding="4">\n                  <tr>\n                    <td class="thead" rowspan="1" colspan="1">chette777</td>\n                  </tr>\n                  <tr>\n                    <td class="vbmenu_option" rowspan="1" colspan="1">\n                      <a href="member.php?s=63559e5f4759d5613a861719a1a8081b&amp;u=67" shape="rect">View Public Profile</a>\n                    </td>\n                  </tr>\n                  <tr>\n                    <td class="vbmenu_option" rowspan="1" colspan="1">\n                      <a href="http://www.churchofthelastfrontier.com/" shape="rect">Visit chette777\'s homepage!</a>\n                    </td>\n                  </tr>\n                  <tr>\n                    <td class="vbmenu_option" rowspan="1" colspan="1">\n                      <a rel="nofollow" href="search.php?s=63559e5f4759d5613a861719a1a8081b&amp;do=finduser&amp;u=67" shape="rect">Find all posts by chette777</a>\n                    </td>\n                  </tr>\n                </table>\n              </div>\n            </div>\n          </div>\n        </div>\n      </div>\n      <div align="center">\n        <div style="width:80%; text-align:left" class="page">\n          <div style="padding:0px 25px 0px 25px" align="left">\n            <div style="padding:0px 0px 6px 0px" id="edit6878">\n              <table width="100%" border="0" cellspacing="1" cellpadding="6" id="post6878" class="tborder" align="center">\n                <tr>\n                  <td class="thead" rowspan="1" colspan="1">\n                    <div style="float:right" class="normal">\n                      \xc2\xa0\n\t\t\t#\n                      <a name="3" rel="nofollow" target="new" href="showpost.php?s=63559e5f4759d5613a861719a1a8081b&amp;p=6878&amp;postcount=3" id="postcount6878" shape="rect">\n                        <strong>3</strong>\n                      </a>\n                      \xc2\xa0\n                    </div>\n                    <div class="normal">\n                      <a name="post6878" shape="rect">\n                        <img border="0" alt="Old" src="styles/redcarbon/statusicon/post_old.gif" class="inlineimg"></img>\n                      </a>\n                      08-19-2008, 02:49 AM\n                    </div>\n                  </td>\n                </tr>\n                <tr>\n                  <td style="padding:0px" class="alt2" rowspan="1" colspan="1">\n                    <table width="100%" border="0" cellspacing="6" cellpadding="0">\n                      <tr>\n                        <td class="alt2" rowspan="1" colspan="1">\n                          <a href="member.php?s=63559e5f4759d5613a861719a1a8081b&amp;u=67" shape="rect">\n                            <img border="0" alt="chette777\'s Avatar" height="80" width="53" src="customavatars/avatar67_1.gif"></img>\n                          </a>\n                        </td>\n                        <td rowspan="1" nowrap="nowrap" colspan="1">\n                          <div id="postmenu_6878">\n                            <a href="member.php?s=63559e5f4759d5613a861719a1a8081b&amp;u=67" class="bigusername" shape="rect">chette777</a>\n                            <img border="0" alt="chette777 is offline" src="styles/redcarbon/statusicon/user_offline.gif" class="inlineimg"></img>\n                            <script type="text/javascript"> vbmenu_register(&quot;postmenu_6878&quot;, true); </script>\n                          </div>\n                        </td>\n                        <td width="100%" rowspan="1" colspan="1">\xc2\xa0</td>\n                        <td valign="top" rowspan="1" nowrap="nowrap" colspan="1">\n                          <div class="smallfont">\n                            <div>Join Date: Feb 2008</div>\n                            <div>Location: Puerto Princesa City, Palawan Philippines</div>\n                            <div> Posts: 1,434 </div>\n                            <div> </div>\n                          </div>\n                        </td>\n                      </tr>\n                    </table>\n                  </td>\n                </tr>\n                <tr>\n                  <td id="td_post_6878" class="alt1" rowspan="1" colspan="1">\n                    <div class="smallfont">\n                      <img border="0" alt="Default" src="images/icons/icon1.gif" class="inlineimg"></img>\n                    </div>\n                    <hr style="color:#e5e5e5; background-color:#e5e5e5" size="1"></hr>\n                    <div id="post_message_6878">\n                      This Should help those who are not familiar with this movement. also known as the Hebrew word Movement.  there is a break away group of rebelious teens that have their own sect. But their web page is down.\n                      <br clear="none"></br>\n                      <br clear="none"></br>\n                      <b>Na Nach Nachma Nachman Meuman</b>\n                      (\n                      <a target="_blank" href="http://en.wikipedia.org/wiki/Hebrew_language" shape="rect">Hebrew</a>\n                      :\n                      <b>\xd7\xa0 \xd7\xa0\xd7\x97 \xd7\xa0\xd7\x97\xd7\x9e \xd7\xa0\xd7\x97\xd7\x9e\xd7\x9f \xd7\x9e\xd7\x90\xd7\x95\xd7\x9e\xd7\x9f</b>\n                      ) is a\n                      <a target="_blank" href="http://en.wikipedia.org/wiki/Hebrew_language" shape="rect">Hebrew language</a>\n                      <a target="_blank" href="http://en.wikipedia.org/wiki/Mantra" shape="rect">mantra</a>\n                      used by some sub-groups of the\n                      <a target="_blank" href="http://en.wikipedia.org/wiki/Breslov_(Hasidic_dynasty)" shape="rect">Breslov</a>\n                      group of\n                      <a target="_blank" href="http://en.wikipedia.org/wiki/Hasidic_Jews" shape="rect">Hasidic Jews</a>\n                      . The complete phrase is\n                      <i>Na Nach Nachma Nachman Me\'uman.</i>\n                      It is a\n                      <a target="_blank" href="http://en.wikipedia.org/w/index.php?title=Sound-poem&amp;action=edit&amp;redlink=1" shape="rect">sound-poem</a>\n                      based on the four Hebrew letters of the name\n                      <i>Nachman,</i>\n                      referring to the founder of the Breslov movement,\n                      <a target="_blank" href="http://en.wikipedia.org/wiki/Rabbi_Nachman_of_Breslov" shape="rect">Rabbi Nachman of Breslov</a>\n                      , along with a reference to his burial place in\n                      <a target="_blank" href="http://en.wikipedia.org/wiki/Uman,_Ukraine" shape="rect">Uman, Ukraine</a>\n                      .\n                      <br clear="none"></br>\n                      <b>Contents</b>\n                      <br clear="none"></br>\n                      <br clear="none"></br>\n                      <br clear="none"></br>\n                      [\n                      <a target="_blank" href="http://javascript&lt;b&gt;&lt;/b&gt;:toggleToc()" shape="rect">hide</a>\n                      ]\n                      <ul>\n                        <li>\n                          &lt;LI class=toclevel-1&gt;\n                          <a target="_blank" href="http://en.wikipedia.org/wiki/Na_Nach_Nachma#History_of_the_mantra" shape="rect">1 History of the mantra</a>\n                          &lt;LI class=toclevel-1&gt;\n                          <a target="_blank" href="http://en.wikipedia.org/wiki/Na_Nach_Nachma#Pronunciation_and_meaning_of_the_phrase" shape="rect">2 Pronunciation and meaning of the phrase</a>\n                          &lt;LI class=toclevel-1&gt;\n                          <a target="_blank" href="http://en.wikipedia.org/wiki/Na_Nach_Nachma#Controversies" shape="rect">3 Controversies</a>\n                          &lt;LI class=toclevel-1&gt;\n                          <a target="_blank" href="http://en.wikipedia.org/wiki/Na_Nach_Nachma#Popularity_of_the_mantra_today" shape="rect">4 Popularity of the mantra today</a>\n                          &lt;LI class=toclevel-1&gt;\n                          <a target="_blank" href="http://en.wikipedia.org/wiki/Na_Nach_Nachma#External_links" shape="rect">5 External links</a>\n                        </li>\n                        <li>\n                          <a target="_blank" href="http://en.wikipedia.org/wiki/Na_Nach_Nachma#Sources" shape="rect">6 Sources</a>\n                        </li>\n                      </ul>\n                      <b>\n                        [\n                        <a target="_blank" href="http://en.wikipedia.org/w/index.php?title=Na_Nach_Nachma_Nachman_Meuman&amp;action=edit&amp;section=1" shape="rect">edit</a>\n                        ] History of the mantra\n                      </b>\n                      <br clear="none"></br>\n                      <br clear="none"></br>\n                      <a target="_blank" href="http://en.wikipedia.org/wiki/Image:Reb_Shmuel_Oddeser.jpg" shape="rect">\n                        <img alt="" border="0" src="http://upload.wikimedia.org/wikipedia/en/thumb/1/10/Reb_Shmuel_Oddeser.jpg/180px-Reb_Shmuel_Oddeser.jpg"></img>\n                      </a>\n                      <br clear="none"></br>\n                      Rabbi Yisroel Odesser, teacher of the\n                      <i>Na Nach Nachma mantra.</i>\n                      Died in 1994 and was buried in Jerusalem.\n                      <br clear="none"></br>\n                      <br clear="none"></br>\n                      <br clear="none"></br>\n                      Although\n                      <i>Na Nach Nachma</i>\n                      is based on the name of Rebbe Nachman, he himself did not use it, and it was unknown in his day. However, he did say that repeating one word over and over was an effective form of\n                      <a target="_blank" href="http://en.wikipedia.org/wiki/Meditation" shape="rect">meditation</a>\n                      <i>(Likutei Moharan Tinyana #96).</i>\n                      His own personal mantra was\n                      <i>Ribono shel Olam</i>\n                      (Master of the Universe) which he pronounced with the\n                      <a target="_blank" href="http://en.wikipedia.org/wiki/Yiddish" shape="rect">Yiddish</a>\n                      intonation as:\n                      <i>Ree-BOY-noy shell OY-lahm.</i>\n                      Many Breslover Hasidim today still prefer this mantra.\n                      <br clear="none"></br>\n                      The\n                      <i>Na Nach Nachma</i>\n                      phrase was &quot;revealed&quot; and taught by Rabbi\n                      <a target="_blank" href="http://en.wikipedia.org/wiki/Yisroel_Ber_Odesser" shape="rect">Yisroel Ber Odesser</a>\n                      , a controversial Breslov figure in the 20th century. Odesser was born in 1895 in\n                      <a target="_blank" href="http://en.wikipedia.org/wiki/Tiberias,_Israel" shape="rect">Tiberias, Israel</a>\n                      . He was among the first Breslover Hasidim in Israel, having learned about the movement from Rabbi\n                      <a target="_blank" href="http://en.wikipedia.org/wiki/Yisroel_Halpern" shape="rect">Yisroel Halpern</a>\n                      when he was a young yeshiva student. Odesser\'s parents, who were\n                      <a target="_blank" href="http://en.wikipedia.org/wiki/Karlin_(Hasidic_Dynasty)" shape="rect">Karliner</a>\n                      Hasidim, strongly opposed his joining the Breslov movement, and worked hard to discourage him. Young Odesser went through many hardships, but he remained steadfast to the Breslov way.\n                      <br clear="none"></br>\n                      When he was 26 years old, Odesser was overcome with weakness and hunger on the\n                      <a target="_blank" href="http://en.wikipedia.org/wiki/Fast_of_Tammuz" shape="rect">Fast of Tammuz</a>\n                      . He decided to eat. But immediately after eating, he felt great sorrow at having succumbed to his own physical temptations. After five continuous days of prayer, a powerful thought came to him: &quot;Go into your room!&quot; He obeyed the inner voice, went to the bookcase, and randomly opened a book. In the book was a piece of paper that he would later call &quot;The Letter from Heaven.&quot; The paper contained a greeting, some text that referred to the Fast of Tammuz, and the\n                      <i>Na Nach Nachma</i>\n                      mantra. It read as follows:\n                      <blockquote>\n                        It was very hard for me to descend to you, my precious student, to tell you that I benefited greatly from your service. And to you I say, my fire will burn until the coming of the Messiah \xe2\x80\x94 be strong and courageous in your service \xe2\x80\x94 Na Nach Nachma Nachman Me\'Uman. And with this I shall tell you a secret: Full and heaped up from line to line, and with strong devotional service you will understand it. And the sign is: They will say you are not fasting on the 17th of Tammuz.\n                        <br clear="none"></br>\n                      </blockquote>\n                      Odesser believed the letter to be a message of consolation, directly from Rebbe Nachman\'s spirit to himself here on earth. Odesser adopted\n                      <i>Na Nach Nachma</i>\n                      as his personal meditation, and became so totally identified with it that he later said, &quot;I am Na Nach Nachma Nachman Me\'Uman.&quot; (This quote appears on Odesser\'s tombstone in Jerusalem.)\n                      <br clear="none"></br>\n                      <br clear="none"></br>\n                      <b>\n                        [\n                        <a target="_blank" href="http://en.wikipedia.org/w/index.php?title=Na_Nach_Nachma_Nachman_Meuman&amp;action=edit&amp;section=2" shape="rect">edit</a>\n                        ] Pronunciation and meaning of the phrase\n                      </b>\n                      <br clear="none"></br>\n                      <br clear="none"></br>\n                      <br clear="none"></br>\n                      During his lifetime, Rebbe Nachman spoke of a &quot;Song of Redemption&quot; that would be revealed before the coming of the\n                      <a target="_blank" href="http://en.wikipedia.org/wiki/Jewish_Messiah" shape="rect">Jewish Messiah</a>\n                      . This song would be in a &quot;single, double, triple, quadruple&quot; form.\n                      <i>(Likutei Moharan II, #8).</i>\n                      The\n                      <i>Na Nach Nachma</i>\n                      phrase has such a structure (keeping in mind that Hebrew often omits the vowels):\n                      <ul>\n                        <li>\n                          <b>N</b>\n                          a (one Hebrew letter: Nun) --\n                          <b>\xd7\xa0</b>\n                        </li>\n                      </ul>\n                      <ul>\n                        <li>\n                          <b>N</b>\n                          a\n                          <b>CH</b>\n                          (Two Hebrew letters: Nun-Chet) --\n                          <b>\xd7\xa0\xd7\x97</b>\n                        </li>\n                      </ul>\n                      <ul>\n                        <li>\n                          <b>N</b>\n                          a\n                          <b>CHM</b>\n                          a (Three Hebrew letters: Nun-Chet-Mem) --\n                          <b>\xd7\xa0\xd7\x97\xd7\x9e</b>\n                        </li>\n                      </ul>\n                      <ul>\n                        <li>\n                          <b>N</b>\n                          a\n                          <b>CHM</b>\n                          a\n                          <b>N</b>\n                          (Four Hebrew letters: Nun-Chet-Mem-Nun) --\n                          <b>\xd7\xa0\xd7\x97\xd7\x9e\xd7\x9f</b>\n                        </li>\n                      </ul>\n                      <ul>\n                        <li>\n                          Me\'Uman (a double entendre: it can mean &quot;from Uman&quot; -- Rebbe Nachman\'s burial place and can also mean &quot;believed&quot; or &quot;accredited.&quot;) --\n                          <b>\xd7\x9e\xd7\x90\xd7\x95\xd7\x9e\xd7\x9f</b>\n                        </li>\n                      </ul>\n                      The mantra is pronounced with a soft\n                      <b>A</b>\n                      sound as in &quot;ah&quot; and a guttural\n                      <b>KH</b>\n                      sound as in German &quot;ach.&quot; It is usually accented as follows:\n                      <br clear="none"></br>\n                      <b>Nah</b>\n                      -nakh-\n                      <b>nakh</b>\n                      mah-\n                      <b>nakh</b>\n                      man-meh-oo-\n                      <b>mahn</b>\n                      .\n                      <br clear="none"></br>\n                      Speakers of\n                      <a target="_blank" href="http://en.wikipedia.org/wiki/Yiddish" shape="rect">Yiddish</a>\n                      and\n                      <a target="_blank" href="http://en.wikipedia.org/wiki/German_language" shape="rect">German</a>\n                      have also noted that\n                      <i>na nach</i>\n                      can mean &quot;now to,&quot; which would loosely translate the phrase as &quot;Now to Nachman from Uman,&quot; that is, traveling to the Rebbe on pilgrimage to his gravesite or in one\'s heart.\n                      <br clear="none"></br>\n                      <br clear="none"></br>\n                      <b>\n                        [\n                        <a target="_blank" href="http://en.wikipedia.org/w/index.php?title=Na_Nach_Nachma_Nachman_Meuman&amp;action=edit&amp;section=3" shape="rect">edit</a>\n                        ] Controversies\n                      </b>\n                      <br clear="none"></br>\n                      <br clear="none"></br>\n                      Not all Breslover Hasidim use\n                      <i>Na Nach Nachma</i>\n                      (some groups actually oppose it) and not everyone believes it is an authentic writing from Rebbe Nachman. The following are some of the diverse opinions:\n                      <br clear="none"></br>\n                      <a target="_blank" href="http://en.wikipedia.org/wiki/Image:Letter-from-heaven-cover.jpg" shape="rect">\n                        <img alt="" border="0" src="http://upload.wikimedia.org/wikipedia/en/thumb/0/03/Letter-from-heaven-cover.jpg/180px-Letter-from-heaven-cover.jpg"></img>\n                      </a>\n                      <br clear="none"></br>\n                      Cover of Rav Odesser\'s book, showing the\n                      <i>petek</i>\n                      (note).\n                      <br clear="none"></br>\n                      <br clear="none"></br>\n                      <ul>\n                        <li>\n                          Rabbi Odesser believed the &quot;Letter from Heaven&quot; was a genuine miracle, pointing out that the bookcase where the\n                          <i>petek</i>\n                          (note) appeared was locked at the time, and he had the only key. His followers believed in the miracle also. They continue to this day to chant the phrase as a &quot;Song of Redemption&quot; for the coming of the\n                          <a target="_blank" href="http://en.wikipedia.org/wiki/Jewish_Messiah" shape="rect">Jewish Messiah</a>\n                          . Odesser\'s personal account of how he found the Letter has been translated into English under the title\n                          <i>The Letter from Heaven: Rebbe Nachman\'s Song.</i>\n                        </li>\n                      </ul>\n                      <ul>\n                        <li>\n                          In May 1984, Rabbi\n                          <a target="_blank" href="http://en.wikipedia.org/wiki/Moshe_Feinstein" shape="rect">Moshe Feinstein</a>\n                          wrote a letter of approbation, endorsing Odesser\'s efforts to raise funds for publishing Rebbe Nachman\'s books. In this document, Feinstein said:\n                          <i>\n                            &quot;I am writing on behalf of a most unusual individual, Rabbi Yisroel Dov Odesser, shlita, from Israel. This individual is a\n                            <a target="_blank" href="http://en.wikipedia.org/wiki/Gaon" shape="rect">gaon</a>\n                            of Torah. I had the pleasure of recently meeting with him and was inspired by a secret document which he possesses.&quot;\n                          </i>\n                          This seems to imply that Rabbi Feinstein thought the letter was authentic, although he did not explicitly say so. (\n                          <i>The Letter from Heaven: Rebbe Nachman\'s Song,</i>\n                          p. 2)\n                        </li>\n                      </ul>\n                      <ul>\n                        <li>\n                          Some people believe that the letter was a note written to someone by Rebbe Nachman when he visited Tiberias during his pilgrimage to Israel in the early 19th century. Somehow it was placed in the old book, but Odesser\'s finding it was a coincidence (or miracle of timing), as was the reference to someone eating on the Fast of Tammuz.\n                        </li>\n                      </ul>\n                      <ul>\n                        <li>\n                          Still others believe it was a well-intentioned forgery, written by one of Rabbi Odesser\'s fellow students in order to cheer him up after he got depressed from breaking his fast. (See\n                          <a target="_blank" href="http://www.wzo.org.il/en/resources/view.asp?id=1172" shape="rect">The Writing on the Wall,</a>\n                          which expresses this opinion.)\n                        </li>\n                      </ul>\n                      <b>\n                        [\n                        <a target="_blank" href="http://en.wikipedia.org/w/index.php?title=Na_Nach_Nachma_Nachman_Meuman&amp;action=edit&amp;section=4" shape="rect">edit</a>\n                        ] Popularity of the mantra today\n                      </b>\n                      <br clear="none"></br>\n                      <br clear="none"></br>\n                      <a target="_blank" href="http://en.wikipedia.org/wiki/Image:Na-nach-nachma-yarmulke.jpg" shape="rect">\n                        <img alt="" border="0" src="http://upload.wikimedia.org/wikipedia/commons/thumb/6/65/Na-nach-nachma-yarmulke.jpg/180px-Na-nach-nachma-yarmulke.jpg"></img>\n                      </a>\n                      <br clear="none"></br>\n                      Typical white &quot;Na Nacher&quot; style yarmulke with the mantra woven into it. Made in Jerusalem in 2005\n                      <br clear="none"></br>\n                      <br clear="none"></br>\n                      <br clear="none"></br>\n                      Whatever the origins of this mantra, it is now very popular among certain sub-groups of Breslover Hasidim, and has been incorporated into both traditional and contemporary Jewish music. During the\n                      <a target="_blank" href="http://en.wikipedia.org/wiki/Millennium" shape="rect">millennium</a>\n                      fervor before the Year 2000, the\n                      <i>Na Nach Nachma</i>\n                      was widely distributed and publicized in Israel, appearing on bumper stickers, billboards,\n                      <a target="_blank" href="http://en.wikipedia.org/wiki/Graffiti" shape="rect">graffiti</a>\n                      , etc. It has also been used on jewellery and\n                      <a target="_blank" href="http://en.wikipedia.org/wiki/Amulet" shape="rect">amulets</a>\n                      .\n                      <br clear="none"></br>\n                      More recently, some people have begun to wear it on large white knitted\n                      <a target="_blank" href="http://en.wikipedia.org/wiki/Yarmulke" shape="rect">yarmulkes</a>\n                      with a little tassel on top. (These hats are a modification of a traditional white yarmulke that has been worn in Jerusalem for centuries. That style, in turn, apparently evolved from the medieval\n                      <a target="_blank" href="http://en.wikipedia.org/wiki/Jewish_hat" shape="rect">Jewish hat</a>\n                      with the ball on top -- hence the tassel.) During the time that Reb Odesser was still alive, some of his followers were already wearing large white yarmulkes, but without the mantra on them.\n                      <i>Na Nach Nachma</i>\n                      yarmulkes in other colors are also appearing on the market now.\n                      <br clear="none"></br>\n                      The mantra continues to be chanted by both Hasidic and non-Hasidic Jews, as well as some non-Jews who use it as a form of\n                      <a target="_blank" href="http://en.wikipedia.org/wiki/Kabbalah" shape="rect">kabbalah</a>\n                      meditation. Those who chant it are sometimes referred to as &quot;Na-Nachers&quot;. Among some groups of\n                      <a target="_blank" href="http://en.wikipedia.org/wiki/Sephardic" shape="rect">Sephardic</a>\n                      Jewish youth in Israel, it has become a sort of rallying cry for returning to traditional Judaism, although not necessarily to mainstream Breslov.\n                    </div>\n                    <div>\n                      __________________\n                      <br clear="none"></br>\n                      Chette\n                      <br clear="none"></br>\n                      <br clear="none"></br>\n                      <i>\n                        <b>Romans 1:16 For I am not ashamed of the gospel of Christ: for it is the power of God unto salvation to every one that believeth;...</b>\n                      </i>\n                    </div>\n                    <div style="margin-top: 10px" align="right"> </div>\n                  </td>\n                </tr>\n              </table>\n              <div style="display:none;" id="postmenu_6878_menu" class="vbmenu_popup">\n                <table border="0" cellspacing="1" cellpadding="4">\n                  <tr>\n                    <td class="thead" rowspan="1" colspan="1">chette777</td>\n                  </tr>\n                  <tr>\n                    <td class="vbmenu_option" rowspan="1" colspan="1">\n                      <a href="member.php?s=63559e5f4759d5613a861719a1a8081b&amp;u=67" shape="rect">View Public Profile</a>\n                    </td>\n                  </tr>\n                  <tr>\n                    <td class="vbmenu_option" rowspan="1" colspan="1">\n                      <a href="http://www.churchofthelastfrontier.com/" shape="rect">Visit chette777\'s homepage!</a>\n                    </td>\n                  </tr>\n                  <tr>\n                    <td class="vbmenu_option" rowspan="1" colspan="1">\n                      <a rel="nofollow" href="search.php?s=63559e5f4759d5613a861719a1a8081b&amp;do=finduser&amp;u=67" shape="rect">Find all posts by chette777</a>\n                    </td>\n                  </tr>\n                </table>\n              </div>\n            </div>\n          </div>\n        </div>\n      </div>\n      <div align="center">\n        <div style="width:80%; text-align:left" class="page">\n          <div style="padding:0px 25px 0px 25px" align="left">\n            <div style="padding:0px 0px 6px 0px" id="edit6879">\n              <table width="100%" border="0" cellspacing="1" cellpadding="6" id="post6879" class="tborder" align="center">\n                <tr>\n                  <td class="thead" rowspan="1" colspan="1">\n                    <div style="float:right" class="normal">\n                      \xc2\xa0\n\t\t\t#\n                      <a name="4" rel="nofollow" target="new" href="showpost.php?s=63559e5f4759d5613a861719a1a8081b&amp;p=6879&amp;postcount=4" id="postcount6879" shape="rect">\n                        <strong>4</strong>\n                      </a>\n                      \xc2\xa0\n                    </div>\n                    <div class="normal">\n                      <a name="post6879" shape="rect">\n                        <img border="0" alt="Old" src="styles/redcarbon/statusicon/post_old.gif" class="inlineimg"></img>\n                      </a>\n                      08-19-2008, 02:56 AM\n                    </div>\n                  </td>\n                </tr>\n                <tr>\n                  <td style="padding:0px" class="alt2" rowspan="1" colspan="1">\n                    <table width="100%" border="0" cellspacing="6" cellpadding="0">\n                      <tr>\n                        <td class="alt2" rowspan="1" colspan="1">\n                          <a href="member.php?s=63559e5f4759d5613a861719a1a8081b&amp;u=67" shape="rect">\n                            <img border="0" alt="chette777\'s Avatar" height="80" width="53" src="customavatars/avatar67_1.gif"></img>\n                          </a>\n                        </td>\n                        <td rowspan="1" nowrap="nowrap" colspan="1">\n                          <div id="postmenu_6879">\n                            <a href="member.php?s=63559e5f4759d5613a861719a1a8081b&amp;u=67" class="bigusername" shape="rect">chette777</a>\n                            <img border="0" alt="chette777 is offline" src="styles/redcarbon/statusicon/user_offline.gif" class="inlineimg"></img>\n                            <script type="text/javascript"> vbmenu_register(&quot;postmenu_6879&quot;, true); </script>\n                          </div>\n                        </td>\n                        <td width="100%" rowspan="1" colspan="1">\xc2\xa0</td>\n                        <td valign="top" rowspan="1" nowrap="nowrap" colspan="1">\n                          <div class="smallfont">\n                            <div>Join Date: Feb 2008</div>\n                            <div>Location: Puerto Princesa City, Palawan Philippines</div>\n                            <div> Posts: 1,434 </div>\n                            <div> </div>\n                          </div>\n                        </td>\n                      </tr>\n                    </table>\n                  </td>\n                </tr>\n                <tr>\n                  <td id="td_post_6879" class="alt1" rowspan="1" colspan="1">\n                    <div class="smallfont">\n                      <img border="0" alt="Default" src="images/icons/icon1.gif" class="inlineimg"></img>\n                    </div>\n                    <hr style="color:#e5e5e5; background-color:#e5e5e5" size="1"></hr>\n                    <div id="post_message_6879">\n                      and still more to know about NA Nach\n                      <br clear="none"></br>\n                      <br clear="none"></br>\n                      The Na Nach &quot;movement&quot; was started by a group of French baalei teshuvah who discovered an elderly Breslover Chassid named Rabbi Yisrael Ber Odesser z&quot;l in an old age home in Eretz Yisrael. When they heard his story about having received a &quot;petek&quot; or letter from Rebbe Nachman when he was a bochur in Slonimer Yeshivah, they believed Reb Yisrael Ber and began to disseminate the now-famous petek and the &quot;mantra&quot; it contained: &quot;Na Nach Nachma Nachman me-Uman!&quot;\n                      <br clear="none"></br>\n                      <br clear="none"></br>\n                      This is evidently based upon the Shem be-Achorayim, which the Rebbe mentions in Likkutei Moharan II, 8 (the last lesson the Rebbe gave, also known as &quot;Tiku / Tochakhah&quot;). Whoever invented the petek substituted the Rebbe\'s name for the Shem HaVaYaH and added &quot;me-Uman.&quot;\n                      <br clear="none"></br>\n                      <br clear="none"></br>\n                      I was personally told by Rav Zvi Ashkenazi, a Slonimer Chassid and one of the leading shochtim u\'bodkim in America, that his grandfather had written the petek and tucked it into one of Reb Yisrael Ber\'s seforim as a childish prank. But when he told his extremely devout and temimusdikeh classmate that it was a joke, Reb Yisrael Ber refused to believe him. (Which shows you the danger of letzonus!)\n                      <br clear="none"></br>\n                      <br clear="none"></br>\n                      The Na Nach group is a totally marginal phenomenon in Breslov today and not one Breslover gadol buys the business of the petek. But for these kids, the Na Nach sect with its rejection of middle class culture and its pursuit of electric niggunim ecstacy is a way to express themselves in a religious world that for one reason or another they can\'t relate to.\n                      <br clear="none"></br>\n                      <br clear="none"></br>\n                      Being strongly committed to the Breslov mesorah, I can\'t endorse the Na Nach thing; but I also can\'t negate a movement that keeps many kids basically within the geder of Yiddishkeit, and which doesn\'t seem to be doing any major harm that I know about. Reb Yisrael Ber also left a small fortune of money that people gave him to publish the Breslover seforim, and his group has probably done more to publish and disseminate these books than anyone in Breslov history. If the Na Nachs would turn down their amplifiers in Uman I might be even more liberal-minded about them -- but as the saying goes, &quot;that will be the day!\n                      <br clear="none"></br>\n                      <br clear="none"></br>\n                      this info and more can be found on\n                      <a target="_blank" href="http://www.asimplejew.com" shape="rect">www.asimplejew.com</a>\n                    </div>\n                    <div>\n                      __________________\n                      <br clear="none"></br>\n                      Chette\n                      <br clear="none"></br>\n                      <br clear="none"></br>\n                      <i>\n                        <b>Romans 1:16 For I am not ashamed of the gospel of Christ: for it is the power of God unto salvation to every one that believeth;...</b>\n                      </i>\n                    </div>\n                    <div class="smallfont">\n                      <hr style="color:#e5e5e5; background-color:#e5e5e5" size="1"></hr>\n                      <em>\n                        Last edited by chette777; 08-19-2008 at\n                        <span class="time">03:01 AM</span>\n                        .\n                      </em>\n                    </div>\n                    <div style="margin-top: 10px" align="right"> </div>\n                  </td>\n                </tr>\n              </table>\n              <div style="display:none;" id="postmenu_6879_menu" class="vbmenu_popup">\n                <table border="0" cellspacing="1" cellpadding="4">\n                  <tr>\n                    <td class="thead" rowspan="1" colspan="1">chette777</td>\n                  </tr>\n                  <tr>\n                    <td class="vbmenu_option" rowspan="1" colspan="1">\n                      <a href="member.php?s=63559e5f4759d5613a861719a1a8081b&amp;u=67" shape="rect">View Public Profile</a>\n                    </td>\n                  </tr>\n                  <tr>\n                    <td class="vbmenu_option" rowspan="1" colspan="1">\n                      <a href="http://www.churchofthelastfrontier.com/" shape="rect">Visit chette777\'s homepage!</a>\n                    </td>\n                  </tr>\n                  <tr>\n                    <td class="vbmenu_option" rowspan="1" colspan="1">\n                      <a rel="nofollow" href="search.php?s=63559e5f4759d5613a861719a1a8081b&amp;do=finduser&amp;u=67" shape="rect">Find all posts by chette777</a>\n                    </td>\n                  </tr>\n                </table>\n              </div>\n            </div>\n          </div>\n        </div>\n      </div>\n      <div align="center">\n        <div style="width:80%; text-align:left" class="page">\n          <div style="padding:0px 25px 0px 25px" align="left">\n            <div style="padding:0px 0px 6px 0px" id="edit6880">\n              <table width="100%" border="0" cellspacing="1" cellpadding="6" id="post6880" class="tborder" align="center">\n                <tr>\n                  <td class="thead" rowspan="1" colspan="1">\n                    <div style="float:right" class="normal">\n                      \xc2\xa0\n\t\t\t#\n                      <a name="5" rel="nofollow" target="new" href="showpost.php?s=63559e5f4759d5613a861719a1a8081b&amp;p=6880&amp;postcount=5" id="postcount6880" shape="rect">\n                        <strong>5</strong>\n                      </a>\n                      \xc2\xa0\n                    </div>\n                    <div class="normal">\n                      <a name="post6880" shape="rect">\n                        <img border="0" alt="Old" src="styles/redcarbon/statusicon/post_old.gif" class="inlineimg"></img>\n                      </a>\n                      08-19-2008, 03:21 AM\n                    </div>\n                  </td>\n                </tr>\n                <tr>\n                  <td style="padding:0px" class="alt2" rowspan="1" colspan="1">\n                    <table width="100%" border="0" cellspacing="6" cellpadding="0">\n                      <tr>\n                        <td class="alt2" rowspan="1" colspan="1">\n                          <a href="member.php?s=63559e5f4759d5613a861719a1a8081b&amp;u=67" shape="rect">\n                            <img border="0" alt="chette777\'s Avatar" height="80" width="53" src="customavatars/avatar67_1.gif"></img>\n                          </a>\n                        </td>\n                        <td rowspan="1" nowrap="nowrap" colspan="1">\n                          <div id="postmenu_6880">\n                            <a href="member.php?s=63559e5f4759d5613a861719a1a8081b&amp;u=67" class="bigusername" shape="rect">chette777</a>\n                            <img border="0" alt="chette777 is offline" src="styles/redcarbon/statusicon/user_offline.gif" class="inlineimg"></img>\n                            <script type="text/javascript"> vbmenu_register(&quot;postmenu_6880&quot;, true); </script>\n                          </div>\n                        </td>\n                        <td width="100%" rowspan="1" colspan="1">\xc2\xa0</td>\n                        <td valign="top" rowspan="1" nowrap="nowrap" colspan="1">\n                          <div class="smallfont">\n                            <div>Join Date: Feb 2008</div>\n                            <div>Location: Puerto Princesa City, Palawan Philippines</div>\n                            <div> Posts: 1,434 </div>\n                            <div> </div>\n                          </div>\n                        </td>\n                      </tr>\n                    </table>\n                  </td>\n                </tr>\n                <tr>\n                  <td id="td_post_6880" class="alt1" rowspan="1" colspan="1">\n                    <div class="smallfont">\n                      <img border="0" alt="Default" src="images/icons/icon1.gif" class="inlineimg"></img>\n                    </div>\n                    <hr style="color:#e5e5e5; background-color:#e5e5e5" size="1"></hr>\n                    <div id="post_message_6880">\n                      I watched the video link you gave. the person give a lots of statements especially from the time after Christ. But no proof like what Egyptian, Babylonian, Hindu, Bhudist records were these statements represented. what Hyrglyphics he did show in the video have no reference to any of the Horus Seth belief.\n                      <br clear="none"></br>\n                      <br clear="none"></br>\n                      A good documentary will show it\'s proofs not just make statements. there is no proof any person or god he mentions ever rose from the dead. our word had over fivehundred witnesses to it. and many know it because that same life lives in them today.\n                      <br clear="none"></br>\n                      <br clear="none"></br>\n                      Does the mother son god worship go back to Ancient times? yes indeed. Mystery\n                      <b>Baby</b>\n                      lon the\n                      <b>Mother</b>\n                      of all harlots and Abominations in the English Bible it is preserved for us to see. as far back as the tower of babel this type of worship has been going on.\n                      <br clear="none"></br>\n                      <br clear="none"></br>\n                      But Jesus Christ is the only true Son of God and we will all soon see.\n                      <br clear="none"></br>\n                      <br clear="none"></br>\n                      but this video had nothing to do with the Na Nach sect of Jews as Stephanos led us to think. Finish Hysops book and you will learn alot more than that.\n                    </div>\n                    <div>\n                      __________________\n                      <br clear="none"></br>\n                      Chette\n                      <br clear="none"></br>\n                      <br clear="none"></br>\n                      <i>\n                        <b>Romans 1:16 For I am not ashamed of the gospel of Christ: for it is the power of God unto salvation to every one that believeth;...</b>\n                      </i>\n                    </div>\n                    <div class="smallfont">\n                      <hr style="color:#e5e5e5; background-color:#e5e5e5" size="1"></hr>\n                      <em>\n                        Last edited by chette777; 08-19-2008 at\n                        <span class="time">03:30 AM</span>\n                        .\n                      </em>\n                    </div>\n                    <div style="margin-top: 10px" align="right"> </div>\n                  </td>\n                </tr>\n              </table>\n              <div style="display:none;" id="postmenu_6880_menu" class="vbmenu_popup">\n                <table border="0" cellspacing="1" cellpadding="4">\n                  <tr>\n                    <td class="thead" rowspan="1" colspan="1">chette777</td>\n                  </tr>\n                  <tr>\n                    <td class="vbmenu_option" rowspan="1" colspan="1">\n                      <a href="member.php?s=63559e5f4759d5613a861719a1a8081b&amp;u=67" shape="rect">View Public Profile</a>\n                    </td>\n                  </tr>\n                  <tr>\n                    <td class="vbmenu_option" rowspan="1" colspan="1">\n                      <a href="http://www.churchofthelastfrontier.com/" shape="rect">Visit chette777\'s homepage!</a>\n                    </td>\n                  </tr>\n                  <tr>\n                    <td class="vbmenu_option" rowspan="1" colspan="1">\n                      <a rel="nofollow" href="search.php?s=63559e5f4759d5613a861719a1a8081b&amp;do=finduser&amp;u=67" shape="rect">Find all posts by chette777</a>\n                    </td>\n                  </tr>\n                </table>\n              </div>\n            </div>\n          </div>\n        </div>\n      </div>\n      <div align="center">\n        <div style="width:80%; text-align:left" class="page">\n          <div style="padding:0px 25px 0px 25px" align="left">\n            <div style="padding:0px 0px 6px 0px" id="edit6887">\n              <table width="100%" border="0" cellspacing="1" cellpadding="6" id="post6887" class="tborder" align="center">\n                <tr>\n                  <td class="thead" rowspan="1" colspan="1">\n                    <div style="float:right" class="normal">\n                      \xc2\xa0\n\t\t\t#\n                      <a name="6" rel="nofollow" target="new" href="showpost.php?s=63559e5f4759d5613a861719a1a8081b&amp;p=6887&amp;postcount=6" id="postcount6887" shape="rect">\n                        <strong>6</strong>\n                      </a>\n                      \xc2\xa0\n                    </div>\n                    <div class="normal">\n                      <a name="post6887" shape="rect">\n                        <img border="0" alt="Old" src="styles/redcarbon/statusicon/post_old.gif" class="inlineimg"></img>\n                      </a>\n                      08-19-2008, 06:29 PM\n                    </div>\n                  </td>\n                </tr>\n                <tr>\n                  <td style="padding:0px" class="alt2" rowspan="1" colspan="1">\n                    <table width="100%" border="0" cellspacing="6" cellpadding="0">\n                      <tr>\n                        <td class="alt2" rowspan="1" colspan="1">\n                          <a href="member.php?s=63559e5f4759d5613a861719a1a8081b&amp;u=67" shape="rect">\n                            <img border="0" alt="chette777\'s Avatar" height="80" width="53" src="customavatars/avatar67_1.gif"></img>\n                          </a>\n                        </td>\n                        <td rowspan="1" nowrap="nowrap" colspan="1">\n                          <div id="postmenu_6887">\n                            <a href="member.php?s=63559e5f4759d5613a861719a1a8081b&amp;u=67" class="bigusername" shape="rect">chette777</a>\n                            <img border="0" alt="chette777 is offline" src="styles/redcarbon/statusicon/user_offline.gif" class="inlineimg"></img>\n                            <script type="text/javascript"> vbmenu_register(&quot;postmenu_6887&quot;, true); </script>\n                          </div>\n                        </td>\n                        <td width="100%" rowspan="1" colspan="1">\xc2\xa0</td>\n                        <td valign="top" rowspan="1" nowrap="nowrap" colspan="1">\n                          <div class="smallfont">\n                            <div>Join Date: Feb 2008</div>\n                            <div>Location: Puerto Princesa City, Palawan Philippines</div>\n                            <div> Posts: 1,434 </div>\n                            <div> </div>\n                          </div>\n                        </td>\n                      </tr>\n                    </table>\n                  </td>\n                </tr>\n                <tr>\n                  <td id="td_post_6887" class="alt1" rowspan="1" colspan="1">\n                    <div class="smallfont">\n                      <img border="0" alt="Default" src="images/icons/icon1.gif" class="inlineimg"></img>\n                    </div>\n                    <hr style="color:#e5e5e5; background-color:#e5e5e5" size="1"></hr>\n                    <div id="post_message_6887">\n                      Tell the man you are talking with.  one he should concider all teh facts before choosing to no longer to continue in the grace of our Lord.\n                      <br clear="none"></br>\n                      <br clear="none"></br>\n                      Any good bible study will reveal Christ was not born on Dec 25th. that is a Roman Catholic fabrication.\n                      <br clear="none"></br>\n                      <br clear="none"></br>\n                      most of his post assencion proofs of many son and mother virgins and the son with names liken to Christ. were put on and in place of most of the relegions by Roman Catholic Priests in those areas including south america.\n                      <br clear="none"></br>\n                      <br clear="none"></br>\n                      the video has made a good case against Roman Catholicism but not against true Biblical Christianity.\n                    </div>\n                    <div>\n                      __________________\n                      <br clear="none"></br>\n                      Chette\n                      <br clear="none"></br>\n                      <br clear="none"></br>\n                      <i>\n                        <b>Romans 1:16 For I am not ashamed of the gospel of Christ: for it is the power of God unto salvation to every one that believeth;...</b>\n                      </i>\n                    </div>\n                    <div style="margin-top: 10px" align="right"> </div>\n                  </td>\n                </tr>\n              </table>\n              <div style="display:none;" id="postmenu_6887_menu" class="vbmenu_popup">\n                <table border="0" cellspacing="1" cellpadding="4">\n                  <tr>\n                    <td class="thead" rowspan="1" colspan="1">chette777</td>\n                  </tr>\n                  <tr>\n                    <td class="vbmenu_option" rowspan="1" colspan="1">\n                      <a href="member.php?s=63559e5f4759d5613a861719a1a8081b&amp;u=67" shape="rect">View Public Profile</a>\n                    </td>\n                  </tr>\n                  <tr>\n                    <td class="vbmenu_option" rowspan="1" colspan="1">\n                      <a href="http://www.churchofthelastfrontier.com/" shape="rect">Visit chette777\'s homepage!</a>\n                    </td>\n                  </tr>\n                  <tr>\n                    <td class="vbmenu_option" rowspan="1" colspan="1">\n                      <a rel="nofollow" href="search.php?s=63559e5f4759d5613a861719a1a8081b&amp;do=finduser&amp;u=67" shape="rect">Find all posts by chette777</a>\n                    </td>\n                  </tr>\n                </table>\n              </div>\n            </div>\n          </div>\n        </div>\n      </div>\n      <div align="center">\n        <div style="width:80%; text-align:left" class="page">\n          <div style="padding:0px 25px 0px 25px" align="left">\n            <div style="padding:0px 0px 6px 0px" id="edit6888">\n              <table width="100%" border="0" cellspacing="1" cellpadding="6" id="post6888" class="tborder" align="center">\n                <tr>\n                  <td class="thead" rowspan="1" colspan="1">\n                    <div style="float:right" class="normal">\n                      \xc2\xa0\n\t\t\t#\n                      <a name="7" rel="nofollow" target="new" href="showpost.php?s=63559e5f4759d5613a861719a1a8081b&amp;p=6888&amp;postcount=7" id="postcount6888" shape="rect">\n                        <strong>7</strong>\n                      </a>\n                      \xc2\xa0\n                    </div>\n                    <div class="normal">\n                      <a name="post6888" shape="rect">\n                        <img border="0" alt="Old" src="styles/redcarbon/statusicon/post_old.gif" class="inlineimg"></img>\n                      </a>\n                      08-19-2008, 09:10 PM\n                    </div>\n                  </td>\n                </tr>\n                <tr>\n                  <td style="padding:0px" class="alt2" rowspan="1" colspan="1">\n                    <table width="100%" border="0" cellspacing="6" cellpadding="0">\n                      <tr>\n                        <td class="alt2" rowspan="1" colspan="1">\n                          <a href="member.php?s=63559e5f4759d5613a861719a1a8081b&amp;u=226" shape="rect">\n                            <img border="0" alt="stephanos\'s Avatar" height="80" width="80" src="customavatars/avatar226_1.gif"></img>\n                          </a>\n                        </td>\n                        <td rowspan="1" nowrap="nowrap" colspan="1">\n                          <div id="postmenu_6888">\n                            <a href="member.php?s=63559e5f4759d5613a861719a1a8081b&amp;u=226" class="bigusername" shape="rect">stephanos</a>\n                            <img border="0" alt="stephanos is offline" src="styles/redcarbon/statusicon/user_offline.gif" class="inlineimg"></img>\n                            <script type="text/javascript"> vbmenu_register(&quot;postmenu_6888&quot;, true); </script>\n                          </div>\n                        </td>\n                        <td width="100%" rowspan="1" colspan="1">\xc2\xa0</td>\n                        <td valign="top" rowspan="1" nowrap="nowrap" colspan="1">\n                          <div class="smallfont">\n                            <div>Join Date: May 2008</div>\n                            <div>Location: Wenatchee WA</div>\n                            <div> Posts: 906 </div>\n                            <div> </div>\n                          </div>\n                        </td>\n                      </tr>\n                    </table>\n                  </td>\n                </tr>\n                <tr>\n                  <td id="td_post_6888" class="alt1" rowspan="1" colspan="1">\n                    <div class="smallfont">\n                      <img border="0" alt="Default" src="images/icons/icon1.gif" class="inlineimg"></img>\n                    </div>\n                    <hr style="color:#e5e5e5; background-color:#e5e5e5" size="1"></hr>\n                    <div id="post_message_6888">\n                      Is that stuff straight out of wikipedia? There is a lot more to them than that. Anywho, my point of the video was to show that some of them are ex Christians who now think Christianity is pagan. Orthodox Judaism has a seductive spirit about it, and I sure wish someone with the knowledge would counter these wannabe jews (the Hebrew Roots Movement folks) as well as the real jews who doubt Christ (although Dr. Brown at\n                      <a target="_blank" href="http://www.realmessiah.com/answers.htm" shape="rect">http://www.realmessiah.com/answers.htm</a>\n                      does a real good job at that.\n                      <br clear="none"></br>\n                      <br clear="none"></br>\n                      Anywho, I know well enough the influence the Papists have had on the faith which was once delivered unto the saints, I am Anabaptist after all. I guess what my point is is that it would be good to see Christians doing battle with these principalities of darkness instead of preaching to the choir. These guys on youtube are putting out video after video while we just keep to ourselves. Maybe someday, Lord willing, I\'ll have the knowledge needed to speak with these folks like Dr. Brown does (His debate with Rabbi Tovia Singer was really good).\n                      <br clear="none"></br>\n                      <br clear="none"></br>\n                      Much Love in Christ Jesus,\n                      <br clear="none"></br>\n                      Stephen\n                    </div>\n                    <div>\n                      __________________\n                      <br clear="none"></br>\n                      <b>\n                        <font color="DarkOliveGreen">\n                          Behold, God is my salvation; I will trust, and not be afraid: for the LORD JEHOVAH is my strength and my song; he also is become my salvation. (Isaiah 12:2)\n                          <br clear="none"></br>\n                          <br clear="none"></br>\n                          As for me, I will behold thy face in righteousness: I shall be satisfied, when I awake, with thy likeness. (Psalms 17:15)\n                        </font>\n                      </b>\n                    </div>\n                    <div style="margin-top: 10px" align="right"> </div>\n                  </td>\n                </tr>\n              </table>\n              <div style="display:none;" id="postmenu_6888_menu" class="vbmenu_popup">\n                <table border="0" cellspacing="1" cellpadding="4">\n                  <tr>\n                    <td class="thead" rowspan="1" colspan="1">stephanos</td>\n                  </tr>\n                  <tr>\n                    <td class="vbmenu_option" rowspan="1" colspan="1">\n                      <a href="member.php?s=63559e5f4759d5613a861719a1a8081b&amp;u=226" shape="rect">View Public Profile</a>\n                    </td>\n                  </tr>\n                  <tr>\n                    <td class="vbmenu_option" rowspan="1" colspan="1">\n                      <a rel="nofollow" href="search.php?s=63559e5f4759d5613a861719a1a8081b&amp;do=finduser&amp;u=226" shape="rect">Find all posts by stephanos</a>\n                    </td>\n                  </tr>\n                </table>\n              </div>\n            </div>\n          </div>\n        </div>\n      </div>\n      <div align="center">\n        <div style="width:80%; text-align:left" class="page">\n          <div style="padding:0px 25px 0px 25px" align="left">\n            <div style="padding:0px 0px 6px 0px" id="edit6892">\n              <table width="100%" border="0" cellspacing="1" cellpadding="6" id="post6892" class="tborder" align="center">\n                <tr>\n                  <td class="thead" rowspan="1" colspan="1">\n                    <div style="float:right" class="normal">\n                      \xc2\xa0\n\t\t\t#\n                      <a name="8" rel="nofollow" target="new" href="showpost.php?s=63559e5f4759d5613a861719a1a8081b&amp;p=6892&amp;postcount=8" id="postcount6892" shape="rect">\n                        <strong>8</strong>\n                      </a>\n                      \xc2\xa0\n                    </div>\n                    <div class="normal">\n                      <a name="post6892" shape="rect">\n                        <img border="0" alt="Old" src="styles/redcarbon/statusicon/post_old.gif" class="inlineimg"></img>\n                      </a>\n                      08-20-2008, 12:22 AM\n                    </div>\n                  </td>\n                </tr>\n                <tr>\n                  <td style="padding:0px" class="alt2" rowspan="1" colspan="1">\n                    <table width="100%" border="0" cellspacing="6" cellpadding="0">\n                      <tr>\n                        <td class="alt2" rowspan="1" colspan="1">\n                          <a href="member.php?s=63559e5f4759d5613a861719a1a8081b&amp;u=67" shape="rect">\n                            <img border="0" alt="chette777\'s Avatar" height="80" width="53" src="customavatars/avatar67_1.gif"></img>\n                          </a>\n                        </td>\n                        <td rowspan="1" nowrap="nowrap" colspan="1">\n                          <div id="postmenu_6892">\n                            <a href="member.php?s=63559e5f4759d5613a861719a1a8081b&amp;u=67" class="bigusername" shape="rect">chette777</a>\n                            <img border="0" alt="chette777 is offline" src="styles/redcarbon/statusicon/user_offline.gif" class="inlineimg"></img>\n                            <script type="text/javascript"> vbmenu_register(&quot;postmenu_6892&quot;, true); </script>\n                          </div>\n                        </td>\n                        <td width="100%" rowspan="1" colspan="1">\xc2\xa0</td>\n                        <td valign="top" rowspan="1" nowrap="nowrap" colspan="1">\n                          <div class="smallfont">\n                            <div>Join Date: Feb 2008</div>\n                            <div>Location: Puerto Princesa City, Palawan Philippines</div>\n                            <div> Posts: 1,434 </div>\n                            <div> </div>\n                          </div>\n                        </td>\n                      </tr>\n                    </table>\n                  </td>\n                </tr>\n                <tr>\n                  <td id="td_post_6892" class="alt1" rowspan="1" colspan="1">\n                    <div class="smallfont">\n                      <img border="0" alt="Default" src="images/icons/icon1.gif" class="inlineimg"></img>\n                    </div>\n                    <hr style="color:#e5e5e5; background-color:#e5e5e5" size="1"></hr>\n                    <div id="post_message_6892">\n                      some of the suff is but the rest is from the a simple jew web site.\n                      <br clear="none"></br>\n                      <br clear="none"></br>\n                      regardless it is better to give some info about it so people can see what it is without having to web search.\n                      <br clear="none"></br>\n                      <br clear="none"></br>\n                      I\'ll hold my tongue on your Anabaptist statement.\n                    </div>\n                    <div>\n                      __________________\n                      <br clear="none"></br>\n                      Chette\n                      <br clear="none"></br>\n                      <br clear="none"></br>\n                      <i>\n                        <b>Romans 1:16 For I am not ashamed of the gospel of Christ: for it is the power of God unto salvation to every one that believeth;...</b>\n                      </i>\n                    </div>\n                    <div style="margin-top: 10px" align="right"> </div>\n                  </td>\n                </tr>\n              </table>\n              <div style="display:none;" id="postmenu_6892_menu" class="vbmenu_popup">\n                <table border="0" cellspacing="1" cellpadding="4">\n                  <tr>\n                    <td class="thead" rowspan="1" colspan="1">chette777</td>\n                  </tr>\n                  <tr>\n                    <td class="vbmenu_option" rowspan="1" colspan="1">\n                      <a href="member.php?s=63559e5f4759d5613a861719a1a8081b&amp;u=67" shape="rect">View Public Profile</a>\n                    </td>\n                  </tr>\n                  <tr>\n                    <td class="vbmenu_option" rowspan="1" colspan="1">\n                      <a href="http://www.churchofthelastfrontier.com/" shape="rect">Visit chette777\'s homepage!</a>\n                    </td>\n                  </tr>\n                  <tr>\n                    <td class="vbmenu_option" rowspan="1" colspan="1">\n                      <a rel="nofollow" href="search.php?s=63559e5f4759d5613a861719a1a8081b&amp;do=finduser&amp;u=67" shape="rect">Find all posts by chette777</a>\n                    </td>\n                  </tr>\n                </table>\n              </div>\n            </div>\n          </div>\n        </div>\n      </div>\n      <div id="lastpost"></div>\n    </div>\n    <div align="center">\n      <div style="width:80%; text-align:left" class="page">\n        <div style="padding:0px 25px 0px 25px" align="left">\n          <table style="margin-top:-3px" width="100%" border="0" cellspacing="0" cellpadding="0">\n            <tr valign="top">\n              <td class="smallfont" rowspan="1" colspan="1">\xc2\xa0</td>\n            </tr>\n          </table>\n          <br clear="none"></br>\n          <div class="smallfont" align="center">\n            <strong>\xc2\xab</strong>\n            <a rel="nofollow" href="showthread.php?s=63559e5f4759d5613a861719a1a8081b&amp;t=414&amp;goto=nextoldest" shape="rect">Previous Thread</a>\n            |\n            <a rel="nofollow" href="showthread.php?s=63559e5f4759d5613a861719a1a8081b&amp;t=414&amp;goto=nextnewest" shape="rect">Next Thread</a>\n            <strong>\xc2\xbb</strong>\n          </div>\n          <table style="border-top-width:0px" width="100%" border="0" cellspacing="1" cellpadding="6" class="tborder" align="center">\n            <tr>\n              <td class="thead" rowspan="1" colspan="2">\n                Thread Tools\n                <a name="goto_threadtools" shape="rect"></a>\n              </td>\n            </tr>\n            <tr valign="top">\n              <td class="alt1" rowspan="1" colspan="2">\n                <div class="smallfont">\n                  <div>\n                    <img vspace="1" alt="Show Printable Version" src="styles/redcarbon/buttons/printer.gif" class="inlineimg"></img>\n                    <a rel="nofollow" href="printthread.php?s=63559e5f4759d5613a861719a1a8081b&amp;t=414" shape="rect">Show Printable Version</a>\n                  </div>\n                  <div>\n                    <img vspace="1" alt="Email this Page" src="styles/redcarbon/buttons/sendtofriend.gif" class="inlineimg"></img>\n                    <a rel="nofollow" href="sendmessage.php?s=63559e5f4759d5613a861719a1a8081b&amp;do=sendtofriend&amp;t=414" shape="rect">Email this Page</a>\n                  </div>\n                </div>\n              </td>\n            </tr>\n            <tr>\n              <td class="thead" rowspan="1" colspan="2">\n                Display Modes\n                <a name="goto_displaymodes" shape="rect"></a>\n              </td>\n            </tr>\n            <tr valign="top">\n              <td class="alt2" rowspan="1" colspan="2">\n                <div class="smallfont">\n                  <div>\n                    <img vspace="1" alt="Linear Mode" src="styles/redcarbon/buttons/mode_linear.gif" class="inlineimg"></img>\n                    <strong>Linear Mode</strong>\n                  </div>\n                  <div>\n                    <img vspace="1" alt="Hybrid Mode" src="styles/redcarbon/buttons/mode_hybrid.gif" class="inlineimg"></img>\n                    <a href="showthread.php?s=63559e5f4759d5613a861719a1a8081b&amp;mode=hybrid&amp;t=414" shape="rect">Switch to Hybrid Mode</a>\n                  </div>\n                  <div>\n                    <img vspace="1" alt="Threaded Mode" src="styles/redcarbon/buttons/mode_threaded.gif" class="inlineimg"></img>\n                    <a href="showthread.php?s=63559e5f4759d5613a861719a1a8081b&amp;p=6866&amp;mode=threaded#post6866" shape="rect">Switch to Threaded Mode</a>\n                  </div>\n                </div>\n              </td>\n            </tr>\n          </table>\n          <br clear="none"></br>\n          <table width="100%" border="0" cellspacing="0" cellpadding="0" align="center">\n            <tr valign="bottom">\n              <td width="100%" valign="top" rowspan="1" colspan="1">\n                <table width="210" border="0" cellspacing="1" cellpadding="6" class="tborder">\n                  <thead>\n                    <tr>\n                      <td class="thead" rowspan="1" colspan="1">\n                        <a onclick="return toggle_collapse(\'forumrules\')" href="#top" style="float:right" shape="rect">\n                          <img border="0" alt="" src="styles/redcarbon/buttons/collapse_thead.gif" id="collapseimg_forumrules"></img>\n                        </a>\n                        Posting Rules\n                      </td>\n                    </tr>\n                  </thead>\n                  <tbody style="" id="collapseobj_forumrules">\n                    <tr>\n                      <td class="alt1" rowspan="1" nowrap="nowrap" colspan="1">\n                        <div class="smallfont">\n                          <div>\n                            You\n                            <strong>may not</strong>\n                            post new threads\n                          </div>\n                          <div>\n                            You\n                            <strong>may not</strong>\n                            post replies\n                          </div>\n                          <div>\n                            You\n                            <strong>may not</strong>\n                            post attachments\n                          </div>\n                          <div>\n                            You\n                            <strong>may not</strong>\n                            edit your posts\n                          </div>\n                          <hr></hr>\n                          <div>\n                            <a target="_blank" href="misc.php?s=63559e5f4759d5613a861719a1a8081b&amp;do=bbcode" shape="rect">BB code</a>\n                            is\n                            <strong>On</strong>\n                          </div>\n                          <div>\n                            <a target="_blank" href="misc.php?s=63559e5f4759d5613a861719a1a8081b&amp;do=showsmilies" shape="rect">Smilies</a>\n                            are\n                            <strong>On</strong>\n                          </div>\n                          <div>\n                            <a target="_blank" href="misc.php?s=63559e5f4759d5613a861719a1a8081b&amp;do=bbcode#imgcode" shape="rect">[IMG]</a>\n                            code is\n                            <strong>On</strong>\n                          </div>\n                          <div>\n                            HTML code is\n                            <strong>Off</strong>\n                          </div>\n                          <hr></hr>\n                          <div>\n                            <a target="_blank" href="misc.php?s=63559e5f4759d5613a861719a1a8081b&amp;do=showrules" shape="rect">Forum Rules</a>\n                          </div>\n                        </div>\n                      </td>\n                    </tr>\n                  </tbody>\n                </table>\n              </td>\n              <td class="smallfont" rowspan="1" colspan="1" align="right">\n                <table border="0" cellspacing="0" cellpadding="0">\n                  <tr>\n                    <td rowspan="1" colspan="1">\n                      <div style="text-align:left; white-space:nowrap" class="smallfont">\n                        <form action="forumdisplay.php" method="get" enctype="application/x-www-form-urlencoded">\n                          <input value="63559e5f4759d5613a861719a1a8081b" name="s" type="hidden"></input>\n                          <input value="" name="daysprune" type="hidden"></input>\n                          <strong>Forum Jump</strong>\n                          <br clear="none"></br>\n                          <select onchange="this.form.submit();" name="f">\n                            <optgroup label="Site Areas">\n                              <option value="cp">User Control Panel</option>\n                              <option value="pm">Private Messages</option>\n                              <option value="subs">Subscriptions</option>\n                              <option value="wol">Who\'s Online</option>\n                              <option value="search">Search Forums</option>\n                              <option value="home">Forums Home</option>\n                            </optgroup>\n                            <optgroup label="Forums">\n                              <option value="3" class="fjdpth0"> Bible Versions</option>\n                              <option value="7" class="fjdpth0"> Bible Studies</option>\n                              <option value="4" class="fjdpth0"> Doctrine</option>\n                              <option value="5" class="fjsel" selected="selected"> Current Events</option>\n                              <option value="10" class="fjdpth0"> Missions Support</option>\n                              <option value="8" class="fjdpth0"> General Chit-Chat</option>\n                              <option value="6" class="fjdpth0"> Prayer Requests</option>\n                            </optgroup>\n                          </select>\n                          <input value="Go" class="button" type="submit"></input>\n                        </form>\n                      </div>\n                    </td>\n                  </tr>\n                </table>\n              </td>\n            </tr>\n          </table>\n          <br clear="none"></br>\n          <br clear="none"></br>\n          <div class="smallfont" align="center">\n            All times are GMT -6. The time now is\n            <span class="time">12:35 PM</span>\n            .\n          </div>\n          <br clear="none"></br>\n        </div>\n      </div>\n    </div>\n    <form action="index.php" method="get" enctype="application/x-www-form-urlencoded">\n      <table width="80%" border="0" cellspacing="0" cellpadding="6" class="page" align="center">\n        <tr>\n          <td width="100%" class="tfoot" rowspan="1" colspan="1" align="right">\n            <div class="smallfont">\n              <strong>\n                <a accesskey="9" rel="nofollow" href="http://av1611.com/kjbp/contact.html?s=63559e5f4759d5613a861719a1a8081b" shape="rect">Contact Us</a>\n                -\n                <a href="http://av1611.com" shape="rect">AV1611.Com</a>\n                -\n                <a onclick="self.scrollTo(0, 0); return false;" href="#top" shape="rect">Top</a>\n              </strong>\n            </div>\n          </td>\n        </tr>\n      </table>\n      <br clear="none"></br>\n      <div align="center">\n        <div class="smallfont" align="center">\n          Powered by vBulletin\xc2\xae Version 3.8.7\n          <br clear="none"></br>\n          Copyright \xc2\xa92000 - 2012, vBulletin Solutions, Inc.\n        </div>\n        <div class="smallfont" align="center">\n          <img border="0" height="1" width="1" alt="" src="http://av1611.com/forums/cron.php?s=63559e5f4759d5613a861719a1a8081b&amp;rand=1349202900"></img>\n          <p align="center">\n            Website \xc2\xa9 AV1611.Com.\n            <br clear="none"></br>\n            Posts represent only the opinions of users of this forum and do not necessarily represent the opinions of the webmaster.\n          </p>\n          <p align="center">\n            <a href="http://www.swordsearcher.com" shape="rect">\n              <img border="0" alt="Software for Believing Bible Study" src="/kjbp/images/ss-zoomanim-forum.gif" align="middle"></img>\n            </a>\n            \xc2\xa0\xc2\xa0\n            <a target="_BLANK" href="http://FundamentalTop500.com/" shape="rect">\n              <img alt="The Fundamental Top 500" border="0" width="124" height="38" src="http://FundamentalTop500.com/ft500.php3?sid=666" align="middle"></img>\n            </a>\n          </p>\n        </div>\n      </div>\n    </form>\n    <script type="text/javascript"> &lt;!-- // Main vBulletin Javascript Initialization vBulletin_init(); //--&gt; </script>\n    <script src="http://av1611.com/verseclick/verseclick.js" type="text/javascript"></script>\n    <div style="display:none"> </div>\n  </body>\n</html>'
p11
sbsS'mentions'
p12
(lp13
(iedu.umass.cs.iesl.wikilink.expanded.data.ttypes
Mention
p14
(dp15
S'anchor_text'
p16
S'Hebrew'
p17
sS'context'
p18
(iedu.umass.cs.iesl.wikilink.expanded.data.ttypes
Context
p19
(dp20
S'middle'
p21
S'Hebrew'
p22
sS'right'
p23
S': \xd7\xa0 \xd7\xa0\xd7\x97 \xd7\xa0\xd7\x97\xd7\x9e \xd7\xa0\xd7\x97\xd7\x9e\xd7\x9f \xd7\x9e\xd7\x90\xd7\x95\xd7\x9e\xd7\x9f ) is a Hebrew language mantra used by some sub-groups of the Breslov group of Hasidic Jews . The'
p24
sS'left'
p25
S'is a break away group of rebelious teens that have their own sect. But their web page is down. Na Nach Nachma Nachman Meuman ('
p26
sbsS'freebase_id'
p27
S'9202a8c04000641f800000000001be35'
p28
sS'raw_text_offset'
p29
I18841
sS'wiki_url'
p30
S'http://en.wikipedia.org/wiki/Hebrew_language'
p31
sba(iedu.umass.cs.iesl.wikilink.expanded.data.ttypes
Mention
p32
(dp33
g16
S'Hebrew language'
p34
sg18
(iedu.umass.cs.iesl.wikilink.expanded.data.ttypes
Context
p35
(dp36
g21
S'Hebrew language'
p37
sg23
S"mantra used by some sub-groups of the Breslov group of Hasidic Jews . The complete phrase is Na Nach Nachma Nachman Me'uman. It is a"
p38
sg25
S'their own sect. But their web page is down. Na Nach Nachma Nachman Meuman ( Hebrew : \xd7\xa0 \xd7\xa0\xd7\x97 \xd7\xa0\xd7\x97\xd7\x9e \xd7\xa0\xd7\x97\xd7\x9e\xd7\x9f \xd7\x9e\xd7\x90\xd7\x95\xd7\x9e\xd7\x9f ) is a'
p39
sbsg27
S'9202a8c04000641f800000000001be35'
p40
sg29
I19047
sg30
S'http://en.wikipedia.org/wiki/Hebrew_language'
p41
sba(iedu.umass.cs.iesl.wikilink.expanded.data.ttypes
Mention
p42
(dp43
g16
S'mantra'
p44
sg18
(iedu.umass.cs.iesl.wikilink.expanded.data.ttypes
Context
p45
(dp46
g21
S'mantra'
p47
sg23
S"used by some sub-groups of the Breslov group of Hasidic Jews . The complete phrase is Na Nach Nachma Nachman Me'uman. It is a sound-poem"
p48
sg25
S'sect. But their web page is down. Na Nach Nachma Nachman Meuman ( Hebrew : \xd7\xa0 \xd7\xa0\xd7\x97 \xd7\xa0\xd7\x97\xd7\x9e \xd7\xa0\xd7\x97\xd7\x9e\xd7\x9f \xd7\x9e\xd7\x90\xd7\x95\xd7\x9e\xd7\x9f ) is a Hebrew language'
p49
sbsg27
S'9202a8c04000641f8000000000158524'
p50
sg29
I19129
sg30
S'http://en.wikipedia.org/wiki/Mantra'
p51
sba(iedu.umass.cs.iesl.wikilink.expanded.data.ttypes
Mention
p52
(dp53
g16
S'Breslov'
p54
sg18
(iedu.umass.cs.iesl.wikilink.expanded.data.ttypes
Context
p55
(dp56
g21
S'Breslov'
p57
sg23
S"group of Hasidic Jews . The complete phrase is Na Nach Nachma Nachman Me'uman. It is a sound-poem based on the four Hebrew letters of"
p58
sg25
S'Na Nach Nachma Nachman Meuman ( Hebrew : \xd7\xa0 \xd7\xa0\xd7\x97 \xd7\xa0\xd7\x97\xd7\x9e \xd7\xa0\xd7\x97\xd7\x9e\xd7\x9f \xd7\x9e\xd7\x90\xd7\x95\xd7\x9e\xd7\x9f ) is a Hebrew language mantra used by some sub-groups of the'
p59
sbsg27
S'9202a8c04000641f80000000001c29f0'
p60
sg29
I19252
sg30
S'http://en.wikipedia.org/wiki/Breslov_(Hasidic_dynasty)'
p61
sba(iedu.umass.cs.iesl.wikilink.expanded.data.ttypes
Mention
p62
(dp63
g16
S'Hasidic Jews'
p64
sg18
(iedu.umass.cs.iesl.wikilink.expanded.data.ttypes
Context
p65
(dp66
g21
S'Hasidic Jews'
p67
sg23
S". The complete phrase is Na Nach Nachma Nachman Me'uman. It is a sound-poem based on the four Hebrew letters of the name Nachman, referring"
p68
sg25
S'Nachman Meuman ( Hebrew : \xd7\xa0 \xd7\xa0\xd7\x97 \xd7\xa0\xd7\x97\xd7\x9e \xd7\xa0\xd7\x97\xd7\x9e\xd7\x9f \xd7\x9e\xd7\x90\xd7\x95\xd7\x9e\xd7\x9f ) is a Hebrew language mantra used by some sub-groups of the Breslov group of'
p69
sbsg27
S'9202a8c04000641f800000000001dcdb'
p70
sg29
I19341
sg30
S'http://en.wikipedia.org/wiki/Hasidic_Jews'
p71
sba(iedu.umass.cs.iesl.wikilink.expanded.data.ttypes
Mention
p72
(dp73
g16
S'Rabbi Nachman of Breslov'
p74
sg18
(iedu.umass.cs.iesl.wikilink.expanded.data.ttypes
Context
p75
(dp76
g21
S'Rabbi Nachman of Breslov'
p77
sg23
S', along with a reference to his burial place in Uman, Ukraine . Contents [ hide ] <LI class=toclevel-1> 1 History of the mantra <LI'
p78
sg25
S"Nachma Nachman Me'uman. It is a sound-poem based on the four Hebrew letters of the name Nachman, referring to the founder of the Breslov movement,"
p79
sbsg27
S'9202a8c04000641f80000000001c4d68'
p80
sg29
I19744
sg30
S'http://en.wikipedia.org/wiki/Rabbi_Nachman_of_Breslov'
p81
sba(iedu.umass.cs.iesl.wikilink.expanded.data.ttypes
Mention
p82
(dp83
g16
S'Uman, Ukraine'
p84
sg18
(iedu.umass.cs.iesl.wikilink.expanded.data.ttypes
Context
p85
(dp86
g21
S'Uman, Ukraine'
p87
sg23
S'. Contents [ hide ] <LI class=toclevel-1> 1 History of the mantra <LI class=toclevel-1> 2 Pronunciation and meaning of the phrase <LI class=toclevel-1> 3 Controversies'
p88
sg25
S'the name Nachman, referring to the founder of the Breslov movement, Rabbi Nachman of Breslov , along with a reference to his burial place in'
p89
sbsg27
S'9202a8c04000641f8000000000681ce5'
p90
sg29
I19889
sg30
S'http://en.wikipedia.org/wiki/Uman,_Ukraine'
p91
sba(iedu.umass.cs.iesl.wikilink.expanded.data.ttypes
Mention
p92
(dp93
g16
S'meditation'
p94
sg18
(iedu.umass.cs.iesl.wikilink.expanded.data.ttypes
Context
p95
(dp96
g21
S'meditation'
p97
sg23
S'(Likutei Moharan Tinyana #96). His own personal mantra was Ribono shel Olam (Master of the Universe) which he pronounced with the Yiddish intonation as: Ree-BOY-noy'
p98
sg25
S'use it, and it was unknown in his day. However, he did say that repeating one word over and over was an effective form of'
p99
sbsg27
S'9202a8c04000641f80000000000284f2'
p100
sg29
I21736
sg30
S'http://en.wikipedia.org/wiki/Meditation'
p101
sba(iedu.umass.cs.iesl.wikilink.expanded.data.ttypes
Mention
p102
(dp103
g16
S'Yiddish'
p104
sg18
(iedu.umass.cs.iesl.wikilink.expanded.data.ttypes
Context
p105
(dp106
g21
S'Yiddish'
p107
sg23
S'intonation as: Ree-BOY-noy shell OY-lahm. Many Breslover Hasidim today still prefer this mantra. The Na Nach Nachma phrase was "revealed" and taught by Rabbi Yisroel'
p108
sg25
S'effective form of meditation (Likutei Moharan Tinyana #96). His own personal mantra was Ribono shel Olam (Master of the Universe) which he pronounced with the'
p109
sbsg27
S'9202a8c04000641f8000000000042015'
p110
sg29
I21958
sg30
S'http://en.wikipedia.org/wiki/Yiddish'
p111
sba(iedu.umass.cs.iesl.wikilink.expanded.data.ttypes
Mention
p112
(dp113
g16
S'Yisroel Ber Odesser'
p114
sg18
(iedu.umass.cs.iesl.wikilink.expanded.data.ttypes
Context
p115
(dp116
g21
S'Yisroel Ber Odesser'
p117
sg23
S', a controversial Breslov figure in the 20th century. Odesser was born in 1895 in Tiberias, Israel . He was among the first Breslover Hasidim'
p118
sg25
S'Yiddish intonation as: Ree-BOY-noy shell OY-lahm. Many Breslover Hasidim today still prefer this mantra. The Na Nach Nachma phrase was "revealed" and taught by Rabbi'
p119
sbsg27
S'9202a8c04000641f8000000000719989'
p120
sg29
I22233
sg30
S'http://en.wikipedia.org/wiki/Yisroel_Ber_Odesser'
p121
sba(iedu.umass.cs.iesl.wikilink.expanded.data.ttypes
Mention
p122
(dp123
g16
S'Tiberias, Israel'
p124
sg18
(iedu.umass.cs.iesl.wikilink.expanded.data.ttypes
Context
p125
(dp126
g21
S'Tiberias, Israel'
p127
sg23
S'. He was among the first Breslover Hasidim in Israel, having learned about the movement from Rabbi Yisroel Halpern when he was a young yeshiva'
p128
sg25
S'phrase was "revealed" and taught by Rabbi Yisroel Ber Odesser , a controversial Breslov figure in the 20th century. Odesser was born in 1895 in'
p129
sbsg27
S'9202a8c04000641f8000000000091ebf'
p130
sg29
I22410
sg30
S'http://en.wikipedia.org/wiki/Tiberias,_Israel'
p131
sba(iedu.umass.cs.iesl.wikilink.expanded.data.ttypes
Mention
p132
(dp133
g16
S'Yisroel Halpern'
p134
sg18
(iedu.umass.cs.iesl.wikilink.expanded.data.ttypes
Context
p135
(dp136
g21
S'Yisroel Halpern'
p137
sg23
S"when he was a young yeshiva student. Odesser's parents, who were Karliner Hasidim, strongly opposed his joining the Breslov movement, and worked hard to discourage"
p138
sg25
S'Odesser was born in 1895 in Tiberias, Israel . He was among the first Breslover Hasidim in Israel, having learned about the movement from Rabbi'
p139
sbsg27
S'9202a8c04000641f800000000071b942'
p140
sg29
I22600
sg30
S'http://en.wikipedia.org/wiki/Yisroel_Halpern'
p141
sba(iedu.umass.cs.iesl.wikilink.expanded.data.ttypes
Mention
p142
(dp143
g16
S'Fast of Tammuz'
p144
sg18
(iedu.umass.cs.iesl.wikilink.expanded.data.ttypes
Context
p145
(dp146
g21
S'Fast of Tammuz'
p147
sg23
S'. He decided to eat. But immediately after eating, he felt great sorrow at having succumbed to his own physical temptations. After five continuous days'
p148
sg25
S'many hardships, but he remained steadfast to the Breslov way. When he was 26 years old, Odesser was overcome with weakness and hunger on the'
p149
sbsg27
S'9202a8c04000641f80000000002edc04'
p150
sg29
I23117
sg30
S'http://en.wikipedia.org/wiki/Fast_of_Tammuz'
p151
sba(iedu.umass.cs.iesl.wikilink.expanded.data.ttypes
Mention
p152
(dp153
g16
S'Jewish Messiah'
p154
sg18
(iedu.umass.cs.iesl.wikilink.expanded.data.ttypes
Context
p155
(dp156
g21
S'Jewish Messiah'
p157
sg23
S'. This song would be in a "single, double, triple, quadruple" form. (Likutei Moharan II, #8). The Na Nach Nachma phrase has such a structure'
p158
sg25
S'and meaning of the phrase During his lifetime, Rebbe Nachman spoke of a "Song of Redemption" that would be revealed before the coming of the'
p159
sbsg27
S'9202a8c04000641f800000000014e552'
p160
sg29
I24961
sg30
S'http://en.wikipedia.org/wiki/Jewish_Messiah'
p161
sba(iedu.umass.cs.iesl.wikilink.expanded.data.ttypes
Mention
p162
(dp163
g16
S'Yiddish'
p164
sg18
(iedu.umass.cs.iesl.wikilink.expanded.data.ttypes
Context
p165
(dp166
g21
S'Yiddish'
p167
sg23
S'and German have also noted that na nach can mean "now to," which would loosely translate the phrase as "Now to Nachman from Uman," that'
p168
sg25
S'and a guttural KH sound as in German "ach." It is usually accented as follows: Nah -nakh- nakh mah- nakh man-meh-oo- mahn . Speakers of'
p169
sbsg27
S'9202a8c04000641f8000000000042015'
p170
sg29
I26142
sg30
S'http://en.wikipedia.org/wiki/Yiddish'
p171
sba(iedu.umass.cs.iesl.wikilink.expanded.data.ttypes
Mention
p172
(dp173
g16
S'German'
p174
sg18
(iedu.umass.cs.iesl.wikilink.expanded.data.ttypes
Context
p175
(dp176
g21
S'German'
p177
sg23
S'have also noted that na nach can mean "now to," which would loosely translate the phrase as "Now to Nachman from Uman," that is, traveling'
p178
sg25
S'guttural KH sound as in German "ach." It is usually accented as follows: Nah -nakh- nakh mah- nakh man-meh-oo- mahn . Speakers of Yiddish and'
p179
sbsg27
S'9202a8c04000641f8000000008301afa'
p180
sg29
I26229
sg30
S'http://en.wikipedia.org/wiki/German_language'
p181
sba(iedu.umass.cs.iesl.wikilink.expanded.data.ttypes
Mention
p182
(dp183
g16
S'Jewish Messiah'
p184
sg18
(iedu.umass.cs.iesl.wikilink.expanded.data.ttypes
Context
p185
(dp186
g21
S'Jewish Messiah'
p187
sg23
S". Odesser's personal account of how he found the Letter has been translated into English under the title The Letter from Heaven: Rebbe Nachman's Song."
p188
sg25
S'followers believed in the miracle also. They continue to this day to chant the phrase as a "Song of Redemption" for the coming of the'
p189
sbsg27
S'9202a8c04000641f800000000014e552'
p190
sg29
I27620
sg30
S'http://en.wikipedia.org/wiki/Jewish_Messiah'
p191
sba(iedu.umass.cs.iesl.wikilink.expanded.data.ttypes
Mention
p192
(dp193
g16
S'millennium'
p194
sg18
(iedu.umass.cs.iesl.wikilink.expanded.data.ttypes
Context
p195
(dp196
g21
S'millennium'
p197
sg23
S'fervor before the Year 2000, the Na Nach Nachma was widely distributed and publicized in Israel, appearing on bumper stickers, billboards, graffiti , etc. It'
p198
sg25
S'mantra, it is now very popular among certain sub-groups of Breslover Hasidim, and has been incorporated into both traditional and contemporary Jewish music. During the'
p199
sbsg27
S'9202a8c04000641f800000000016027a'
p200
sg29
I30107
sg30
S'http://en.wikipedia.org/wiki/Millennium'
p201
sba(iedu.umass.cs.iesl.wikilink.expanded.data.ttypes
Mention
p202
(dp203
g16
S'graffiti'
p204
sg18
(iedu.umass.cs.iesl.wikilink.expanded.data.ttypes
Context
p205
(dp206
g21
S'graffiti'
p207
sg23
S', etc. It has also been used on jewellery and amulets . More recently, some people have begun to wear it on large white knitted'
p208
sg25
S'music. During the millennium fervor before the Year 2000, the Na Nach Nachma was widely distributed and publicized in Israel, appearing on bumper stickers, billboards,'
p209
sbsg27
S'9202a8c04000641f800000000001936f'
p210
sg29
I30332
sg30
S'http://en.wikipedia.org/wiki/Graffiti'
p211
sba(iedu.umass.cs.iesl.wikilink.expanded.data.ttypes
Mention
p212
(dp213
g16
S'Jewish hat'
p214
sg18
(iedu.umass.cs.iesl.wikilink.expanded.data.ttypes
Context
p215
(dp216
g21
S'Jewish hat'
p217
sg23
S'with the ball on top -- hence the tassel.) During the time that Reb Odesser was still alive, some of his followers were already wearing'
p218
sg25
S'are a modification of a traditional white yarmulke that has been worn in Jerusalem for centuries. That style, in turn, apparently evolved from the medieval'
p219
sbsg27
S'9202a8c04000641f80000000006e1c11'
p220
sg29
I30884
sg30
S'http://en.wikipedia.org/wiki/Jewish_hat'
p221
sba(iedu.umass.cs.iesl.wikilink.expanded.data.ttypes
Mention
p222
(dp223
g16
S'kabbalah'
p224
sg18
(iedu.umass.cs.iesl.wikilink.expanded.data.ttypes
Context
p225
(dp226
g21
S'kabbalah'
p227
sg23
S'meditation. Those who chant it are sometimes referred to as "Na-Nachers". Among some groups of Sephardic Jewish youth in Israel, it has become a sort'
p228
sg25
S'now. The mantra continues to be chanted by both Hasidic and non-Hasidic Jews, as well as some non-Jews who use it as a form of'
p229
sbsg27
S'9202a8c04000641f8000000000022739'
p230
sg29
I31368
sg30
S'http://en.wikipedia.org/wiki/Kabbalah'
p231
sba(iedu.umass.cs.iesl.wikilink.expanded.data.ttypes
Mention
p232
(dp233
g16
S'Sephardic'
p234
sg18
(iedu.umass.cs.iesl.wikilink.expanded.data.ttypes
Context
p235
(dp236
g21
S'Sephardic'
p237
sg23
S'Jewish youth in Israel, it has become a sort of rallying cry for returning to traditional Judaism, although not necessarily to mainstream Breslov. __________________ Chette'
p238
sg25
S'some non-Jews who use it as a form of kabbalah meditation. Those who chant it are sometimes referred to as "Na-Nachers". Among some groups of'
p239
sbsg27
S'9202a8c04000641f800000000011a8ee'
p240
sg29
I31551
sg30
S'http://en.wikipedia.org/wiki/Sephardic'
p241
sbasS'doc_id'
p242
I3311632
sS'rare_words'
p243
(lp244
(iedu.umass.cs.iesl.wikilink.expanded.data.ttypes
RareWord
p245
(dp246
S'word'
p247
S'sound'
p248
sS'offset'
p249
I19538
sba(iedu.umass.cs.iesl.wikilink.expanded.data.ttypes
RareWord
p250
(dp251
g247
S'Hysops'
p252
sg249
I42756
sba(iedu.umass.cs.iesl.wikilink.expanded.data.ttypes
RareWord
p253
(dp254
g247
S'felt'
p255
sg249
I23189
sba(iedu.umass.cs.iesl.wikilink.expanded.data.ttypes
RareWord
p256
(dp257
g247
S'decieved'
p258
sg249
I10838
sba(iedu.umass.cs.iesl.wikilink.expanded.data.ttypes
RareWord
p259
(dp260
g247
S'bumper'
p261
sg249
I30239
sba(iedu.umass.cs.iesl.wikilink.expanded.data.ttypes
RareWord
p262
(dp263
g247
S'coincidence'
p264
sg249
I28825
sba(iedu.umass.cs.iesl.wikilink.expanded.data.ttypes
RareWord
p265
(dp266
g247
S'witnesses'
p267
sg249
I42196
sba(iedu.umass.cs.iesl.wikilink.expanded.data.ttypes
RareWord
p268
(dp269
g247
S'thought'
p270
sg249
I23309
sba(iedu.umass.cs.iesl.wikilink.expanded.data.ttypes
RareWord
p271
(dp272
g247
S'money'
p273
sg249
I37319
sba(iedu.umass.cs.iesl.wikilink.expanded.data.ttypes
RareWord
p274
(dp275
g247
S'fortune'
p276
sg249
I37308
sbasb.