(iedu.umass.cs.iesl.wikilink.expanded.data.ttypes
WikiLinkItem
p0
(dp1
S'url'
p2
S'http://activerain.com/blogsview/2304202/mckenzie-river-frontage-anyone-42073-deerhorn-rd-springfield-or-97477'
p3
sS'content'
p4
(iedu.umass.cs.iesl.wikilink.expanded.data.ttypes
PageContentItem
p5
(dp6
S'articleText'
p7
NsS'raw'
p8
NsS'fullText'
p9
NsS'dom'
p10
S'<html>\n  <head>\n    <title>McKenzie River Frontage anyone? 42073 Deerhorn Rd Springfield, OR 97477</title>\n    <script>\n      (function() {\n    var cx = \'016474116467456296202:zcdp2tq_pxi\'\n    var gcse = document.createElement(\'script\'); gcse.type = \'text/javascript\'; gcse.async = true;\n    gcse.src = (document.location.protocol == \'https:\' ? \'https:\' : \'http:\') +\n        \'//www.google.com/cse/cse.js?cx=\' + cx;\n    var s = document.getElementsByTagName(\'script\')[0]; s.parentNode.insertBefore(gcse, s);\n  })();\n    </script>\n    <script charset="utf-8" type="text/javascript">\n      if (top != self ) {\n  var frame_whitelist = [document.location.hostname];\n  var frame_i;\n  var frame_test = frame_whitelist.length;\n  var frame_safe = false;\n  for (frame_i=0; frame_i &lt; frame_test ; frame_i++) {\n    if (document.referrer.indexOf(frame_whitelist[frame_i]) != -1 ) {\n      frame_safe = true;\n    }\n  }\n  if (frame_safe === false) {\n    top.location.replace(document.location);\n  } else {\n    document.write(&quot;&lt;link rel=\'stylesheet\' href=\'/stylesheets/tempest_scroll_bars.css\'&gt;&quot;)\n  }\n}\n    </script>\n    <meta \n    content="McKenzie River Frontage anyone? 42073 Deerhorn Rd Springfield, OR 97477 is for you!&amp;nbsp; You are going to love living on this stretch of the beautiful McKenzie River. The home is privately located at the end of a&amp;nbsp; road next to the McKenzie River and walking distance to the McKenzie River Golf, " name="description">\n</meta>\n    <meta content="http://activerain.com/blogsview/2304202/mckenzie-river-frontage-anyone-42073-deerhorn-rd-springfield-or-97477" property="og:url"></meta>\n    <meta content="http://activerain.com/system/s3_buckets/activerain-image-store-2/agents/311/296311/huge/Henry_Aug_2010_013.jpg?1304724512" property="og:image"></meta>\n    <meta content="www.activerain.com" property="og:site_name"></meta>\n    <meta content="company" property="og:type"></meta>\n    <meta content="1239513501,1653307921" property="fb:admins"></meta>\n    <meta content="Business: Real Estate" name="classification"></meta>\n    <meta content="Business: Real Estate" name="category"></meta>\n    <meta content="4V8uxY1wliTUUps0MtNHCt8kaPckkPh7ElLu8u119GI=" name="verify-v1"></meta>\n    <link type="text/css" rel="stylesheet" media="screen" href="http://activeagent-prod-assets3.ar-img.com/stylesheets/style_and_forms.css?1348685941"></link>\n    <link type="text/css" rel="stylesheet" media="screen" href="http://activeagent-prod-assets1.ar-img.com/stylesheets/signup.css?1348685941"></link>\n    <link type="text/css" rel="stylesheet" media="screen" href="http://activeagent-prod-assets1.ar-img.com/plugin_assets/active_engine/stylesheets/ads.css?1348685957"></link>\n    <script type="text/javascript" src="http://activeagent-prod-assets0.ar-img.com/javascripts/active_engine_js.js?1348685957"></script>\n    <script type="text/javascript" src="http://activeagent-prod-assets1.ar-img.com/javascripts/app_and_iepngfix.js?1348685941"></script>\n    <link type="text/css" rel="stylesheet" media="screen" href="http://activeagent-prod-assets2.ar-img.com/stylesheets/sections.css?1348685941"></link>\n    <link href="/blogs/oregonloansbyhelen/rss" title="Helen Williams~Oregon Loans by Helen~ FHA VA USDA Reverse Mortgage Specialist\'s Blog" type="application/rss+xml" rel="alternate"></link>\n    <script type="text/javascript" src="/plugin_assets/active_engine/javascripts/tiny_mce/tiny_mce.js"></script>\n    <script type="text/javascript">\n      var _gaq = _gaq || [];\n  _gaq.push([\'_setAccount\', \'UA-15408048-1\']);\n  _gaq.push([\'_trackPageview\']);\n\n  (function() {\n    var ga = document.createElement(\'script\'); ga.type = \'text/javascript\'; ga.async = true;\n    ga.src = (\'https:\' == document.location.protocol ? \'https://ssl\' : \'http://www\') + \'.google-analytics.com/ga.js\';\n    var s = document.getElementsByTagName(\'script\')[0]; s.parentNode.insertBefore(ga, s);\n  })();\n    </script>\n  </head>\n  <body>\n    <div id="fancy_scrollbar">\n      <link type="text/css" rel="stylesheet" media="screen" href="http://activeagent-prod-assets3.ar-img.com/stylesheets/header.css?1348685941"></link>\n      <script charset="utf-8" type="text/javascript">\n        window.onload=function(){\n      $(\'header_search_selector\').observe(\'change\', function() {\n          if ($F(\'header_search_selector\') == &quot;google&quot;) {\n              $(&quot;hit_router_search_container&quot;).style.display = &quot;none&quot;;\n              $(&quot;header_google_search&quot;).style.display = &quot;block&quot;;\n          }\n          else {\n              $(&quot;header_google_search&quot;).style.display = &quot;none&quot;;\n              $(&quot;hit_router_search_container&quot;).style.display = &quot;block&quot;;\n          }\n      })\n    }\n\n  function toggle_header_sub_menu(link_id, sub_nav_id) {\n    if ($(sub_nav_id).style.display == &quot;block&quot;) {\n      $(sub_nav_id).style.display = &quot;none&quot;;\n      $(link_id).style.background = &quot;url(/images/blue_arrow_right.gif) no-repeat 0px 5px&quot;;\n    } else {\n      $(sub_nav_id).style.display = &quot;block&quot;;\n      $(link_id).style.background = &quot;url(/images/blue_down_arrow.gif) no-repeat 0px 5px&quot;;\n    }\n  }\n      </script>\n      <div style="position: relative; z-index: 9999">\n        <div id="header_top"></div>\n        <div style="text-align:left;" id="logo_wrapper">\n          <iframe \n          allowtransparency="true" src="https://www.facebook.com/plugins/like.php?href=http%3A%2F%2Fwww.activerain.com&amp;send=false&amp;layout=button_count&amp;width=450&amp;show_faces=false&amp;action=like&amp;colorscheme=light&amp;font&amp;height=35" id="fb_header_like_button" scrolling="no" frameborder="0">\n</iframe>\n          <div id="google_plus_container" class="google_plus_container">\n            <g:plusone href="http://www.activerain.com" size="medium"></g:plusone>\n          </div>\n          <div id="logo">\n            <a style="position:absolute; left:14px; top:-10px;" href="/" shape="rect">\n              <img src="http://activeagent-prod-assets2.ar-img.com/images/headers/ar_home_logo.png?1348685941" alt="ActiveRain real estate agent network"></img>\n            </a>\n          </div>\n          <div id="header_search_wrapper">\n            <div id="main_header_cloud"></div>\n            <select name="header_search_selector" id="header_search_selector">\n              <option value="hitrouter">Search Listings</option>\n              <option value="google">Search ActiveRain</option>\n            </select>\n            <div id="header_google_search">\n              <form action="/search" method="get" enctype="application/x-www-form-urlencoded">\n                <input value="blogs" name="more" id="more" type="hidden"></input>\n                <input value="016474116467456296202:zcdp2tq_pxi" name="cx" type="hidden"></input>\n                <input value="FORID:10" name="cof" type="hidden"></input>\n                <input value="ISO-8859-1" name="ie" type="hidden"></input>\n                <input name="q" id="header_google_search_text" type="text"></input>\n                <input value="Search" name="commit" id="header_google_search_submit" type="submit"></input>\n              </form>\n              <script src="https://www.google.com/cse/brand?form=cse-search-box&amp;lang=en" type="text/javascript"></script>\n            </div>\n            <div id="hit_router_search_container">\n              <form \n              onsubmit="new Ajax.Updater(\'clickbar_city_results\', \'/action/nav/city_search/oregonloansbyhelen\', {asynchronous:true, evalScripts:true, onComplete:function(request){$(\'clickbar_city_results\').style.display = \'block\'; currentIndex=-1}, parameters:Form.serialize(this)}); return false;" autocomplete="off" action="/action/nav/city_search/oregonloansbyhelen" id="results_form" method="post" enctype="application/x-www-form-urlencoded">\n                <input value="Find Homes for Sale in your city" style="" onkeydown="handle_keys(this, event)" onfocus="lr_focus(this)" onblur="lr_blur(this)" name="c_q" id="c_q" type="text"></input>\n                <img src="http://activeagent-prod-assets1.ar-img.com/images/headers/ar_home_b_search.png?1348685941" alt="Ar_home_b_search"></img>\n                <input value="Find Homes for Sale in your city" name="phrase" id="phrase" type="hidden"></input>\n                <input value="agent_blog_entry" name="source" id="source" type="hidden"></input>\n                <input value="2304202" name="source_id" id="source_id" type="hidden"></input>\n                <div style="display:none" id="clickbar_city_results"></div>\n</form>\n              <script charset="utf-8" type="text/javascript">\n                var currentIndex = -1\n  var default_phrase = &quot;Find Homes for Sale in your city&quot;;\n  new Form.Element.Observer(&quot;c_q&quot;, 0.5, check_dropdown)\n  \n  function check_dropdown(el, value) {\n    if(value.blank() || value.length &lt; 3 || value == &quot;&quot; || value == default_phrase) { $(\'clickbar_city_results\').hide(); return }\n    $(\'results_form\').onsubmit()\n  }\n  \n  function lr_focus(e) {\n    if(e.value == default_phrase) { e.value = &quot;&quot;; return }\n    $(\'clickbar_city_results\').show()\n  }\n  function lr_blur(e) {\n    if(e.value.blank()) { e.value = default_phrase; }\n  }\n  \n  function handle_keys(elm, event) {\n    if(Event.KEY_ESC == event.keyCode) {\n      elm.value = &quot;&quot;\n      $(\'clickbar_city_results\').hide()\n    }\n    if(Event.KEY_DOWN == event.keyCode) {\n      return run_highlight(1)\n    }\n    if(Event.KEY_UP == event.keyCode) {\n      return run_highlight(-1)\n    }\n    if(Event.KEY_RETURN == event.keyCode &amp;&amp; currentIndex &gt; -1) {\n      $(\'c_q\').value = &quot;&quot;\n      $(\'clickbar_city_results\').hide()\n      window.location.href = $$(&quot;#clickbar_city_results li&quot;)[currentIndex].down().href\n      // window.open($$(&quot;#clickbar_city_results li&quot;)[currentIndex].down().href)\n    }\n  }\n  \n  function run_highlight(direction) {\n    clear_highlights()\n    max = $$(&quot;#clickbar_city_results li&quot;).length\n    currentIndex += direction\n    if(currentIndex &lt; 0) { currentIndex = max - 1; }\n    if(currentIndex &gt;= max) { currentIndex = 0 }\n    $$(&quot;#clickbar_city_results li&quot;)[currentIndex].addClassName(&quot;highlight&quot;)\n    return true\n  }\n  \n  function clear_highlights() {\n    $$(&quot;#clickbar_city_results li&quot;).invoke(&quot;removeClassName&quot;, &quot;highlight&quot;)\n  }\n              </script>\n            </div>\n            <div id="little_header_cloud"></div>\n          </div>\n        </div>\n        <div id="member_count">\n          <div class="layout">\n            <div class="auth_link"> </div>\n          </div>\n        </div>\n        <ul id="top_menu" class="top_level_menu">\n          <li>\n            <a href="http://www.activerainuniversity.com" shape="rect">University</a>\n          </li>\n          <li>\n            <a href="/search" shape="rect">Search</a>\n          </li>\n          <li>\n            <a href="/groups" shape="rect">Groups</a>\n          </li>\n          <li>\n            <a href="/bloghome" shape="rect">Blogs</a>\n          </li>\n          <li>\n            <a href="/groups/activeraincontests" shape="rect">Contests</a>\n          </li>\n          <li>\n            <a href="/action/question/list_questions" shape="rect">Q&amp;A</a>\n          </li>\n          <script type="text/javascript"> function go_to_state_page(state) { window.location.href = &quot;/states/&quot; + state; } function go_to_channel_page(channel) { window.location.href = &quot;/action/channels/&quot; + channel; } </script>\n          <li>\n            <span onclick="toggle_channel(\'consumer\')" class="fake_menu_item dropdown_link">\n              Channels\n              <img width="11" src="http://activeagent-prod-assets1.ar-img.com/images/headers/ar_home_nav_arrow_down.png?1348685941" height="9" alt="Ar_home_nav_arrow_down"></img>\n            </span>\n            <span style="display:none; width: 420px; margin-left: -300px" id="consumer_dropdown" class="top_dropdown"> </span>\n            <div style="padding: 5px;">\n              <div style="width: 200px; float: left; margin-right: 10px">\n                <span class="inner_menu_header">Consumer</span>\n                <ul>\n                  <li>\n                    <a onclick="go_to_channel_page(\'home_improvement\'); return false;" href="#" shape="rect">Home Improvement</a>\n                  </li>\n                  <li>\n                    <a onclick="go_to_channel_page(\'home_buying\'); return false;" href="#" shape="rect">Home Buying</a>\n                  </li>\n                  <li>\n                    <a onclick="go_to_channel_page(\'regional_localism\'); return false;" href="#" shape="rect">Regional (Localism)</a>\n                  </li>\n                  <li>\n                    <a onclick="go_to_channel_page(\'real_estate_investing_foreclosures\'); return false;" href="#" shape="rect">Real Estate Investing</a>\n                  </li>\n                  <li>\n                    <a onclick="go_to_channel_page(\'real_estate_market\'); return false;" href="#" shape="rect">Real Estate Market</a>\n                  </li>\n                  <li>\n                    <a onclick="go_to_channel_page(\'home_selling\'); return false;" href="#" shape="rect">Home Selling</a>\n                  </li>\n                  <li>\n                    <a onclick="go_to_channel_page(\'moving\'); return false;" href="#" shape="rect">Moving</a>\n                  </li>\n                  <li>\n                    <a onclick="go_to_channel_page(\'consumer_mortgage_finance\'); return false;" href="#" shape="rect">Mortgage / Finance</a>\n                  </li>\n                </ul>\n              </div>\n              <div style="width: 200px; float: left;">\n                <span class="inner_menu_header">Professional</span>\n                <ul>\n                  <li>\n                    <a onclick="go_to_channel_page(\'activerain\'); return false;" href="#" shape="rect">ActiveRain</a>\n                  </li>\n                  <li>\n                    <a onclick="go_to_channel_page(\'technology_and_tools\'); return false;" href="#" shape="rect">Technology and Tools</a>\n                  </li>\n                  <li>\n                    <a onclick="go_to_channel_page(\'training\'); return false;" href="#" shape="rect">Training</a>\n                  </li>\n                  <li>\n                    <a onclick="go_to_channel_page(\'professional_mortgage_finance\'); return false;" href="#" shape="rect">Mortgage / Finance</a>\n                  </li>\n                  <li>\n                    <a onclick="go_to_channel_page(\'sales_strategies_tactics\'); return false;" href="#" shape="rect">Sales Strategies / Tactics</a>\n                  </li>\n                  <li>\n                    <a onclick="go_to_channel_page(\'offline_marketing\'); return false;" href="#" shape="rect">Offline Marketing</a>\n                  </li>\n                  <li>\n                    <a onclick="go_to_channel_page(\'networking\'); return false;" href="#" shape="rect">Networking</a>\n                  </li>\n                  <li>\n                    <a onclick="go_to_channel_page(\'online_marketing\'); return false;" href="#" shape="rect">Online Marketing</a>\n                  </li>\n                </ul>\n              </div>\n              <br style="clear: both" clear="none"></br>\n            </div>\n          </li>\n          <li>\n            <span onclick="toggle_channel(\'state\');" class="fake_menu_item dropdown_link">\n              States\n              <img width="11" src="http://activeagent-prod-assets1.ar-img.com/images/headers/ar_home_nav_arrow_down.png?1348685941" height="9" alt="Ar_home_nav_arrow_down"></img>\n            </span>\n            <span style="display:none;" id="state_dropdown" class="top_dropdown"> </span>\n            <div style="padding: 5px">\n              <span style="text-align: left" class="inner_menu_header">USA</span>\n              <ul>\n                <li style="text-align: center">\n                  <a title="Alabama" onclick="go_to_state_page(\'AL\'); return false;" href="#" class="dropdown_link" shape="rect">AL</a>\n                </li>\n                <li style="text-align: center">\n                  <a title="Alaska" onclick="go_to_state_page(\'AK\'); return false;" href="#" class="dropdown_link" shape="rect">AK</a>\n                </li>\n                <li style="text-align: center">\n                  <a title="Arizona" onclick="go_to_state_page(\'AZ\'); return false;" href="#" class="dropdown_link" shape="rect">AZ</a>\n                </li>\n                <li style="text-align: center">\n                  <a title="Arkansas" onclick="go_to_state_page(\'AR\'); return false;" href="#" class="dropdown_link" shape="rect">AR</a>\n                </li>\n                <li style="text-align: center">\n                  <a title="California" onclick="go_to_state_page(\'CA\'); return false;" href="#" class="dropdown_link" shape="rect">CA</a>\n                </li>\n                <li style="text-align: center">\n                  <a title="Colorado" onclick="go_to_state_page(\'CO\'); return false;" href="#" class="dropdown_link" shape="rect">CO</a>\n                </li>\n                <li style="text-align: center">\n                  <a title="Connecticut" onclick="go_to_state_page(\'CT\'); return false;" href="#" class="dropdown_link" shape="rect">CT</a>\n                </li>\n                <li style="text-align: center">\n                  <a title="Delaware" onclick="go_to_state_page(\'DE\'); return false;" href="#" class="dropdown_link" shape="rect">DE</a>\n                </li>\n                <li style="text-align: center">\n                  <a title="District of Columbia" onclick="go_to_state_page(\'DC\'); return false;" href="#" class="dropdown_link" shape="rect">DC</a>\n                </li>\n                <li style="text-align: center">\n                  <a title="Florida" onclick="go_to_state_page(\'FL\'); return false;" href="#" class="dropdown_link" shape="rect">FL</a>\n                </li>\n                <li style="text-align: center">\n                  <a title="Georgia" onclick="go_to_state_page(\'GA\'); return false;" href="#" class="dropdown_link" shape="rect">GA</a>\n                </li>\n                <li style="text-align: center">\n                  <a title="Hawaii" onclick="go_to_state_page(\'HI\'); return false;" href="#" class="dropdown_link" shape="rect">HI</a>\n                </li>\n                <li style="text-align: center">\n                  <a title="Idaho" onclick="go_to_state_page(\'ID\'); return false;" href="#" class="dropdown_link" shape="rect">ID</a>\n                </li>\n                <li style="text-align: center">\n                  <a title="Illinois" onclick="go_to_state_page(\'IL\'); return false;" href="#" class="dropdown_link" shape="rect">IL</a>\n                </li>\n                <li style="text-align: center">\n                  <a title="Indiana" onclick="go_to_state_page(\'IN\'); return false;" href="#" class="dropdown_link" shape="rect">IN</a>\n                </li>\n                <li style="text-align: center">\n                  <a title="Iowa" onclick="go_to_state_page(\'IA\'); return false;" href="#" class="dropdown_link" shape="rect">IA</a>\n                </li>\n                <li style="text-align: center">\n                  <a title="Kansas" onclick="go_to_state_page(\'KS\'); return false;" href="#" class="dropdown_link" shape="rect">KS</a>\n                </li>\n                <li style="text-align: center">\n                  <a title="Kentucky" onclick="go_to_state_page(\'KY\'); return false;" href="#" class="dropdown_link" shape="rect">KY</a>\n                </li>\n                <li style="text-align: center">\n                  <a title="Louisiana" onclick="go_to_state_page(\'LA\'); return false;" href="#" class="dropdown_link" shape="rect">LA</a>\n                </li>\n                <li style="text-align: center">\n                  <a title="Maine" onclick="go_to_state_page(\'ME\'); return false;" href="#" class="dropdown_link" shape="rect">ME</a>\n                </li>\n                <li style="text-align: center">\n                  <a title="Maryland" onclick="go_to_state_page(\'MD\'); return false;" href="#" class="dropdown_link" shape="rect">MD</a>\n                </li>\n                <li style="text-align: center">\n                  <a title="Massachusetts" onclick="go_to_state_page(\'MA\'); return false;" href="#" class="dropdown_link" shape="rect">MA</a>\n                </li>\n                <li style="text-align: center">\n                  <a title="Michigan" onclick="go_to_state_page(\'MI\'); return false;" href="#" class="dropdown_link" shape="rect">MI</a>\n                </li>\n                <li style="text-align: center">\n                  <a title="Minnesota" onclick="go_to_state_page(\'MN\'); return false;" href="#" class="dropdown_link" shape="rect">MN</a>\n                </li>\n                <li style="text-align: center">\n                  <a title="Mississippi" onclick="go_to_state_page(\'MS\'); return false;" href="#" class="dropdown_link" shape="rect">MS</a>\n                </li>\n                <li style="text-align: center">\n                  <a title="Missouri" onclick="go_to_state_page(\'MO\'); return false;" href="#" class="dropdown_link" shape="rect">MO</a>\n                </li>\n                <li style="text-align: center">\n                  <a title="Montana" onclick="go_to_state_page(\'MT\'); return false;" href="#" class="dropdown_link" shape="rect">MT</a>\n                </li>\n                <li style="text-align: center">\n                  <a title="Nebraska" onclick="go_to_state_page(\'NE\'); return false;" href="#" class="dropdown_link" shape="rect">NE</a>\n                </li>\n                <li style="text-align: center">\n                  <a title="Nevada" onclick="go_to_state_page(\'NV\'); return false;" href="#" class="dropdown_link" shape="rect">NV</a>\n                </li>\n                <li style="text-align: center">\n                  <a title="New Hampshire" onclick="go_to_state_page(\'NH\'); return false;" href="#" class="dropdown_link" shape="rect">NH</a>\n                </li>\n                <li style="text-align: center">\n                  <a title="New Jersey" onclick="go_to_state_page(\'NJ\'); return false;" href="#" class="dropdown_link" shape="rect">NJ</a>\n                </li>\n                <li style="text-align: center">\n                  <a title="New Mexico" onclick="go_to_state_page(\'NM\'); return false;" href="#" class="dropdown_link" shape="rect">NM</a>\n                </li>\n                <li style="text-align: center">\n                  <a title="New York" onclick="go_to_state_page(\'NY\'); return false;" href="#" class="dropdown_link" shape="rect">NY</a>\n                </li>\n                <li style="text-align: center">\n                  <a title="North Carolina" onclick="go_to_state_page(\'NC\'); return false;" href="#" class="dropdown_link" shape="rect">NC</a>\n                </li>\n                <li style="text-align: center">\n                  <a title="North Dakota" onclick="go_to_state_page(\'ND\'); return false;" href="#" class="dropdown_link" shape="rect">ND</a>\n                </li>\n                <li style="text-align: center">\n                  <a title="Ohio" onclick="go_to_state_page(\'OH\'); return false;" href="#" class="dropdown_link" shape="rect">OH</a>\n                </li>\n                <li style="text-align: center">\n                  <a title="Oklahoma" onclick="go_to_state_page(\'OK\'); return false;" href="#" class="dropdown_link" shape="rect">OK</a>\n                </li>\n                <li style="text-align: center">\n                  <a title="Oregon" onclick="go_to_state_page(\'OR\'); return false;" href="#" class="dropdown_link" shape="rect">OR</a>\n                </li>\n                <li style="text-align: center">\n                  <a title="Pennsylvania" onclick="go_to_state_page(\'PA\'); return false;" href="#" class="dropdown_link" shape="rect">PA</a>\n                </li>\n                <li style="text-align: center">\n                  <a title="Rhode Island" onclick="go_to_state_page(\'RI\'); return false;" href="#" class="dropdown_link" shape="rect">RI</a>\n                </li>\n                <li style="text-align: center">\n                  <a title="South Carolina" onclick="go_to_state_page(\'SC\'); return false;" href="#" class="dropdown_link" shape="rect">SC</a>\n                </li>\n                <li style="text-align: center">\n                  <a title="South Dakota" onclick="go_to_state_page(\'SD\'); return false;" href="#" class="dropdown_link" shape="rect">SD</a>\n                </li>\n                <li style="text-align: center">\n                  <a title="Tennessee" onclick="go_to_state_page(\'TN\'); return false;" href="#" class="dropdown_link" shape="rect">TN</a>\n                </li>\n                <li style="text-align: center">\n                  <a title="Texas" onclick="go_to_state_page(\'TX\'); return false;" href="#" class="dropdown_link" shape="rect">TX</a>\n                </li>\n                <li style="text-align: center">\n                  <a title="US Virgin Islands" onclick="go_to_state_page(\'VI\'); return false;" href="#" class="dropdown_link" shape="rect">VI</a>\n                </li>\n                <li style="text-align: center">\n                  <a title="Utah" onclick="go_to_state_page(\'UT\'); return false;" href="#" class="dropdown_link" shape="rect">UT</a>\n                </li>\n                <li style="text-align: center">\n                  <a title="Vermont" onclick="go_to_state_page(\'VT\'); return false;" href="#" class="dropdown_link" shape="rect">VT</a>\n                </li>\n                <li style="text-align: center">\n                  <a title="Virginia" onclick="go_to_state_page(\'VA\'); return false;" href="#" class="dropdown_link" shape="rect">VA</a>\n                </li>\n                <li style="text-align: center">\n                  <a title="Washington" onclick="go_to_state_page(\'WA\'); return false;" href="#" class="dropdown_link" shape="rect">WA</a>\n                </li>\n                <li style="text-align: center">\n                  <a title="West Virginia" onclick="go_to_state_page(\'WV\'); return false;" href="#" class="dropdown_link" shape="rect">WV</a>\n                </li>\n                <li style="text-align: center">\n                  <a title="Wisconsin" onclick="go_to_state_page(\'WI\'); return false;" href="#" class="dropdown_link" shape="rect">WI</a>\n                </li>\n                <li style="text-align: center">\n                  <a title="Wyoming" onclick="go_to_state_page(\'WY\'); return false;" href="#" class="dropdown_link" shape="rect">WY</a>\n                </li>\n              </ul>\n              <span style="text-align: left" class="inner_menu_header">Canada</span>\n              <ul>\n                <li style="text-align: center">\n                  <a title="Alberta" onclick="go_to_state_page(\'AB\'); return false;" href="#" class="dropdown_link" shape="rect">AB</a>\n                </li>\n                <li style="text-align: center">\n                  <a title="British Columbia" onclick="go_to_state_page(\'BC\'); return false;" href="#" class="dropdown_link" shape="rect">BC</a>\n                </li>\n                <li style="text-align: center">\n                  <a title="Manitoba" onclick="go_to_state_page(\'MB\'); return false;" href="#" class="dropdown_link" shape="rect">MB</a>\n                </li>\n                <li style="text-align: center">\n                  <a title="New Brunswick" onclick="go_to_state_page(\'NB\'); return false;" href="#" class="dropdown_link" shape="rect">NB</a>\n                </li>\n                <li style="text-align: center">\n                  <a title="Newfoundland" onclick="go_to_state_page(\'NL\'); return false;" href="#" class="dropdown_link" shape="rect">NL</a>\n                </li>\n                <li style="text-align: center">\n                  <a title="North West Territories" onclick="go_to_state_page(\'NT\'); return false;" href="#" class="dropdown_link" shape="rect">NT</a>\n                </li>\n                <li style="text-align: center">\n                  <a title="Nova Scotia" onclick="go_to_state_page(\'NS\'); return false;" href="#" class="dropdown_link" shape="rect">NS</a>\n                </li>\n                <li style="text-align: center">\n                  <a title="Nunavut" onclick="go_to_state_page(\'NU\'); return false;" href="#" class="dropdown_link" shape="rect">NU</a>\n                </li>\n                <li style="text-align: center">\n                  <a title="Ontario" onclick="go_to_state_page(\'ON\'); return false;" href="#" class="dropdown_link" shape="rect">ON</a>\n                </li>\n                <li style="text-align: center">\n                  <a title="Prince Edward Island" onclick="go_to_state_page(\'PE\'); return false;" href="#" class="dropdown_link" shape="rect">PE</a>\n                </li>\n                <li style="text-align: center">\n                  <a title="Quebec" onclick="go_to_state_page(\'QC\'); return false;" href="#" class="dropdown_link" shape="rect">QC</a>\n                </li>\n                <li style="text-align: center">\n                  <a title="Saskatchewan" onclick="go_to_state_page(\'SK\'); return false;" href="#" class="dropdown_link" shape="rect">SK</a>\n                </li>\n                <li style="text-align: center">\n                  <a title="Yukon" onclick="go_to_state_page(\'YN\'); return false;" href="#" class="dropdown_link" shape="rect">YN</a>\n                </li>\n              </ul>\n              <br style="clear: both" clear="none"></br>\n            </div>\n          </li>\n        </ul>\n        <span id="my_home_link"> </span>\n        <ul>\n          <li style="float: right;">\n            <a href="/login" shape="rect">Login</a>\n          </li>\n          <li style="float: right; color: white; font-size: 130%;">|</li>\n          <li style="float: right;">\n            <a href="/action/signup" shape="rect">Sign Up</a>\n          </li>\n        </ul>\n      </div>\n      <table cellspacing="0" cellpadding="0" width="100%" id="blog_content">\n        <tr>\n          <td rowspan="1" colspan="1">\n            <div id="custom_blog_header"></div>\n          </td>\n        </tr>\n        <tr>\n          <td class="blog_content_td" valign="top" rowspan="1" colspan="1">\n            <table height="100%" width="100%">\n              <tr valign="top">\n                <td width="5px" rowspan="1" colspan="1">\xc2\xa0</td>\n                <td valign="top" rowspan="1" colspan="1">\n                  <div id="content_wrapper">\n                    <style media="screen" type="text/css">\n                      body {\n  background: #714A4A ;\n  margin: 0;\n  padding: 0;\n}\ntable#blog_content {\n  width: 960px;\n  margin: 0 auto;\n}\ntd.blog_content_td {\n  background: #ffffff;\n}\n#custom_blog_header {\n  display: block; \n  background:url(/image_store/customizer/oregonloansbyhelen_header_96032_800px-willamette_river_at_pisgah.jpg) no-repeat scroll left top;\n  height: 130px;\n  margin-top: 0px;\n}\n#top_menu {\n  border: none;\n    background-color:#D53030;\n    background-image: none;\n}\n\n#top_menu li a, #top_menu li span.fake_menu_item {\n  color: #5A5413;\n  text-shadow: none;\n}\n\n#top_menu .top_dropdown ul li a:hover {\n  background: none !important;\n}\n\n#logo_wrapper {\n  background: white;\n}\n\n#header {\n  margin-top: 0;\n  padding-top: 0;\n  border: none !important;\n}\n.nav {\n  margin: 0 !important;\n  border-width: 0 !important;\n}\n\n#top_menu .top_dropdown {\n  border: none;\n  background-color:#D53030;\n}\n#top_menu .top_dropdown a, #top_menu .top_dropdown .inner_menu_header {\n  color:#5A5413 !important;\n}\n#top_menu .top_dropdown .inner_menu_header {\n  text-decoration: underline;\n}\n#top_menu .top_dropdown ul li a:hover {\n  background-color:#D53030;\n  font-weight: bold;\n}\n.top_dropdown {\n  margin-top: 5px;\n}\n* html ul.top_level_menu {\n  display: inline-block;\n  position: relative;\n  z-index: 1000;\n}\n* + html ul.top_level_menu {\n  display: inline-block;\n  position: relative;\n  z-index: 1000;\n}\n* html .top_dropdown {\n\tmargin-top: 3px;\n\tz-index: 1000;\n}\n* + html .top_dropdown {\n  margin-top: 19px;\n  z-index: 1000;\n}\n                    </style>\n                    <div id="breadcrumbs">\n                      <a href="/" shape="rect">Home</a>\n                      :\n                      <a href="/bloghome" shape="rect">Blogs</a>\n                      :\n                      <a href="/oregonloansbyhelen" rel="author" shape="rect">Helen Williams~Oregon Loans by Helen~ FHA VA USDA Reverse Mortgage Specialist</a>\n                      :\n                      <a href="/blogs/oregonloansbyhelen" shape="rect">Helen Williams~Oregon Loans by Helen~ FHA VA USDA Reverse Mortgage Specialist\'s Blog</a>\n                    </div>\n                    <div align="left">\n                      <table width="100%">\n                        <tr valign="top">\n                          <td valign="top" rowspan="1" colspan="1">\n                            <div class="blog_entry_wrapper">\n                              <style> .reblog { margin-left: 4px; } </style>\n                              <div id="blog_entry_2304202" class="blog_entry">\n                                <div style="position:relative; overflow:auto; width:100%">\n                                  <div style="margin-left:0px; width: 222px; float: right; border: 0px solid red; height: 30px; position: relative;" id="blog_social_links_2304202">\n                                    <span style="border: 0px solid green; position: absolute; top: 0px; right: 166px;">\n                                      <iframe \n                                      allowtransparency="true" style="border:none; overflow:hidden; width:52px; height:35px;" src="http://www.facebook.com/plugins/like.php?href=http://activerain.com/blogsview/2304202/mckenzie-river-frontage-anyone-42073-deerhorn-rd-springfield-or-97477&amp;send=false&amp;layout=standard&amp;width=152&amp;show_faces=false&amp;action=like&amp;colorscheme=light&amp;font&amp;height=35" scrolling="no" frameborder="0">\n</iframe>\n                                    </span>\n                                    <span style="border: 0px solid red; position: absolute; top: 0px; right: 124px;">\n                                      <g:plusone href="http://activerain.com/blogsview/2304202/mckenzie-river-frontage-anyone-42073-deerhorn-rd-springfield-or-97477" count="false"></g:plusone>\n                                    </span>\n                                    <span style="border: 0px solid red; position: absolute; top: 0px; right: 60px;">\n                                      <script src="http://platform.linkedin.com/in.js" type="text/javascript"></script>\n                                      <script data-url="http://activerain.com/blogsview/2304202/mckenzie-river-frontage-anyone-42073-deerhorn-rd-springfield-or-97477" type="in/share"></script>\n                                    </span>\n                                    <span style="border: 0px solid red; position: absolute; top: 0px; right: 0px;">\n                                      <a data-count="none" data-url="http://activerain.com/blogsview/2304202/mckenzie-river-frontage-anyone-42073-deerhorn-rd-springfield-or-97477" href="http://twitter.com/share" class="twitter-share-button" shape="rect">Tweet</a>\n                                      <script src="http://platform.twitter.com/widgets.js" type="text/javascript"></script>\n                                    </span>\n                                  </div>\n                                  <div>\n                                    <h1 style="margin-top:2px; font-size: 16px;">\n                                      <a rel="bookmark" href="http://activerain.com/blogsview/2304202/mckenzie-river-frontage-anyone-42073-deerhorn-rd-springfield-or-97477" shape="rect">McKenzie River Frontage anyone? 42073 Deerhorn Rd Springfield, OR 97477</a>\n                                    </h1>\n                                  </div>\n                                  <p style="font-family: comic sans ms,sans-serif; color: #009900;">\n                                    <a \n                                    target="_blank" title="42073 Deerhorn Rd" href="http://www.nadine.mywindermere.com/index.cfm?fuseaction=listing.PropertySearchResults&amp;searchString=ptyp=1,2,3,4,5,6,7%7Cst=%7Cpremier=%7Csss=%7Car=%7Ccou=%7Ccit=%7CminPrice=0%7CmaxPrice=0%7Cbr=%7Cbth=%7CminSqft=%7CmaxSqft=%7Cwater=%7CybtMin=%7CybtMax=%7Chsn=%7Cstor=%7Cvew=%7Cdaysback=%7CNC=%7Cls=%7Caddress=%7Cln=%7Csub=%7Czip=%7CsearchAgentMetauser_ID=105753%7CshowPhotos=1%7CextentNorth=%7CextentSouth=%7CextentEast=%7CextentWest=%7CzoomLevel=%7CmapCenterX=%7CmapCenterY=%7CmapExtentBorder=%7CmapExtentLeft=%7CmapExtentRight=%7CmapExtentTop=%7CmapExtentBottom=%7ClistingAction=%7CmapExtentLeftDefault=%7CmapExtentRightDefault=%7CmapExtentTopDefault=%7CmapExtentBottomDefault=%7CagencyID=%7Camenities=0%7Csftype=%7CmapHeight=428%7CmapWidth=320%7CsortOrder=1%7CsearchMLS=%7Coh=" shape="rect">\n                                      <img style="margin: 5px; float: left;" width="175" alt="" height="131" src="/image_store/uploads/3/6/2/2/5/ar130575413952263.jpg"></img>\n</a>\n                                    <span style="font-size: medium;">\n                                      McKenzie River Frontage anyone? 42073\n                                      <span class="J-JK9eJ-PJVNOc">Deerhorn</span>\n                                      Rd Springfield, OR  97477 is for you!\xc2\xa0 You are going to love living on this stretch of the  beautiful\n                                      <a target="_blank" title="Info on McKenzie River" href="http://en.wikipedia.org/wiki/McKenzie_River" shape="rect">McKenzie River</a>\n                                      . The home is privately located at the end of a\xc2\xa0  road next to the McKenzie River and walking distance to the\n                                      <a target="_blank" title="McKenzie River Golf Course" href="http://www.thegolfcourses.net/golfcourses/OR/8296.htm" shape="rect">McKenzie River Golf Course</a>\n                                      and the Park.\xc2\xa0\xc2\xa0\n                                    </span>\n                                  </p>\n                                  <p style="font-family: comic sans ms,sans-serif; color: #009900;">\n                                    <img style="margin: 5px; float: right;" width="150" alt="" height="113" src="/image_store/uploads/3/5/3/0/9/ar130575419290353.jpg"></img>\n                                  </p>\n                                  <p style="font-family: comic sans ms,sans-serif; color: #009900;">\n                                    <span style="font-size: medium;">\n                                      You can actually fish from your back  yard or launch your own boat and\n                                      <span class="J-JK9eJ-PJVNOc">watch</span>\n                                      the wild life play.The grounds  are absolutely immaculate and are easy to maintain. Picture yourself on your  large deck to entertaining friends.\n                                    </span>\n                                    <img style="margin: 8px; float: right;" width="175" alt="" height="131" src="/image_store/uploads/5/4/3/8/1/ar130575491418345.jpg"></img>\n                                    <img style="margin-top: 5px; margin-bottom: 5px; float: left;" width="150" alt="" height="113" src="/image_store/uploads/9/1/8/7/4/ar130575424047819.jpg"></img>\n                                  </p>\n                                  <p style="font-family: comic sans ms,sans-serif; color: #009900;">\xc2\xa0</p>\n                                  <p style="font-family: comic sans ms,sans-serif; color: #009900;">\n                                    <span style="font-size: medium;">Look at all the\xc2\xa0 windows to see the beautiful serene views.\xc2\xa0 Enjoy the peace and quite of your own private sanctuary just minutes from town!</span>\n                                  </p>\n                                  <p style="font-family: comic sans ms,sans-serif; color: #009900;">\xc2\xa0</p>\n                                  <p style="font-family: comic sans ms,sans-serif; color: #009900;">\xc2\xa0</p>\n                                  <p style="font-family: comic sans ms,sans-serif; color: #009900;">\n                                    <span style="font-size: medium;">\n                                      Watch this video\n                                      <span class="J-JK9eJ-PJVNOc">flyer</span>\n                                      to see how easy you can afford to live in this home by next month!\n                                    </span>\n                                  </p>\n                                  <div>\n                                    <span style="font-family: Arial; font-size: x-small;">\n                                      <a target="_self" title="42073 Deerhorn Rd" href="http://mcedge.tv/16a1ay" shape="rect">\n                                        http://\n                                        <span class="J-JK9eJ-PJVNOc">mcedge</span>\n                                        .\n                                        <span class="J-JK9eJ-PJVNOc">tv</span>\n                                        /16a1ay\n                                      </a>\n                                    </span>\n                                  </div>\n                                  <div>\n                                    <br clear="none"></br>\n                                  </div>\n                                  <div>\n                                    <span style="font-family: Arial; font-size: x-small;">\n                                      <span style="font-size: medium;">\n                                        <span style="font-family: comic sans ms,sans-serif;">\n                                          Call\n                                          <a \n                                          target="_blank" title="Nadine" href="http://www.nadine.mywindermere.com/index.cfm?fuseaction=listing.PropertySearchResults&amp;searchString=ptyp=1,2,3,4,5,6,7%7Cst=%7Cpremier=%7Csss=%7Car=%7Ccou=%7Ccit=%7CminPrice=0%7CmaxPrice=0%7Cbr=%7Cbth=%7CminSqft=%7CmaxSqft=%7Cwater=%7CybtMin=%7CybtMax=%7Chsn=%7Cstor=%7Cvew=%7Cdaysback=%7CNC=%7Cls=%7Caddress=%7Cln=%7Csub=%7Czip=%7CsearchAgentMetauser_ID=105753%7CshowPhotos=1%7CextentNorth=%7CextentSouth=%7CextentEast=%7CextentWest=%7CzoomLevel=%7CmapCenterX=%7CmapCenterY=%7CmapExtentBorder=%7CmapExtentLeft=%7CmapExtentRight=%7CmapExtentTop=%7CmapExtentBottom=%7ClistingAction=%7CmapExtentLeftDefault=%7CmapExtentRightDefault=%7CmapExtentTopDefault=%7CmapExtentBottomDefault=%7CagencyID=%7Camenities=0%7Csftype=%7CmapHeight=428%7CmapWidth=320%7CsortOrder=1%7CsearchMLS=%7Coh=" shape="rect">\n</a>\n                                          <a \n                                          target="_blank" title="Nadine\'s personal website" href="http://www.nadine.mywindermere.com/index.cfm?fuseaction=listing.PropertySearchResults&amp;searchString=ptyp=1,2,3,4,5,6,7%7Cst=%7Cpremier=%7Csss=%7Car=%7Ccou=%7Ccit=%7CminPrice=0%7CmaxPrice=0%7Cbr=%7Cbth=%7CminSqft=%7CmaxSqft=%7Cwater=%7CybtMin=%7CybtMax=%7Chsn=%7Cstor=%7Cvew=%7Cdaysback=%7CNC=%7Cls=%7Caddress=%7Cln=%7Csub=%7Czip=%7CsearchAgentMetauser_ID=105753%7CshowPhotos=1%7CextentNorth=%7CextentSouth=%7CextentEast=%7CextentWest=%7CzoomLevel=%7CmapCenterX=%7CmapCenterY=%7CmapExtentBorder=%7CmapExtentLeft=%7CmapExtentRight=%7CmapExtentTop=%7CmapExtentBottom=%7ClistingAction=%7CmapExtentLeftDefault=%7CmapExtentRightDefault=%7CmapExtentTopDefault=%7CmapExtentBottomDefault=%7CagencyID=%7Camenities=0%7Csftype=%7CmapHeight=428%7CmapWidth=320%7CsortOrder=1%7CsearchMLS=%7Coh=" shape="rect">\n                                            Nadine Scott\n</a>\n                                          of Windermere Real Estate of Lane County today at 541-915-0807 for a private showing, and call me  (\n                                          <a target="_blank" title="Helen\'s personal website" href="http://www.oregonmortgagelendingservices.com" shape="rect">Helen Davidson Williams</a>\n                                          ) for a pre approval.\xc2\xa0 Rates are at all time  lows- don\'t let this home pass your bye!\n                                        </span>\n                                      </span>\n                                    </span>\n                                  </div>\n                                  <p>\n                                    <span style="font-family: Arial; font-size: x-small;">\n                                      <span style="font-size: medium;">\n                                        <span style="font-family: comic sans ms,sans-serif;">\n                                          <br style="color: #003300;" clear="none"></br>\n                                          <span style="color: #003300;">So if you are looking for a beautiful home with river frontage, then 42073 Deerhorn Rd in Springfield, OR is it!</span>\n                                        </span>\n                                      </span>\n                                    </span>\n                                  </p>\n                                  <div>\n                                    <br clear="none"></br>\n                                  </div>\n                                  <div class="agent_signature">\n                                    <p>\n                                      <img width="242" alt="" height="34" src="/image_store/uploads/3/3/2/0/0/ar130471614200233.png"></img>\n                                    </p>\n                                  </div>\n                                  <div class="clearer">\xc2\xa0</div>\n                                </div>\n                              </div>\n                            </div>\n                            <div id="divbei2304202">\n                              <div style="width: 300px; float: right; margin-left: 15px" id="facebook">\n                                <iframe \n                                allowtransparency="true" style="border:none; overflow:hidden; width:300px; height:80px;" src="http://www.facebook.com/plugins/like.php?href=http%3A%2F%2Factiverain.com%2Fblogsview%2F2304202%2Fmckenzie-river-frontage-anyone-42073-deerhorn-rd-springfield-or-97477&amp;layout=standard&amp;show_faces=true&amp;width=300&amp;action=like&amp;font=verdana&amp;colorscheme=light&amp;height=80" scrolling="no" frameborder="0">\n</iframe>\n                              </div>\n                              <div class="blog_footer">\n                                <table>\n                                  <tr valign="middle">\n                                    <td rowspan="1" colspan="1">\n                                      Posted by\n                                      <a href="/oregonloansbyhelen" shape="rect">Helen Williams~Oregon Loans by Helen~ FHA VA USDA Reverse Mortgage Specialist</a>\n                                      on 05/18/2011 05:46 PM\n                                    </td>\n                                    <td style="border-right:solid 2px #888888;" rowspan="1" colspan="1">\xc2\xa0</td>\n                                    <td rowspan="1" colspan="1">\n                                      <a style="white-space:nowrap;" href="http://activerain.com/blogsview/2304202/mckenzie-river-frontage-anyone-42073-deerhorn-rd-springfield-or-97477" shape="rect">Comments (0)</a>\n                                    </td>\n                                    <td style="border-right:solid 2px #888888;" rowspan="1" colspan="1">\xc2\xa0</td>\n                                    <td rowspan="1" colspan="1">\n                                      <a href="/action/channels/activerain/topics/river_frontage_new_listing" shape="rect">River Frontage New Listing</a>\n                                      in the\n                                      <a href="/action/channels/activerain" shape="rect">ActiveRain</a>\n                                      Channel\n                                    </td>\n                                    <td style="border-right:solid 2px #888888;" rowspan="1" colspan="1">\xc2\xa0</td>\n                                    <td rowspan="1" colspan="1">\n                                      <a href="/blogs/oregonloansbyhelen/tags/3%20bdrm" shape="rect">3 bdrm</a>\n                                      ,\n                                      <a href="/blogs/oregonloansbyhelen/tags/river%20frontage" shape="rect">river frontage</a>\n                                      ,\n                                      <a href="/blogs/oregonloansbyhelen/tags/mckenzie%20river" shape="rect">mckenzie river</a>\n                                    </td>\n                                    <td style="border-right:solid 2px #888888;" rowspan="1" colspan="1">\xc2\xa0</td>\n                                  </tr>\n                                </table>\n                                <table>\n                                  <tr valign="middle">\n                                    <td rowspan="1" colspan="1">\n                                      Short URL:\n                                      <a href="http://actvra.in/b2N" shape="rect">http://actvra.in/b2N</a>\n                                    </td>\n                                  </tr>\n                                </table>\n                              </div>\n                            </div>\n                            <div style="width:450px;" id="included_location" class="textBlock">\n                              <div style="width:450px;" class="innerTextBlock" align="left">\n                                This post has been included in\n                                <a href="/states/OR" shape="rect">Oregon Real Estate News</a>\n                                <a href="/states/OR/counties/Lane%20County" shape="rect">Lane County, OR Real Estate News</a>\n                                <br clear="none"></br>\n                                Post is included in group:\n                                <a href="/groups/EugeneOregonRealEstate" shape="rect">Eugene Oregon Real Estate</a>\n                                <br clear="none"></br>\n                                Post is included in group:\n                                <a href="/groups/iloveoregon" shape="rect">Oregon activerain</a>\n                                <br clear="none"></br>\n                                Post is included in group:\n                                <a href="/groups/LaneCountyOregonRealEstate" shape="rect">Real Estate in Eugene &amp; Lane County, Oregon</a>\n                                <br clear="none"></br>\n                                Post is included in group:\n                                <a href="/groups/LaneCountyOregon" shape="rect">Welcome to Eugene and Lane County, Oregon</a>\n                                <br clear="none"></br>\n                              </div>\n                            </div>\n                            <a name="comments" shape="rect"></a>\n                            <table style="clear:both">\n                              <tr>\n                                <td rowspan="1" colspan="1">\n                                  <p>\n                                    <b> 0 Comments on McKenzie River Frontage anyone? 42073 Deerhorn Rd Springfield, OR 97477</b>\n                                  </p>\n                                  <div id="new_notification_subscription" class="notification_subscription">\n                                    <form \n                                    onsubmit="new Ajax.Updater(\'new_notification_subscription\', \'/blog_entries/2304202/notification_subscriptions\', {asynchronous:true, evalScripts:true, parameters:Form.serialize(this)}); return false;" action="/blog_entries/2304202/notification_subscriptions" id="new_notification_subscription" class="new_notification_subscription" method="post" enctype="application/x-www-form-urlencoded">\n                                      <div>\n                                        <label for="show_notification_form">Notify me of new comments:</label>\n                                        <input value="true" onclick="$(\'form_notification_subscription\').toggle();" name="show_notification_form" id="show_notification_form" type="checkbox" checked="checked"></input>\n                                      </div>\n                                      <div id="form_notification_subscription">\n                                        <table>\n                                          <tr>\n                                            <td rowspan="1" colspan="1">\n                                              <b>\n                                                <label for="notification_subscription_email">Email:</label>\n                                              </b>\n                                              <input size="60" name="notification_subscription[email]" max_size="64" id="notification_subscription_email" type="text"></input>\n                                              <a \n                                              href="javascript:alert(\'You will be notified when someone comments or the blog is updated.  We will not display your email address or give it out to anyone. There will be a link to unsubscribe to the notification when you recieve the email. We will not use your email for anything other than this notification.\');" shape="rect">\n                                                <img src="/images/24-message-info.png"></img>\n</a>\n                                            </td>\n                                          </tr>\n                                          <tr>\n                                            <td rowspan="1" colspan="1">\n                                              What does the graphic say?\n                                              <table>\n                                                <tr>\n                                                  <td rowspan="1" colspan="1">\n                                                    <img autocomplete="off" src="/plugin_assets/fruit_captcha/images/f255.gif" id="captcha"></img>\n                                                  </td>\n                                                  <td rowspan="1" colspan="1">\n                                                    <input name="captcha_response" id="captcha_response" type="text"></input>\n                                                    <input value="255" name="captcha_sequence" id="captcha_sequence" type="hidden"></input>\n                                                  </td>\n                                                </tr>\n                                              </table>\n                                            </td>\n                                          </tr>\n                                          <tr>\n                                            <td rowspan="1" colspan="1" align="right">\n                                              <div class="button_wrapper">\n                                                <input value="Subscribe" name="commit" id="notification_subscription_submit" class="site_button" type="submit"></input>\n                                              </div>\n                                            </td>\n                                          </tr>\n                                        </table>\n                                      </div>\n</form>\n                                  </div>\n                                  <a name="new_comment" shape="rect"></a>\n                                  <div style="color: #1E77B9; font-size: 14px; font-weight: 600; margin: 10px 0px 10px 0px;">Leave a response\xe2\x80\xa6</div>\n                                  <script type="text/javascript" src="http://activeagent-prod-assets1.ar-img.com/javascripts/blog_comments/_form.js?1348685941"></script>\n                                  <link type="text/css" rel="stylesheet" media="screen" href="http://activeagent-prod-assets0.ar-img.com/stylesheets/comment_form.css?1348685941"></link>\n                                  <script type="text/javascript"> var RecaptchaOptions = { theme : \'custom\', custom_theme_widget: \'recaptcha_widget\' }; </script>\n                                  <form \n                                  onsubmit="blog_comment_before_submit(\'Submitting...\'); new Ajax.Updater({failure:\'ajax_messages\'}, \'/blog_entries/2304202/blog_comments\', {asynchronous:true, evalScripts:true, onFailure:function(request){blog_comment_failure(\'Submit Comment\')}, onSuccess:function(request){blog_comment_success(\'http://activerain.com/blogsview/2304202/mckenzie-river-frontage-anyone-42073-deerhorn-rd-springfield-or-97477\')}, parameters:Form.serialize(this)}); return false;" action="/blog_entries/2304202/blog_comments" id="new_blog_comment" class="new_blog_comment" method="post" enctype="application/x-www-form-urlencoded">\n                                    <div id="more_info">\n                                      <input size="30" name="market" id="market" class="market" type="text"></input>\n                                    </div>\n                                    <p style="display: none; color: #d00; font-weight: bold;" id="ajax_messages" class="flash_notice2"></p>\n                                    <table>\n                                      <tr>\n                                        <td rowspan="1" colspan="1">\n                                          <b>\n                                            <label for="blog_comment_name">Name:</label>\n                                          </b>\n                                          <br clear="none"></br>\n                                          <input size="60" name="blog_comment[name]" max_size="64" id="blog_comment_name" type="text"></input>\n                                        </td>\n                                      </tr>\n                                      <tr>\n                                        <td rowspan="1" colspan="1">\n                                          <b>\n                                            <label for="blog_comment_email">Email:</label>\n                                          </b>\n                                          <br clear="none"></br>\n                                          <input size="60" name="blog_comment[email]" max_size="64" id="blog_comment_email" type="text"></input>\n                                          (optional)\n                                        </td>\n                                      </tr>\n                                      <tr>\n                                        <th rowspan="1" colspan="1" align="left">\n                                          <label for="blog_comment_comment">Comment:</label>\n                                        </th>\n                                      </tr>\n                                      <tr>\n                                        <td rowspan="1" colspan="1">\n                                          <textarea name="blog_comment[comment]" id="blog_comment_comment" rows="16" cols="100"></textarea>\n                                          <script type="text/javascript">\n                                            //&lt;![CDATA[\ntinyMCE.init(\n        { mode:\'exact\', \n        convert_urls: false, \n        elements:\'blog_comment_comment\', \n        theme:\'advanced\', \n        plugins: \'spellchecker\', \n        theme_advanced_toolbar_location: \'top\', \n        theme_advanced_buttons1 : \'bold, italic, underline, strikethrough, justifyleft, justifycenter, justifyright, justifyfull, outdent,indent, bullist, numlist,preview,spellchecker\', \n        extended_valid_elements: \'object[classid|codebase|width|height|align|embed|bgcolor|base|name|allowFullScreen|type|pluginspage|seamlesstabbing|id|src|quality|swliveconnect|allowscriptaccess|movie|moviedata],param[name|value],embed[quality|type|pluginspage|width|height|src|align|wmode|flashvars|bgcolor|base|name|allowFullScreen|type|pluginspage|seamlesstabbing|id|src|quality|swliveconnect|allowscriptaccess|movie|moviedata]\', \n        plugin_preview_width : \'600\', \n        plugin_preview_height : \'600\',\n        theme_advanced_buttons2 : \'\',\n        theme_advanced_buttons3 : \'\',\n        file_browser_callback : \'fileBrowserCallBack\',\n        spellchecker_rpc_url : \'/action/spellcheck\'\n        });\n        \n//]]&gt;\n                                          </script>\n                                        </td>\n                                      </tr>\n                                      <tr>\n                                        <td rowspan="1" colspan="1"> </td>\n                                      </tr>\n                                      <tr>\n                                        <td style="border-right: 0px;" class="label" rowspan="1" colspan="1"> Spam Prevention: </td>\n                                      </tr>\n                                      <tr>\n                                        <td style="position: relative; border-right: 0px;" rowspan="1" colspan="2">\n                                          <div style="display:none; width: 300px; margin: 0 auto; float: left;" id="recaptcha_widget">\n                                            <div id="recaptcha_image"></div>\n                                            <div style="color:red" class="recaptcha_only_if_incorrect_sol">Incorrect please try again</div>\n                                            <div style="position: relative;" class="ghost_wrapper">\n                                              <span onclick="$(\'recaptcha_response_field\').focus()" id="recaptcha_response_field_ghost" class="ghost">\n                                                <span class="recaptcha_only_if_image">Type the two words above</span>\n                                                <span class="recaptcha_only_if_audio">Type the numbers you hear</span>\n                                              </span>\n                                              <input onblur="handle_ghost_blur(this)" onfocus="handle_ghost_focus(this)" style="width: 236px" name="recaptcha_response_field" id="recaptcha_response_field" type="text"></input>\n                                              <div style="position:absolute; left:249px; bottom: 0; width: 100px;">\n                                                <img style="cursor: pointer; margin-right: 5px" src="http://activeagent-prod-assets1.ar-img.com/images/sound.gif?1348685941" onclick="Recaptcha.switch_type(\'audio\')" alt="Get an audio CAPTCHA" class="recaptcha_only_if_image"></img>\n                                                <img style="cursor: pointer; margin-right: 5px" src="http://activeagent-prod-assets2.ar-img.com/images/photo.gif?1348685941" onclick="Recaptcha.switch_type(\'image\')" alt="Get an image CAPTCHA" class="recaptcha_only_if_audio"></img>\n                                                <img style="cursor: pointer" src="http://activeagent-prod-assets0.ar-img.com/images/reload.gif?1348685941" onclick="Recaptcha.reload()" alt="Try another CAPTCHA"></img>\n                                              </div>\n                                            </div>\n                                          </div>\n                                        </td>\n                                      </tr>\n                                      <tr>\n                                        <td rowspan="1" colspan="1" align="right">\n                                          <div style="float: right;" class="button_wrapper">\n                                            <input value="Submit Comment" style="float: left;" name="commit" id="blog_comment_submit" class="site_button" type="submit"></input>\n                                          </div>\n                                        </td>\n                                      </tr>\n                                    </table>\n</form>\n                                </td>\n                              </tr>\n                              <script src="http://www.google.com/recaptcha/api/challenge?k=6Lffab0SAAAAADzaY18vUX-VqFDH09unXQ3M8alP" type="text/javascript"></script>\n                            </table>\n                          </td>\n                        </tr>\n                      </table>\n                    </div>\n                    <script charset="utf-8" type="text/javascript"> Event.observe(window, \'load\', initLazyLoad); function initLazyLoad() { $$(&quot;div.comment_image&quot;).each(function(e){ e.style.backgroundImage = &quot;url(&quot;+e.getAttribute(\'imagesrc\')+&quot;)&quot; }) } </script>\n                  </div>\n                </td>\n              </tr>\n            </table>\n          </td>\n          <td width="5px" rowspan="1" colspan="1">\xc2\xa0</td>\n          <td width="210px" bgcolor="#FBFAEA" rowspan="1" colspan="1">\n            <div style="width:220px;" id="blog_nav">\n              <script>\n                function contact(aid)\n{\n//documentation on this: http://prototype-window.xilinus.com/documentation.html\nvar win = new Window(\'modal_window\', \n\t\t\t\t\t{className: &quot;dialog&quot;, title: &quot;Contact&quot;,\n\t\t\t\t\ttop:30, left:30,  width:720, height:580, zIndex:150, \n\t\t\t\t\turl: &quot;/agents/contact?id=&quot; + aid,\n\t\t\t\t\topacity:1, resizable: true})\nwin.setDestroyOnClose();\nwin.show(true);\n}\n              </script>\n              <div style="text-align: center; margin-top: 10px" id="blog_profile" class="">\n                <div onclick="window.location.href=\'/oregonloansbyhelen\'" style="margin-top: 15px; cursor: pointer" class="photo">\n                  <div style="z-index: 1000; position: relative; width:170px; margin: 0 auto">\n                    <img style="display: block" src="http://activerain.com/system/s3_buckets/activerain-image-store-2/agents/311/296311/large/Henry_Aug_2010_013.jpg?1304724512" alt="Henry_aug_2010_013"></img>\n                  </div>\n                </div>\n                <p style="margin-bottom: 0; margin-top: 0">\n                  <b>Helen Williams~Oregon Loans by Helen~ FHA VA USDA Reverse Mortgage Specialist</b>\n                </p>\n                <p style="margin-top: 0">\n                  <a href="/states/OR/cities/Eugene" shape="rect">Eugene</a>\n                  ,\n                  <a href="/states/OR" shape="rect">OR</a>\n                </p>\n                <p>\n                  <a href="/oregonloansbyhelen" shape="rect">More about me\xe2\x80\xa6 </a>\n                </p>\n                <p>Titan Funding Group AKA Western Mortgage Brokers, Inc</p>\n                <p>\n                  <b>Address:</b>\n                  <a target="_blank" href="http://maps.google.com/maps?geocode=&amp;q=Eugene%2C+Springfield%2C+Cottage+Grove%2C+Roseburg%2C+Veneta%2C+Florence%2C%2C+Lane+County%2C+Douglas+County%2C+Linn+County%2C+Oregon%2C+Eugene%2C+OR%2C+97401" shape="rect">\n                    Eugene, Springfield, Cottage Grove, Roseburg, Veneta, Florence,, Lane County, Douglas County, Linn County, Oregon, Eugene, OR, 97401\n                  </a>\n                </p>\n                <p>Office Phone: (541) 341-1400 x 3104</p>\n                <p>Cell Phone: (541) 914-4562</p>\n                <p>\n                  <b>\n                    <a href="/oregonloansbyhelen/contact?return_url=%2Fblogsview%2F2304202%2Fmckenzie-river-frontage-anyone-42073-deerhorn-rd-springfield-or-97477" shape="rect">Email Me</a>\n                  </b>\n                </p>\n              </div>\n              <div style="text-align: left; margin-left:2px;margin-top:5px"> </div>\n              <br clear="none"></br>\n              <br clear="none"></br>\n              <strong>\n                <a href="javascript:expandCollapse(\'blog_links\',\'http://activeagent-prod-assets1.ar-img.com/images/plus.gif?1348685941\',\'http://activeagent-prod-assets0.ar-img.com/images/minus.gif?1348685941\',true);" shape="rect">\n                  <img border="0" src="http://activeagent-prod-assets0.ar-img.com/images/minus.gif?1348685941" id="blog_linksImage"></img>\n                </a>\n                Links\n              </strong>\n              <hr></hr>\n              <div id="blog_links">\n                <ul></ul>\n                <ul></ul>\n              </div>\n              <br clear="none"></br>\n              <strong>\n                <a href="javascript:expandCollapse(\'blog_archives\',\'http://activeagent-prod-assets1.ar-img.com/images/plus.gif?1348685941\',\'http://activeagent-prod-assets0.ar-img.com/images/minus.gif?1348685941\',true);" shape="rect">\n                  <img border="0" src="http://activeagent-prod-assets0.ar-img.com/images/minus.gif?1348685941" id="blog_archivesImage"></img>\n                </a>\n                Archives\n              </strong>\n              <hr></hr>\n              <div id="blog_archives">\n                <ul>\n                  <li>\n                    <a href="/blogs/oregonloansbyhelen/archives/2011/06" shape="rect">June 2011 (6)</a>\n                  </li>\n                  <li>\n                    <a href="/blogs/oregonloansbyhelen/archives/2011/05" shape="rect">May 2011 (17)</a>\n                  </li>\n                  <li>\n                    <a href="/blogs/oregonloansbyhelen/archives/2011/04" shape="rect">April 2011 (18)</a>\n                  </li>\n                </ul>\n              </div>\n              <br clear="none"></br>\n              <p align="center">\n                <a target="_blank" href="/blogs/oregonloansbyhelen/rss" shape="rect">\n                  <img alt="RSS 2.0 Feed for this blog" border="0" src="/images/rss.png"></img>\n                </a>\n              </p>\n            </div>\n          </td>\n        </tr>\n      </table>\n      <div style="background:white">\n        <ul id="bottom_menu" class="top_level_menu">\n          <li>\n            <div>\n              <a href="/about" shape="rect">About</a>\n            </div>\n          </li>\n          <li>\n            <div>\n              <a href="/culture/community_guidelines" shape="rect">Guidelines</a>\n            </div>\n          </li>\n          <li>\n            <div>\n              <a href="/legal/terms_of_service" shape="rect">Terms of Service</a>\n            </div>\n          </li>\n          <li>\n            <div>\n              <a href="/groups/helpfaq" shape="rect">Help/FAQ</a>\n            </div>\n          </li>\n          <li>\n            <div>\n              <a href="/action/default/advertising" shape="rect">Advertise with ActiveRain</a>\n            </div>\n          </li>\n          <li>\n            <div>\n              <a href="/action/default/feedback" shape="rect">Contact ActiveRain</a>\n            </div>\n          </li>\n          <li>\n            <div>\n              <a href="/action/signup" shape="rect">Join ActiveRain</a>\n            </div>\n          </li>\n        </ul>\n        <div id="find_agents" class="bottom_info">\n          <p>\n            Find\n            <a href="/states/OR" shape="rect">OR real estate agents</a>\n            and\n            <a href="/states/OR/cities/Eugene" shape="rect">Eugene real estate</a>\n            on ActiveRain.\n          </p>\n        </div>\n        <div id="copyright" class="bottom_info">\n          <p>\n            Disclaimer: ActiveRain Corp. does not necessarily endorse the  real estate agents, loan officers and brokers listed on this site. These real estate profiles,\n            <a href="/topbloggers" shape="rect">blogs</a>\n            and\n            <a href="/blogindex" shape="rect">blog entries</a>\n            are provided here as a courtesy to our visitors to help them make an informed decision when buying or selling a house. ActiveRain Corp. takes no responsibility for the content in these profiles, that are written by the members of this community.\n          </p>\n          <p>\xc2\xa9 2012 ActiveRain Corp. All Rights Reserved</p>\n          <p style="margin: 0; padding-bottom: 1em">\n            <a href="http://activerain.com/blogsview/46302/Fair-housing-and-ActiveRain" shape="rect">\n              <img src="http://activeagent-prod-assets2.ar-img.com/images/new_design/eho.gif?1348685941" alt="Eho"></img>\n            </a>\n          </p>\n        </div>\n        <script type="text/javascript"> (function() { var po = document.createElement(\'script\'); po.type = \'text/javascript\'; po.async = true; po.src = \'https://apis.google.com/js/plusone.js\'; var s = document.getElementsByTagName(\'script\')[0]; s.parentNode.insertBefore(po, s); })(); </script>\n      </div>\n    </div>\n  </body>\n</html>'
p11
sbsS'mentions'
p12
(lp13
(iedu.umass.cs.iesl.wikilink.expanded.data.ttypes
Mention
p14
(dp15
S'anchor_text'
p16
S'McKenzie River'
p17
sS'context'
p18
(iedu.umass.cs.iesl.wikilink.expanded.data.ttypes
Context
p19
(dp20
S'middle'
p21
S'McKenzie River'
p22
sS'right'
p23
S'. The home is privately located at the end of a\xc2\xa0 road next to the McKenzie River and walking distance to the McKenzie River Golf'
p24
sS'left'
p25
S'McKenzie River Frontage anyone? 42073 Deerhorn Rd Springfield, OR 97477 is for you!\xc2\xa0 You are going to love living on this stretch of the beautiful'
p26
sbsS'freebase_id'
p27
S'9202a8c04000641f800000000032087e'
p28
sS'raw_text_offset'
p29
I29786
sS'wiki_url'
p30
S'http://en.wikipedia.org/wiki/McKenzie_River'
p31
sbasS'doc_id'
p32
I10565
sS'rare_words'
p33
(lp34
(iedu.umass.cs.iesl.wikilink.expanded.data.ttypes
RareWord
p35
(dp36
S'word'
p37
S'just'
p38
sS'offset'
p39
I31265
sba(iedu.umass.cs.iesl.wikilink.expanded.data.ttypes
RareWord
p40
(dp41
g37
S'month'
p42
sg39
I31672
sba(iedu.umass.cs.iesl.wikilink.expanded.data.ttypes
RareWord
p43
(dp44
g37
S'Nadine'
p45
sg39
I33775
sba(iedu.umass.cs.iesl.wikilink.expanded.data.ttypes
RareWord
p46
(dp47
g37
S'Real'
p48
sg39
I33806
sba(iedu.umass.cs.iesl.wikilink.expanded.data.ttypes
RareWord
p49
(dp50
g37
S'frontage'
p51
sg39
I34398
sba(iedu.umass.cs.iesl.wikilink.expanded.data.ttypes
RareWord
p52
(dp53
g37
S'watch'
p54
sg39
I30504
sba(iedu.umass.cs.iesl.wikilink.expanded.data.ttypes
RareWord
p55
(dp56
g37
S'launch'
p57
sg39
I30450
sba(iedu.umass.cs.iesl.wikilink.expanded.data.ttypes
RareWord
p58
(dp59
g37
S'let'
p60
sg39
I34086
sba(iedu.umass.cs.iesl.wikilink.expanded.data.ttypes
RareWord
p61
(dp62
g37
S'stretch'
p63
sg39
I29659
sba(iedu.umass.cs.iesl.wikilink.expanded.data.ttypes
RareWord
p64
(dp65
g37
S'Estate'
p66
sg39
I33811
sbasb.