(iedu.umass.cs.iesl.wikilink.expanded.data.ttypes
WikiLinkItem
p0
(dp1
S'url'
p2
S'http://acordocoletivo.org/2012/09/05/michael-clarke-duncan-2/'
p3
sS'content'
p4
(iedu.umass.cs.iesl.wikilink.expanded.data.ttypes
PageContentItem
p5
(dp6
S'articleText'
p7
NsS'raw'
p8
NsS'fullText'
p9
NsS'dom'
p10
S'<html lang="pt-br" dir="ltr">\n  <head profile="http://gmpg.org/xfn/11">\n    <meta content="text/html; charset=UTF-8" http-equiv="Content-Type"></meta>\n    <title>Michael Clarke Duncan \xc2\xab Acordo Coletivo (Petroleiros, Banc\xc3\x83\xc2\xa1rios, Prof de Sa\xc3\x83\xc2\xbade)</title>\n    <link media="screen" type="text/css" href="http://s1.wp.com/wp-content/themes/pub/black-letterhead/style.css?m=1346773112g" rel="stylesheet"></link>\n    <link href="http://acordocoletivo.org/xmlrpc.php" rel="pingback"></link>\n    <meta content="k9NovZsDS4LIm5jef0QAAA7pYxpnXm6rQoe4SaEn6NE" name="google-site-verification"></meta>\n    <meta content="9BD44A7BFBFC8B1F06678F435A6D83C8" name="msvalidate.01"></meta>\n    <script type="text/javascript" src="http://r-login.wordpress.com/remote-login.php?action=js&amp;host=acordocoletivo.org&amp;id=7504979&amp;t=1349207032&amp;back=acordocoletivo.org%2F2012%2F09%2F05%2Fmichael-clarke-duncan-2%2F"></script>\n    <script type="text/javascript"> /* &lt;![CDATA[ */ if ( \'function\' === typeof WPRemoteLogin ) { document.cookie = &quot;wordpress_test_cookie=test; path=/&quot;; if ( document.cookie.match( /(;|^)\\s*wordpress_test_cookie\\=/ ) ) { WPRemoteLogin(); } } /* ]]&gt; */ </script>\n    <link href="http://acordocoletivo.org/feed/" title="Feed de Acordo Coletivo (Petroleiros, Banc\xc3\x83\xc2\xa1rios, Prof de Sa\xc3\x83\xc2\xbade) \xc2\xbb" type="application/rss+xml" rel="alternate"></link>\n    <link href="http://acordocoletivo.org/comments/feed/" title="Acordo Coletivo (Petroleiros, Banc\xc3\x83\xc2\xa1rios, Prof de Sa\xc3\x83\xc2\xbade) \xc2\xbb Feed de coment\xc3\x83\xc2\xa1rios" type="application/rss+xml" rel="alternate"></link>\n    <link href="http://acordocoletivo.org/2012/09/05/michael-clarke-duncan-2/feed/" title="Acordo Coletivo (Petroleiros, Banc\xc3\x83\xc2\xa1rios, Prof de Sa\xc3\x83\xc2\xbade) \xc2\xbb Michael Clarke\xc2\xa0Duncan Feed de coment\xc3\x83\xc2\xa1rios" type="application/rss+xml" rel="alternate"></link>\n    <script type="text/javascript"> /* &lt;![CDATA[ */ function addLoadEvent(func){var oldonload=window.onload;if(typeof window.onload!=\'function\'){window.onload=func;}else{window.onload=function(){oldonload();func();}}} /* ]]&gt; */ </script>\n    <link \n    media="all" type="text/css" href="http://s1.wp.com/_static/??/wp-content/blog-plugins/loggedout-follow/widget.css,/wp-content/mu-plugins/infinity/themes/pub/black-letterhead.css,/wp-content/mu-plugins/post-flair/style.css,/wp-content/themes/h4/global.css,/wp-content/mu-plugins/widgets/css/widget-grid-and-list.css?m=1349103886j" rel="stylesheet" id="all-css-0">\n</link>\n    <script type="text/javascript"> /* &lt;![CDATA[ */ var LoggedOutFollow = {&quot;invalid_email&quot;:&quot;Sua assinatura n\\u00e3o foi bem sucedida, por favor, tente novamente com um endere\\u00e7o de email v\\u00e1lido.&quot;}; /* ]]&gt; */ </script>\n    <script src="http://s0.wp.com/_static/??/wp-includes/js/jquery/jquery.js,/wp-content/blog-plugins/loggedout-follow/widget.js,/wp-includes/js/comment-reply.js,/wp-content/mu-plugins/widgets/js/widget-bump-view.js?m=1342269540j" type="text/javascript"></script>\n    <link media="all" type="text/css" href="http://s1.wp.com/wp-content/mu-plugins/highlander-comments/style.css?m=1343991657g" rel="stylesheet" id="all-css-0"></link>\n    <link href="http://acordocoletivo.wordpress.com/xmlrpc.php?rsd" title="RSD" type="application/rsd+xml" rel="EditURI"></link>\n    <link href="http://acordocoletivo.wordpress.com/wp-includes/wlwmanifest.xml" type="application/wlwmanifest+xml" rel="wlwmanifest"></link>\n    <link href="http://acordocoletivo.org/2012/09/05/omarosa-manigault-stallworth/" title="Omarosa\xc2\xa0Manigault-Stallworth" rel="prev"></link>\n    <link href="http://acordocoletivo.org/2012/09/05/honorarios-jt-rejeita-competencia-em-demanda-entre-sindicato-e-sindicalizado/" title="Honor\xc3\x83\xc2\xa1rios: JT rejeita compet\xc3\x83\xc2\xaancia em demanda entre sindicato e\xc2\xa0sindicalizado" rel="next"></link>\n    <meta content="WordPress.com" name="generator"></meta>\n    <link href="http://acordocoletivo.org/2012/09/05/michael-clarke-duncan-2/" rel="canonical"></link>\n    <link href="http://wp.me/pvuo3-cOJ" rel="shortlink"></link>\n    <link href="http://public-api.wordpress.com/oembed/1.0/?format=json&amp;url=http%3A%2F%2Facordocoletivo.org%2F2012%2F09%2F05%2Fmichael-clarke-duncan-2%2F&amp;for=wpcom-auto-discovery" type="application/json+oembed" rel="alternate"></link>\n    <link href="http://public-api.wordpress.com/oembed/1.0/?format=xml&amp;url=http%3A%2F%2Facordocoletivo.org%2F2012%2F09%2F05%2Fmichael-clarke-duncan-2%2F&amp;for=wpcom-auto-discovery" type="application/xml+oembed" rel="alternate"></link>\n    <meta content="article" property="og:type"></meta>\n    <meta content="Michael Clarke\xc2\xa0Duncan" property="og:title"></meta>\n    <meta content="http://acordocoletivo.org/2012/09/05/michael-clarke-duncan-2/" property="og:url"></meta>\n    <meta content="From Wikipedia, the free encyclopedia Michael Clarke Duncan Duncan at the Warner Brothers Lot in Burbank, California, in January 2009. Born December 10, 1957 Chicago,\xc3\x82\xc2\xa0Illinois, U.S. Died September ..." property="og:description"></meta>\n    <meta content="Acordo Coletivo (Petroleiros, Banc\xc3\x83\xc2\xa1rios, Prof de Sa\xc3\x83\xc2\xbade)" property="og:site_name"></meta>\n    <meta content="http://upload.wikimedia.org/wikipedia/commons/thumb/f/fc/Padlock-silver.svg/20px-Padlock-silver.svg.png" property="og:image"></meta>\n    <meta content="http://upload.wikimedia.org/wikipedia/commons/thumb/4/4f/MichaelClarkeDuncanJan09.jpg/220px-MichaelClarkeDuncanJan09.jpg" property="og:image"></meta>\n    <meta content="http://upload.wikimedia.org/wikipedia/commons/thumb/9/98/Ambox_current_red.svg/40px-Ambox_current_red.svg.png" property="og:image"></meta>\n    <meta content="http://upload.wikimedia.org/wikipedia/commons/thumb/f/fc/Padlock-silver.svg/20px-Padlock-silver.svg.png" name="twitter:image"></meta>\n    <meta content="summary" name="twitter:card"></meta>\n    <meta content="17525347" name="twitter:creator:id"></meta>\n    <link sizes="16x16" href="http://0.gravatar.com/blavatar/04b976a14edb19b48ac95d3a633ab645?s=16" type="image/x-icon" rel="shortcut icon"></link>\n    <link sizes="16x16" href="http://0.gravatar.com/blavatar/04b976a14edb19b48ac95d3a633ab645?s=16" type="image/x-icon" rel="icon"></link>\n    <link href="http://1.gravatar.com/blavatar/3d626df93ab97ffd6cf24a2c985d8918?s=114" rel="apple-touch-icon-precomposed"></link>\n    <link href="http://acordocoletivo.wordpress.com/?openidserver=1" rel="openid.server"></link>\n    <link href="http://acordocoletivo.wordpress.com/" rel="openid.delegate"></link>\n    <link title="Acordo Coletivo (Petroleiros, Banc\xc3\x83\xc2\xa1rios, Prof de Sa\xc3\x83\xc2\xbade)" href="http://acordocoletivo.org/osd.xml" type="application/opensearchdescription+xml" rel="search"></link>\n    <link title="WordPress.com" href="http://wordpress.com/opensearch.xml" type="application/opensearchdescription+xml" rel="search"></link>\n    <style>\n      /* &lt;![CDATA[ */\n\t\t/* Block: reblog */\n\t\t\n\t\t.reblog-from img                   { margin: 0 10px 0 0; vertical-align: middle; padding: 0; border: 0; }\n\t\t.reblogger-note img.avatar         { float: left; padding: 0; border: 0; }\n\t\t.reblogger-note-content            { margin: 0 0 20px; }\n\t\t.reblog-post .wpcom-enhanced-excerpt-content { border-left: 3px solid #eee; padding-left: 15px; }\n\t\t.reblog-post ul.thumb-list         { display: block; list-style: none; margin: 2px 0; padding: 0; clear: both; }\n\t\t.reblog-post ul.thumb-list li      { display: inline; margin: 0; padding: 0 1px; border: 0; }\n\t\t.reblog-post ul.thumb-list li a    { margin: 0; padding: 0; border: 0; }\n\t\t.reblog-post ul.thumb-list li img  { margin: 0; padding: 0; border: 0; }\n\t\t\n\t\t.reblog-post .wpcom-enhanced-excerpt { clear: both; }\n\t\t\n\t\t.reblog-post .wpcom-enhanced-excerpt address,\n\t\t.reblog-post .wpcom-enhanced-excerpt li,\n\t\t.reblog-post .wpcom-enhanced-excerpt h1,\n\t\t.reblog-post .wpcom-enhanced-excerpt h2,\n\t\t.reblog-post .wpcom-enhanced-excerpt h3,\n\t\t.reblog-post .wpcom-enhanced-excerpt h4,\n\t\t.reblog-post .wpcom-enhanced-excerpt h5,\n\t\t.reblog-post .wpcom-enhanced-excerpt h6,\n\t\t.reblog-post .wpcom-enhanced-excerpt p { font-size: 100% !important; }\n\t\t\n\t\t.reblog-post .wpcom-enhanced-excerpt blockquote,\n\t\t.reblog-post .wpcom-enhanced-excerpt pre,\n\t\t.reblog-post .wpcom-enhanced-excerpt code,\n\t\t.reblog-post .wpcom-enhanced-excerpt q { font-size: 98% !important; }\n\t\t\n\n\t\t/* ]]&gt; */\n    </style>\n    <style type="text/css">.recentcomments a{display:inline !important;padding: 0 !important;margin: 0 !important;}</style>\n    <meta content="-22.900540;-43.302211" name="geo.position"></meta>\n    <meta content="-22.900540, -43.302211" name="ICBM"></meta>\n    <meta content="Acordo Coletivo (Petroleiros, Banc\xc3\x83\xc2\xa1rios, Prof de Sa\xc3\x83\xc2\xbade)" name="application-name"></meta>\n    <meta content="width=device-width;height=device-height" name="msapplication-window"></meta>\n    <meta content="Jornal do Petrol., TI, RH, SMS, Sa\xc3\x83\xc2\xbade do Trab." name="msapplication-tooltip"></meta>\n    <meta content="name=Assinar;action-uri=http://acordocoletivo.org/feed/;icon-uri=http://0.gravatar.com/blavatar/04b976a14edb19b48ac95d3a633ab645?s=16" name="msapplication-task"></meta>\n    <meta content="name=Cadastre-se para um blog gratuito;action-uri=http://wordpress.com/signup/;icon-uri=http://s2.wp.com/i/favicon.ico" name="msapplication-task"></meta>\n    <meta content="name=Suporte WordPress.com;action-uri=http://support.wordpress.com/;icon-uri=http://s2.wp.com/i/favicon.ico" name="msapplication-task"></meta>\n    <meta content="name=F\xc3\x83\xc2\xb3runs WordPress.com;action-uri=http://forums.wordpress.com/;icon-uri=http://s2.wp.com/i/favicon.ico" name="msapplication-task"></meta>\n    <meta content="Michael Clarke\xc2\xa0Duncan | Acordo Coletivo (Petroleiros, Banc\xc3\x83\xc2\xa1rios, Prof de Sa\xc3\x83\xc2\xbade) on WordPress.com" name="title"></meta>\n    <meta \n    content="From Wikipedia, the free encyclopedia Michael Clarke Duncan Duncan at the Warner Brothers Lot in Burbank, California, in January 2009. Born December 10, 1957 Chicago,\xc3\x82\xc2\xa0Illinois, U.S. Died September 3, 2012\xc3\x82\xc2\xa0(aged\xc3\x82\xc2\xa054) Los Angeles,\xc3\x82\xc2\xa0California, U.S. Occupation Actor Years active 1995\xc3\xa2\xe2\x82\xac\xe2\x80\x9c2012 Partner Omarosa Manigault-Stallworth (2010\xc3\xa2\xe2\x82\xac\xe2\x80\x9c2012; his death) This article\xc3\x82\xc2\xa0is about\xc3\x82\xc2\xa0a person who has recently died. Some information, such\xe2\x80\xa6" name="description">\n</meta>\n    <style type="text/css">\n      table.recentcommentsavatar img.avatar {border: 0px; margin:0;}\ntable.recentcommentsavatar a {border: 0px !important;background-color: transparent !important}\ntd.recentcommentsavatartop {padding:0px 0px 1px 0px;margin:0px; }\ntd.recentcommentsavatarend {padding:0px 0px 1px 0px;margin:0px; }\ntd.recentcommentstexttop { border: none !important;padding:0px 0px 0px 10px;}\ntd.recentcommentstextend { border: none !important;padding:0px 0px 2px 10px;}\n    </style>\n    <style type="text/css">\n      #header {\nbackground-repeat: no-repeat;\nbackground-position: bottom center;\nbackground-image: url(http://acordocoletivo.files.wordpress.com/2009/08/cropped-sunrise-fog-pan21.jpg);\n}\n#sidebar {\nborder-top: none;\nborder-bottom: 1px dashed #555;\n}\n.pagepost {\nborder-top: none;\nmargin: 0 0 40px;\n}\n.post {\nborder-top: none;\nmargin: 0 0 40px;\ntext-align: left;\n}\n    </style>\n    <style type="text/css"> #header h1 a, #header div.description { color: #52cbc3 } </style>\n    <style type="text/css" id="custom-background-css"> body.custom-background { background-color: #40520a; } </style>\n  </head>\n  <body class="single single-post postid-49273 single-format-standard custom-background highlander-enabled highlander-dark">\n    <div id="page">\n      <div style="cursor:pointer;" onclick="location.href=\'http://acordocoletivo.org\';" id="header">\n        <h1>\n          <a href="http://acordocoletivo.org/" shape="rect">Acordo Coletivo (Petroleiros, Banc\xc3\x83\xc2\xa1rios, Prof de Sa\xc3\x83\xc2\xbade)</a>\n        </h1>\n        <div class="description">Jornal do Petrol., TI, RH, SMS, Sa\xc3\x83\xc2\xbade do Trab.</div>\n      </div>\n      <div id="content" class="widecolumn">\n        <div class="navigation">\n          <div class="alignleft">\n            \xc2\xab\n            <a rel="prev" href="http://acordocoletivo.org/2012/09/05/omarosa-manigault-stallworth/" shape="rect">Omarosa\xc2\xa0Manigault-Stallworth</a>\n          </div>\n          <div class="alignright">\n            <a rel="next" href="http://acordocoletivo.org/2012/09/05/honorarios-jt-rejeita-competencia-em-demanda-entre-sindicato-e-sindicalizado/" shape="rect">Honor\xc3\x83\xc2\xa1rios: JT rejeita compet\xc3\x83\xc2\xaancia em demanda entre sindicato e\xc2\xa0sindicalizado</a>\n            \xc2\xbb\n          </div>\n        </div>\n        <div class="post-49273 post type-post status-publish format-standard hentry category-sem-categoria">\n          <h2 id="post-49273">Michael Clarke\xc2\xa0Duncan</h2>\n          <div class="entrytext">\n            <div id="pd_rating_holder_21883_post_49273" class="pd-rating"></div>\n            <br clear="none"></br>\n            <h1 id="firstHeading"></h1>\n            <div id="bodyContent">\n              <div id="siteSub">From Wikipedia, the free encyclopedia</div>\n              <div id="contentSub"></div>\n              <div id="jump-to-nav"></div>\n              <div lang="en" id="mw-content-text" dir="ltr">\n                <div id="protected-icon">\n                  <a href="http://en.wikipedia.org/wiki/Wikipedia:Protection_policy#semi" title="This article is semi-protected indefinitely in response to an ongoing high risk of vandalism." shape="rect">\n                    <img height="20" width="20" alt="Page semi-protected" src="http://upload.wikimedia.org/wikipedia/commons/thumb/f/fc/Padlock-silver.svg/20px-Padlock-silver.svg.png"></img>\n                  </a>\n                </div>\n                <table cellspacing="5">\n                  <tbody>\n                    <tr>\n                      <th rowspan="1" colspan="2">Michael Clarke Duncan</th>\n                    </tr>\n                    <tr>\n                      <td rowspan="1" colspan="2">\n                        <a href="http://en.wikipedia.org/wiki/File:MichaelClarkeDuncanJan09.jpg" shape="rect">\n                          <img height="343" width="220" alt="" src="http://upload.wikimedia.org/wikipedia/commons/thumb/4/4f/MichaelClarkeDuncanJan09.jpg/220px-MichaelClarkeDuncanJan09.jpg"></img>\n                        </a>\n                        <br clear="none"></br>\n                        Duncan at the Warner Brothers Lot in Burbank, California, in January 2009.\n                      </td>\n                    </tr>\n                    <tr>\n                      <th scope="row" rowspan="1" colspan="1">Born</th>\n                      <td rowspan="1" colspan="1">\n                        December 10, 1957\n                        <br clear="none"></br>\n                        <a href="http://en.wikipedia.org/wiki/Chicago" title="Chicago" shape="rect">Chicago</a>\n                        ,\xc3\x82\xc2\xa0\n                        <a href="http://en.wikipedia.org/wiki/Illinois" title="Illinois" shape="rect">Illinois</a>\n                        , U.S.\n                      </td>\n                    </tr>\n                    <tr>\n                      <th scope="row" rowspan="1" colspan="1">Died</th>\n                      <td rowspan="1" colspan="1">\n                        September 3, 2012\xc3\x82\xc2\xa0(aged\xc3\x82\xc2\xa054)\n                        <br clear="none"></br>\n                        <a href="http://en.wikipedia.org/wiki/Los_Angeles" title="Los Angeles" shape="rect">Los Angeles</a>\n                        ,\xc3\x82\xc2\xa0\n                        <a href="http://en.wikipedia.org/wiki/California" title="California" shape="rect">California</a>\n                        , U.S.\n                      </td>\n                    </tr>\n                    <tr>\n                      <th scope="row" rowspan="1" colspan="1">Occupation</th>\n                      <td rowspan="1" colspan="1">Actor</td>\n                    </tr>\n                    <tr>\n                      <th scope="row" rowspan="1" colspan="1">Years active</th>\n                      <td rowspan="1" colspan="1">1995\xc3\xa2\xe2\x82\xac\xe2\x80\x9c2012</td>\n                    </tr>\n                    <tr>\n                      <th scope="row" rowspan="1" colspan="1">Partner</th>\n                      <td rowspan="1" colspan="1">\n                        <a href="http://en.wikipedia.org/wiki/Omarosa_Manigault-Stallworth" title="Omarosa Manigault-Stallworth" shape="rect">Omarosa Manigault-Stallworth</a>\n                        <br clear="none"></br>\n                        (2010\xc3\xa2\xe2\x82\xac\xe2\x80\x9c2012; his death)\n                      </td>\n                    </tr>\n                  </tbody>\n                </table>\n                <table>\n                  <tbody>\n                    <tr>\n                      <td rowspan="1" colspan="1">\n                        <div>\n                          <a href="http://en.wikipedia.org/wiki/File:Ambox_current_red.svg" shape="rect">\n                            <img height="32" width="40" alt="Ambox current red.svg" src="http://upload.wikimedia.org/wikipedia/commons/thumb/9/98/Ambox_current_red.svg/40px-Ambox_current_red.svg.png"></img>\n                          </a>\n                        </div>\n                      </td>\n                      <td rowspan="1" colspan="1">\n                        This article\xc3\x82\xc2\xa0\n                        <strong>\n                          is about\xc3\x82\xc2\xa0\n                          <a href="http://en.wikipedia.org/wiki/Deaths_in_2012" title="Deaths in 2012" shape="rect">a person who has recently died</a>\n                        </strong>\n                        . Some information, such as that pertaining to the circumstances of the person\xe2\x80\x99s death and surrounding events, may change as more facts become known.\n                      </td>\n                    </tr>\n                  </tbody>\n                </table>\n                <p>\n                  <strong>Michael Clarke Duncan</strong>\n                  \xc3\x82\xc2\xa0(December 10, 1957 \xc3\xa2\xe2\x82\xac\xe2\x80\x9c September 3, 2012) was an American actor, best known for his breakout role as John Coffey in\xc3\x82\xc2\xa0\n                  <em>\n                    <a href="http://en.wikipedia.org/wiki/The_Green_Mile_(film)" title="The Green Mile (film)" shape="rect">The Green Mile</a>\n                  </em>\n                  , for which he was nominated for an\xc3\x82\xc2\xa0\n                  <a href="http://en.wikipedia.org/wiki/Academy_Award_for_Best_Supporting_Actor" title="Academy Award for Best Supporting Actor" shape="rect">Academy Award</a>\n                  \xc3\x82\xc2\xa0and a\xc3\x82\xc2\xa0\n                  <a href="http://en.wikipedia.org/wiki/Golden_Globe_Award" title="Golden Globe Award" shape="rect">Golden Globe</a>\n                  . He was also recognized for his appearances in motion pictures such as\xc3\x82\xc2\xa0\n                  <em>\n                    <a href="http://en.wikipedia.org/wiki/Armageddon_(1998_film)" title="Armageddon (1998 film)" shape="rect">Armageddon</a>\n                  </em>\n                  ,\xc3\x82\xc2\xa0\n                  <em>\n                    <a href="http://en.wikipedia.org/wiki/The_Green_Mile_(film)" title="The Green Mile (film)" shape="rect">The Green Mile</a>\n                  </em>\n                  ,\xc3\x82\xc2\xa0\n                  <em>\n                    <a href="http://en.wikipedia.org/wiki/The_Whole_Nine_Yards_(film)" title="The Whole Nine Yards (film)" shape="rect">The Whole Nine Yards</a>\n                  </em>\n                  ,\xc3\x82\xc2\xa0\n                  <em>\n                    <a href="http://en.wikipedia.org/wiki/The_Scorpion_King" title="The Scorpion King" shape="rect">The Scorpion King</a>\n                  </em>\n                  \xc3\x82\xc2\xa0and\n                  <em>\n                    <a href="http://en.wikipedia.org/wiki/Daredevil_(film)" title="Daredevil (film)" shape="rect">Daredevil</a>\n                  </em>\n                  , as well as voice acting roles in works such as\xc3\x82\xc2\xa0\n                  <em>\n                    <a href="http://en.wikipedia.org/wiki/Brother_Bear" title="Brother Bear" shape="rect">Brother Bear</a>\n                  </em>\n                  \xc3\x82\xc2\xa0and\xc3\x82\xc2\xa0\n                  <em>\n                    <a href="http://en.wikipedia.org/wiki/Kung_Fu_Panda" title="Kung Fu Panda" shape="rect">Kung Fu Panda</a>\n                  </em>\n                  .\n                </p>\n                <table id="toc">\n                  <tbody>\n                    <tr>\n                      <td rowspan="1" colspan="1">\n                        <div id="toctitle">\n                          <h2>Contents</h2>\n                          <p>\n                            [\n                            <a href="http://en.wikipedia.org/wiki/Michael_Clarke_Duncan#" id="togglelink" shape="rect">hide</a>\n                            ]\n                          </p>\n                        </div>\n                        <ul>\n                          <li>\n                            <a href="http://en.wikipedia.org/wiki/Michael_Clarke_Duncan#Early_life" shape="rect">1\xc3\x82\xc2\xa0Early life</a>\n                          </li>\n                          <li>\n                            <a href="http://en.wikipedia.org/wiki/Michael_Clarke_Duncan#Career" shape="rect">2\xc3\x82\xc2\xa0Career</a>\n                          </li>\n                          <li>\n                            <a href="http://en.wikipedia.org/wiki/Michael_Clarke_Duncan#Illness_and_death" shape="rect">3\xc3\x82\xc2\xa0Illness and death</a>\n                          </li>\n                          <li>\n                            <a href="http://en.wikipedia.org/wiki/Michael_Clarke_Duncan#Filmography" shape="rect">4\xc3\x82\xc2\xa0Filmography</a>\n                          </li>\n                          <li>\n                            <a href="http://en.wikipedia.org/wiki/Michael_Clarke_Duncan#References" shape="rect">5\xc3\x82\xc2\xa0References</a>\n                          </li>\n                          <li>\n                            <a href="http://en.wikipedia.org/wiki/Michael_Clarke_Duncan#External_links" shape="rect">6\xc3\x82\xc2\xa0External links</a>\n                          </li>\n                        </ul>\n                      </td>\n                    </tr>\n                  </tbody>\n                </table>\n                <h2>Early life</h2>\n                <p>\n                  Duncan was born in\xc3\x82\xc2\xa0\n                  <a href="http://en.wikipedia.org/wiki/Chicago" title="Chicago" shape="rect">Chicago</a>\n                  ,\xc3\x82\xc2\xa0\n                  <a href="http://en.wikipedia.org/wiki/Illinois" title="Illinois" shape="rect">Illinois</a>\n                  , and grew up in a single-parent household with his sister, Judy, and mother, Jean Duncan (a house cleaner), after his father left.\n                  <sup>\n                    <a href="http://en.wikipedia.org/wiki/Michael_Clarke_Duncan#cite_note-0" shape="rect">[1]</a>\n                  </sup>\n                  <sup>\n                    <a href="http://en.wikipedia.org/wiki/Michael_Clarke_Duncan#cite_note-1" shape="rect">[2]</a>\n                  </sup>\n                  \xc3\x82\xc2\xa0He always wanted to act, but had to drop out of the Communications program at\xc3\x82\xc2\xa0\n                  <a href="http://en.wikipedia.org/wiki/Alcorn_State_University" title="Alcorn State University" shape="rect">Alcorn State University</a>\n                  \xc3\x82\xc2\xa0to support his family when his mother became ill. Duncan\xe2\x80\x99s large frame\xc3\xa2\xe2\x82\xac\xe2\x80\x9d6 feet 5\xc3\x82\xc2\xa0inches (196\xc3\x82\xc2\xa0cm)\n                  <sup>\n                    <a href="http://en.wikipedia.org/wiki/Michael_Clarke_Duncan#cite_note-autogenerated1-2" shape="rect">[3]</a>\n                  </sup>\n                  \xc3\x82\xc2\xa0and 315 pounds (142\xc3\x82\xc2\xa0kg)\xc3\xa2\xe2\x82\xac\xe2\x80\x9dhelped him in his jobs digging ditches for the People\xe2\x80\x99s Gas Company and being a\xc3\x82\xc2\xa0\n                  <a href="http://en.wikipedia.org/wiki/Bouncer_(doorman)" title="Bouncer (doorman)" shape="rect">bouncer</a>\n                  \xc3\x82\xc2\xa0at several Chicago clubs.\n                  <sup>\n                    <a href="http://en.wikipedia.org/wiki/Michael_Clarke_Duncan#cite_note-3" shape="rect">[4]</a>\n                  </sup>\n                  <sup>\n                    [\n                    <em>\n                      <a href="http://en.wikipedia.org/wiki/Wikipedia:NOTRS" title="Wikipedia:NOTRS" shape="rect">better\xc3\x82\xc2\xa0source\xc3\x82\xc2\xa0needed</a>\n                    </em>\n                    ]\n                  </sup>\n                </p>\n                <p>\n                  In 1979, he participated in the\xc3\x82\xc2\xa0\n                  <a href="http://en.wikipedia.org/wiki/Disco_Demolition_Night" title="Disco Demolition Night" shape="rect">Disco Demolition Night</a>\n                  \xc3\x82\xc2\xa0at\xc3\x82\xc2\xa0\n                  <a href="http://en.wikipedia.org/wiki/Comiskey_Park" title="Comiskey Park" shape="rect">Comiskey Park</a>\n                  , home of the\xc3\x82\xc2\xa0\n                  <a href="http://en.wikipedia.org/wiki/Chicago_White_Sox" title="Chicago White Sox" shape="rect">Chicago White Sox</a>\n                  , where he was among the first 100 people to run onto the field and he slid into third base. During the ensuing riot his silver belt buckle was stolen\n                  <sup>\n                    <a href="http://en.wikipedia.org/wiki/Michael_Clarke_Duncan#cite_note-st099-4" shape="rect">[5]</a>\n                  </sup>\n                  while he was stealing a baseball bat from the dugout.\n                  <sup>\n                    <a href="http://en.wikipedia.org/wiki/Michael_Clarke_Duncan#cite_note-ct909-5" shape="rect">[6]</a>\n                  </sup>\n                </p>\n                <h2>Career</h2>\n                <p>\n                  Duncan took other security jobs while in Los Angeles while trying to get some acting work in commercials. During this time, he worked as a bodyguard for celebrities like\xc3\x82\xc2\xa0\n                  <a href="http://en.wikipedia.org/wiki/Will_Smith" title="Will Smith" shape="rect">Will Smith</a>\n                  ,\xc3\x82\xc2\xa0\n                  <a href="http://en.wikipedia.org/wiki/Martin_Lawrence" title="Martin Lawrence" shape="rect">Martin Lawrence</a>\n                  ,\xc3\x82\xc2\xa0\n                  <a href="http://en.wikipedia.org/wiki/Jamie_Foxx" title="Jamie Foxx" shape="rect">Jamie Foxx</a>\n                  ,\xc3\x82\xc2\xa0\n                  <a href="http://en.wikipedia.org/wiki/LL_Cool_J" title="LL Cool J" shape="rect">LL Cool J</a>\n                  , and\xc3\x82\xc2\xa0\n                  <a href="http://en.wikipedia.org/wiki/The_Notorious_B.I.G." title="The Notorious B.I.G." shape="rect">The Notorious B.I.G.</a>\n                  , all the while doing bit parts in television and films. When the Notorious B.I.G. was killed in 1997, Duncan quit this line of work.\n                  <sup>\n                    <a href="http://en.wikipedia.org/wiki/Michael_Clarke_Duncan#cite_note-autogenerated1-2" shape="rect">[3]</a>\n                  </sup>\n                </p>\n                <p>\n                  In 1998, Duncan was cast as Bear in the film\xc3\x82\xc2\xa0\n                  <em>\n                    <a href="http://en.wikipedia.org/wiki/Armageddon_(1998_film)" title="Armageddon (1998 film)" shape="rect">Armageddon</a>\n                  </em>\n                  , where he struck up a friendship with castmate\xc3\x82\xc2\xa0\n                  <a href="http://en.wikipedia.org/wiki/Bruce_Willis" title="Bruce Willis" shape="rect">Bruce Willis</a>\n                  . It was Bruce Willis\xe2\x80\x99 influence that helped him to get his breakout role as John Coffey in the\xc3\x82\xc2\xa0\n                  <a href="http://en.wikipedia.org/wiki/Frank_Darabont" title="Frank Darabont" shape="rect">Frank Darabont</a>\n                  -directed\xc3\x82\xc2\xa0\n                  <em>\n                    <a href="http://en.wikipedia.org/wiki/The_Green_Mile_(film)" title="The Green Mile (film)" shape="rect">The Green Mile</a>\n                  </em>\n                  , a role which netted him an\xc3\x82\xc2\xa0\n                  <a href="http://en.wikipedia.org/wiki/Academy_Award" title="Academy Award" shape="rect">Academy Award</a>\n                  \xc3\x82\xc2\xa0nomination for\xc3\x82\xc2\xa0\n                  <a href="http://en.wikipedia.org/wiki/Academy_Award_for_Best_Supporting_Actor" title="Academy Award for Best Supporting Actor" shape="rect">Best Actor in a Supporting Role</a>\n                  and a\xc3\x82\xc2\xa0\n                  <a href="http://en.wikipedia.org/wiki/Golden_Globe_Award" title="Golden Globe Award" shape="rect">Golden Globe</a>\n                  \xc3\x82\xc2\xa0nomination for\xc3\x82\xc2\xa0\n                  <a href="http://en.wikipedia.org/wiki/Golden_Globe_Award_for_Best_Supporting_Actor_%E2%80%93_Motion_Picture" title="Golden Globe Award for Best Supporting Actor \xc3\xa2\xe2\x82\xac\xe2\x80\x9c Motion Picture" shape="rect">Best Performance by an Actor in a Supporting Role in a Motion Picture</a>\n                  .\n                  <sup>\n                    <a href="http://en.wikipedia.org/wiki/Michael_Clarke_Duncan#cite_note-6" shape="rect">[7]</a>\n                  </sup>\n                  <sup>\n                    <a href="http://en.wikipedia.org/wiki/Michael_Clarke_Duncan#cite_note-7" shape="rect">[8]</a>\n                  </sup>\n                </p>\n                <p>\n                  Duncan then was cast in a string of films that helped to establish him as a star:\xc3\x82\xc2\xa0\n                  <em>\n                    <a href="http://en.wikipedia.org/wiki/The_Whole_Nine_Yards_(film)" title="The Whole Nine Yards (film)" shape="rect">The Whole Nine Yards</a>\n                  </em>\n                  ,\xc3\x82\xc2\xa0\n                  <em>\n                    <a href="http://en.wikipedia.org/wiki/Planet_of_the_Apes_(2001_film)" title="Planet of the Apes (2001 film)" shape="rect">Planet of the Apes</a>\n                  </em>\n                  ,\xc3\x82\xc2\xa0\n                  <em>\n                    <a href="http://en.wikipedia.org/wiki/The_Scorpion_King" title="The Scorpion King" shape="rect">The Scorpion King</a>\n                  </em>\n                  \xc3\x82\xc2\xa0(where he starred alongside his friend,\xc3\x82\xc2\xa0\n                  <a href="http://en.wikipedia.org/wiki/Dwayne_Johnson" title="Dwayne Johnson" shape="rect">The Rock</a>\n                  ),\xc3\x82\xc2\xa0\n                  <em>\n                    <a href="http://en.wikipedia.org/wiki/The_Island_(2005_film)" title="The Island (2005 film)" shape="rect">The Island</a>\n                  </em>\n                  \xc3\x82\xc2\xa0and\xc3\x82\xc2\xa0\n                  <em>\n                    <a href="http://en.wikipedia.org/wiki/Daredevil_(film)" title="Daredevil (film)" shape="rect">Daredevil</a>\n                  </em>\n                  \xc3\x82\xc2\xa0(reuniting him with\xc3\x82\xc2\xa0\n                  <em>Armageddon</em>\n                  \xc3\x82\xc2\xa0co-star\xc3\x82\xc2\xa0\n                  <a href="http://en.wikipedia.org/wiki/Ben_Affleck" title="Ben Affleck" shape="rect">Ben Affleck</a>\n                  ) as Wilson Fisk, aka\xc3\x82\xc2\xa0\n                  <a href="http://en.wikipedia.org/wiki/Kingpin_(comics)" title="Kingpin (comics)" shape="rect">The Kingpin</a>\n                  .\n                </p>\n                <p>\n                  Duncan signed on for the role of the Kingpin in January 2002, though he had been attached far earlier.\n                  <sup>\n                    <a href="http://en.wikipedia.org/wiki/Michael_Clarke_Duncan#cite_note-8" shape="rect">[9]</a>\n                  </sup>\n                  \xc3\x82\xc2\xa0When he was cast, he weighed 290 pounds. He was asked to gain 40 pounds for the role in order to fit the physique of Kingpin. In order to do this, he would lift weights for 30 minutes a day, and\xc3\x82\xc2\xa0\n                  <a href="http://en.wikipedia.org/wiki/Powerlifting" title="Powerlifting" shape="rect">power-lifted</a>\n                  \xc3\x82\xc2\xa0with one or two reps a day, as well as eating whatever he wanted. Despite this, Duncan\xe2\x80\x99s biggest concern was that he was black, because Kingpin had always been portrayed as white.\n                  <sup>\n                    <a href="http://en.wikipedia.org/wiki/Michael_Clarke_Duncan#cite_note-9" shape="rect">[10]</a>\n                  </sup>\n                  \xc3\x82\xc2\xa0He spoke on the fans\xe2\x80\x99 loyalty to the source material by saying \xe2\x80\x9cthey watch movies to say, \xe2\x80\x98Hey, that\xe2\x80\x99s not like the comic book.\xe2\x80\x99 But I want them to get past that and just see the movie for what it is and see me for what I am\xc3\xa2\xe2\x82\xac\xe2\x80\x9dan actor.\xe2\x80\x9d\n                  <sup>\n                    <a href="http://en.wikipedia.org/wiki/Michael_Clarke_Duncan#cite_note-10" shape="rect">[11]</a>\n                  </sup>\n                </p>\n                <p>\n                  In July 2006, Duncan showed interest in returning for the role of the Kingpin, but stated that he would not be willing to gain weight as he felt \xe2\x80\x9ccomfortable\xe2\x80\x9d being down to 270 pounds. However, he jokingly showed willingness to change his mind if he were offered $20 million. Duncan suggested that the character be portrayed as having been training a lot in jail in order to become faster in combat against Daredevil, also working as a way to fit his weight loss into the story.\n                  <sup>\n                    <a href="http://en.wikipedia.org/wiki/Michael_Clarke_Duncan#cite_note-11" shape="rect">[12]</a>\n                  </sup>\n                  \xc3\x82\xc2\xa0In 2009, he stopped eating\xc3\x82\xc2\xa0\n                  <a href="http://en.wikipedia.org/wiki/Meat" title="Meat" shape="rect">meat</a>\n                  \xc3\x82\xc2\xa0and later appeared in a\xc3\x82\xc2\xa0\n                  <a href="http://en.wikipedia.org/wiki/People_for_the_Ethical_Treatment_of_Animals" title="People for the Ethical Treatment of Animals" shape="rect">PETA</a>\n                  \xc3\x82\xc2\xa0ad campaign, touting the health benefits and his increased strength from a\xc3\x82\xc2\xa0\n                  <a href="http://en.wikipedia.org/wiki/Vegetarianism" title="Vegetarianism" shape="rect">vegetarian diet</a>\n                  .\n                  <sup>\n                    <a href="http://en.wikipedia.org/wiki/Michael_Clarke_Duncan#cite_note-12" shape="rect">[13]</a>\n                  </sup>\n                </p>\n                <p>\n                  Duncan also provided his voice for a number of roles, including\xc3\x82\xc2\xa0\n                  <em>\n                    <a href="http://en.wikipedia.org/wiki/Brother_Bear" title="Brother Bear" shape="rect">Brother Bear</a>\n                  </em>\n                  \xc3\x82\xc2\xa0and its sequel,\xc3\x82\xc2\xa0\n                  <em>\n                    <a href="http://en.wikipedia.org/wiki/Brother_Bear_2" title="Brother Bear 2" shape="rect">Brother Bear 2</a>\n                  </em>\n                  ,\xc3\x82\xc2\xa0\n                  <em>\n                    <a href="http://en.wikipedia.org/wiki/The_Land_Before_Time_XI:_Invasion_of_the_Tinysauruses" title="The Land Before Time XI: Invasion of the Tinysauruses" shape="rect">The Land Before Time XI: Invasion of the Tinysauruses</a>\n                  </em>\n                  ,\xc3\x82\xc2\xa0\n                  <a href="http://en.wikipedia.org/wiki/Quiznos" title="Quiznos" shape="rect">Quiznos</a>\n                  commercials, and the video games\xc3\x82\xc2\xa0\n                  <em>\n                    <a href="http://en.wikipedia.org/wiki/Forgotten_Realms:_Demon_Stone" title="Forgotten Realms: Demon Stone" shape="rect">Demon Stone</a>\n                  </em>\n                  ,\xc3\x82\xc2\xa0\n                  <em>\n                    <a href="http://en.wikipedia.org/wiki/SOCOM_II:_U.S._Navy_SEALs" title="SOCOM II: U.S. Navy SEALs" shape="rect">SOCOM II: U.S. Navy SEALs</a>\n                  </em>\n                  ,\xc3\x82\xc2\xa0\n                  <em>\n                    <a href="http://en.wikipedia.org/wiki/The_Suffering:_Ties_That_Bind" title="The Suffering: Ties That Bind" shape="rect">The Suffering: Ties That Bind</a>\n                  </em>\n                  ,\xc3\x82\xc2\xa0\n                  <em>\n                    <a href="http://en.wikipedia.org/wiki/Saints_Row" title="Saints Row" shape="rect">Saints Row</a>\n                  </em>\n                  , and\xc3\x82\xc2\xa0\n                  <em>\n                    <a href="http://en.wikipedia.org/wiki/Soldier_of_Fortune_(video_game)" title="Soldier of Fortune (video game)" shape="rect">Soldier of Fortune</a>\n                  </em>\n                  , with his most recent role being\xc3\x82\xc2\xa0\n                  <em>\n                    <a href="http://en.wikipedia.org/wiki/God_of_War_II" title="God of War II" shape="rect">God of War II</a>\n                  </em>\n                  , where he provides the voice of\xc3\x82\xc2\xa0\n                  <a href="http://en.wikipedia.org/wiki/Atlas_(mythology)" title="Atlas (mythology)" shape="rect">Atlas</a>\n                  , the\xc3\x82\xc2\xa0\n                  <a href="http://en.wikipedia.org/wiki/Titan_(mythology)" title="Titan (mythology)" shape="rect">Titan</a>\n                  \xc3\x82\xc2\xa0condemned by\xc3\x82\xc2\xa0\n                  <a href="http://en.wikipedia.org/wiki/Zeus" title="Zeus" shape="rect">Zeus</a>\n                  \xc3\x82\xc2\xa0to stand at the western edge of the earth and hold up the sky on his shoulders. He reprised his role as the Kingpin in\xc3\x82\xc2\xa0\n                  <em>\n                    <a href="http://en.wikipedia.org/wiki/Spider-Man:_The_New_Animated_Series" title="Spider-Man: The New Animated Series" shape="rect">Spider-Man: The New Animated Series</a>\n                  </em>\n                  .\n                </p>\n                <p>\n                  In 2005, he starred in the film\xc3\x82\xc2\xa0\n                  <em>\n                    <a href="http://en.wikipedia.org/wiki/Sin_City_(film)" title="Sin City (film)" shape="rect">Sin City</a>\n                  </em>\n                  \xc3\x82\xc2\xa0(again alongside Bruce Willis) as Manute, a powerful mobster. Duncan appeared in a minor role in the 2006 movie\xc3\x82\xc2\xa0\n                  <em>\n                    <a href="http://en.wikipedia.org/wiki/Talladega_Nights:_The_Ballad_of_Ricky_Bobby" title="Talladega Nights: The Ballad of Ricky Bobby" shape="rect">Talladega Nights: The Ballad of Ricky Bobby</a>\n                  </em>\n                  \xc3\x82\xc2\xa0as Lucius Washington, and he voiced the role of the villain Massive in\xc3\x82\xc2\xa0\n                  <em>\n                    <a href="http://en.wikipedia.org/wiki/Loonatics_Unleashed" title="Loonatics Unleashed" shape="rect">Loonatics Unleashed</a>\n                  </em>\n                  . In 2006, he voiced the role of Numbuh 26 in the animated movie\xc3\x82\xc2\xa0\n                  <em>\n                    <a href="http://en.wikipedia.org/wiki/List_of_Codename:_Kids_Next_Door_episodes#Films_and_specials_.282006.E2.80.932008.29" title="List of Codename: Kids Next Door episodes" shape="rect">Codename: Kids Next Door: Operation ZERO</a>\n                  </em>\n                  . Additionally, he played Balrog in\xc3\x82\xc2\xa0\n                  <em>\n                    <a href="http://en.wikipedia.org/wiki/Street_Fighter:_The_Legend_of_Chun-Li" title="Street Fighter: The Legend of Chun-Li" shape="rect">Street Fighter: The Legend of Chun-Li</a>\n                  </em>\n                  \xc3\x82\xc2\xa0and voiced the prison commander in\n                  <em>\n                    <a href="http://en.wikipedia.org/wiki/Kung_Fu_Panda" title="Kung Fu Panda" shape="rect">Kung Fu Panda</a>\n                  </em>\n                  .\n                </p>\n                <p>\n                  He also guest starred in numerous television shows. He appeared in an episode of\xc3\x82\xc2\xa0\n                  <em>\n                    <a href="http://en.wikipedia.org/wiki/The_Suite_Life_of_Zack_%26_Cody" title="The Suite Life of Zack &amp; Cody" shape="rect">The Suite Life of Zack &amp; Cody</a>\n                  </em>\n                  , titled \xe2\x80\x9cBenchwarmers\xe2\x80\x9d, as Zack\xe2\x80\x99s basketball coach, Coach Little. In 2005, Duncan guest-starred in a first-season episode of\xc3\x82\xc2\xa0\n                  <em>\n                    <a href="http://en.wikipedia.org/wiki/CSI:_NY" title="CSI: NY" shape="rect">CSI: NY</a>\n                  </em>\n                  .\n                  <sup>\n                    <a href="http://en.wikipedia.org/wiki/Michael_Clarke_Duncan#cite_note-13" shape="rect">[14]</a>\n                  </sup>\n                  \xc3\x82\xc2\xa0He appeared as \xe2\x80\x9cColt\xe2\x80\x9d in the second-season premiere of\xc3\x82\xc2\xa0\n                  <em>\n                    <a href="http://en.wikipedia.org/wiki/Chuck_(TV_series)" title="Chuck (TV series)" shape="rect">Chuck</a>\n                  </em>\n                  , \xe2\x80\x9c\n                  <a href="http://en.wikipedia.org/wiki/List_of_Chuck_episodes#Season_2:_2008-2009" title="List of Chuck episodes" shape="rect">Chuck Versus The First Date</a>\n                  \xe2\x80\x9c.\n                  <sup>\n                    <a href="http://en.wikipedia.org/wiki/Michael_Clarke_Duncan#cite_note-14" shape="rect">[15]</a>\n                  </sup>\n                  \xc3\x82\xc2\xa0In November he appeared as a guest star on the\xc3\x82\xc2\xa0\n                  <a href="http://en.wikipedia.org/wiki/CBS" title="CBS" shape="rect">CBS</a>\n                  \xc3\x82\xc2\xa0show\xc3\x82\xc2\xa0\n                  <em>\n                    <a href="http://en.wikipedia.org/wiki/Two_and_a_Half_Men" title="Two and a Half Men" shape="rect">Two and a Half Men</a>\n                  </em>\n                  . In April 2011 Duncan guest starred on an episode of TV series\xc3\x82\xc2\xa0\n                  <em>\n                    <a href="http://en.wikipedia.org/wiki/Bones_(TV_series)" title="Bones (TV series)" shape="rect">Bones</a>\n                  </em>\n                  \xc3\x82\xc2\xa0as Leo Knox. In 2012, Duncan got his first starring role as the same character in the spinoff series\xc3\x82\xc2\xa0\n                  <em>\n                    <a href="http://en.wikipedia.org/wiki/The_Finder_(U.S._TV_series)" title="The Finder (U.S. TV series)" shape="rect">The Finder</a>\n                  </em>\n                  . In the same year, he appeared in a\xc3\x82\xc2\xa0\n                  <a href="http://en.wikipedia.org/wiki/Public_service_announcement" title="Public service announcement" shape="rect">public service announcement</a>\n                  advertising the importance of knowing early-onset symptoms of\xc3\x82\xc2\xa0\n                  <a href="http://en.wikipedia.org/wiki/Stroke" title="Stroke" shape="rect">strokes</a>\n                  . During the week of May 14, 2012, Duncan appeared on the late night talk show\xc3\x82\xc2\xa0\n                  <em>\n                    <a href="http://en.wikipedia.org/wiki/The_Late_Late_Show_with_Craig_Ferguson" title="The Late Late Show with Craig Ferguson" shape="rect">The Late Late Show with Craig Ferguson</a>\n                  </em>\n                  \xc3\x82\xc2\xa0as a guest, when the show was taping for a week in\xc3\x82\xc2\xa0\n                  <a href="http://en.wikipedia.org/wiki/Scotland" title="Scotland" shape="rect">Scotland</a>\n                  .\n                </p>\n                <h2>Illness and death</h2>\n                <p>\n                  On July 13, 2012, Duncan was taken to a hospital after suffering a\xc3\x82\xc2\xa0\n                  <a href="http://en.wikipedia.org/wiki/Myocardial_infarction" title="Myocardial infarction" shape="rect">heart attack</a>\n                  .\n                  <sup>\n                    <a href="http://en.wikipedia.org/wiki/Michael_Clarke_Duncan#cite_note-15" shape="rect">[16]</a>\n                  </sup>\n                  \xc3\x82\xc2\xa0Media reports suggested that his girlfriend,\xc3\x82\xc2\xa0\n                  <a href="http://en.wikipedia.org/wiki/Omarosa_Manigault-Stallworth" title="Omarosa Manigault-Stallworth" shape="rect">Omarosa Manigault-Stallworth</a>\n                  , had previously tried to save his life by performing\xc3\x82\xc2\xa0\n                  <a href="http://en.wikipedia.org/wiki/Cardiopulmonary_resuscitation" title="Cardiopulmonary resuscitation" shape="rect">CPR</a>\n                  .\n                  <sup>\n                    <a href="http://en.wikipedia.org/wiki/Michael_Clarke_Duncan#cite_note-16" shape="rect">[17]</a>\n                  </sup>\n                  \xc3\x82\xc2\xa0Duncan\xe2\x80\x99s publicist, Joy Fehily, issued a statement on August 6 that read he was moved from the\xc3\x82\xc2\xa0\n                  <a href="http://en.wikipedia.org/wiki/Intensive-care_unit" title="Intensive-care unit" shape="rect">Intensive-care unit</a>\n                  \xc3\x82\xc2\xa0but remained hospitalized following his heart attack.\n                  <sup>\n                    <a href="http://en.wikipedia.org/wiki/Michael_Clarke_Duncan#cite_note-17" shape="rect">[18]</a>\n                  </sup>\n                </p>\n                <p>\n                  On September 3, Fehily quoted Manigault as saying that Duncan had died in Los Angeles. He added that celebrations of Duncan\xe2\x80\x99s life would be announced at a later date.\n                  <sup>\n                    <a href="http://en.wikipedia.org/wiki/Michael_Clarke_Duncan#cite_note-BNONews2012-18" shape="rect">[19]</a>\n                  </sup>\n                  <sup>\n                    <a href="http://en.wikipedia.org/wiki/Michael_Clarke_Duncan#cite_note-19" shape="rect">[20]</a>\n                  </sup>\n                  \xc3\x82\xc2\xa0The statement also, for the first time, described Manigault as Duncan\xe2\x80\x99s fianc\xc3\x83\xc2\xa9e.\n                  <sup>\n                    <a href="http://en.wikipedia.org/wiki/Michael_Clarke_Duncan#cite_note-20" shape="rect">[21]</a>\n                  </sup>\n                </p>\n                <h2>Filmography</h2>\n                <table>\n                  <thead>\n                    <tr>\n                      <th rowspan="1" colspan="1">Year</th>\n                      <th rowspan="1" colspan="1">Title</th>\n                      <th rowspan="1" colspan="1">Role</th>\n                      <th rowspan="1" colspan="1">Notes</th>\n                    </tr>\n                  </thead>\n                  <tbody>\n                    <tr>\n                      <td rowspan="3" colspan="1">1995</td>\n                      <td rowspan="1" colspan="1">\n                        <em>\n                          <a href="http://en.wikipedia.org/wiki/Friday_(1995_film)" title="Friday (1995 film)" shape="rect">Friday</a>\n                        </em>\n                      </td>\n                      <td rowspan="1" colspan="1">Craps player</td>\n                      <td rowspan="1" colspan="1">Uncredited</td>\n                    </tr>\n                    <tr>\n                      <td rowspan="1" colspan="1">\n                        <em>\n                          <a href="http://en.wikipedia.org/wiki/The_Fresh_Prince_of_Bel-Air" title="The Fresh Prince of Bel-Air" shape="rect">The Fresh Prince of Bel-Air</a>\n                        </em>\n                      </td>\n                      <td rowspan="1" colspan="1">Tiny</td>\n                      <td rowspan="1" colspan="1">1 episode</td>\n                    </tr>\n                    <tr>\n                      <td rowspan="1" colspan="1">\n                        <em>\n                          <a href="http://en.wikipedia.org/wiki/Married..._with_Children" title="Married... with Children" shape="rect">Married\xe2\x80\xa6 with Children</a>\n                        </em>\n                      </td>\n                      <td rowspan="1" colspan="1">Bouncer</td>\n                      <td rowspan="1" colspan="1">1 episode</td>\n                    </tr>\n                    <tr>\n                      <td rowspan="1" colspan="1">1997</td>\n                      <td rowspan="1" colspan="1">\n                        <em>\n                          <a href="http://en.wikipedia.org/wiki/Back_in_Business_(1997_film)" title="Back in Business (1997 film)" shape="rect">Back in Business</a>\n                        </em>\n                      </td>\n                      <td rowspan="1" colspan="1">Huge guard</td>\n                      <td rowspan="1" colspan="1"></td>\n                    </tr>\n                    <tr>\n                      <td rowspan="5" colspan="1">1998</td>\n                      <td rowspan="1" colspan="1">\n                        <em>\n                          <a href="http://en.wikipedia.org/wiki/Caught_Up_(film)" title="Caught Up (film)" shape="rect">Caught Up</a>\n                        </em>\n                      </td>\n                      <td rowspan="1" colspan="1">BB</td>\n                      <td rowspan="1" colspan="1"></td>\n                    </tr>\n                    <tr>\n                      <td rowspan="1" colspan="1">\n                        <em>\n                          <a href="http://en.wikipedia.org/wiki/The_Players_Club" title="The Players Club" shape="rect">The Players Club</a>\n                        </em>\n                      </td>\n                      <td rowspan="1" colspan="1">Bodyguard</td>\n                      <td rowspan="1" colspan="1"></td>\n                    </tr>\n                    <tr>\n                      <td rowspan="1" colspan="1">\n                        <em>\n                          <a href="http://en.wikipedia.org/wiki/Bulworth" title="Bulworth" shape="rect">Bulworth</a>\n                        </em>\n                      </td>\n                      <td rowspan="1" colspan="1">Bouncer</td>\n                      <td rowspan="1" colspan="1"></td>\n                    </tr>\n                    <tr>\n                      <td rowspan="1" colspan="1">\n                        <em>\n                          <a href="http://en.wikipedia.org/wiki/Armageddon_(1998_film)" title="Armageddon (1998 film)" shape="rect">Armageddon</a>\n                        </em>\n                      </td>\n                      <td rowspan="1" colspan="1">Bear</td>\n                      <td rowspan="1" colspan="1"></td>\n                    </tr>\n                    <tr>\n                      <td rowspan="1" colspan="1">\n                        <em>\n                          <a href="http://en.wikipedia.org/wiki/A_Night_at_the_Roxbury" title="A Night at the Roxbury" shape="rect">A Night at the Roxbury</a>\n                        </em>\n                      </td>\n                      <td rowspan="1" colspan="1">Bouncer</td>\n                      <td rowspan="1" colspan="1"></td>\n                    </tr>\n                    <tr>\n                      <td rowspan="5" colspan="1">1999</td>\n                      <td rowspan="1" colspan="1">\n                        <em>\n                          <a href="http://en.wikipedia.org/wiki/Breakfast_of_Champions_(film)" title="Breakfast of Champions (film)" shape="rect">Breakfast of Champions</a>\n                        </em>\n                      </td>\n                      <td rowspan="1" colspan="1">Eli</td>\n                      <td rowspan="1" colspan="1"></td>\n                    </tr>\n                    <tr>\n                      <td rowspan="1" colspan="1">\n                        <em>\n                          <a href="http://en.wikipedia.org/wiki/Sister,_Sister_(TV_series)" title="Sister, Sister (TV series)" shape="rect">Sister, Sister</a>\n                        </em>\n                      </td>\n                      <td rowspan="1" colspan="1">Big Earl</td>\n                      <td rowspan="1" colspan="1"></td>\n                    </tr>\n                    <tr>\n                      <td rowspan="1" colspan="1">\n                        <em>\n                          <a href="http://en.wikipedia.org/wiki/The_Underground_Comedy_Movie" title="The Underground Comedy Movie" shape="rect">The Underground Comedy Movie</a>\n                        </em>\n                      </td>\n                      <td rowspan="1" colspan="1">Gay virgin</td>\n                      <td rowspan="1" colspan="1"></td>\n                    </tr>\n                    <tr>\n                      <td rowspan="1" colspan="1">\n                        <em>The Black and the White</em>\n                      </td>\n                      <td rowspan="1" colspan="1">Earl Clayton</td>\n                      <td rowspan="1" colspan="1"></td>\n                    </tr>\n                    <tr>\n                      <td rowspan="1" colspan="1">\n                        <em>\n                          <a href="http://en.wikipedia.org/wiki/The_Green_Mile_(film)" title="The Green Mile (film)" shape="rect">The Green Mile</a>\n                        </em>\n                      </td>\n                      <td rowspan="1" colspan="1">John Coffey</td>\n                      <td rowspan="1" colspan="1">\n                        <a href="http://en.wikipedia.org/wiki/Black_Reel_Award_for_Best_Supporting_Actor" title="Black Reel Award for Best Supporting Actor" shape="rect">Black Reel Award for Best Supporting Actor</a>\n                        <br clear="none"></br>\n                        <a href="http://en.wikipedia.org/wiki/Saturn_Award_for_Best_Supporting_Actor" title="Saturn Award for Best Supporting Actor" shape="rect">Saturn Award for Best Supporting Actor</a>\n                        <br clear="none"></br>\n                        Nominated \xc3\xa2\xe2\x82\xac\xe2\x80\x9c\xc3\x82\xc2\xa0\n                        <a href="http://en.wikipedia.org/wiki/Academy_Award_for_Best_Supporting_Actor" title="Academy Award for Best Supporting Actor" shape="rect">Academy Award for Best Supporting Actor</a>\n                        <br clear="none"></br>\n                        Nominated \xc3\xa2\xe2\x82\xac\xe2\x80\x9c Blockbuster Entertainment Award for Best Supporting Actor\n                        <br clear="none"></br>\n                        Nominated \xc3\xa2\xe2\x82\xac\xe2\x80\x9c\xc3\x82\xc2\xa0\n                        <a href="http://en.wikipedia.org/wiki/Chicago_Film_Critics_Association_Award_for_Best_Supporting_Actor" title="Chicago Film Critics Association Award for Best Supporting Actor" shape="rect">Chicago Film Critics Association Award for Best Supporting Actor</a>\n                        <br clear="none"></br>\n                        Nominated \xc3\xa2\xe2\x82\xac\xe2\x80\x9c\xc3\x82\xc2\xa0\n                        <a href="http://en.wikipedia.org/wiki/Golden_Globe_Award_for_Best_Supporting_Actor_%E2%80%93_Motion_Picture" title="Golden Globe Award for Best Supporting Actor \xc3\xa2\xe2\x82\xac\xe2\x80\x9c Motion Picture" shape="rect">Golden Globe Award for Best Supporting Actor \xc3\xa2\xe2\x82\xac\xe2\x80\x9c Motion Picture</a>\n                        <br clear="none"></br>\n                        Nominated \xc3\xa2\xe2\x82\xac\xe2\x80\x9c\xc3\x82\xc2\xa0\n                        <a href="http://en.wikipedia.org/wiki/NAACP_Image_Award_for_Outstanding_Supporting_Actor_in_a_Motion_Picture" title="NAACP Image Award for Outstanding Supporting Actor in a Motion Picture" shape="rect">NAACP Image Award for Outstanding Supporting Actor in a Motion Picture</a>\n                        <br clear="none"></br>\n                        Nominated \xc3\xa2\xe2\x82\xac\xe2\x80\x9c\xc3\x82\xc2\xa0\n                        <a href="http://en.wikipedia.org/wiki/MTV_Movie_Awards" title="MTV Movie Awards" shape="rect">MTV Movie Award</a>\n                        \xc3\x82\xc2\xa0for Breakthrough Performance\n                        <br clear="none"></br>\n                        Nominated \xc3\xa2\xe2\x82\xac\xe2\x80\x9c\xc3\x82\xc2\xa0\n                        <a href="http://en.wikipedia.org/wiki/Online_Film_Critics_Society_Award_for_Best_Supporting_Actor" title="Online Film Critics Society Award for Best Supporting Actor" shape="rect">Online Film Critics Society Award for Best Supporting Actor</a>\n                        <br clear="none"></br>\n                        Nominated \xc3\xa2\xe2\x82\xac\xe2\x80\x9c\xc3\x82\xc2\xa0\n                        <a href="http://en.wikipedia.org/wiki/Screen_Actors_Guild_Award_for_Outstanding_Performance_by_a_Cast_in_a_Motion_Picture" title="Screen Actors Guild Award for Outstanding Performance by a Cast in a Motion Picture" shape="rect">\n                          Screen Actors Guild Award for Outstanding Performance by a Cast in a Motion Picture\n                        </a>\n                        <br clear="none"></br>\n                        Nominated \xc3\xa2\xe2\x82\xac\xe2\x80\x9c\xc3\x82\xc2\xa0\n                        <a href="http://en.wikipedia.org/wiki/Screen_Actors_Guild_Award_for_Outstanding_Performance_by_a_Male_Actor_in_a_Supporting_Role" title="Screen Actors Guild Award for Outstanding Performance by a Male Actor in a Supporting Role" shape="rect">\n                          Screen Actors Guild Award for Outstanding Performance by a Male Actor in a Supporting Role\n                        </a>\n                      </td>\n                    </tr>\n                    <tr>\n                      <td rowspan="2" colspan="1">2000</td>\n                      <td rowspan="1" colspan="1">\n                        <em>\n                          <a href="http://en.wikipedia.org/wiki/The_Whole_Nine_Yards_(film)" title="The Whole Nine Yards (film)" shape="rect">The Whole Nine Yards</a>\n                        </em>\n                      </td>\n                      <td rowspan="1" colspan="1">Franklin \xe2\x80\x9cFrankie Figs\xe2\x80\x9d Figueroa</td>\n                      <td rowspan="1" colspan="1">Nominated \xc3\xa2\xe2\x82\xac\xe2\x80\x9c Blockbuster Entertainment Award for Favourite Supporting Actor</td>\n                    </tr>\n                    <tr>\n                      <td rowspan="1" colspan="1">\n                        <em>\n                          <a href="http://en.wikipedia.org/wiki/Soldier_of_Fortune" title="Soldier of Fortune" shape="rect">Soldier of Fortune</a>\n                        </em>\n                      </td>\n                      <td rowspan="1" colspan="1">Hawk</td>\n                      <td rowspan="1" colspan="1">\n                        <a href="http://en.wikipedia.org/wiki/Voice_acting" title="Voice acting" shape="rect">Voice only</a>\n                        <br clear="none"></br>\n                        <a href="http://en.wikipedia.org/wiki/Video_game" title="Video game" shape="rect">Video game</a>\n                      </td>\n                    </tr>\n                    <tr>\n                      <td rowspan="4" colspan="1">2001</td>\n                      <td rowspan="1" colspan="1">\n                        <em>\n                          <a href="http://en.wikipedia.org/wiki/See_Spot_Run" title="See Spot Run" shape="rect">See Spot Run</a>\n                        </em>\n                      </td>\n                      <td rowspan="1" colspan="1">Murdoch</td>\n                      <td rowspan="1" colspan="1"></td>\n                    </tr>\n                    <tr>\n                      <td rowspan="1" colspan="1">\n                        <em>\n                          <a href="http://en.wikipedia.org/wiki/Cats_%26_Dogs" title="Cats &amp; Dogs" shape="rect">Cats &amp; Dogs</a>\n                        </em>\n                      </td>\n                      <td rowspan="1" colspan="1">Sam</td>\n                      <td rowspan="1" colspan="1">Voice only</td>\n                    </tr>\n                    <tr>\n                      <td rowspan="1" colspan="1">\n                        <em>They Call Me Sirr</em>\n                      </td>\n                      <td rowspan="1" colspan="1">Coach Griffin</td>\n                      <td rowspan="1" colspan="1"></td>\n                    </tr>\n                    <tr>\n                      <td rowspan="1" colspan="1">\n                        <em>\n                          <a href="http://en.wikipedia.org/wiki/Planet_of_the_Apes_(2001_film)" title="Planet of the Apes (2001 film)" shape="rect">Planet of the Apes</a>\n                        </em>\n                      </td>\n                      <td rowspan="1" colspan="1">Attar</td>\n                      <td rowspan="1" colspan="1"></td>\n                    </tr>\n                    <tr>\n                      <td rowspan="2" colspan="1">2002</td>\n                      <td rowspan="1" colspan="1">\n                        <em>\n                          <a href="http://en.wikipedia.org/wiki/The_Scorpion_King" title="The Scorpion King" shape="rect">The Scorpion King</a>\n                        </em>\n                      </td>\n                      <td rowspan="1" colspan="1">Balthazar</td>\n                      <td rowspan="1" colspan="1"></td>\n                    </tr>\n                    <tr>\n                      <td rowspan="1" colspan="1">\n                        <em>\n                          <a href="http://en.wikipedia.org/wiki/King_of_the_Hill" title="King of the Hill" shape="rect">King of the Hill</a>\n                        </em>\n                      </td>\n                      <td rowspan="1" colspan="1">Coach Webb</td>\n                      <td rowspan="1" colspan="1">\n                        Voice only\n                        <br clear="none"></br>\n                        1 episode\n                      </td>\n                    </tr>\n                    <tr>\n                      <td rowspan="6" colspan="1">2003</td>\n                      <td rowspan="1" colspan="1">\n                        <em>\n                          <a href="http://en.wikipedia.org/wiki/Daredevil_(film)" title="Daredevil (film)" shape="rect">Daredevil</a>\n                        </em>\n                      </td>\n                      <td rowspan="1" colspan="1">\n                        <a href="http://en.wikipedia.org/wiki/Kingpin_(comics)" title="Kingpin (comics)" shape="rect">Wilson Fisk / The Kingpin</a>\n                      </td>\n                      <td rowspan="1" colspan="1"></td>\n                    </tr>\n                    <tr>\n                      <td rowspan="1" colspan="1">\n                        <em>\n                          <a href="http://en.wikipedia.org/wiki/Brother_Bear" title="Brother Bear" shape="rect">Brother Bear</a>\n                        </em>\n                      </td>\n                      <td rowspan="1" colspan="1">Tug</td>\n                      <td rowspan="1" colspan="1">Voice only</td>\n                    </tr>\n                    <tr>\n                      <td rowspan="1" colspan="1">\n                        <em>\n                          <a href="http://en.wikipedia.org/wiki/The_Proud_Family" title="The Proud Family" shape="rect">The Proud Family</a>\n                        </em>\n                      </td>\n                      <td rowspan="1" colspan="1">Mongo</td>\n                      <td rowspan="1" colspan="1">\n                        Voice only\n                        <br clear="none"></br>\n                        1 episode\n                      </td>\n                    </tr>\n                    <tr>\n                      <td rowspan="1" colspan="1">\n                        <em>\n                          <a href="http://en.wikipedia.org/wiki/Spider-Man:_The_New_Animated_Series" title="Spider-Man: The New Animated Series" shape="rect">Spider-Man: The New Animated Series</a>\n                        </em>\n                      </td>\n                      <td rowspan="1" colspan="1">\n                        <a href="http://en.wikipedia.org/wiki/Kingpin_(comics)" title="Kingpin (comics)" shape="rect">Wilson Fisk / The Kingpin</a>\n                      </td>\n                      <td rowspan="1" colspan="1">\n                        Voice only\n                        <br clear="none"></br>\n                        2 episodes\n                      </td>\n                    </tr>\n                    <tr>\n                      <td rowspan="1" colspan="1">\n                        <em>\n                          <a href="http://en.wikipedia.org/wiki/George_of_the_Jungle_2" title="George of the Jungle 2" shape="rect">George of the Jungle 2</a>\n                        </em>\n                      </td>\n                      <td rowspan="1" colspan="1">Mean lion</td>\n                      <td rowspan="1" colspan="1">Voice only</td>\n                    </tr>\n                    <tr>\n                      <td rowspan="1" colspan="1">\n                        <em>\n                          <a href="http://en.wikipedia.org/wiki/Kim_Possible" title="Kim Possible" shape="rect">Kim Possible</a>\n                        </em>\n                      </td>\n                      <td rowspan="1" colspan="1">Future Wade</td>\n                      <td rowspan="1" colspan="1">\n                        Voice only\n                        <br clear="none"></br>\n                        1 episode\n                      </td>\n                    </tr>\n                    <tr>\n                      <td rowspan="7" colspan="1">2004</td>\n                      <td rowspan="1" colspan="1">\n                        <em>\n                          <a href="http://en.wikipedia.org/wiki/D.E.B.S._(2004_film)" title="D.E.B.S. (2004 film)" shape="rect">D.E.B.S.</a>\n                        </em>\n                      </td>\n                      <td rowspan="1" colspan="1">Mr. Phipps</td>\n                      <td rowspan="1" colspan="1"></td>\n                    </tr>\n                    <tr>\n                      <td rowspan="1" colspan="1">\n                        <em>\n                          <a href="http://en.wikipedia.org/wiki/George_and_the_Dragon_(film)" title="George and the Dragon (film)" shape="rect">George and the Dragon</a>\n                        </em>\n                      </td>\n                      <td rowspan="1" colspan="1">Tarik</td>\n                      <td rowspan="1" colspan="1"></td>\n                    </tr>\n                    <tr>\n                      <td rowspan="1" colspan="1">\n                        <em>\n                          <a href="http://en.wikipedia.org/wiki/The_Land_Before_Time_XI:_Invasion_of_the_Tinysauruses" title="The Land Before Time XI: Invasion of the Tinysauruses" shape="rect">The Land Before Time XI: Invasion of the Tinysauruses</a>\n                        </em>\n                      </td>\n                      <td rowspan="1" colspan="1">\n                        Big Daddy the\xc3\x82\xc2\xa0\n                        <a href="http://en.wikipedia.org/wiki/Mussaurus" title="Mussaurus" shape="rect">Mussaurus</a>\n                      </td>\n                      <td rowspan="1" colspan="1">Voice only</td>\n                    </tr>\n                    <tr>\n                      <td rowspan="1" colspan="1">\n                        <em>\n                          <a href="http://en.wikipedia.org/w/index.php?title=Pursued_(2004_film)&amp;action=edit&amp;redlink=1" title="Pursued (2004 film) (page does not exist)" shape="rect">Pursued</a>\n                        </em>\n                      </td>\n                      <td rowspan="1" colspan="1">Franklin</td>\n                      <td rowspan="1" colspan="1"></td>\n                    </tr>\n                    <tr>\n                      <td rowspan="1" colspan="1">\n                        <em>\n                          <a href="http://en.wikipedia.org/wiki/Static_Shock" title="Static Shock" shape="rect">Static Shock</a>\n                        </em>\n                      </td>\n                      <td rowspan="1" colspan="1">The Rocket</td>\n                      <td rowspan="1" colspan="1">\n                        Voice only\n                        <br clear="none"></br>\n                        1 episode\n                      </td>\n                    </tr>\n                    <tr>\n                      <td rowspan="1" colspan="1">\n                        <em>\n                          <a href="http://en.wikipedia.org/wiki/The_Fairly_OddParents" title="The Fairly OddParents" shape="rect">The Fairly OddParents</a>\n                        </em>\n                      </td>\n                      <td rowspan="1" colspan="1">Rockwell</td>\n                      <td rowspan="1" colspan="1">\n                        Voice only\n                        <br clear="none"></br>\n                        1 episode\n                      </td>\n                    </tr>\n                    <tr>\n                      <td rowspan="1" colspan="1">\n                        <em>\n                          <a href="http://en.wikipedia.org/wiki/Forgotten_Realms:_Demon_Stone" title="Forgotten Realms: Demon Stone" shape="rect">Forgotten Realms: Demon Stone</a>\n                        </em>\n                      </td>\n                      <td rowspan="1" colspan="1">Ygorl</td>\n                      <td rowspan="1" colspan="1">\n                        Voice only\n                        <br clear="none"></br>\n                        Video game\n                      </td>\n                    </tr>\n                    <tr>\n                      <td rowspan="12" colspan="1">2005</td>\n                      <td rowspan="1" colspan="1">\n                        <em>\n                          <a href="http://en.wikipedia.org/wiki/The_Golden_Blaze" title="The Golden Blaze" shape="rect">The Golden Blaze</a>\n                        </em>\n                      </td>\n                      <td rowspan="1" colspan="1">Thomas Tatum/Quake</td>\n                      <td rowspan="1" colspan="1"></td>\n                    </tr>\n                    <tr>\n                      <td rowspan="1" colspan="1">\n                        <em>\n                          <a href="http://en.wikipedia.org/wiki/Teen_Titans_(TV_series)" title="Teen Titans (TV series)" shape="rect">Teen Titans</a>\n                        </em>\n                      </td>\n                      <td rowspan="1" colspan="1">Hayden Krall</td>\n                      <td rowspan="1" colspan="1">\n                        Voice only\n                        <br clear="none"></br>\n                        1 episode\n                      </td>\n                    </tr>\n                    <tr>\n                      <td rowspan="1" colspan="1">\n                        <em>\n                          <a href="http://en.wikipedia.org/wiki/Racing_Stripes" title="Racing Stripes" shape="rect">Racing Stripes</a>\n                        </em>\n                      </td>\n                      <td rowspan="1" colspan="1">Clydesdale</td>\n                      <td rowspan="1" colspan="1">Voice only</td>\n                    </tr>\n                    <tr>\n                      <td rowspan="1" colspan="1">\n                        <em>\n                          <a href="http://en.wikipedia.org/wiki/Sin_City_(film)" title="Sin City (film)" shape="rect">Sin City</a>\n                        </em>\n                      </td>\n                      <td rowspan="1" colspan="1">Manute</td>\n                      <td rowspan="1" colspan="1"></td>\n                    </tr>\n                    <tr>\n                      <td rowspan="1" colspan="1">\n                        <em>\n                          <a href="http://en.wikipedia.org/wiki/The_Producers_(2005_film)" title="The Producers (2005 film)" shape="rect">The Producers</a>\n                        </em>\n                      </td>\n                      <td rowspan="1" colspan="1">Accountant</td>\n                      <td rowspan="1" colspan="1">\n                        <a href="http://en.wikipedia.org/wiki/Deleted_scene" title="Deleted scene" shape="rect">Scenes deleted</a>\n                      </td>\n                    </tr>\n                    <tr>\n                      <td rowspan="1" colspan="1">\n                        <em>\n                          <a href="http://en.wikipedia.org/wiki/Dinotopia:_Quest_for_the_Ruby_Sunstone" title="Dinotopia: Quest for the Ruby Sunstone" shape="rect">Dinotopia: Quest for the Ruby Sunstone</a>\n                        </em>\n                      </td>\n                      <td rowspan="1" colspan="1">\n                        Stinktooth the\n                        <a href="http://en.wikipedia.org/wiki/Tyrannosaurus" title="Tyrannosaurus" shape="rect">Tyrannosaurus</a>\n                      </td>\n                      <td rowspan="1" colspan="1">Voice only</td>\n                    </tr>\n                    <tr>\n                      <td rowspan="1" colspan="1">\n                        <em>\n                          <a href="http://en.wikipedia.org/wiki/The_Island_(2005_film)" title="The Island (2005 film)" shape="rect">The Island</a>\n                        </em>\n                      </td>\n                      <td rowspan="1" colspan="1">Starkweather</td>\n                      <td rowspan="1" colspan="1"></td>\n                    </tr>\n                    <tr>\n                      <td rowspan="1" colspan="1">\n                        <em>\n                          <a href="http://en.wikipedia.org/wiki/Loonatics_Unleashed" title="Loonatics Unleashed" shape="rect">Loonatics Unleashed</a>\n                        </em>\n                      </td>\n                      <td rowspan="1" colspan="1">Massive</td>\n                      <td rowspan="1" colspan="1">\n                        Voice only\n                        <br clear="none"></br>\n                        4 episodes\n                      </td>\n                    </tr>\n                    <tr>\n                      <td rowspan="1" colspan="1">\n                        <a href="http://en.wikipedia.org/wiki/2005_World_Series" title="2005 World Series" shape="rect">2005 World Series</a>\n                        \xc3\x82\xc2\xa0Highlight Film\n                      </td>\n                      <td rowspan="1" colspan="1">\n                        Narrator\n                        <sup>\n                          <a href="http://en.wikipedia.org/wiki/Michael_Clarke_Duncan#cite_note-21" shape="rect">[22]</a>\n                        </sup>\n                      </td>\n                      <td rowspan="1" colspan="1">Voice only</td>\n                    </tr>\n                    <tr>\n                      <td rowspan="1" colspan="1">\n                        <em>\n                          <a href="http://en.wikipedia.org/wiki/CSI:_NY" title="CSI: NY" shape="rect">CSI: NY</a>\n                        </em>\n                      </td>\n                      <td rowspan="1" colspan="1">Quinn Sullivan</td>\n                      <td rowspan="1" colspan="1">1 episode</td>\n                    </tr>\n                    <tr>\n                      <td rowspan="1" colspan="1">\n                        <em>\n                          <a href="http://en.wikipedia.org/wiki/George_Lopez_(TV_series)" title="George Lopez (TV series)" shape="rect">George Lopez</a>\n                        </em>\n                      </td>\n                      <td rowspan="1" colspan="1">Dr. Holland</td>\n                      <td rowspan="1" colspan="1">1 episode</td>\n                    </tr>\n                    <tr>\n                      <td rowspan="1" colspan="1">\n                        <em>\n                          <a href="http://en.wikipedia.org/wiki/Stewie_Griffin:_The_Untold_Story" title="Stewie Griffin: The Untold Story" shape="rect">Stewie Griffin: The Untold Story</a>\n                        </em>\n                      </td>\n                      <td rowspan="1" colspan="1">Stork</td>\n                      <td rowspan="1" colspan="1">Voice only</td>\n                    </tr>\n                    <tr>\n                      <td rowspan="6" colspan="1">2006</td>\n                      <td rowspan="1" colspan="1">\n                        <em>\n                          <a href="http://en.wikipedia.org/wiki/Air_Buddies" title="Air Buddies" shape="rect">Air Buddies</a>\n                        </em>\n                      </td>\n                      <td rowspan="1" colspan="1">The Wolf</td>\n                      <td rowspan="1" colspan="1">Voice only</td>\n                    </tr>\n                    <tr>\n                      <td rowspan="1" colspan="1">\n                        <em>\n                          <a href="http://en.wikipedia.org/wiki/Saint%27s_Row" title="Saint\'s Row" shape="rect">Saint\xe2\x80\x99s Row</a>\n                        </em>\n                      </td>\n                      <td rowspan="1" colspan="1">Benjamin King</td>\n                      <td rowspan="1" colspan="1">\n                        Voice only\n                        <br clear="none"></br>\n                        Video game\n                      </td>\n                    </tr>\n                    <tr>\n                      <td rowspan="1" colspan="1">\n                        <em>\n                          <a href="http://en.wikipedia.org/wiki/Talladega_Nights:_The_Ballad_of_Ricky_Bobby" title="Talladega Nights: The Ballad of Ricky Bobby" shape="rect">Talladega Nights: The Ballad of Ricky Bobby</a>\n                        </em>\n                      </td>\n                      <td rowspan="1" colspan="1">Lucius Washington</td>\n                      <td rowspan="1" colspan="1"></td>\n                    </tr>\n                    <tr>\n                      <td rowspan="1" colspan="1">\n                        <em>\n                          <a href="http://en.wikipedia.org/wiki/Brother_Bear_2" title="Brother Bear 2" shape="rect">Brother Bear 2</a>\n                        </em>\n                      </td>\n                      <td rowspan="1" colspan="1">Tug</td>\n                      <td rowspan="1" colspan="1">Voice only</td>\n                    </tr>\n                    <tr>\n                      <td rowspan="1" colspan="1">\n                        <em>\n                          <a href="http://en.wikipedia.org/wiki/School_for_Scoundrels_(2006_film)" title="School for Scoundrels (2006 film)" shape="rect">School for Scoundrels</a>\n                        </em>\n                      </td>\n                      <td rowspan="1" colspan="1">Lesher</td>\n                      <td rowspan="1" colspan="1"></td>\n                    </tr>\n                    <tr>\n                      <td rowspan="1" colspan="1">\n                        <em>\n                          <a href="http://en.wikipedia.org/wiki/Minoriteam" title="Minoriteam" shape="rect">Minoriteam</a>\n                        </em>\n                      </td>\n                      <td rowspan="1" colspan="1">Balactus</td>\n                      <td rowspan="1" colspan="1">\n                        Voice only\n                        <br clear="none"></br>\n                        2 episodes\n                      </td>\n                    </tr>\n                    <tr>\n                      <td rowspan="1" colspan="1">2006\xc3\xa2\xe2\x82\xac\xe2\x80\x9c2007</td>\n                      <td rowspan="1" colspan="1">\n                        <em>\n                          <a href="http://en.wikipedia.org/wiki/Family_Guy" title="Family Guy" shape="rect">Family Guy</a>\n                        </em>\n                      </td>\n                      <td rowspan="1" colspan="1">\n                        Boy on Mushrooms\n                        <br clear="none"></br>\n                        Fozzie Bear\n                      </td>\n                      <td rowspan="1" colspan="1">\n                        2 episodes:\n                        <br clear="none"></br>\n                        \xe2\x80\x9c\n                        <a href="http://en.wikipedia.org/wiki/You_May_Now_Kiss_the..._Uh..._Guy_Who_Receives" title="You May Now Kiss the... Uh... Guy Who Receives" shape="rect">You May Now Kiss the\xe2\x80\xa6 Uh\xe2\x80\xa6 Guy Who Receives</a>\n                        \xe2\x80\x9d (2006)\n                        <br clear="none"></br>\n                        \xe2\x80\x9c\n                        <a href="http://en.wikipedia.org/wiki/The_Tan_Aquatic_with_Steve_Zissou" title="The Tan Aquatic with Steve Zissou" shape="rect">The Tan Aquatic with Steve Zissou</a>\n                        \xe2\x80\x9d (2007)\n                      </td>\n                    </tr>\n                    <tr>\n                      <td rowspan="5" colspan="1">2007</td>\n                      <td rowspan="1" colspan="1">\n                        <em>\n                          <a href="http://en.wikipedia.org/wiki/The_Last_Mimzy" title="The Last Mimzy" shape="rect">The Last Mimzy</a>\n                        </em>\n                      </td>\n                      <td rowspan="1" colspan="1">Nathaniel Broadman</td>\n                      <td rowspan="1" colspan="1"></td>\n                    </tr>\n                    <tr>\n                      <td rowspan="1" colspan="1">\n                        <em>American Crude</em>\n                      </td>\n                      <td rowspan="1" colspan="1">Spinks</td>\n                      <td rowspan="1" colspan="1"></td>\n                    </tr>\n                    <tr>\n                      <td rowspan="1" colspan="1">\n                        <em>\n                          <a href="http://en.wikipedia.org/wiki/One_Way_(film)" title="One Way (film)" shape="rect">One Way</a>\n                        </em>\n                      </td>\n                      <td rowspan="1" colspan="1">The General</td>\n                      <td rowspan="1" colspan="1"></td>\n                    </tr>\n                    <tr>\n                      <td rowspan="1" colspan="1">\n                        <em>\n                          <a href="http://en.wikipedia.org/wiki/God_of_War_II" title="God of War II" shape="rect">God of War II</a>\n                        </em>\n                      </td>\n                      <td rowspan="1" colspan="1">\n                        <a href="http://en.wikipedia.org/wiki/Atlas_(mythology)" title="Atlas (mythology)" shape="rect">Atlas</a>\n                      </td>\n                      <td rowspan="1" colspan="1">\n                        Voice only\n                        <br clear="none"></br>\n                        Video game\n                      </td>\n                    </tr>\n                    <tr>\n                      <td rowspan="1" colspan="1">\n                        <em>\n                          <a href="http://en.wikipedia.org/wiki/Slipstream_(2007_film)" title="Slipstream (2007 film)" shape="rect">Slipstream</a>\n                        </em>\n                      </td>\n                      <td rowspan="1" colspan="1">Mort / Phil</td>\n                      <td rowspan="1" colspan="1"></td>\n                    </tr>\n                    <tr>\n                      <td rowspan="6" colspan="1">2008</td>\n                      <td rowspan="1" colspan="1">\n                        <em>\n                          <a href="http://en.wikipedia.org/wiki/Welcome_Home_Roscoe_Jenkins" title="Welcome Home Roscoe Jenkins" shape="rect">Welcome Home Roscoe Jenkins</a>\n                        </em>\n                      </td>\n                      <td rowspan="1" colspan="1">Otis</td>\n                      <td rowspan="1" colspan="1"></td>\n                    </tr>\n                    <tr>\n                      <td rowspan="1" colspan="1">\n                        <em>\n                          <a href="http://en.wikipedia.org/wiki/Kung_Fu_Panda" title="Kung Fu Panda" shape="rect">Kung Fu Panda</a>\n                        </em>\n                      </td>\n                      <td rowspan="1" colspan="1">\n                        <a href="http://en.wikipedia.org/wiki/List_of_Kung_Fu_Panda_characters#Commander_Vachir" title="List of Kung Fu Panda characters" shape="rect">Commander Vachir</a>\n                        \xc3\x82\xc2\xa0the\n                        <a href="http://en.wikipedia.org/wiki/Javan_rhinoceros" title="Javan rhinoceros" shape="rect">Javan Rhino</a>\n                      </td>\n                      <td rowspan="1" colspan="1">Voice only</td>\n                    </tr>\n                    <tr>\n                      <td rowspan="1" colspan="1">\n                        <em>\n                          <a href="http://en.wikipedia.org/wiki/Chuck_(TV_series)" title="Chuck (TV series)" shape="rect">Chuck</a>\n                        </em>\n                      </td>\n                      <td rowspan="1" colspan="1">Colt</td>\n                      <td rowspan="1" colspan="1">1 episode</td>\n                    </tr>\n                    <tr>\n                      <td rowspan="1" colspan="1">\n                        <em>\n                          <a href="http://en.wikipedia.org/wiki/The_Suite_Life_of_Zack_%26_Cody" title="The Suite Life of Zack &amp; Cody" shape="rect">The Suite Life of Zack &amp; Cody</a>\n                        </em>\n                      </td>\n                      <td rowspan="1" colspan="1">Coach Little</td>\n                      <td rowspan="1" colspan="1">1 episode</td>\n                    </tr>\n                    <tr>\n                      <td rowspan="1" colspan="1">\n                        <em>\n                          <a href="http://en.wikipedia.org/wiki/Delgo_(film)" title="Delgo (film)" shape="rect">Delgo</a>\n                        </em>\n                      </td>\n                      <td rowspan="1" colspan="1">Elder Marley</td>\n                      <td rowspan="1" colspan="1"></td>\n                    </tr>\n                    <tr>\n                      <td rowspan="1" colspan="1">\n                        <em>\n                          <a href="http://en.wikipedia.org/wiki/Two_and_a_Half_Men" title="Two and a Half Men" shape="rect">Two and a Half Men</a>\n                        </em>\n                      </td>\n                      <td rowspan="1" colspan="1">Jerome</td>\n                      <td rowspan="1" colspan="1">2 episodes</td>\n                    </tr>\n                    <tr>\n                      <td rowspan="2" colspan="1">2009</td>\n                      <td rowspan="1" colspan="1">\n                        <em>\n                          <a href="http://en.wikipedia.org/wiki/The_Slammin%27_Salmon" title="The Slammin\' Salmon" shape="rect">The Slammin\xe2\x80\x99 Salmon</a>\n                        </em>\n                      </td>\n                      <td rowspan="1" colspan="1">Cleon \xe2\x80\x9cSlammin\xe2\x80\x99\xe2\x80\x9d Salmon</td>\n                      <td rowspan="1" colspan="1"></td>\n                    </tr>\n                    <tr>\n                      <td rowspan="1" colspan="1">\n                        <em>\n                          <a href="http://en.wikipedia.org/wiki/Street_Fighter:_The_Legend_of_Chun-Li" title="Street Fighter: The Legend of Chun-Li" shape="rect">Street Fighter: The Legend of Chun-Li</a>\n                        </em>\n                      </td>\n                      <td rowspan="1" colspan="1">\n                        <a href="http://en.wikipedia.org/wiki/Balrog_(Street_Fighter)" title="Balrog (Street Fighter)" shape="rect">Balrog</a>\n                      </td>\n                      <td rowspan="1" colspan="1"></td>\n                    </tr>\n                    <tr>\n                      <td rowspan="4" colspan="1">2010</td>\n                      <td rowspan="1" colspan="1">\n                        <em>The Story</em>\n                      </td>\n                      <td rowspan="1" colspan="1">The dealer</td>\n                      <td rowspan="1" colspan="1"></td>\n                    </tr>\n                    <tr>\n                      <td rowspan="1" colspan="1">\n                        <em>Redemption Road</em>\n                      </td>\n                      <td rowspan="1" colspan="1">Augy</td>\n                      <td rowspan="1" colspan="1"></td>\n                    </tr>\n                    <tr>\n                      <td rowspan="1" colspan="1">\n                        <em>The Club</em>\n                      </td>\n                      <td rowspan="1" colspan="1">\n                        Narrator\n                        <sup>\n                          <a href="http://en.wikipedia.org/wiki/Michael_Clarke_Duncan#cite_note-22" shape="rect">[23]</a>\n                        </sup>\n                      </td>\n                      <td rowspan="1" colspan="1">\n                        Voice only\n                        <br clear="none"></br>\n                        <a href="http://en.wikipedia.org/wiki/MLB_Network" title="MLB Network" shape="rect">MLB Network</a>\n                        \xc3\x82\xc2\xa0series\n                      </td>\n                    </tr>\n                    <tr>\n                      <td rowspan="1" colspan="1">\n                        <em>\n                          <a href="http://en.wikipedia.org/wiki/Cats_%26_Dogs:_The_Revenge_of_Kitty_Galore" title="Cats &amp; Dogs: The Revenge of Kitty Galore" shape="rect">Cats &amp; Dogs: The Revenge of Kitty Galore</a>\n                        </em>\n                      </td>\n                      <td rowspan="1" colspan="1">Sam</td>\n                      <td rowspan="1" colspan="1">Voice only</td>\n                    </tr>\n                    <tr>\n                      <td rowspan="4" colspan="1">2011</td>\n                      <td rowspan="1" colspan="1">\n                        <em>\n                          <a href="http://en.wikipedia.org/wiki/Cross_(film)" title="Cross (film)" shape="rect">Cross</a>\n                        </em>\n                      </td>\n                      <td rowspan="1" colspan="1">Erlik</td>\n                      <td rowspan="1" colspan="1"></td>\n                    </tr>\n                    <tr>\n                      <td rowspan="1" colspan="1">\n                        <em>\n                          <a href="http://en.wikipedia.org/wiki/Bones_(TV_series)" title="Bones (TV series)" shape="rect">Bones</a>\n                        </em>\n                      </td>\n                      <td rowspan="1" colspan="1">Leo Knox</td>\n                      <td rowspan="1" colspan="1">1 episode</td>\n                    </tr>\n                    <tr>\n                      <td rowspan="1" colspan="1">\n                        <em>Legend of Kung Fu Rabbit</em>\n                      </td>\n                      <td rowspan="1" colspan="1">Slash</td>\n                      <td rowspan="1" colspan="1">Voice only</td>\n                    </tr>\n                    <tr>\n                      <td rowspan="1" colspan="1">\n                        <em>\n                          <a href="http://en.wikipedia.org/wiki/Green_Lantern_(film)" title="Green Lantern (film)" shape="rect">Green Lantern</a>\n                        </em>\n                      </td>\n                      <td rowspan="1" colspan="1">\n                        <a href="http://en.wikipedia.org/wiki/Kilowog" title="Kilowog" shape="rect">Kilowog</a>\n                      </td>\n                      <td rowspan="1" colspan="1">Voice only</td>\n                    </tr>\n                    <tr>\n                      <td rowspan="6" colspan="1">2012</td>\n                      <td rowspan="1" colspan="1">\n                        <em>\n                          <a href="http://en.wikipedia.org/wiki/The_Finder_(U.S._TV_series)" title="The Finder (U.S. TV series)" shape="rect">The Finder</a>\n                        </em>\n                      </td>\n                      <td rowspan="1" colspan="1">Leo Knox</td>\n                      <td rowspan="1" colspan="1"></td>\n                    </tr>\n                    <tr>\n                      <td rowspan="1" colspan="1">\n                        <em>\n                          <a href="http://en.wikipedia.org/wiki/The_Sibling" title="The Sibling" shape="rect">The Sibling</a>\n                        </em>\n                      </td>\n                      <td rowspan="1" colspan="1">Addison</td>\n                      <td rowspan="1" colspan="1"></td>\n                    </tr>\n                    <tr>\n                      <td rowspan="1" colspan="1">\n                        <em>\n                          <a href="http://en.wikipedia.org/wiki/From_the_Rough" title="From the Rough" shape="rect">From the Rough</a>\n                        </em>\n                      </td>\n                      <td rowspan="1" colspan="1">Roger</td>\n                      <td rowspan="1" colspan="1"></td>\n                    </tr>\n                    <tr>\n                      <td rowspan="1" colspan="1">\n                        <em>\n                          <a href="http://en.wikipedia.org/wiki/The_High_Fructose_Adventures_of_Annoying_Orange" title="The High Fructose Adventures of Annoying Orange" shape="rect">The High Fructose Adventures of Annoying Orange</a>\n                        </em>\n                      </td>\n                      <td rowspan="1" colspan="1">Marshmallow King</td>\n                      <td rowspan="1" colspan="1">\n                        Voice only\n                        <br clear="none"></br>\n                        1 episode\n                      </td>\n                    </tr>\n                    <tr>\n                      <td rowspan="1" colspan="1">\n                        <em>Into the Hive</em>\n                      </td>\n                      <td rowspan="1" colspan="1">Mr. Hollis</td>\n                      <td rowspan="1" colspan="1">Completed</td>\n                    </tr>\n                    <tr>\n                      <td rowspan="1" colspan="1">\n                        <em>The Challenger</em>\n                      </td>\n                      <td rowspan="1" colspan="1">Duane</td>\n                      <td rowspan="1" colspan="1">Post-production</td>\n                    </tr>\n                  </tbody>\n                  <tfoot></tfoot>\n                </table>\n                <h2>References</h2>\n                <div>\n                  <ol>\n                    <li id="cite_note-0">\n                      <strong>\n                        <a href="http://en.wikipedia.org/wiki/Michael_Clarke_Duncan#cite_ref-0" shape="rect">^</a>\n                      </strong>\n                      \xc3\x82\xc2\xa0\n                      <a rel="nofollow" href="http://archives.cnn.com/1999/SHOWBIZ/Movies/12/10/greenmile.duncan/" shape="rect">\xe2\x80\x9cCNN \xc3\xa2\xe2\x82\xac\xe2\x80\x9c \xe2\x80\x98Green Mile\xe2\x80\x9ds giant has taken massive strides \xc3\xa2\xe2\x82\xac\xe2\x80\x9c December 10, 1999\xe2\x80\xb3</a>\n                      .\n                      <em>CNN</em>\n                      .\n                    </li>\n                    <li id="cite_note-1">\n                      <strong>\n                        <a href="http://en.wikipedia.org/wiki/Michael_Clarke_Duncan#cite_ref-1" shape="rect">^</a>\n                      </strong>\n                      \xc3\x82\xc2\xa0\n                      <a rel="nofollow" href="http://www.usaweekend.com/01_issues/010729/010729duncan.html" shape="rect">USA WEEKEND Magazine</a>\n                    </li>\n                    <li id="cite_note-autogenerated1-2">\n                      ^\xc3\x82\xc2\xa0\n                      <a href="http://en.wikipedia.org/wiki/Michael_Clarke_Duncan#cite_ref-autogenerated1_2-0" shape="rect">\n                        <sup>\n                          <em>\n                            <strong>a</strong>\n                          </em>\n                        </sup>\n                      </a>\n                      \xc3\x82\xc2\xa0\n                      <a href="http://en.wikipedia.org/wiki/Michael_Clarke_Duncan#cite_ref-autogenerated1_2-1" shape="rect">\n                        <sup>\n                          <em>\n                            <strong>b</strong>\n                          </em>\n                        </sup>\n                      </a>\n                      \xc3\x82\xc2\xa0\n                      <a rel="nofollow" href="http://www.imdb.com/name/nm3817/bio" shape="rect">Biography for Michael Clarke Duncan</a>\n                      \xc3\x82\xc2\xa0at the\xc3\x82\xc2\xa0\n                      <a href="http://en.wikipedia.org/wiki/Internet_Movie_Database" title="Internet Movie Database" shape="rect">Internet Movie Database</a>\n                    </li>\n                    <li id="cite_note-3">\n                      <strong>\n                        <a href="http://en.wikipedia.org/wiki/Michael_Clarke_Duncan#cite_ref-3" shape="rect">^</a>\n                      </strong>\n                      \xc3\x82\xc2\xa0Stated on September 24, 2008 on\xc3\x82\xc2\xa0\n                      <em>\n                        <a href="http://en.wikipedia.org/wiki/The_Late_Late_Show_with_Craig_Ferguson" title="The Late Late Show with Craig Ferguson" shape="rect">The Late Late Show with Craig Ferguson</a>\n                      </em>\n                    </li>\n                    <li id="cite_note-st099-4">\n                      <strong>\n                        <a href="http://en.wikipedia.org/wiki/Michael_Clarke_Duncan#cite_ref-st099_4-0" shape="rect">^</a>\n                      </strong>\n                      \xc3\x82\xc2\xa0Zwecker, Bill. \xe2\x80\x9cLove may have bloomed again on set for \xe2\x80\x98Garden State\xe2\x80\x99 star.\xe2\x80\x9d\n                      <em>Chicago Sun-Times</em>\n                      \xc3\x82\xc2\xa0September 28, 2006\n                    </li>\n                    <li id="cite_note-ct909-5">\n                      <strong>\n                        <a href="http://en.wikipedia.org/wiki/Michael_Clarke_Duncan#cite_ref-ct909_5-0" shape="rect">^</a>\n                      </strong>\n                      \xc3\x82\xc2\xa0\n                      <a rel="nofollow" href="http://www.chicagotribune.com/sports/cs-060520cubicle,0,6441838.column?coll=chi-sportsnew-hed" shape="rect">\n                        Caldarelli, Adam. \xe2\x80\x9cFrom the Cubicle.\xe2\x80\x9d\xc3\x82\xc2\xa0\n                        <em>Chicago Tribune</em>\n                        \xc3\x82\xc2\xa0May 20, 2006\n                      </a>\n                    </li>\n                    <li id="cite_note-6">\n                      <strong>\n                        <a href="http://en.wikipedia.org/wiki/Michael_Clarke_Duncan#cite_ref-6" shape="rect">^</a>\n                      </strong>\n                      \xc3\x82\xc2\xa0\n                      <a rel="nofollow" href="http://archives.cnn.com/1999/SHOWBIZ/Movies/12/10/greenmile.duncan" shape="rect">\n                        \xe2\x80\x9c\xe2\x80\x98Green Mile\n                        <em>s giant has taken massive strides\xe2\x80\x9d</em>\n                      </a>\n                      . CNN.\n                    </li>\n                    <li id="cite_note-7">\n                      <strong>\n                        <a href="http://en.wikipedia.org/wiki/Michael_Clarke_Duncan#cite_ref-7" shape="rect">^</a>\n                      </strong>\n                      \xc3\x82\xc2\xa0\n                      <a rel="nofollow" href="http://www.imdb.com/title/tt120689/awards" shape="rect">\n                        Awards for\xc3\x82\xc2\xa0\n                        <em>The Green Mile</em>\n                      </a>\n                      \xc3\x82\xc2\xa0at the\xc3\x82\xc2\xa0\n                      <a href="http://en.wikipedia.org/wiki/Internet_Movie_Database" title="Internet Movie Database" shape="rect">Internet Movie Database</a>\n                    </li>\n                    <li id="cite_note-8">\n                      <strong>\n                        <a href="http://en.wikipedia.org/wiki/Michael_Clarke_Duncan#cite_ref-8" shape="rect">^</a>\n                      </strong>\n                      \xc3\x82\xc2\xa0McNary, Dave (January 9, 2002).\xc3\x82\xc2\xa0\n                      <a rel="nofollow" href="http://www.variety.com/article/VR1117859327.html?categoryid=1350&amp;cs=1" shape="rect">\n                        \xe2\x80\x9cDuncan takes on\xc3\x82\xc2\xa0\n                        <em>Daredevil</em>\n                        \xe2\x80\x9c\n                      </a>\n                      .\xc3\x82\xc2\xa0\n                      <a href="http://en.wikipedia.org/wiki/Variety_(magazine)" title="Variety (magazine)" shape="rect">Variety</a>\n                      . Retrieved 2008-02-23.\n                    </li>\n                    <li id="cite_note-9">\n                      <strong>\n                        <a href="http://en.wikipedia.org/wiki/Michael_Clarke_Duncan#cite_ref-9" shape="rect">^</a>\n                      </strong>\n                      \xc3\x82\xc2\xa0Daniel Robert Epstein.\xc3\x82\xc2\xa0\n                      <a rel="nofollow" href="http://www.ugo.com/channels/filmTv/features/daredevil/michael.asp" shape="rect">\xe2\x80\x9cMichael Clarke Duncan Interview\xe2\x80\x9d</a>\n                      .\xc3\x82\xc2\xa0\n                      <a href="http://en.wikipedia.org/wiki/UGO_Networks" title="UGO Networks" shape="rect">UGO</a>\n                      . Retrieved 2008-02-23.\n                    </li>\n                    <li id="cite_note-10">\n                      <strong>\n                        <a href="http://en.wikipedia.org/wiki/Michael_Clarke_Duncan#cite_ref-10" shape="rect">^</a>\n                      </strong>\n                      \xc3\x82\xc2\xa0Ryan J. Downey (February 6, 2003).\xc3\x82\xc2\xa0\n                      <a rel="nofollow" href="http://www.mtv.com/shared/movies/features/a/affleck_daredevil_feature_030206" shape="rect">\n                        \xe2\x80\x9cBen Affleck Dares to Dream\xc3\x82\xc2\xa0\n                        <em>Daredevil</em>\n                        \xe2\x80\x9c\n                      </a>\n                      . MTV. Retrieved 2008-02-21.\n                    </li>\n                    <li id="cite_note-11">\n                      <strong>\n                        <a href="http://en.wikipedia.org/wiki/Michael_Clarke_Duncan#cite_ref-11" shape="rect">^</a>\n                      </strong>\n                      \xc3\x82\xc2\xa0Chavez, Kellvin (July 6, 2006).\xc3\x82\xc2\xa0\n                      <a rel="nofollow" href="http://www.latinoreview.com/news/duncan-not-in-transformers-but-talks-daredevil-2-699" shape="rect">\xe2\x80\x9cDuncan Not in Transformers But Talks Daredevil 2!\xe2\x80\x9d</a>\n                      . LatinoReview.com. Retrieved 2008-12-23.\n                    </li>\n                    <li id="cite_note-12">\n                      <strong>\n                        <a href="http://en.wikipedia.org/wiki/Michael_Clarke_Duncan#cite_ref-12" shape="rect">^</a>\n                      </strong>\n                      \xc3\x82\xc2\xa0\xe2\x80\x9d\n                      <a rel="nofollow" href="http://www.kshb.com/dpp/entertainment/celebrity/Green-Mile-star-joins-veggie-campaign_23162602" shape="rect">Green Mile Star Joins Veggie Campaign</a>\n                      ,\xe2\x80\x9d KSHB.com, 12 May 2012.\n                    </li>\n                    <li id="cite_note-13">\n                      <strong>\n                        <a href="http://en.wikipedia.org/wiki/Michael_Clarke_Duncan#cite_ref-13" shape="rect">^</a>\n                      </strong>\n                      \xc3\x82\xc2\xa0\n                      <a rel="nofollow" href="http://www.imdb.com/title/tt534883/" shape="rect">\n                        <em>The Closer</em>\n                      </a>\n                      \xc3\x82\xc2\xa0at the\xc3\x82\xc2\xa0\n                      <a href="http://en.wikipedia.org/wiki/Internet_Movie_Database" title="Internet Movie Database" shape="rect">Internet Movie Database</a>\n                    </li>\n                    <li id="cite_note-14">\n                      <strong>\n                        <a href="http://en.wikipedia.org/wiki/Michael_Clarke_Duncan#cite_ref-14" shape="rect">^</a>\n                      </strong>\n                      \xc3\x82\xc2\xa0\n                      <a rel="nofollow" href="http://www.chicagotribune.com/topic/ny-ettel5863217sep29,0,4426350.column" shape="rect">NBC\xe2\x80\x99s \xe2\x80\x98Chuck\xe2\x80\x99: Good-natured, not much adult appeal September 29, 2008</a>\n                    </li>\n                    <li id="cite_note-15">\n                      <strong>\n                        <a href="http://en.wikipedia.org/wiki/Michael_Clarke_Duncan#cite_ref-15" shape="rect">^</a>\n                      </strong>\n                      \xc3\x82\xc2\xa0\n                      <a rel="nofollow" href="http://www.latimes.com/entertainment/gossip/la-et-mg-michael-clarke-duncan-hospitalized-cardiac-arrest-20120713,0,7899967.story" shape="rect">\xe2\x80\x9c\xe2\x80\x98Green Mile\xe2\x80\x99 actor Michael Clarke Duncan in ICU after heart attack\xe2\x80\x9d</a>\n                      . latimes.com. 2012-07-13.\n                    </li>\n                    <li id="cite_note-16">\n                      <strong>\n                        <a href="http://en.wikipedia.org/wiki/Michael_Clarke_Duncan#cite_ref-16" shape="rect">^</a>\n                      </strong>\n                      \xc3\x82\xc2\xa0\n                      <a rel="nofollow" href="http://www.webcitation.org/69DC19T4L" shape="rect">\xe2\x80\x9cCPR: How It Helped Save Michael Clarke Duncan From Cardiac Arrest\xe2\x80\x9d</a>\n                      .\xc3\x82\xc2\xa0\n                      <em>The Huffington Post</em>\n                      . Huffingtonpost.com. 16 July 2012. Archived from\xc3\x82\xc2\xa0\n                      <a rel="nofollow" href="http://www.huffingtonpost.com/2012/07/16/cpr-michael-clarke-duncan-heart-attack-cardiac-arrest_n_1672506.html?utm_hp_ref=mostpopular" shape="rect">the original</a>\n                      \xc3\x82\xc2\xa0on 16 July 2012. Retrieved 16 July 2012.\n                    </li>\n                    <li id="cite_note-17">\n                      <strong>\n                        <a href="http://en.wikipedia.org/wiki/Michael_Clarke_Duncan#cite_ref-17" shape="rect">^</a>\n                      </strong>\n                      \xc3\x82\xc2\xa0\n                      <a rel="nofollow" href="http://hosted.ap.org/dynamic/stories/U/US_MICHAEL_CLARKE_DUNCAN?SITE=AP&amp;SECTION=HOME&amp;TEMPLATE=DEFAULT&amp;CTIME=2012-08-06-22-27-18" shape="rect">\xe2\x80\x9cACTOR MICHAEL CLARKE DUNCAN REMAINS HOSPITALIZED\xe2\x80\x9d</a>\n                      . AP. Retrieved 7 August 2012.\n                    </li>\n                    <li id="cite_note-BNONews2012-18">\n                      <strong>\n                        <a href="http://en.wikipedia.org/wiki/Michael_Clarke_Duncan#cite_ref-BNONews2012_18-0" shape="rect">^</a>\n                      </strong>\n                      \xc3\x82\xc2\xa0\n                      <a rel="nofollow" href="http://www.bnonews.com/inbox/?id=1075" shape="rect">\xe2\x80\x9cStatement on the death of Michael Clarke Duncan\xe2\x80\x9d</a>\n                      .\xc3\x82\xc2\xa0\n                      <a href="http://en.wikipedia.org/wiki/BNO_News" title="BNO News" shape="rect">BNO News</a>\n                      . 3 September 2012. Retrieved 3 September 2012.\n                    </li>\n                    <li id="cite_note-19">\n                      <strong>\n                        <a href="http://en.wikipedia.org/wiki/Michael_Clarke_Duncan#cite_ref-19" shape="rect">^</a>\n                      </strong>\n                      \xc3\x82\xc2\xa0\n                      <a rel="nofollow" href="http://www.nydailynews.com/entertainment/michael-clarke-duncan-dead-54-green-mile-actor-dies-months-suffering-heart-attack-article-1.1150806" shape="rect">\xe2\x80\x9cMichael Clarke Duncan dead at 54: \xc3\xa2\xe2\x82\xac\xcb\x9cGreen Mile\xc3\xa2\xe2\x82\xac\xe2\x84\xa2 actor dies nearly two months after suffering heart attack\xe2\x80\x9d</a>\n                      .\xc3\x82\xc2\xa0\n                      <em>Associated Press</em>\n                      . NY Daily News. Retrieved 3 September 2012.\n                    </li>\n                    <li id="cite_note-20">\n                      <strong>\n                        <a href="http://en.wikipedia.org/wiki/Michael_Clarke_Duncan#cite_ref-20" shape="rect">^</a>\n                      </strong>\n                      \xc3\x82\xc2\xa0\n                      <a rel="nofollow" href="http://www.sowetanlive.co.za/entertainment/2012/09/04/michael-clarke-duncan-s-fiancee-devastated-by-his-death" shape="rect">\xe2\x80\x9cMichael Clarke Duncan\xe2\x80\x99s fiancee \xe2\x80\x98devastated\xe2\x80\x99 by his death\xe2\x80\x9d</a>\n                      . Retrieved September 4, 2012.\n                    </li>\n                    <li id="cite_note-21">\n                      <strong>\n                        <a href="http://en.wikipedia.org/wiki/Michael_Clarke_Duncan#cite_ref-21" shape="rect">^</a>\n                      </strong>\n                      \xc3\x82\xc2\xa0\n                      <a rel="nofollow" href="http://mlb.mlb.com/news/article.jsp?ymd=20100715&amp;content_id=12259126&amp;vkey=&amp;c_id=mlb" oncontextmenu="mugicRightClick(this);" onclick="return mugicPopWin(this,event);" shape="rect">\n                        \xe2\x80\x9cAward-winning actor and Chicago native Michael Clarke Duncan to narrate MLB Network realty series\xc3\x82\xc2\xa0\n                        <em>The Club</em>\n                        ,\xe2\x80\x9d MLB.com, Thursday, July 15, 2010.\n                      </a>\n                    </li>\n                    <li id="cite_note-22">\n                      <strong>\n                        <a href="http://en.wikipedia.org/wiki/Michael_Clarke_Duncan#cite_ref-22" shape="rect">^</a>\n                      </strong>\n                      \xc3\x82\xc2\xa0\n                      <a rel="nofollow" href="http://www.nytimes.com/2010/07/17/arts/television/17mlb.html" shape="rect">\n                        Hale, Mike. \xe2\x80\x9cThe Boys of Summer, Behind the Scenes,\xe2\x80\x9d\xc3\x82\xc2\xa0\n                        <em>The New York Times</em>\n                        , Friday, July 16, 2010.\n                      </a>\n                    </li>\n                  </ol>\n                </div>\n              </div>\n            </div>\n            <div style="display: none" id="geo-post-49273" class="geo geo-post">\n              <span class="latitude">-22.900540</span>\n              <span class="longitude">-43.302211</span>\n            </div>\n            <div id="jp-post-flair" class="sharedaddy sharedaddy-dark sd-rating-enabled sd-like-enabled">\n              <div class="wpl-likebox sd-block sd-like">\n                <h3 class="sd-title">Gostar disso:</h3>\n                <div class="sd-content">\n                  <div id="like-49273" class="wpl-button">\n                    <a rel="nofollow" title="Gostei." href="http://acordocoletivo.org/2012/09/05/michael-clarke-duncan-2/?like=1&amp;_wpnonce=d5d394453a" class="like needs-login sd-button" shape="rect">\n                      <span>Gostei</span>\n                    </a>\n                  </div>\n                  <div class="wpl-count sd-like-count">Seja o primeiro a gostar disso.</div>\n                </div>\n              </div>\n            </div>\n            <p class="postmetadata alt">\n              <small>\n                Esta entrada foi publicada em 5 de setembro de 2012 \xc3\x83\xc2\xa0s 18:13 e est\xc3\x83\xc2\xa1 arquivada como\n                <a rel="category tag" title="Ver todos os posts em Sem categoria" href="http://acordocoletivo.org/category/sem-categoria/" shape="rect">Sem categoria</a>\n                .\t\t\t\t\t\tVoc\xc3\x83\xc2\xaa pode acompanhar qualquer resposta para esta entrada atrav\xc3\x83\xc2\xa9s do feed\n                <a href="http://acordocoletivo.org/2012/09/05/michael-clarke-duncan-2/feed/" shape="rect">RSS 2.0</a>\n                Voc\xc3\x83\xc2\xaa pode\n                <a href="#respond" shape="rect">deixar uma resposta</a>\n                , ou\n                <a href="http://acordocoletivo.org/2012/09/05/michael-clarke-duncan-2/trackback/" shape="rect">trackback</a>\n                do seu pr\xc3\x83\xc2\xb3prio site.\n              </small>\n            </p>\n          </div>\n        </div>\n        <div id="respond">\n          <h3 id="reply-title">\n            Deixe uma resposta\n            <small>\n              <a style="display:none;" href="/2012/09/05/michael-clarke-duncan-2/#respond" rel="nofollow" id="cancel-comment-reply-link" shape="rect">Cancelar resposta</a>\n            </small>\n          </h3>\n          <form action="http://acordocoletivo.org/wp-comments-post.php" id="commentform" method="post" enctype="application/x-www-form-urlencoded">\n            <input value="guest" name="hc_post_as" id="hc_post_as" type="hidden"></input>\n            <div class="comment-form-field comment-textarea">\n              <label for="comment">Escreva o seu coment\xc3\x83\xc2\xa1rio aqui...</label>\n              <div id="comment-form-comment">\n                <textarea name="comment" id="comment"></textarea>\n              </div>\n            </div>\n            <div id="comment-form-identity">\n              <div id="comment-form-nascar">\n                <p>Preencha os seus dados abaixo ou clique em um \xc3\x83\xc2\xadcone para log in:</p>\n                <ul>\n                  <li style="display:none;" class="selected">\n                    <a title="Convidado" href="#comment-form-guest" id="postas-guest" shape="rect">\n                      <span></span>\n                    </a>\n                  </li>\n                  <li>\n                    <a title="WordPress.com" href="#comment-form-load-service:WordPress.com" id="postas-wordpress" shape="rect">\n                      <span></span>\n                    </a>\n                  </li>\n                  <li>\n                    <a title="Twitter" href="#comment-form-load-service:Twitter" id="postas-twitter" shape="rect">\n                      <span></span>\n                    </a>\n                  </li>\n                  <li>\n                    <a title="Facebook" href="#comment-form-load-service:Facebook" id="postas-facebook" shape="rect">\n                      <span></span>\n                    </a>\n                  </li>\n                </ul>\n              </div>\n              <div id="comment-form-guest" class="comment-form-service selected">\n                <div class="comment-form-padder">\n                  <div class="comment-form-avatar">\n                    <a target="_blank" href="https://gravatar.com/site/signup/" shape="rect">\n                      <img width="25" alt="Gravatar" src="http://1.gravatar.com/avatar/ad516503a11cd5ca435acc9bb6523536?s=25" class="no-grav"></img>\n                    </a>\n                  </div>\n                  <div class="comment-form-fields">\n                    <div class="comment-form-field comment-form-email">\n                      <label for="email">\n                        Email\n                        <span class="required">(obrigat\xc3\x83\xc2\xb3rio)</span>\n                        <span class="nopublish">(Address never made public)</span>\n                      </label>\n                      <div class="comment-form-input">\n                        <input value="" name="email" id="email" type="email"></input>\n                      </div>\n                    </div>\n                    <div class="comment-form-field comment-form-author">\n                      <label for="author">\n                        Nome\n                        <span class="required">(obrigat\xc3\x83\xc2\xb3rio)</span>\n                      </label>\n                      <div class="comment-form-input">\n                        <input value="" name="author" id="author" type="text"></input>\n                      </div>\n                    </div>\n                    <div class="comment-form-field comment-form-url">\n                      <label for="url">Site</label>\n                      <div class="comment-form-input">\n                        <input value="" name="url" id="url" type="text"></input>\n                      </div>\n                    </div>\n                  </div>\n                </div>\n              </div>\n              <div id="comment-form-wordpress" class="comment-form-service">\n                <div class="comment-form-padder">\n                  <div class="comment-form-avatar">\n                    <img width="25" alt="WordPress.com Logo" src="http://s2.wp.com/wp-content/mu-plugins/highlander-comments/images/wplogo.png?m=1289230950g" class="no-grav"></img>\n                  </div>\n                  <div class="comment-form-fields">\n                    <input value="" name="wp_avatar" id="wordpress-avatar" class="comment-meta-wordpress" type="hidden"></input>\n                    <input value="" name="wp_user_id" id="wordpress-user_id" class="comment-meta-wordpress" type="hidden"></input>\n                    <input value="" name="wp_access_token" id="wordpress-access_token" class="comment-meta-wordpress" type="hidden"></input>\n                    <p class="comment-form-posting-as pa-wordpress">\n                      <strong></strong>\n                      You are commenting using your WordPress.com account.\n                      <span class="comment-form-log-out">\n                        (\xc2\xa0\n                        <a href="javascript:HighlanderComments.doExternalLogout( \'wordpress\' );" shape="rect">Sair</a>\n                        \xc2\xa0/\xc2\xa0\n                        <a onclick="javascript:HighlanderComments.switchAccount();return false;" href="#" shape="rect">Alterar</a>\n                        \xc2\xa0)\n                      </span>\n                    </p>\n                  </div>\n                </div>\n              </div>\n              <div id="comment-form-twitter" class="comment-form-service">\n                <div class="comment-form-padder">\n                  <div class="comment-form-avatar">\n                    <img width="25" alt="Imagem do Twitter" src="http://1.gravatar.com/avatar/ad516503a11cd5ca435acc9bb6523536?s=25" class="no-grav"></img>\n                  </div>\n                  <div class="comment-form-fields">\n                    <input value="" name="twitter_avatar" id="twitter-avatar" class="comment-meta-twitter" type="hidden"></input>\n                    <input value="" name="twitter_user_id" id="twitter-user_id" class="comment-meta-twitter" type="hidden"></input>\n                    <input value="" name="twitter_access_token" id="twitter-access_token" class="comment-meta-twitter" type="hidden"></input>\n                    <p class="comment-form-posting-as pa-twitter">\n                      <strong></strong>\n                      You are commenting using your Twitter account.\n                      <span class="comment-form-log-out">\n                        (\xc2\xa0\n                        <a href="javascript:HighlanderComments.doExternalLogout( \'twitter\' );" shape="rect">Sair</a>\n                        \xc2\xa0/\xc2\xa0\n                        <a onclick="javascript:HighlanderComments.switchAccount();return false;" href="#" shape="rect">Alterar</a>\n                        \xc2\xa0)\n                      </span>\n                    </p>\n                  </div>\n                </div>\n              </div>\n              <div id="comment-form-facebook" class="comment-form-service">\n                <div class="comment-form-padder">\n                  <div class="comment-form-avatar">\n                    <img width="25" alt="Foto do Facebook" src="http://1.gravatar.com/avatar/ad516503a11cd5ca435acc9bb6523536?s=25" class="no-grav"></img>\n                  </div>\n                  <div class="comment-form-fields">\n                    <input value="" name="fb_avatar" id="facebook-avatar" class="comment-meta-facebook" type="hidden"></input>\n                    <input value="" name="fb_user_id" id="facebook-user_id" class="comment-meta-facebook" type="hidden"></input>\n                    <input value="" name="fb_access_token" id="facebook-access_token" class="comment-meta-facebook" type="hidden"></input>\n                    <p class="comment-form-posting-as pa-facebook">\n                      <strong></strong>\n                      You are commenting using your Facebook account.\n                      <span class="comment-form-log-out">\n                        (\xc2\xa0\n                        <a href="javascript:HighlanderComments.doExternalLogout( \'facebook\' );" shape="rect">Sair</a>\n                        \xc2\xa0/\xc2\xa0\n                        <a onclick="javascript:HighlanderComments.switchAccount();return false;" href="#" shape="rect">Alterar</a>\n                        \xc2\xa0)\n                      </span>\n                    </p>\n                  </div>\n                </div>\n              </div>\n              <div id="comment-form-load-service" class="comment-form-service">\n                <div class="comment-form-posting-as-cancel">\n                  <a href="javascript:HighlanderComments.cancelExternalWindow();" shape="rect">Cancelar</a>\n                </div>\n                <p>Connecting to %s</p>\n              </div>\n            </div>\n            <script type="text/javascript">\n              jQuery(document).ready(function(){\n\tvar input = document.createElement( \'input\' ),\n\t    comment = jQuery( \'#comment\' );\n\n\tif ( \'placeholder\' in input ) {\n\t\tcomment.attr( \'placeholder\', jQuery( \'.comment-textarea label\' ).remove().text() );\n\t}\n\n\t// Expando Mode: start small, then auto-resize on first click + text length\n\tjQuery( \'#comment-form-identity\' ).hide();\n\tjQuery( \'#comment-form-subscribe\' ).hide();\n\tjQuery( \'#commentform .form-submit\' ).hide();\n\n\tcomment.css( { \'height\':\'10px\' } ).one( \'focus\', function() {\n\t\tvar timer = setInterval( HighlanderComments.resizeCallback, 10 )\n\t\tjQuery( this ).animate( { \'height\': HighlanderComments.initialHeight } ).delay( 100 ).queue( function(n) { clearInterval( timer ); HighlanderComments.resizeCallback(); n(); } );\n\t\tjQuery( \'#comment-form-identity\' ).slideDown();\n\t\tjQuery( \'#comment-form-subscribe\' ).slideDown();\n\t\tjQuery( \'#commentform .form-submit\' ).slideDown();\n\t});\n});\n            </script>\n            <div id="comment-form-subscribe">\n              <p class="comment-subscription-form">\n                <input style="width: auto;" value="subscribe" name="subscribe" id="subscribe" type="checkbox" tabindex="6"></input>\n                <label id="subscribe-label" class="subscribe-label" for="subscribe">Notificar-me os coment\xc3\x83\xc2\xa1rios mais recentes via e-mail.</label>\n              </p>\n            </div>\n            <p class="form-submit">\n              <input value="Publicar coment\xc3\x83\xc2\xa1rio" name="submit" id="comment-submit" type="submit"></input>\n              <input value="49273" name="comment_post_ID" id="comment_post_ID" type="hidden"></input>\n              <input value="0" name="comment_parent" id="comment_parent" type="hidden"></input>\n            </p>\n            <input value="1349207032" name="genseq" type="hidden"></input>\n            <p style="display: none;">\n              <input value="47f9f00a89" name="akismet_comment_nonce" id="akismet_comment_nonce" type="hidden"></input>\n            </p>\n            <script src="http://s2.wp.com/wp-content/mu-plugins/akismet-2.5/form.js?m=1308783962g" type="text/javascript"></script>\n            <p style="display: none;">\n              <input value="156" name="ak_js" id="ak_js" type="hidden"></input>\n            </p>\n          </form>\n        </div>\n        <div style="clear: both"></div>\n      </div>\n      <div id="footer">\n        <p class="center">\n          <a rel="generator" href="http://pt-br.wordpress.com/?ref=footer" shape="rect">Blog no WordPress.com</a>\n          . Tema: Black-LetterHead por\n          <a rel="designer" href="http://ulyssesonline.com/" shape="rect">Ulysses Ronquillo</a>\n          .\n        </p>\n      </div>\n    </div>\n    <script type="text/javascript">\n      var _qevents = _qevents || [], wpcomQuantcastData = {&quot;qacct&quot;:&quot;p-18-mFEk4J448M&quot;,&quot;labels&quot;:&quot;,language.pt-br,type.wpcom&quot;};\nfunction wpcomQuantcastPixel( labels, options ) {\n\tvar i, defaults = wpcomQuantcastData, data = { event: \'ajax\' };\n\n\tlabels  = labels  || \'\';\n\toptions = options || {};\n\n\tif ( typeof labels != \'string\' )\n\t\toptions = labels;\n\n\tfor ( i in defaults ) {\n\t\tdata[i] = defaults[i];\n\t}\n\n\tfor ( i in options ) {\n\t\tdata[i] = options[i];\n\t}\n\n\tif ( data.labels ) {\n\t\tdata.labels += \',\' + labels;\n\t} else {\n\t\tdata.labels = labels;\n\t}\n\n\t_qevents.push( data );\n};\n(function() {var elem = document.createElement(\'script\');elem.src = (document.location.protocol == &quot;https:&quot; ? &quot;https://secure&quot; : &quot;http://edge&quot;) + &quot;.quantserve.com/quant.js&quot;;elem.async = true;elem.type = &quot;text/javascript&quot;;var scpt = document.getElementsByTagName(\'script\')[0];scpt.parentNode.insertBefore(elem, scpt);  })();\n_qevents.push( wpcomQuantcastData );\n    </script>\n    <noscript>\n      <div style="display: none;">\n        <img alt="" width="1" height="1" src="//pixel.quantserve.com/pixel/p-18-mFEk4J448M.gif?labels=%2Clanguage.pt-br%2Ctype.wpcom"></img>\n      </div>\n    </noscript>\n    <script type="text/javascript">\n      /* &lt;![CDATA[ */\n\t(function($){\n\t\t$(document).on( \'ready post-load\', function() {\n\n\t\t\t// Remove the login box when clicking the page\n\t\t\t$( document ).mousedown( function( e ) {\n\t\t\t\tif ( null == $( e.target ).closest( \'#wpl-mustlogin\' ).get( 0 ) ) {\n\t\t\t\t\t$( \'#wpl-mustlogin\' ).remove();\n\t\t\t\t}\n\t\t\t});\n\n\t\t\t// Handle clicking the like button itself\n\t\t\t$(\'.wpl-button &gt; a.like\').click( function(e) {\n\t\t\t\te.preventDefault();\n\n\t\t\t\tvar postid = $(this).parent().attr(\'id\').split(\'like-\')[1];\n\t\t\t\t$.post( \'http://acordocoletivo.org/wp-admin/admin-ajax.php\', {\n\t\t\t\t\t\'action\': \'wpl_record_stat\',\n\t\t\t\t\t\'stat_name\': \'loggedout_like_click\'\n\t\t\t\t} );\n\n\t\t\t\tvar tenMins = new Date();\n\t\t\t\ttenMins.setTime( tenMins.getTime() + 600000 );\n\t\t\t\tdocument.cookie = \'wpl_rand=3f4dd32d11; expires=\' + tenMins.toGMTString() + \'; domain=wordpress.com; path=/;\';\n\n\t\t\t\t$(this).parent().siblings(\'.wpl-count\').after( \'\\\n\t\t\t\t\t&lt;div id=&quot;wpl-mustlogin&quot;&gt; \\\n\t\t\t\t\t\t&lt;form action=&quot;https://acordocoletivo.wordpress.com/wp-login.php&quot; method=&quot;post&quot;&gt; \\\n\t\t\t\t\t\t\t&lt;p&gt;Just one more step to like this:&lt;/p&gt; \\\n\t\t\t\t\t\t\t&lt;label&gt;&lt;span&gt;Nome de usu\xc3\x83\xc2\xa1rio&lt;/span&gt; &lt;input type=&quot;text&quot; name=&quot;log&quot; id=&quot;user_login&quot; class=&quot;input&quot; value=&quot;&quot; size=&quot;20&quot; tabindex=&quot;80&quot; /&gt;&lt;/label&gt; \\\n\t\t\t\t\t\t\t&lt;label&gt;&lt;span&gt;Senha&lt;/span&gt; &lt;input type=&quot;password&quot; name=&quot;pwd&quot; id=&quot;user_pass&quot; class=&quot;input&quot; value=&quot;&quot; size=&quot;20&quot; tabindex=&quot;81&quot; /&gt;&lt;/label&gt; \\\n\t\t\t\t\t\t\t&lt;input type=&quot;submit&quot; name=&quot;wp-submit&quot; id=&quot;wp-submit&quot; class=&quot;button-primary&quot; value=&quot;Login&quot; tabindex=&quot;82&quot; /&gt; \\\n\t\t\t\t\t\t\t&lt;input type=&quot;hidden&quot; name=&quot;postid&quot; value=&quot;\' + postid + \'&quot; /&gt; \\\n\t\t\t\t\t\t\t&lt;input type=&quot;hidden&quot; name=&quot;redirect_to&quot; value=&quot;http://acordocoletivo.org/2012/09/05/michael-clarke-duncan-2?year=2012&amp;#038;monthnum=09&amp;#038;day=05&amp;#038;name=michael-clarke-duncan-2&amp;#038;like=1&quot; /&gt; \\\n\t\t\t\t\t\t\t&lt;input type=&quot;hidden&quot; name=&quot;wpl_rand&quot; value=&quot;3f4dd32d11&quot; /&gt; \\\n\t\t\t\t\t\t\t&lt;p&gt;Not a member yet? &lt;a href=&quot;http://wordpress.com/signup/?ref=likebox&quot; id=&quot;wpl-signup-link&quot;&gt;Sign up with WordPress.com&lt;/a&gt;&lt;/p&gt; \\\n\t\t\t\t\t\t&lt;/form&gt; \\\n\t\t\t\t\t&lt;/div&gt; \\\n\t\t\t\t\');\n\n\t\t\t\t$(\'#wpl-mustlogin\').hide().slideDown(\'fast\');\n\t\t\t} );\n\n\t\t\t$(\'#wpl-mustlogin input.input\').live( \'focus\', function() {\n\t\t\t\t$(this).prev().hide();\n\t\t\t}).live( \'blur\', function() {\n\t\t\t\tif ( $(this).val() == \'\' ) {\n\t\t\t\t\t$(this).prev().show();\n\t\t\t\t}\n\t\t\t});\n\n\t\t\t$(\'#wpl-mustlogin input#wp-submit\').live( \'click\', function(e) {\n\t\t\t\te.preventDefault();\n\n\t\t\t\t$.post( \'http://acordocoletivo.org/wp-admin/admin-ajax.php\', {\n\t\t\t\t\t\'action\': \'wpl_record_stat\',\n\t\t\t\t\t\'stat_name\': \'loggedout_login_submit\'\n\t\t\t\t}, function() {\n\t\t\t\t\t$(\'#wpl-mustlogin form\').submit();\n\t\t\t\t} );\n\t\t\t});\n\n\t\t\t$(\'#wpl-mustlogin a#wpl-signup-link\').live( \'click\', function(e) {\n\t\t\t\te.preventDefault();\n\n\t\t\t\tvar link = $(this).attr(\'href\');\n\n\t\t\t\t$.post( \'http://acordocoletivo.org/wp-admin/admin-ajax.php\', {\n\t\t\t\t\t\'action\': \'wpl_record_stat\',\n\t\t\t\t\t\'stat_name\': \'loggedout_signup_click\'\n\t\t\t\t}, function() {\n\t\t\t\t\tlocation.href = link;\n\t\t\t\t} );\n\t\t\t});\n\t\t})\n\t})(jQuery);\n\t/* ]]&gt; */\n    </script>\n    <script src="http://s.gravatar.com/js/gprofiles.js?ver=201240ab" type="text/javascript"></script>\n    <script type="text/javascript"> /* &lt;![CDATA[ */ var WPGroHo = {&quot;my_hash&quot;:&quot;&quot;}; /* ]]&gt; */ </script>\n    <script src="http://s1.wp.com/wp-content/mu-plugins/gravatar-hovercards/wpgroho.js?m=1318621548g" type="text/javascript"></script>\n    <script>jQuery(document).ready(function($){ Gravatar.profile_cb = function( h, d ) { WPGroHo.syncProfileData( h, d ); }; Gravatar.my_hash = WPGroHo.my_hash; Gravatar.init( \'body\', \'#wp-admin-bar-my-account\' ); });</script>\n    <div style="display:none"> </div>\n    <script type="text/javascript">\n      /* &lt;![CDATA[ */\nvar HighlanderComments = {&quot;loggingInText&quot;:&quot;Logging In\\u2026&quot;,&quot;submittingText&quot;:&quot;Posting Comment\\u2026&quot;,&quot;postCommentText&quot;:&quot;Publicar coment\\u00e1rio&quot;,&quot;connectingToText&quot;:&quot;Connecting to %s&quot;,&quot;commentingAsText&quot;:&quot;%1$s: You are commenting using your %2$s account.&quot;,&quot;logoutText&quot;:&quot;Sair&quot;,&quot;loginText&quot;:&quot;Login&quot;,&quot;connectURL&quot;:&quot;http:\\/\\/acordocoletivo.wordpress.com\\/public.api\\/connect\\/?action=request&quot;,&quot;logoutURL&quot;:&quot;http:\\/\\/acordocoletivo.wordpress.com\\/wp-login.php?action=logout&amp;_wpnonce=2e7e08429c&quot;,&quot;homeURL&quot;:&quot;http:\\/\\/acordocoletivo.org\\/&quot;,&quot;postID&quot;:&quot;49273&quot;,&quot;gravDefault&quot;:&quot;mystery&quot;,&quot;enterACommentError&quot;:&quot;Por favor escreva um coment\\u00e1rio&quot;,&quot;enterEmailError&quot;:&quot;Please enter your email address here&quot;,&quot;invalidEmailError&quot;:&quot;Email inv\\u00e1lido&quot;,&quot;enterAuthorError&quot;:&quot;Please enter your name here&quot;,&quot;gravatarFromEmail&quot;:&quot;This picture will show whenever you leave a comment. Click to customize it.&quot;,&quot;logInToExternalAccount&quot;:&quot;Fa\\u00e7a login para usar detalhes de uma de suas conta.&quot;,&quot;change&quot;:&quot;Alterar&quot;,&quot;changeAccount&quot;:&quot;Alterar Conta&quot;,&quot;comment_registration&quot;:&quot;&quot;,&quot;userIsLoggedIn&quot;:&quot;&quot;,&quot;isJetpack&quot;:&quot;0&quot;};\n/* ]]&gt; */\n    </script>\n    <script src="http://s0.wp.com/wp-content/mu-plugins/highlander-comments/script.js?m=1342824083g" type="text/javascript"></script>\n    <div id="bit" class="loggedout-follow-normal">\n      <a href="javascript:void(0)" class="bsub" shape="rect">\n        <span id="bsub-text">Seguir</span>\n      </a>\n      <div id="bitsubscribe">\n        <h3>\n          <label for="loggedout-follow-field">Follow \xe2\x80\x9cAcordo Coletivo (Petroleiros, Banc\xc3\x83\xc2\xa1rios, Prof de Sa\xc3\x83\xc2\xbade)\xe2\x80\x9d</label>\n        </h3>\n        <form accept-charset="utf-8" action="https://subscribe.wordpress.com" id="loggedout-follow" method="post" enctype="application/x-www-form-urlencoded">\n          <p>Obtenha todo post novo entregue na sua caixa de entrada.</p>\n          <p style="display: none;" id="loggedout-follow-error"></p>\n          <p class="bit-follow-count">Join 120 other followers</p>\n          <p>\n            <input \n            onblur="this.value=(this.value==&quot;&quot;) ? &quot;Enter email address&quot; : this.value;" onfocus="this.value=(this.value==&quot;Enter your email address&quot;) ? &quot;&quot; : this.value;" value="Enter your email address" style="width: 95%; padding: 1px 2px" name="email" id="loggedout-follow-field" type="email">\n</input>\n          </p>\n          <input value="subscribe" name="action" type="hidden"></input>\n          <input value="7504979" name="blog_id" type="hidden"></input>\n          <input value="http://acordocoletivo.org/2012/09/05/michael-clarke-duncan-2/" name="source" type="hidden"></input>\n          <input value="loggedout-follow" name="sub-type" type="hidden"></input>\n          <input value="c8aee995b1" name="_wpnonce" id="_wpnonce" type="hidden"></input>\n          <input value="/2012/09/05/michael-clarke-duncan-2/" name="_wp_http_referer" type="hidden"></input>\n          <p id="bsub-subscribe-button">\n            <input value="Sign me up" type="submit"></input>\n          </p>\n        </form>\n        <div id="bsub-credit">\n          <a href="http://wordpress.com/signup/?ref=lof" shape="rect">Powered by WordPress.com</a>\n        </div>\n      </div>\n    </div>\n    <script src="http://s.skimresources.com/js/wordpress.js" type="text/javascript"></script>\n    <script type="text/javascript"> var skimlinks_pub_id = &quot;725X584219&quot; var skimlinks_sitename = \'acordocoletivo.wordpress.com\'; skimlinks(); </script>\n    <script charset="UTF-8" type="text/javascript" id="polldaddyRatings">\n      &lt;!--//--&gt;&lt;![CDATA[//&gt;&lt;!--\nPDRTJS_settings_21883_post_49273={&quot;id&quot;:21883,&quot;unique_id&quot;:&quot;wp-post-49273&quot;,&quot;title&quot;:&quot;Michael%20Clarke%26nbsp%3BDuncan&quot;,&quot;permalink&quot;:&quot;http:\\/\\/acordocoletivo.org\\/2012\\/09\\/05\\/michael-clarke-duncan-2\\/&quot;,&quot;item_id&quot;:&quot;_post_49273&quot;}; if ( typeof PDRTJS_RATING !== \'undefined\' ){if ( typeof PDRTJS_21883_post_49273 == \'undefined\' ){PDRTJS_21883_post_49273 = new PDRTJS_RATING( PDRTJS_settings_21883_post_49273 );}}\n//--&gt;&lt;!]]&gt;\n    </script>\n    <script src="http://i.polldaddy.com/ratings/rating.js" charset="UTF-8" type="text/javascript"></script>\n    <script src="http://b.scorecardresearch.com/beacon.js" type="text/javascript"></script>\n    <script type="text/javascript">try{COMSCORE.beacon({c1:2,c2:7518284});}catch(e){}</script>\n    <noscript>\n      <p class="robots-nocontent">\n        <img height="1" width="1" style="display:none" alt="" src="http://b.scorecardresearch.com/p?cj=1c1=2&amp;c2=7518284"></img>\n      </p>\n    </noscript>\n    <script src="http://s1.wp.com/wp-content/js/devicepx.js?m=1349105731g" type="text/javascript"></script>\n    <script type="text/javascript">\n      // &lt;![CDATA[\n(function() {\ntry{\n  if ( window.external &amp;&amp;\'msIsSiteMode\' in window.external) {\n    if (window.external.msIsSiteMode()) {\n      var jl = document.createElement(\'script\');\n      jl.type=\'text/javascript\';\n      jl.async=true;\n      jl.src=\'/wp-content/plugins/ie-sitemode/custom-jumplist.php\';\n      var s = document.getElementsByTagName(\'script\')[0];\n      s.parentNode.insertBefore(jl, s);\n    }\n  }\n}catch(e){}\n})();\n// ]]&gt;\n    </script>\n    <script type="text/javascript" src="http://s.stats.wordpress.com/w.js?21"></script>\n    <script type="text/javascript">\n      st_go({\'blog\':\'7504979\',\'v\':\'wpcom\',\'user_id\':\'0\',\'post\':\'49273\',\'subd\':\'acordocoletivo\'});\nex_go({\'crypt\':\'UE40eW5QN0p8M2Y/RE1oOHBqWkJdYy5wL35xRnR4SVtWLmluVHQrZ3JdejZPY3Z1KzdLPS5kdmx1VSVDa1FVTTl0MWkvQk5jaVJTayYsbXVuRVIvMGRXJXRXMkpUJStDSEpEZl9mZnF1fHh5YiZRY1Muamd2S2ZGNkZXTHRLSU5GTnZkTyVWT1V3cjFCL35hUmxhR0xSTkdTcS9wVy0ta1l5VnBob2NUK1suYzdpQjlUQVIrTm4/K0M1dWJ6fD8yd040bS8tLlhyOFd3NkpLcWY1NEFwcSU0JSVpNFVSSkxwLXpDV2NtRmtHMHBhMGplZXZpN0phVUtLZ1lBdzFZYkR4dEVrLjdvZmxUb2FPenVZR2k4ZyV2SE9iNWJiU0VaaXd5XzRKWTBoU1AlQ2QydHAlJXZxLDJRTXM5UyVlYj0sTD0lbzI9ckE2MmFpTXBaVmI=\'});\naddLoadEvent(function(){linktracker_init(\'7504979\',49273);});\n    </script>\n    <noscript>\n      <img alt="" style="height:0px;width:0px;overflow:hidden" src="http://stats.wordpress.com/b.gif?v=noscript"></img>\n    </noscript>\n  </body>\n</html>'
p11
sbsS'mentions'
p12
(lp13
(iedu.umass.cs.iesl.wikilink.expanded.data.ttypes
Mention
p14
(dp15
S'anchor_text'
p16
S'Chicago'
p17
sS'context'
p18
(iedu.umass.cs.iesl.wikilink.expanded.data.ttypes
Context
p19
(dp20
S'middle'
p21
S'Chicago'
p22
sS'right'
p23
S',\xc3\x82\xc2\xa0 Illinois , U.S. Died September 3, 2012\xc3\x82\xc2\xa0(aged\xc3\x82\xc2\xa054) Los Angeles ,\xc3\x82\xc2\xa0 California , U.S. Occupation Actor Years active 1995\xc3\xa2\xe2\x82\xac\xe2\x80\x9c2012 Partner Omarosa Manigault-Stallworth (2010\xc3\xa2\xe2\x82\xac\xe2\x80\x9c2012; his death)'
p24
sS'left'
p25
S'Clarke\xc2\xa0Duncan From Wikipedia, the free encyclopedia Michael Clarke Duncan Duncan at the Warner Brothers Lot in Burbank, California, in January 2009. Born December 10, 1957'
p26
sbsS'freebase_id'
p27
S'9202a8c04000641f8000000000432801'
p28
sS'raw_text_offset'
p29
I18232
sS'wiki_url'
p30
S'http://en.wikipedia.org/wiki/Chicago'
p31
sba(iedu.umass.cs.iesl.wikilink.expanded.data.ttypes
Mention
p32
(dp33
g16
S'Illinois'
p34
sg18
(iedu.umass.cs.iesl.wikilink.expanded.data.ttypes
Context
p35
(dp36
g21
S'Illinois'
p37
sg23
S', U.S. Died September 3, 2012\xc3\x82\xc2\xa0(aged\xc3\x82\xc2\xa054) Los Angeles ,\xc3\x82\xc2\xa0 California , U.S. Occupation Actor Years active 1995\xc3\xa2\xe2\x82\xac\xe2\x80\x9c2012 Partner Omarosa Manigault-Stallworth (2010\xc3\xa2\xe2\x82\xac\xe2\x80\x9c2012; his death) This article\xc3\x82\xc2\xa0'
p38
sg25
S'Wikipedia, the free encyclopedia Michael Clarke Duncan Duncan at the Warner Brothers Lot in Burbank, California, in January 2009. Born December 10, 1957 Chicago ,\xc3\x82\xc2\xa0'
p39
sbsg27
S'9202a8c04000641f800000000001e819'
p40
sg29
I18311
sg30
S'http://en.wikipedia.org/wiki/Illinois'
p41
sba(iedu.umass.cs.iesl.wikilink.expanded.data.ttypes
Mention
p42
(dp43
g16
S'Omarosa Manigault-Stallworth'
p44
sg18
(iedu.umass.cs.iesl.wikilink.expanded.data.ttypes
Context
p45
(dp46
g21
S'Omarosa Manigault-Stallworth'
p47
sg23
S'(2010\xc3\xa2\xe2\x82\xac\xe2\x80\x9c2012; his death) This article\xc3\x82\xc2\xa0 is about\xc3\x82\xc2\xa0 a person who has recently died . Some information, such as that pertaining to the circumstances of the'
p48
sg25
S'Born December 10, 1957 Chicago ,\xc3\x82\xc2\xa0 Illinois , U.S. Died September 3, 2012\xc3\x82\xc2\xa0(aged\xc3\x82\xc2\xa054) Los Angeles ,\xc3\x82\xc2\xa0 California , U.S. Occupation Actor Years active 1995\xc3\xa2\xe2\x82\xac\xe2\x80\x9c2012 Partner'
p49
sbsg27
S'9202a8c04000641f80000000002d12cd'
p50
sg29
I32141
sg30
S'http://en.wikipedia.org/wiki/Omarosa_Manigault-Stallworth'
p51
sba(iedu.umass.cs.iesl.wikilink.expanded.data.ttypes
Mention
p52
(dp53
g16
S'The Green Mile'
p54
sg18
(iedu.umass.cs.iesl.wikilink.expanded.data.ttypes
Context
p55
(dp56
g21
S'The Green Mile'
p57
sg23
S', for which he was nominated for an\xc3\x82\xc2\xa0 Academy Award \xc3\x82\xc2\xa0and a\xc3\x82\xc2\xa0 Golden Globe . He was also recognized for his appearances in motion pictures'
p58
sg25
S'known. Michael Clarke Duncan \xc3\x82\xc2\xa0(December 10, 1957 \xc3\xa2\xe2\x82\xac\xe2\x80\x9c September 3, 2012) was an American actor, best known for his breakout role as John Coffey in\xc3\x82\xc2\xa0'
p59
sbsg27
S'9202a8c04000641f80000000003c2635'
p60
sg29
I16055
sg30
S'http://en.wikipedia.org/wiki/The_Green_Mile_(film)'
p61
sba(iedu.umass.cs.iesl.wikilink.expanded.data.ttypes
Mention
p62
(dp63
g16
S'Academy Award'
p64
sg18
(iedu.umass.cs.iesl.wikilink.expanded.data.ttypes
Context
p65
(dp66
g21
S'Academy Award'
p67
sg23
S'\xc3\x82\xc2\xa0and a\xc3\x82\xc2\xa0 Golden Globe . He was also recognized for his appearances in motion pictures such as\xc3\x82\xc2\xa0 Armageddon ,\xc3\x82\xc2\xa0 The Green Mile ,\xc3\x82\xc2\xa0 The Whole'
p68
sg25
S'was an American actor, best known for his breakout role as John Coffey in\xc3\x82\xc2\xa0 The Green Mile , for which he was nominated for an\xc3\x82\xc2\xa0'
p69
sbsg27
S'9202a8c04000641f8000000000075ba2'
p70
sg29
I16242
sg30
S'http://en.wikipedia.org/wiki/Academy_Award_for_Best_Supporting_Actor'
p71
sba(iedu.umass.cs.iesl.wikilink.expanded.data.ttypes
Mention
p72
(dp73
g16
S'Golden Globe'
p74
sg18
(iedu.umass.cs.iesl.wikilink.expanded.data.ttypes
Context
p75
(dp76
g21
S'Golden Globe'
p77
sg23
S'. He was also recognized for his appearances in motion pictures such as\xc3\x82\xc2\xa0 Armageddon ,\xc3\x82\xc2\xa0 The Green Mile ,\xc3\x82\xc2\xa0 The Whole Nine Yards ,\xc3\x82\xc2\xa0 The'
p78
sg25
S'best known for his breakout role as John Coffey in\xc3\x82\xc2\xa0 The Green Mile , for which he was nominated for an\xc3\x82\xc2\xa0 Academy Award \xc3\x82\xc2\xa0and a\xc3\x82\xc2\xa0'
p79
sbsg27
S'9202a8c04000641f800000000010fcff'
p80
sg29
I16353
sg30
S'http://en.wikipedia.org/wiki/Golden_Globe_Award'
p81
sba(iedu.umass.cs.iesl.wikilink.expanded.data.ttypes
Mention
p82
(dp83
g16
S'Armageddon'
p84
sg18
(iedu.umass.cs.iesl.wikilink.expanded.data.ttypes
Context
p85
(dp86
g21
S'Armageddon'
p87
sg23
S',\xc3\x82\xc2\xa0 The Green Mile ,\xc3\x82\xc2\xa0 The Whole Nine Yards ,\xc3\x82\xc2\xa0 The Scorpion King \xc3\x82\xc2\xa0and Daredevil , as well as voice acting roles in works such'
p88
sg25
S'which he was nominated for an\xc3\x82\xc2\xa0 Academy Award \xc3\x82\xc2\xa0and a\xc3\x82\xc2\xa0 Golden Globe . He was also recognized for his appearances in motion pictures such as\xc3\x82\xc2\xa0'
p89
sbsg27
S'9202a8c04000641f8000000000066063'
p90
sg29
I16539
sg30
S'http://en.wikipedia.org/wiki/Armageddon_(1998_film)'
p91
sba(iedu.umass.cs.iesl.wikilink.expanded.data.ttypes
Mention
p92
(dp93
g16
S'The Green Mile'
p94
sg18
(iedu.umass.cs.iesl.wikilink.expanded.data.ttypes
Context
p95
(dp96
g21
S'The Green Mile'
p97
sg23
S',\xc3\x82\xc2\xa0 The Whole Nine Yards ,\xc3\x82\xc2\xa0 The Scorpion King \xc3\x82\xc2\xa0and Daredevil , as well as voice acting roles in works such as\xc3\x82\xc2\xa0 Brother Bear \xc3\x82\xc2\xa0and\xc3\x82\xc2\xa0'
p98
sg25
S'was nominated for an\xc3\x82\xc2\xa0 Academy Award \xc3\x82\xc2\xa0and a\xc3\x82\xc2\xa0 Golden Globe . He was also recognized for his appearances in motion pictures such as\xc3\x82\xc2\xa0 Armageddon ,\xc3\x82\xc2\xa0'
p99
sbsg27
S'9202a8c04000641f80000000003c2635'
p100
sg29
I16656
sg30
S'http://en.wikipedia.org/wiki/The_Green_Mile_(film)'
p101
sba(iedu.umass.cs.iesl.wikilink.expanded.data.ttypes
Mention
p102
(dp103
g16
S'The Whole Nine Yards'
p104
sg18
(iedu.umass.cs.iesl.wikilink.expanded.data.ttypes
Context
p105
(dp106
g21
S'The Whole Nine Yards'
p107
sg23
S',\xc3\x82\xc2\xa0 The Scorpion King \xc3\x82\xc2\xa0and Daredevil , as well as voice acting roles in works such as\xc3\x82\xc2\xa0 Brother Bear \xc3\x82\xc2\xa0and\xc3\x82\xc2\xa0 Kung Fu Panda . Contents'
p108
sg25
S'Academy Award \xc3\x82\xc2\xa0and a\xc3\x82\xc2\xa0 Golden Globe . He was also recognized for his appearances in motion pictures such as\xc3\x82\xc2\xa0 Armageddon ,\xc3\x82\xc2\xa0 The Green Mile ,\xc3\x82\xc2\xa0'
p109
sbsg27
S'9202a8c04000641f8000000000e2db50'
p110
sg29
I16789
sg30
S'http://en.wikipedia.org/wiki/The_Whole_Nine_Yards_(film)'
p111
sba(iedu.umass.cs.iesl.wikilink.expanded.data.ttypes
Mention
p112
(dp113
g16
S'The Scorpion King'
p114
sg18
(iedu.umass.cs.iesl.wikilink.expanded.data.ttypes
Context
p115
(dp116
g21
S'The Scorpion King'
p117
sg23
S'\xc3\x82\xc2\xa0and Daredevil , as well as voice acting roles in works such as\xc3\x82\xc2\xa0 Brother Bear \xc3\x82\xc2\xa0and\xc3\x82\xc2\xa0 Kung Fu Panda . Contents [ hide ] 1\xc3\x82\xc2\xa0Early'
p118
sg25
S'Globe . He was also recognized for his appearances in motion pictures such as\xc3\x82\xc2\xa0 Armageddon ,\xc3\x82\xc2\xa0 The Green Mile ,\xc3\x82\xc2\xa0 The Whole Nine Yards ,\xc3\x82\xc2\xa0'
p119
sbsg27
S'9202a8c04000641f80000000003ca4b4'
p120
sg29
I16908
sg30
S'http://en.wikipedia.org/wiki/The_Scorpion_King'
p121
sba(iedu.umass.cs.iesl.wikilink.expanded.data.ttypes
Mention
p122
(dp123
g16
S'Daredevil'
p124
sg18
(iedu.umass.cs.iesl.wikilink.expanded.data.ttypes
Context
p125
(dp126
g21
S'Daredevil'
p127
sg23
S', as well as voice acting roles in works such as\xc3\x82\xc2\xa0 Brother Bear \xc3\x82\xc2\xa0and\xc3\x82\xc2\xa0 Kung Fu Panda . Contents [ hide ] 1\xc3\x82\xc2\xa0Early life 2\xc3\x82\xc2\xa0Career'
p128
sg25
S'also recognized for his appearances in motion pictures such as\xc3\x82\xc2\xa0 Armageddon ,\xc3\x82\xc2\xa0 The Green Mile ,\xc3\x82\xc2\xa0 The Whole Nine Yards ,\xc3\x82\xc2\xa0 The Scorpion King \xc3\x82\xc2\xa0and'
p129
sbsg27
S'9202a8c04000641f80000000004469f2'
p130
sg29
I17024
sg30
S'http://en.wikipedia.org/wiki/Daredevil_(film)'
p131
sba(iedu.umass.cs.iesl.wikilink.expanded.data.ttypes
Mention
p132
(dp133
g16
S'Brother Bear'
p134
sg18
(iedu.umass.cs.iesl.wikilink.expanded.data.ttypes
Context
p135
(dp136
g21
S'Brother Bear'
p137
sg23
S'\xc3\x82\xc2\xa0and\xc3\x82\xc2\xa0 Kung Fu Panda . Contents [ hide ] 1\xc3\x82\xc2\xa0Early life 2\xc3\x82\xc2\xa0Career 3\xc3\x82\xc2\xa0Illness and death 4\xc3\x82\xc2\xa0Filmography 5\xc3\x82\xc2\xa0References 6\xc3\x82\xc2\xa0External links Early life Duncan was born in\xc3\x82\xc2\xa0'
p138
sg25
S'The Green Mile ,\xc3\x82\xc2\xa0 The Whole Nine Yards ,\xc3\x82\xc2\xa0 The Scorpion King \xc3\x82\xc2\xa0and Daredevil , as well as voice acting roles in works such as\xc3\x82\xc2\xa0'
p139
sbsg27
S'9202a8c04000641f80000000001f66a8'
p140
sg29
I17169
sg30
S'http://en.wikipedia.org/wiki/Brother_Bear'
p141
sba(iedu.umass.cs.iesl.wikilink.expanded.data.ttypes
Mention
p142
(dp143
g16
S'Kung Fu Panda'
p144
sg18
(iedu.umass.cs.iesl.wikilink.expanded.data.ttypes
Context
p145
(dp146
g21
S'Kung Fu Panda'
p147
sg23
S'. Contents [ hide ] 1\xc3\x82\xc2\xa0Early life 2\xc3\x82\xc2\xa0Career 3\xc3\x82\xc2\xa0Illness and death 4\xc3\x82\xc2\xa0Filmography 5\xc3\x82\xc2\xa0References 6\xc3\x82\xc2\xa0External links Early life Duncan was born in\xc3\x82\xc2\xa0 Chicago ,\xc3\x82\xc2\xa0 Illinois ,'
p148
sg25
S',\xc3\x82\xc2\xa0 The Whole Nine Yards ,\xc3\x82\xc2\xa0 The Scorpion King \xc3\x82\xc2\xa0and Daredevil , as well as voice acting roles in works such as\xc3\x82\xc2\xa0 Brother Bear \xc3\x82\xc2\xa0and\xc3\x82\xc2\xa0'
p149
sbsg27
S'9202a8c04000641f80000000009090ce'
p150
sg29
I17276
sg30
S'http://en.wikipedia.org/wiki/Kung_Fu_Panda'
p151
sba(iedu.umass.cs.iesl.wikilink.expanded.data.ttypes
Mention
p152
(dp153
g16
S'Alcorn State University'
p154
sg18
(iedu.umass.cs.iesl.wikilink.expanded.data.ttypes
Context
p155
(dp156
g21
S'Alcorn State University'
p157
sg23
S'\xc3\x82\xc2\xa0to support his family when his mother became ill. Duncan\xe2\x80\x99s large frame\xc3\xa2\xe2\x82\xac\xe2\x80\x9d6 feet 5\xc3\x82\xc2\xa0inches (196\xc3\x82\xc2\xa0cm) [3] \xc3\x82\xc2\xa0and 315 pounds (142\xc3\x82\xc2\xa0kg)\xc3\xa2\xe2\x82\xac\xe2\x80\x9dhelped him in his jobs digging'
p158
sg25
S'Duncan (a house cleaner), after his father left. [1] [2] \xc3\x82\xc2\xa0He always wanted to act, but had to drop out of the Communications program at\xc3\x82\xc2\xa0'
p159
sbsg27
S'9202a8c04000641f800000000016d47b'
p160
sg29
I18812
sg30
S'http://en.wikipedia.org/wiki/Alcorn_State_University'
p161
sba(iedu.umass.cs.iesl.wikilink.expanded.data.ttypes
Mention
p162
(dp163
g16
S'bouncer'
p164
sg18
(iedu.umass.cs.iesl.wikilink.expanded.data.ttypes
Context
p165
(dp166
g21
S'bouncer'
p167
sg23
S'\xc3\x82\xc2\xa0at several Chicago clubs. [4] [ better\xc3\x82\xc2\xa0source\xc3\x82\xc2\xa0needed ] In 1979, he participated in the\xc3\x82\xc2\xa0 Disco Demolition Night \xc3\x82\xc2\xa0at\xc3\x82\xc2\xa0 Comiskey Park , home of the\xc3\x82\xc2\xa0 Chicago'
p168
sg25
S'Duncan\xe2\x80\x99s large frame\xc3\xa2\xe2\x82\xac\xe2\x80\x9d6 feet 5\xc3\x82\xc2\xa0inches (196\xc3\x82\xc2\xa0cm) [3] \xc3\x82\xc2\xa0and 315 pounds (142\xc3\x82\xc2\xa0kg)\xc3\xa2\xe2\x82\xac\xe2\x80\x9dhelped him in his jobs digging ditches for the People\xe2\x80\x99s Gas Company and being a\xc3\x82\xc2\xa0'
p169
sbsg27
S'9202a8c04000641f8000000000398562'
p170
sg29
I19251
sg30
S'http://en.wikipedia.org/wiki/Bouncer_(doorman)'
p171
sba(iedu.umass.cs.iesl.wikilink.expanded.data.ttypes
Mention
p172
(dp173
g16
S'Disco Demolition Night'
p174
sg18
(iedu.umass.cs.iesl.wikilink.expanded.data.ttypes
Context
p175
(dp176
g21
S'Disco Demolition Night'
p177
sg23
S'\xc3\x82\xc2\xa0at\xc3\x82\xc2\xa0 Comiskey Park , home of the\xc3\x82\xc2\xa0 Chicago White Sox , where he was among the first 100 people to run onto the field and'
p178
sg25
S'digging ditches for the People\xe2\x80\x99s Gas Company and being a\xc3\x82\xc2\xa0 bouncer \xc3\x82\xc2\xa0at several Chicago clubs. [4] [ better\xc3\x82\xc2\xa0source\xc3\x82\xc2\xa0needed ] In 1979, he participated in the\xc3\x82\xc2\xa0'
p179
sbsg27
S'9202a8c04000641f80000000001c75f9'
p180
sg29
I19641
sg30
S'http://en.wikipedia.org/wiki/Disco_Demolition_Night'
p181
sba(iedu.umass.cs.iesl.wikilink.expanded.data.ttypes
Mention
p182
(dp183
g16
S'Comiskey Park'
p184
sg18
(iedu.umass.cs.iesl.wikilink.expanded.data.ttypes
Context
p185
(dp186
g21
S'Comiskey Park'
p187
sg23
S', home of the\xc3\x82\xc2\xa0 Chicago White Sox , where he was among the first 100 people to run onto the field and he slid into'
p188
sg25
S'People\xe2\x80\x99s Gas Company and being a\xc3\x82\xc2\xa0 bouncer \xc3\x82\xc2\xa0at several Chicago clubs. [4] [ better\xc3\x82\xc2\xa0source\xc3\x82\xc2\xa0needed ] In 1979, he participated in the\xc3\x82\xc2\xa0 Disco Demolition Night \xc3\x82\xc2\xa0at\xc3\x82\xc2\xa0'
p189
sbsg27
S'9202a8c04000641f80000000002a6d99'
p190
sg29
I19748
sg30
S'http://en.wikipedia.org/wiki/Comiskey_Park'
p191
sba(iedu.umass.cs.iesl.wikilink.expanded.data.ttypes
Mention
p192
(dp193
g16
S'Chicago White Sox'
p194
sg18
(iedu.umass.cs.iesl.wikilink.expanded.data.ttypes
Context
p195
(dp196
g21
S'Chicago White Sox'
p197
sg23
S', where he was among the first 100 people to run onto the field and he slid into third base. During the ensuing riot his'
p198
sg25
S'bouncer \xc3\x82\xc2\xa0at several Chicago clubs. [4] [ better\xc3\x82\xc2\xa0source\xc3\x82\xc2\xa0needed ] In 1979, he participated in the\xc3\x82\xc2\xa0 Disco Demolition Night \xc3\x82\xc2\xa0at\xc3\x82\xc2\xa0 Comiskey Park , home of the\xc3\x82\xc2\xa0'
p199
sbsg27
S'9202a8c04000641f800000000000e24b'
p200
sg29
I19863
sg30
S'http://en.wikipedia.org/wiki/Chicago_White_Sox'
p201
sba(iedu.umass.cs.iesl.wikilink.expanded.data.ttypes
Mention
p202
(dp203
g16
S'Will Smith'
p204
sg18
(iedu.umass.cs.iesl.wikilink.expanded.data.ttypes
Context
p205
(dp206
g21
S'Will Smith'
p207
sg23
S',\xc3\x82\xc2\xa0 Martin Lawrence ,\xc3\x82\xc2\xa0 Jamie Foxx ,\xc3\x82\xc2\xa0 LL Cool J , and\xc3\x82\xc2\xa0 The Notorious B.I.G. , all the while doing bit parts in television and'
p208
sg25
S'jobs while in Los Angeles while trying to get some acting work in commercials. During this time, he worked as a bodyguard for celebrities like\xc3\x82\xc2\xa0'
p209
sbsg27
S'9202a8c04000641f8000000000121d91'
p210
sg29
I20545
sg30
S'http://en.wikipedia.org/wiki/Will_Smith'
p211
sba(iedu.umass.cs.iesl.wikilink.expanded.data.ttypes
Mention
p212
(dp213
g16
S'Martin Lawrence'
p214
sg18
(iedu.umass.cs.iesl.wikilink.expanded.data.ttypes
Context
p215
(dp216
g21
S'Martin Lawrence'
p217
sg23
S',\xc3\x82\xc2\xa0 Jamie Foxx ,\xc3\x82\xc2\xa0 LL Cool J , and\xc3\x82\xc2\xa0 The Notorious B.I.G. , all the while doing bit parts in television and films. When the'
p218
sg25
S'Los Angeles while trying to get some acting work in commercials. During this time, he worked as a bodyguard for celebrities like\xc3\x82\xc2\xa0 Will Smith ,\xc3\x82\xc2\xa0'
p219
sbsg27
S'9202a8c04000641f8000000000230c6e'
p220
sg29
I20641
sg30
S'http://en.wikipedia.org/wiki/Martin_Lawrence'
p221
sba(iedu.umass.cs.iesl.wikilink.expanded.data.ttypes
Mention
p222
(dp223
g16
S'Jamie Foxx'
p224
sg18
(iedu.umass.cs.iesl.wikilink.expanded.data.ttypes
Context
p225
(dp226
g21
S'Jamie Foxx'
p227
sg23
S',\xc3\x82\xc2\xa0 LL Cool J , and\xc3\x82\xc2\xa0 The Notorious B.I.G. , all the while doing bit parts in television and films. When the Notorious B.I.G. was'
p228
sg25
S'trying to get some acting work in commercials. During this time, he worked as a bodyguard for celebrities like\xc3\x82\xc2\xa0 Will Smith ,\xc3\x82\xc2\xa0 Martin Lawrence ,\xc3\x82\xc2\xa0'
p229
sbsg27
S'9202a8c04000641f8000000003b9f1b8'
p230
sg29
I20732
sg30
S'http://en.wikipedia.org/wiki/Jamie_Foxx'
p231
sba(iedu.umass.cs.iesl.wikilink.expanded.data.ttypes
Mention
p232
(dp233
g16
S'LL Cool J'
p234
sg18
(iedu.umass.cs.iesl.wikilink.expanded.data.ttypes
Context
p235
(dp236
g21
S'LL Cool J'
p237
sg23
S', and\xc3\x82\xc2\xa0 The Notorious B.I.G. , all the while doing bit parts in television and films. When the Notorious B.I.G. was killed in 1997, Duncan'
p238
sg25
S'some acting work in commercials. During this time, he worked as a bodyguard for celebrities like\xc3\x82\xc2\xa0 Will Smith ,\xc3\x82\xc2\xa0 Martin Lawrence ,\xc3\x82\xc2\xa0 Jamie Foxx ,\xc3\x82\xc2\xa0'
p239
sbsg27
S'9202a8c04000641f8000000003ad7588'
p240
sg29
I20816
sg30
S'http://en.wikipedia.org/wiki/LL_Cool_J'
p241
sba(iedu.umass.cs.iesl.wikilink.expanded.data.ttypes
Mention
p242
(dp243
g16
S'Armageddon'
p244
sg18
(iedu.umass.cs.iesl.wikilink.expanded.data.ttypes
Context
p245
(dp246
g21
S'Armageddon'
p247
sg23
S', where he struck up a friendship with castmate\xc3\x82\xc2\xa0 Bruce Willis . It was Bruce Willis\xe2\x80\x99 influence that helped him to get his breakout role'
p248
sg25
S'When the Notorious B.I.G. was killed in 1997, Duncan quit this line of work. [3] In 1998, Duncan was cast as Bear in the film\xc3\x82\xc2\xa0'
p249
sbsg27
S'9202a8c04000641f8000000000066063'
p250
sg29
I21339
sg30
S'http://en.wikipedia.org/wiki/Armageddon_(1998_film)'
p251
sba(iedu.umass.cs.iesl.wikilink.expanded.data.ttypes
Mention
p252
(dp253
g16
S'Bruce Willis'
p254
sg18
(iedu.umass.cs.iesl.wikilink.expanded.data.ttypes
Context
p255
(dp256
g21
S'Bruce Willis'
p257
sg23
S'. It was Bruce Willis\xe2\x80\x99 influence that helped him to get his breakout role as John Coffey in the\xc3\x82\xc2\xa0 Frank Darabont -directed\xc3\x82\xc2\xa0 The Green Mile'
p258
sg25
S'this line of work. [3] In 1998, Duncan was cast as Bear in the film\xc3\x82\xc2\xa0 Armageddon , where he struck up a friendship with castmate\xc3\x82\xc2\xa0'
p259
sbsg27
S'9202a8c04000641f8000000000079eb0'
p260
sg29
I21480
sg30
S'http://en.wikipedia.org/wiki/Bruce_Willis'
p261
sba(iedu.umass.cs.iesl.wikilink.expanded.data.ttypes
Mention
p262
(dp263
g16
S'Frank Darabont'
p264
sg18
(iedu.umass.cs.iesl.wikilink.expanded.data.ttypes
Context
p265
(dp266
g21
S'Frank Darabont'
p267
sg23
S'-directed\xc3\x82\xc2\xa0 The Green Mile , a role which netted him an\xc3\x82\xc2\xa0 Academy Award \xc3\x82\xc2\xa0nomination for\xc3\x82\xc2\xa0 Best Actor in a Supporting Role and a\xc3\x82\xc2\xa0 Golden Globe'
p268
sg25
S'a friendship with castmate\xc3\x82\xc2\xa0 Bruce Willis . It was Bruce Willis\xe2\x80\x99 influence that helped him to get his breakout role as John Coffey in the\xc3\x82\xc2\xa0'
p269
sbsg27
S'9202a8c04000641f800000000040a6bb'
p270
sg29
I21676
sg30
S'http://en.wikipedia.org/wiki/Frank_Darabont'
p271
sba(iedu.umass.cs.iesl.wikilink.expanded.data.ttypes
Mention
p272
(dp273
g16
S'The Green Mile'
p274
sg18
(iedu.umass.cs.iesl.wikilink.expanded.data.ttypes
Context
p275
(dp276
g21
S'The Green Mile'
p277
sg23
S', a role which netted him an\xc3\x82\xc2\xa0 Academy Award \xc3\x82\xc2\xa0nomination for\xc3\x82\xc2\xa0 Best Actor in a Supporting Role and a\xc3\x82\xc2\xa0 Golden Globe \xc3\x82\xc2\xa0nomination for\xc3\x82\xc2\xa0 Best Performance'
p278
sg25
S'castmate\xc3\x82\xc2\xa0 Bruce Willis . It was Bruce Willis\xe2\x80\x99 influence that helped him to get his breakout role as John Coffey in the\xc3\x82\xc2\xa0 Frank Darabont -directed\xc3\x82\xc2\xa0'
p279
sbsg27
S'9202a8c04000641f80000000003c2635'
p280
sg29
I21800
sg30
S'http://en.wikipedia.org/wiki/The_Green_Mile_(film)'
p281
sba(iedu.umass.cs.iesl.wikilink.expanded.data.ttypes
Mention
p282
(dp283
g16
S'Academy Award'
p284
sg18
(iedu.umass.cs.iesl.wikilink.expanded.data.ttypes
Context
p285
(dp286
g21
S'Academy Award'
p287
sg23
S'\xc3\x82\xc2\xa0nomination for\xc3\x82\xc2\xa0 Best Actor in a Supporting Role and a\xc3\x82\xc2\xa0 Golden Globe \xc3\x82\xc2\xa0nomination for\xc3\x82\xc2\xa0 Best Performance by an Actor in a Supporting Role in a'
p288
sg25
S'helped him to get his breakout role as John Coffey in the\xc3\x82\xc2\xa0 Frank Darabont -directed\xc3\x82\xc2\xa0 The Green Mile , a role which netted him an\xc3\x82\xc2\xa0'
p289
sbsg27
S'9202a8c04000641f8000000000003bfb'
p290
sg29
I21928
sg30
S'http://en.wikipedia.org/wiki/Academy_Award'
p291
sba(iedu.umass.cs.iesl.wikilink.expanded.data.ttypes
Mention
p292
(dp293
g16
S'Best Actor in a Supporting Role'
p294
sg18
(iedu.umass.cs.iesl.wikilink.expanded.data.ttypes
Context
p295
(dp296
g21
S'Best Actor in a Supporting Role'
p297
sg23
S'and a\xc3\x82\xc2\xa0 Golden Globe \xc3\x82\xc2\xa0nomination for\xc3\x82\xc2\xa0 Best Performance by an Actor in a Supporting Role in a Motion Picture . [7] [8] Duncan then was'
p298
sg25
S'his breakout role as John Coffey in the\xc3\x82\xc2\xa0 Frank Darabont -directed\xc3\x82\xc2\xa0 The Green Mile , a role which netted him an\xc3\x82\xc2\xa0 Academy Award \xc3\x82\xc2\xa0nomination for\xc3\x82\xc2\xa0'
p299
sbsg27
S'9202a8c04000641f8000000000075ba2'
p300
sg29
I22090
sg30
S'http://en.wikipedia.org/wiki/Academy_Award_for_Best_Supporting_Actor'
p301
sba(iedu.umass.cs.iesl.wikilink.expanded.data.ttypes
Mention
p302
(dp303
g16
S'Golden Globe'
p304
sg18
(iedu.umass.cs.iesl.wikilink.expanded.data.ttypes
Context
p305
(dp306
g21
S'Golden Globe'
p307
sg23
S'\xc3\x82\xc2\xa0nomination for\xc3\x82\xc2\xa0 Best Performance by an Actor in a Supporting Role in a Motion Picture . [7] [8] Duncan then was cast in a string'
p308
sg25
S'Frank Darabont -directed\xc3\x82\xc2\xa0 The Green Mile , a role which netted him an\xc3\x82\xc2\xa0 Academy Award \xc3\x82\xc2\xa0nomination for\xc3\x82\xc2\xa0 Best Actor in a Supporting Role and a\xc3\x82\xc2\xa0'
p309
sbsg27
S'9202a8c04000641f800000000010fcff'
p310
sg29
I22217
sg30
S'http://en.wikipedia.org/wiki/Golden_Globe_Award'
p311
sba(iedu.umass.cs.iesl.wikilink.expanded.data.ttypes
Mention
p312
(dp313
g16
S'Best Performance by an Actor in a Supporting Role in a Motion Picture'
p314
sg18
(iedu.umass.cs.iesl.wikilink.expanded.data.ttypes
Context
p315
(dp316
g21
S'Best Performance by an Actor in a Supporting Role in a Motion Picture'
p317
sg23
S'. [7] [8] Duncan then was cast in a string of films that helped to establish him as a star:\xc3\x82\xc2\xa0 The Whole Nine Yards ,\xc3\x82\xc2\xa0'
p318
sg25
S'Green Mile , a role which netted him an\xc3\x82\xc2\xa0 Academy Award \xc3\x82\xc2\xa0nomination for\xc3\x82\xc2\xa0 Best Actor in a Supporting Role and a\xc3\x82\xc2\xa0 Golden Globe \xc3\x82\xc2\xa0nomination for\xc3\x82\xc2\xa0'
p319
sbsg27
Nsg29
I22432
sg30
S'http://en.wikipedia.org/wiki/Golden_Globe_Award_for_Best_Supporting_Actor_%E2%80%93_Motion_Picture'
p320
sba(iedu.umass.cs.iesl.wikilink.expanded.data.ttypes
Mention
p321
(dp322
g16
S'The Whole Nine Yards'
p323
sg18
(iedu.umass.cs.iesl.wikilink.expanded.data.ttypes
Context
p324
(dp325
g21
S'The Whole Nine Yards'
p326
sg23
S',\xc3\x82\xc2\xa0 Planet of the Apes ,\xc3\x82\xc2\xa0 The Scorpion King \xc3\x82\xc2\xa0(where he starred alongside his friend,\xc3\x82\xc2\xa0 The Rock ),\xc3\x82\xc2\xa0 The Island \xc3\x82\xc2\xa0and\xc3\x82\xc2\xa0 Daredevil \xc3\x82\xc2\xa0(reuniting him with\xc3\x82\xc2\xa0'
p327
sg25
S'Role in a Motion Picture . [7] [8] Duncan then was cast in a string of films that helped to establish him as a star:\xc3\x82\xc2\xa0'
p328
sbsg27
S'9202a8c04000641f8000000000e2db50'
p329
sg29
I22886
sg30
S'http://en.wikipedia.org/wiki/The_Whole_Nine_Yards_(film)'
p330
sba(iedu.umass.cs.iesl.wikilink.expanded.data.ttypes
Mention
p331
(dp332
g16
S'Planet of the Apes'
p333
sg18
(iedu.umass.cs.iesl.wikilink.expanded.data.ttypes
Context
p334
(dp335
g21
S'Planet of the Apes'
p336
sg23
S',\xc3\x82\xc2\xa0 The Scorpion King \xc3\x82\xc2\xa0(where he starred alongside his friend,\xc3\x82\xc2\xa0 The Rock ),\xc3\x82\xc2\xa0 The Island \xc3\x82\xc2\xa0and\xc3\x82\xc2\xa0 Daredevil \xc3\x82\xc2\xa0(reuniting him with\xc3\x82\xc2\xa0 Armageddon \xc3\x82\xc2\xa0co-star\xc3\x82\xc2\xa0 Ben Affleck )'
p337
sg25
S'. [7] [8] Duncan then was cast in a string of films that helped to establish him as a star:\xc3\x82\xc2\xa0 The Whole Nine Yards ,\xc3\x82\xc2\xa0'
p338
sbsg27
S'9202a8c04000641f800000000043ede1'
p339
sg29
I23031
sg30
S'http://en.wikipedia.org/wiki/Planet_of_the_Apes_(2001_film)'
p340
sba(iedu.umass.cs.iesl.wikilink.expanded.data.ttypes
Mention
p341
(dp342
g16
S'The Scorpion King'
p343
sg18
(iedu.umass.cs.iesl.wikilink.expanded.data.ttypes
Context
p344
(dp345
g21
S'The Scorpion King'
p346
sg23
S'\xc3\x82\xc2\xa0(where he starred alongside his friend,\xc3\x82\xc2\xa0 The Rock ),\xc3\x82\xc2\xa0 The Island \xc3\x82\xc2\xa0and\xc3\x82\xc2\xa0 Daredevil \xc3\x82\xc2\xa0(reuniting him with\xc3\x82\xc2\xa0 Armageddon \xc3\x82\xc2\xa0co-star\xc3\x82\xc2\xa0 Ben Affleck ) as Wilson Fisk, aka\xc3\x82\xc2\xa0'
p347
sg25
S'was cast in a string of films that helped to establish him as a star:\xc3\x82\xc2\xa0 The Whole Nine Yards ,\xc3\x82\xc2\xa0 Planet of the Apes ,\xc3\x82\xc2\xa0'
p348
sbsg27
S'9202a8c04000641f80000000003ca4b4'
p349
sg29
I23148
sg30
S'http://en.wikipedia.org/wiki/The_Scorpion_King'
p350
sba(iedu.umass.cs.iesl.wikilink.expanded.data.ttypes
Mention
p351
(dp352
g16
S'The Island'
p353
sg18
(iedu.umass.cs.iesl.wikilink.expanded.data.ttypes
Context
p354
(dp355
g21
S'The Island'
p356
sg23
S'\xc3\x82\xc2\xa0and\xc3\x82\xc2\xa0 Daredevil \xc3\x82\xc2\xa0(reuniting him with\xc3\x82\xc2\xa0 Armageddon \xc3\x82\xc2\xa0co-star\xc3\x82\xc2\xa0 Ben Affleck ) as Wilson Fisk, aka\xc3\x82\xc2\xa0 The Kingpin . Duncan signed on for the role of the'
p357
sg25
S'as a star:\xc3\x82\xc2\xa0 The Whole Nine Yards ,\xc3\x82\xc2\xa0 Planet of the Apes ,\xc3\x82\xc2\xa0 The Scorpion King \xc3\x82\xc2\xa0(where he starred alongside his friend,\xc3\x82\xc2\xa0 The Rock ),\xc3\x82\xc2\xa0'
p358
sbsg27
S'9202a8c04000641f8000000000419753'
p359
sg29
I23407
sg30
S'http://en.wikipedia.org/wiki/The_Island_(2005_film)'
p360
sba(iedu.umass.cs.iesl.wikilink.expanded.data.ttypes
Mention
p361
(dp362
g16
S'Daredevil'
p363
sg18
(iedu.umass.cs.iesl.wikilink.expanded.data.ttypes
Context
p364
(dp365
g21
S'Daredevil'
p366
sg23
S'\xc3\x82\xc2\xa0(reuniting him with\xc3\x82\xc2\xa0 Armageddon \xc3\x82\xc2\xa0co-star\xc3\x82\xc2\xa0 Ben Affleck ) as Wilson Fisk, aka\xc3\x82\xc2\xa0 The Kingpin . Duncan signed on for the role of the Kingpin in'
p367
sg25
S'The Whole Nine Yards ,\xc3\x82\xc2\xa0 Planet of the Apes ,\xc3\x82\xc2\xa0 The Scorpion King \xc3\x82\xc2\xa0(where he starred alongside his friend,\xc3\x82\xc2\xa0 The Rock ),\xc3\x82\xc2\xa0 The Island \xc3\x82\xc2\xa0and\xc3\x82\xc2\xa0'
p368
sbsg27
S'9202a8c04000641f80000000004469f2'
p369
sg29
I23518
sg30
S'http://en.wikipedia.org/wiki/Daredevil_(film)'
p370
sba(iedu.umass.cs.iesl.wikilink.expanded.data.ttypes
Mention
p371
(dp372
g16
S'Ben Affleck'
p373
sg18
(iedu.umass.cs.iesl.wikilink.expanded.data.ttypes
Context
p374
(dp375
g21
S'Ben Affleck'
p376
sg23
S') as Wilson Fisk, aka\xc3\x82\xc2\xa0 The Kingpin . Duncan signed on for the role of the Kingpin in January 2002, though he had been attached'
p377
sg25
S'of the Apes ,\xc3\x82\xc2\xa0 The Scorpion King \xc3\x82\xc2\xa0(where he starred alongside his friend,\xc3\x82\xc2\xa0 The Rock ),\xc3\x82\xc2\xa0 The Island \xc3\x82\xc2\xa0and\xc3\x82\xc2\xa0 Daredevil \xc3\x82\xc2\xa0(reuniting him with\xc3\x82\xc2\xa0 Armageddon \xc3\x82\xc2\xa0co-star\xc3\x82\xc2\xa0'
p378
sbsg27
S'9202a8c04000641f800000000012877f'
p379
sg29
I23660
sg30
S'http://en.wikipedia.org/wiki/Ben_Affleck'
p380
sba(iedu.umass.cs.iesl.wikilink.expanded.data.ttypes
Mention
p381
(dp382
g16
S'The Kingpin'
p383
sg18
(iedu.umass.cs.iesl.wikilink.expanded.data.ttypes
Context
p384
(dp385
g21
S'The Kingpin'
p386
sg23
S'. Duncan signed on for the role of the Kingpin in January 2002, though he had been attached far earlier. [9] \xc3\x82\xc2\xa0When he was cast,'
p387
sg25
S'\xc3\x82\xc2\xa0(where he starred alongside his friend,\xc3\x82\xc2\xa0 The Rock ),\xc3\x82\xc2\xa0 The Island \xc3\x82\xc2\xa0and\xc3\x82\xc2\xa0 Daredevil \xc3\x82\xc2\xa0(reuniting him with\xc3\x82\xc2\xa0 Armageddon \xc3\x82\xc2\xa0co-star\xc3\x82\xc2\xa0 Ben Affleck ) as Wilson Fisk, aka\xc3\x82\xc2\xa0'
p388
sbsg27
S'9202a8c04000641f8000000000213446'
p389
sg29
I23779
sg30
S'http://en.wikipedia.org/wiki/Kingpin_(comics)'
p390
sba(iedu.umass.cs.iesl.wikilink.expanded.data.ttypes
Mention
p391
(dp392
g16
S'meat'
p393
sg18
(iedu.umass.cs.iesl.wikilink.expanded.data.ttypes
Context
p394
(dp395
g21
S'meat'
p396
sg23
S'\xc3\x82\xc2\xa0and later appeared in a\xc3\x82\xc2\xa0 PETA \xc3\x82\xc2\xa0ad campaign, touting the health benefits and his increased strength from a\xc3\x82\xc2\xa0 vegetarian diet . [13] Duncan also provided'
p397
sg25
S'become faster in combat against Daredevil, also working as a way to fit his weight loss into the story. [12] \xc3\x82\xc2\xa0In 2009, he stopped eating\xc3\x82\xc2\xa0'
p398
sbsg27
S'9202a8c04000641f8000000000026170'
p399
sg29
I25608
sg30
S'http://en.wikipedia.org/wiki/Meat'
p400
sba(iedu.umass.cs.iesl.wikilink.expanded.data.ttypes
Mention
p401
(dp402
g16
S'Brother Bear'
p403
sg18
(iedu.umass.cs.iesl.wikilink.expanded.data.ttypes
Context
p404
(dp405
g21
S'Brother Bear'
p406
sg23
S'\xc3\x82\xc2\xa0and its sequel,\xc3\x82\xc2\xa0 Brother Bear 2 ,\xc3\x82\xc2\xa0 The Land Before Time XI: Invasion of the Tinysauruses ,\xc3\x82\xc2\xa0 Quiznos commercials, and the video games\xc3\x82\xc2\xa0 Demon Stone'
p407
sg25
S'touting the health benefits and his increased strength from a\xc3\x82\xc2\xa0 vegetarian diet . [13] Duncan also provided his voice for a number of roles, including\xc3\x82\xc2\xa0'
p408
sbsg27
S'9202a8c04000641f80000000001f66a8'
p409
sg29
I26202
sg30
S'http://en.wikipedia.org/wiki/Brother_Bear'
p410
sba(iedu.umass.cs.iesl.wikilink.expanded.data.ttypes
Mention
p411
(dp412
g16
S'Brother Bear 2'
p413
sg18
(iedu.umass.cs.iesl.wikilink.expanded.data.ttypes
Context
p414
(dp415
g21
S'Brother Bear 2'
p416
sg23
S',\xc3\x82\xc2\xa0 The Land Before Time XI: Invasion of the Tinysauruses ,\xc3\x82\xc2\xa0 Quiznos commercials, and the video games\xc3\x82\xc2\xa0 Demon Stone ,\xc3\x82\xc2\xa0 SOCOM II: U.S. Navy SEALs'
p417
sg25
S'his increased strength from a\xc3\x82\xc2\xa0 vegetarian diet . [13] Duncan also provided his voice for a number of roles, including\xc3\x82\xc2\xa0 Brother Bear \xc3\x82\xc2\xa0and its sequel,\xc3\x82\xc2\xa0'
p418
sbsg27
S'9202a8c04000641f8000000000a88a22'
p419
sg29
I26323
sg30
S'http://en.wikipedia.org/wiki/Brother_Bear_2'
p420
sba(iedu.umass.cs.iesl.wikilink.expanded.data.ttypes
Mention
p421
(dp422
g16
S'The Land Before Time XI: Invasion of the Tinysauruses'
p423
sg18
(iedu.umass.cs.iesl.wikilink.expanded.data.ttypes
Context
p424
(dp425
g21
S'The Land Before Time XI: Invasion of the Tinysauruses'
p426
sg23
S',\xc3\x82\xc2\xa0 Quiznos commercials, and the video games\xc3\x82\xc2\xa0 Demon Stone ,\xc3\x82\xc2\xa0 SOCOM II: U.S. Navy SEALs ,\xc3\x82\xc2\xa0 The Suffering: Ties That Bind ,\xc3\x82\xc2\xa0 Saints Row ,'
p427
sg25
S'a\xc3\x82\xc2\xa0 vegetarian diet . [13] Duncan also provided his voice for a number of roles, including\xc3\x82\xc2\xa0 Brother Bear \xc3\x82\xc2\xa0and its sequel,\xc3\x82\xc2\xa0 Brother Bear 2 ,\xc3\x82\xc2\xa0'
p428
sbsg27
S'9202a8c04000641f8000000000a88ab1'
p429
sg29
I26508
sg30
S'http://en.wikipedia.org/wiki/The_Land_Before_Time_XI:_Invasion_of_the_Tinysauruses'
p430
sba(iedu.umass.cs.iesl.wikilink.expanded.data.ttypes
Mention
p431
(dp432
g16
S'Quiznos'
p433
sg18
(iedu.umass.cs.iesl.wikilink.expanded.data.ttypes
Context
p434
(dp435
g21
S'Quiznos'
p436
sg23
S'commercials, and the video games\xc3\x82\xc2\xa0 Demon Stone ,\xc3\x82\xc2\xa0 SOCOM II: U.S. Navy SEALs ,\xc3\x82\xc2\xa0 The Suffering: Ties That Bind ,\xc3\x82\xc2\xa0 Saints Row , and\xc3\x82\xc2\xa0 Soldier'
p437
sg25
S'for a number of roles, including\xc3\x82\xc2\xa0 Brother Bear \xc3\x82\xc2\xa0and its sequel,\xc3\x82\xc2\xa0 Brother Bear 2 ,\xc3\x82\xc2\xa0 The Land Before Time XI: Invasion of the Tinysauruses ,\xc3\x82\xc2\xa0'
p438
sbsg27
S'9202a8c04000641f800000000018a765'
p439
sg29
I26636
sg30
S'http://en.wikipedia.org/wiki/Quiznos'
p440
sba(iedu.umass.cs.iesl.wikilink.expanded.data.ttypes
Mention
p441
(dp442
g16
S'Demon Stone'
p443
sg18
(iedu.umass.cs.iesl.wikilink.expanded.data.ttypes
Context
p444
(dp445
g21
S'Demon Stone'
p446
sg23
S',\xc3\x82\xc2\xa0 SOCOM II: U.S. Navy SEALs ,\xc3\x82\xc2\xa0 The Suffering: Ties That Bind ,\xc3\x82\xc2\xa0 Saints Row , and\xc3\x82\xc2\xa0 Soldier of Fortune , with his most recent'
p447
sg25
S'Brother Bear \xc3\x82\xc2\xa0and its sequel,\xc3\x82\xc2\xa0 Brother Bear 2 ,\xc3\x82\xc2\xa0 The Land Before Time XI: Invasion of the Tinysauruses ,\xc3\x82\xc2\xa0 Quiznos commercials, and the video games\xc3\x82\xc2\xa0'
p448
sbsg27
S'9202a8c04000641f80000000006db3dc'
p449
sg29
I26792
sg30
S'http://en.wikipedia.org/wiki/Forgotten_Realms:_Demon_Stone'
p450
sba(iedu.umass.cs.iesl.wikilink.expanded.data.ttypes
Mention
p451
(dp452
g16
S'The Suffering: Ties That Bind'
p453
sg18
(iedu.umass.cs.iesl.wikilink.expanded.data.ttypes
Context
p454
(dp455
g21
S'The Suffering: Ties That Bind'
p456
sg23
S',\xc3\x82\xc2\xa0 Saints Row , and\xc3\x82\xc2\xa0 Soldier of Fortune , with his most recent role being\xc3\x82\xc2\xa0 God of War II , where he provides the voice'
p457
sg25
S'The Land Before Time XI: Invasion of the Tinysauruses ,\xc3\x82\xc2\xa0 Quiznos commercials, and the video games\xc3\x82\xc2\xa0 Demon Stone ,\xc3\x82\xc2\xa0 SOCOM II: U.S. Navy SEALs ,\xc3\x82\xc2\xa0'
p458
sbsg27
S'9202a8c04000641f800000000083e6ec'
p459
sg29
I27066
sg30
S'http://en.wikipedia.org/wiki/The_Suffering:_Ties_That_Bind'
p460
sba(iedu.umass.cs.iesl.wikilink.expanded.data.ttypes
Mention
p461
(dp462
g16
S'Saints Row'
p463
sg18
(iedu.umass.cs.iesl.wikilink.expanded.data.ttypes
Context
p464
(dp465
g21
S'Saints Row'
p466
sg23
S', and\xc3\x82\xc2\xa0 Soldier of Fortune , with his most recent role being\xc3\x82\xc2\xa0 God of War II , where he provides the voice of\xc3\x82\xc2\xa0 Atlas ,'
p467
sg25
S'of the Tinysauruses ,\xc3\x82\xc2\xa0 Quiznos commercials, and the video games\xc3\x82\xc2\xa0 Demon Stone ,\xc3\x82\xc2\xa0 SOCOM II: U.S. Navy SEALs ,\xc3\x82\xc2\xa0 The Suffering: Ties That Bind ,\xc3\x82\xc2\xa0'
p468
sbsg27
S'9202a8c04000641f8000000000902b57'
p469
sg29
I27180
sg30
S'http://en.wikipedia.org/wiki/Saints_Row'
p470
sba(iedu.umass.cs.iesl.wikilink.expanded.data.ttypes
Mention
p471
(dp472
g16
S'Soldier of Fortune'
p473
sg18
(iedu.umass.cs.iesl.wikilink.expanded.data.ttypes
Context
p474
(dp475
g21
S'Soldier of Fortune'
p476
sg23
S', with his most recent role being\xc3\x82\xc2\xa0 God of War II , where he provides the voice of\xc3\x82\xc2\xa0 Atlas , the\xc3\x82\xc2\xa0 Titan \xc3\x82\xc2\xa0condemned by\xc3\x82\xc2\xa0 Zeus'
p477
sg25
S'Quiznos commercials, and the video games\xc3\x82\xc2\xa0 Demon Stone ,\xc3\x82\xc2\xa0 SOCOM II: U.S. Navy SEALs ,\xc3\x82\xc2\xa0 The Suffering: Ties That Bind ,\xc3\x82\xc2\xa0 Saints Row , and\xc3\x82\xc2\xa0'
p478
sbsg27
S'9202a8c04000641f800000000004996d'
p479
sg29
I27321
sg30
S'http://en.wikipedia.org/wiki/Soldier_of_Fortune_(video_game)'
p480
sba(iedu.umass.cs.iesl.wikilink.expanded.data.ttypes
Mention
p481
(dp482
g16
S'God of War II'
p483
sg18
(iedu.umass.cs.iesl.wikilink.expanded.data.ttypes
Context
p484
(dp485
g21
S'God of War II'
p486
sg23
S', where he provides the voice of\xc3\x82\xc2\xa0 Atlas , the\xc3\x82\xc2\xa0 Titan \xc3\x82\xc2\xa0condemned by\xc3\x82\xc2\xa0 Zeus \xc3\x82\xc2\xa0to stand at the western edge of the earth and hold'
p487
sg25
S'II: U.S. Navy SEALs ,\xc3\x82\xc2\xa0 The Suffering: Ties That Bind ,\xc3\x82\xc2\xa0 Saints Row , and\xc3\x82\xc2\xa0 Soldier of Fortune , with his most recent role being\xc3\x82\xc2\xa0'
p488
sbsg27
S'9202a8c04000641f8000000000af7980'
p489
sg29
I27462
sg30
S'http://en.wikipedia.org/wiki/God_of_War_II'
p490
sba(iedu.umass.cs.iesl.wikilink.expanded.data.ttypes
Mention
p491
(dp492
g16
S'Atlas'
p493
sg18
(iedu.umass.cs.iesl.wikilink.expanded.data.ttypes
Context
p494
(dp495
g21
S'Atlas'
p496
sg23
S', the\xc3\x82\xc2\xa0 Titan \xc3\x82\xc2\xa0condemned by\xc3\x82\xc2\xa0 Zeus \xc3\x82\xc2\xa0to stand at the western edge of the earth and hold up the sky on his shoulders. He reprised'
p497
sg25
S'Saints Row , and\xc3\x82\xc2\xa0 Soldier of Fortune , with his most recent role being\xc3\x82\xc2\xa0 God of War II , where he provides the voice of\xc3\x82\xc2\xa0'
p498
sbsg27
S'9202a8c04000641f800000000005de7d'
p499
sg29
I27601
sg30
S'http://en.wikipedia.org/wiki/Atlas_(mythology)'
p500
sba(iedu.umass.cs.iesl.wikilink.expanded.data.ttypes
Mention
p501
(dp502
g16
S'Titan'
p503
sg18
(iedu.umass.cs.iesl.wikilink.expanded.data.ttypes
Context
p504
(dp505
g21
S'Titan'
p506
sg23
S'\xc3\x82\xc2\xa0condemned by\xc3\x82\xc2\xa0 Zeus \xc3\x82\xc2\xa0to stand at the western edge of the earth and hold up the sky on his shoulders. He reprised his role as'
p507
sg25
S'and\xc3\x82\xc2\xa0 Soldier of Fortune , with his most recent role being\xc3\x82\xc2\xa0 God of War II , where he provides the voice of\xc3\x82\xc2\xa0 Atlas , the\xc3\x82\xc2\xa0'
p508
sbsg27
S'9202a8c04000641f800000000005dd5d'
p509
sg29
I27700
sg30
S'http://en.wikipedia.org/wiki/Titan_(mythology)'
p510
sba(iedu.umass.cs.iesl.wikilink.expanded.data.ttypes
Mention
p511
(dp512
g16
S'Zeus'
p513
sg18
(iedu.umass.cs.iesl.wikilink.expanded.data.ttypes
Context
p514
(dp515
g21
S'Zeus'
p516
sg23
S'\xc3\x82\xc2\xa0to stand at the western edge of the earth and hold up the sky on his shoulders. He reprised his role as the Kingpin in\xc3\x82\xc2\xa0'
p517
sg25
S'Fortune , with his most recent role being\xc3\x82\xc2\xa0 God of War II , where he provides the voice of\xc3\x82\xc2\xa0 Atlas , the\xc3\x82\xc2\xa0 Titan \xc3\x82\xc2\xa0condemned by\xc3\x82\xc2\xa0'
p518
sbsg27
S'9202a8c04000641f80000000008e8662'
p519
sg29
I27782
sg30
S'http://en.wikipedia.org/wiki/Zeus'
p520
sba(iedu.umass.cs.iesl.wikilink.expanded.data.ttypes
Mention
p521
(dp522
g16
S'Spider-Man: The New Animated Series'
p523
sg18
(iedu.umass.cs.iesl.wikilink.expanded.data.ttypes
Context
p524
(dp525
g21
S'Spider-Man: The New Animated Series'
p526
sg23
S'. In 2005, he starred in the film\xc3\x82\xc2\xa0 Sin City \xc3\x82\xc2\xa0(again alongside Bruce Willis) as Manute, a powerful mobster. Duncan appeared in a minor role'
p527
sg25
S'\xc3\x82\xc2\xa0to stand at the western edge of the earth and hold up the sky on his shoulders. He reprised his role as the Kingpin in\xc3\x82\xc2\xa0'
p528
sbsg27
S'9202a8c04000641f800000000062d33b'
p529
sg29
I28035
sg30
S'http://en.wikipedia.org/wiki/Spider-Man:_The_New_Animated_Series'
p530
sba(iedu.umass.cs.iesl.wikilink.expanded.data.ttypes
Mention
p531
(dp532
g16
S'Sin City'
p533
sg18
(iedu.umass.cs.iesl.wikilink.expanded.data.ttypes
Context
p534
(dp535
g21
S'Sin City'
p536
sg23
S'\xc3\x82\xc2\xa0(again alongside Bruce Willis) as Manute, a powerful mobster. Duncan appeared in a minor role in the 2006 movie\xc3\x82\xc2\xa0 Talladega Nights: The Ballad of Ricky'
p537
sg25
S'sky on his shoulders. He reprised his role as the Kingpin in\xc3\x82\xc2\xa0 Spider-Man: The New Animated Series . In 2005, he starred in the film\xc3\x82\xc2\xa0'
p538
sbsg27
S'9202a8c04000641f80000000004cdb32'
p539
sg29
I28204
sg30
S'http://en.wikipedia.org/wiki/Sin_City_(film)'
p540
sba(iedu.umass.cs.iesl.wikilink.expanded.data.ttypes
Mention
p541
(dp542
g16
S'Talladega Nights: The Ballad of Ricky Bobby'
p543
sg18
(iedu.umass.cs.iesl.wikilink.expanded.data.ttypes
Context
p544
(dp545
g21
S'Talladega Nights: The Ballad of Ricky Bobby'
p546
sg23
S'\xc3\x82\xc2\xa0as Lucius Washington, and he voiced the role of the villain Massive in\xc3\x82\xc2\xa0 Loonatics Unleashed . In 2006, he voiced the role of Numbuh 26'
p547
sg25
S'starred in the film\xc3\x82\xc2\xa0 Sin City \xc3\x82\xc2\xa0(again alongside Bruce Willis) as Manute, a powerful mobster. Duncan appeared in a minor role in the 2006 movie\xc3\x82\xc2\xa0'
p548
sbsg27
S'9202a8c04000641f8000000000849457'
p549
sg29
I28475
sg30
S'http://en.wikipedia.org/wiki/Talladega_Nights:_The_Ballad_of_Ricky_Bobby'
p550
sba(iedu.umass.cs.iesl.wikilink.expanded.data.ttypes
Mention
p551
(dp552
g16
S'Loonatics Unleashed'
p553
sg18
(iedu.umass.cs.iesl.wikilink.expanded.data.ttypes
Context
p554
(dp555
g21
S'Loonatics Unleashed'
p556
sg23
S'. In 2006, he voiced the role of Numbuh 26 in the animated movie\xc3\x82\xc2\xa0 Codename: Kids Next Door: Operation ZERO . Additionally, he played Balrog'
p557
sg25
S'role in the 2006 movie\xc3\x82\xc2\xa0 Talladega Nights: The Ballad of Ricky Bobby \xc3\x82\xc2\xa0as Lucius Washington, and he voiced the role of the villain Massive in\xc3\x82\xc2\xa0'
p558
sbsg27
S'9202a8c04000641f8000000000540748'
p559
sg29
I28692
sg30
S'http://en.wikipedia.org/wiki/Loonatics_Unleashed'
p560
sba(iedu.umass.cs.iesl.wikilink.expanded.data.ttypes
Mention
p561
(dp562
g16
S'Codename: Kids Next Door: Operation ZERO'
p563
sg18
(iedu.umass.cs.iesl.wikilink.expanded.data.ttypes
Context
p564
(dp565
g21
S'Codename: Kids Next Door: Operation ZERO'
p566
sg23
S'. Additionally, he played Balrog in\xc3\x82\xc2\xa0 Street Fighter: The Legend of Chun-Li \xc3\x82\xc2\xa0and voiced the prison commander in Kung Fu Panda . He also guest'
p567
sg25
S'he voiced the role of the villain Massive in\xc3\x82\xc2\xa0 Loonatics Unleashed . In 2006, he voiced the role of Numbuh 26 in the animated movie\xc3\x82\xc2\xa0'
p568
sbsg27
Nsg29
I28964
sg30
S'http://en.wikipedia.org/wiki/List_of_Codename:_Kids_Next_Door_episodes#Films_and_specials_.282006.E2.80.932008.29'
p569
sba(iedu.umass.cs.iesl.wikilink.expanded.data.ttypes
Mention
p570
(dp571
g16
S'Street Fighter: The Legend of Chun-Li'
p572
sg18
(iedu.umass.cs.iesl.wikilink.expanded.data.ttypes
Context
p573
(dp574
g21
S'Street Fighter: The Legend of Chun-Li'
p575
sg23
S'\xc3\x82\xc2\xa0and voiced the prison commander in Kung Fu Panda . He also guest starred in numerous television shows. He appeared in an episode of\xc3\x82\xc2\xa0 The'
p576
sg25
S'In 2006, he voiced the role of Numbuh 26 in the animated movie\xc3\x82\xc2\xa0 Codename: Kids Next Door: Operation ZERO . Additionally, he played Balrog in\xc3\x82\xc2\xa0'
p577
sbsg27
S'9202a8c04000641f8000000007b4b771'
p578
sg29
I29177
sg30
S'http://en.wikipedia.org/wiki/Street_Fighter:_The_Legend_of_Chun-Li'
p579
sba(iedu.umass.cs.iesl.wikilink.expanded.data.ttypes
Mention
p580
(dp581
g16
S'Kung Fu Panda'
p582
sg18
(iedu.umass.cs.iesl.wikilink.expanded.data.ttypes
Context
p583
(dp584
g21
S'Kung Fu Panda'
p585
sg23
S'. He also guest starred in numerous television shows. He appeared in an episode of\xc3\x82\xc2\xa0 The Suite Life of Zack & Cody , titled \xe2\x80\x9cBenchwarmers\xe2\x80\x9d,'
p586
sg25
S'movie\xc3\x82\xc2\xa0 Codename: Kids Next Door: Operation ZERO . Additionally, he played Balrog in\xc3\x82\xc2\xa0 Street Fighter: The Legend of Chun-Li \xc3\x82\xc2\xa0and voiced the prison commander in'
p587
sbsg27
S'9202a8c04000641f80000000009090ce'
p588
sg29
I29338
sg30
S'http://en.wikipedia.org/wiki/Kung_Fu_Panda'
p589
sba(iedu.umass.cs.iesl.wikilink.expanded.data.ttypes
Mention
p590
(dp591
g16
S'The Suite Life of Zack & Cody'
p592
sg18
(iedu.umass.cs.iesl.wikilink.expanded.data.ttypes
Context
p593
(dp594
g21
S'The Suite Life of Zack & Cody'
p595
sg23
S', titled \xe2\x80\x9cBenchwarmers\xe2\x80\x9d, as Zack\xe2\x80\x99s basketball coach, Coach Little. In 2005, Duncan guest-starred in a first-season episode of\xc3\x82\xc2\xa0 CSI: NY . [14] \xc3\x82\xc2\xa0He appeared as'
p596
sg25
S'Chun-Li \xc3\x82\xc2\xa0and voiced the prison commander in Kung Fu Panda . He also guest starred in numerous television shows. He appeared in an episode of\xc3\x82\xc2\xa0'
p597
sbsg27
Nsg29
I29568
sg30
S'http://en.wikipedia.org/wiki/The_Suite_Life_of_Zack_%26_Cody'
p598
sba(iedu.umass.cs.iesl.wikilink.expanded.data.ttypes
Mention
p599
(dp600
g16
S'CSI: NY'
p601
sg18
(iedu.umass.cs.iesl.wikilink.expanded.data.ttypes
Context
p602
(dp603
g21
S'CSI: NY'
p604
sg23
S'. [14] \xc3\x82\xc2\xa0He appeared as \xe2\x80\x9cColt\xe2\x80\x9d in the second-season premiere of\xc3\x82\xc2\xa0 Chuck , \xe2\x80\x9c Chuck Versus The First Date \xe2\x80\x9c. [15] \xc3\x82\xc2\xa0In November he appeared'
p605
sg25
S'The Suite Life of Zack & Cody , titled \xe2\x80\x9cBenchwarmers\xe2\x80\x9d, as Zack\xe2\x80\x99s basketball coach, Coach Little. In 2005, Duncan guest-starred in a first-season episode of\xc3\x82\xc2\xa0'
p606
sbsg27
S'9202a8c04000641f80000000002aa977'
p607
sg29
I29822
sg30
S'http://en.wikipedia.org/wiki/CSI:_NY'
p608
sba(iedu.umass.cs.iesl.wikilink.expanded.data.ttypes
Mention
p609
(dp610
g16
S'Chuck'
p611
sg18
(iedu.umass.cs.iesl.wikilink.expanded.data.ttypes
Context
p612
(dp613
g21
S'Chuck'
p614
sg23
S', \xe2\x80\x9c Chuck Versus The First Date \xe2\x80\x9c. [15] \xc3\x82\xc2\xa0In November he appeared as a guest star on the\xc3\x82\xc2\xa0 CBS \xc3\x82\xc2\xa0show\xc3\x82\xc2\xa0 Two and a Half'
p615
sg25
S'coach, Coach Little. In 2005, Duncan guest-starred in a first-season episode of\xc3\x82\xc2\xa0 CSI: NY . [14] \xc3\x82\xc2\xa0He appeared as \xe2\x80\x9cColt\xe2\x80\x9d in the second-season premiere of\xc3\x82\xc2\xa0'
p616
sbsg27
S'9202a8c04000641f80000000055ea7ad'
p617
sg29
I30089
sg30
S'http://en.wikipedia.org/wiki/Chuck_(TV_series)'
p618
sba(iedu.umass.cs.iesl.wikilink.expanded.data.ttypes
Mention
p619
(dp620
g16
S'Chuck Versus The First Date'
p621
sg18
(iedu.umass.cs.iesl.wikilink.expanded.data.ttypes
Context
p622
(dp623
g21
S'Chuck Versus The First Date'
p624
sg23
S'\xe2\x80\x9c. [15] \xc3\x82\xc2\xa0In November he appeared as a guest star on the\xc3\x82\xc2\xa0 CBS \xc3\x82\xc2\xa0show\xc3\x82\xc2\xa0 Two and a Half Men . In April 2011 Duncan guest'
p625
sg25
S'In 2005, Duncan guest-starred in a first-season episode of\xc3\x82\xc2\xa0 CSI: NY . [14] \xc3\x82\xc2\xa0He appeared as \xe2\x80\x9cColt\xe2\x80\x9d in the second-season premiere of\xc3\x82\xc2\xa0 Chuck , \xe2\x80\x9c'
p626
sbsg27
Nsg29
I30225
sg30
S'http://en.wikipedia.org/wiki/List_of_Chuck_episodes#Season_2:_2008-2009'
p627
sba(iedu.umass.cs.iesl.wikilink.expanded.data.ttypes
Mention
p628
(dp629
g16
S'CBS'
p630
sg18
(iedu.umass.cs.iesl.wikilink.expanded.data.ttypes
Context
p631
(dp632
g21
S'CBS'
p633
sg23
S'\xc3\x82\xc2\xa0show\xc3\x82\xc2\xa0 Two and a Half Men . In April 2011 Duncan guest starred on an episode of TV series\xc3\x82\xc2\xa0 Bones \xc3\x82\xc2\xa0as Leo Knox. In 2012,'
p634
sg25
S'in the second-season premiere of\xc3\x82\xc2\xa0 Chuck , \xe2\x80\x9c Chuck Versus The First Date \xe2\x80\x9c. [15] \xc3\x82\xc2\xa0In November he appeared as a guest star on the\xc3\x82\xc2\xa0'
p635
sbsg27
S'9202a8c04000641f800000000004b0af'
p636
sg29
I30462
sg30
S'http://en.wikipedia.org/wiki/CBS'
p637
sba(iedu.umass.cs.iesl.wikilink.expanded.data.ttypes
Mention
p638
(dp639
g16
S'Two and a Half Men'
p640
sg18
(iedu.umass.cs.iesl.wikilink.expanded.data.ttypes
Context
p641
(dp642
g21
S'Two and a Half Men'
p643
sg23
S'. In April 2011 Duncan guest starred on an episode of TV series\xc3\x82\xc2\xa0 Bones \xc3\x82\xc2\xa0as Leo Knox. In 2012, Duncan got his first starring role'
p644
sg25
S'second-season premiere of\xc3\x82\xc2\xa0 Chuck , \xe2\x80\x9c Chuck Versus The First Date \xe2\x80\x9c. [15] \xc3\x82\xc2\xa0In November he appeared as a guest star on the\xc3\x82\xc2\xa0 CBS \xc3\x82\xc2\xa0show\xc3\x82\xc2\xa0'
p645
sbsg27
S'9202a8c04000641f80000000001d514f'
p646
sg29
I30566
sg30
S'http://en.wikipedia.org/wiki/Two_and_a_Half_Men'
p647
sba(iedu.umass.cs.iesl.wikilink.expanded.data.ttypes
Mention
p648
(dp649
g16
S'Bones'
p650
sg18
(iedu.umass.cs.iesl.wikilink.expanded.data.ttypes
Context
p651
(dp652
g21
S'Bones'
p653
sg23
S'\xc3\x82\xc2\xa0as Leo Knox. In 2012, Duncan got his first starring role as the same character in the spinoff series\xc3\x82\xc2\xa0 The Finder . In the same'
p654
sg25
S'a guest star on the\xc3\x82\xc2\xa0 CBS \xc3\x82\xc2\xa0show\xc3\x82\xc2\xa0 Two and a Half Men . In April 2011 Duncan guest starred on an episode of TV series\xc3\x82\xc2\xa0'
p655
sbsg27
S'9202a8c04000641f80000000007ddae6'
p656
sg29
I30745
sg30
S'http://en.wikipedia.org/wiki/Bones_(TV_series)'
p657
sba(iedu.umass.cs.iesl.wikilink.expanded.data.ttypes
Mention
p658
(dp659
g16
S'The Finder'
p660
sg18
(iedu.umass.cs.iesl.wikilink.expanded.data.ttypes
Context
p661
(dp662
g21
S'The Finder'
p663
sg23
S'. In the same year, he appeared in a\xc3\x82\xc2\xa0 public service announcement advertising the importance of knowing early-onset symptoms of\xc3\x82\xc2\xa0 strokes . During the week'
p664
sg25
S'an episode of TV series\xc3\x82\xc2\xa0 Bones \xc3\x82\xc2\xa0as Leo Knox. In 2012, Duncan got his first starring role as the same character in the spinoff series\xc3\x82\xc2\xa0'
p665
sbsg27
S'9202a8c04000641f800000001d9e25d4'
p666
sg29
I30970
sg30
S'http://en.wikipedia.org/wiki/The_Finder_(U.S._TV_series)'
p667
sba(iedu.umass.cs.iesl.wikilink.expanded.data.ttypes
Mention
p668
(dp669
g16
S'public service announcement'
p670
sg18
(iedu.umass.cs.iesl.wikilink.expanded.data.ttypes
Context
p671
(dp672
g21
S'public service announcement'
p673
sg23
S'advertising the importance of knowing early-onset symptoms of\xc3\x82\xc2\xa0 strokes . During the week of May 14, 2012, Duncan appeared on the late night talk show\xc3\x82\xc2\xa0'
p674
sg25
S'Duncan got his first starring role as the same character in the spinoff series\xc3\x82\xc2\xa0 The Finder . In the same year, he appeared in a\xc3\x82\xc2\xa0'
p675
sbsg27
S'9202a8c04000641f80000000001a4a38'
p676
sg29
I31130
sg30
S'http://en.wikipedia.org/wiki/Public_service_announcement'
p677
sba(iedu.umass.cs.iesl.wikilink.expanded.data.ttypes
Mention
p678
(dp679
g16
S'The Late Late Show with Craig Ferguson'
p680
sg18
(iedu.umass.cs.iesl.wikilink.expanded.data.ttypes
Context
p681
(dp682
g21
S'The Late Late Show with Craig Ferguson'
p683
sg23
S'\xc3\x82\xc2\xa0as a guest, when the show was taping for a week in\xc3\x82\xc2\xa0 Scotland . Illness and death On July 13, 2012, Duncan was taken to'
p684
sg25
S'advertising the importance of knowing early-onset symptoms of\xc3\x82\xc2\xa0 strokes . During the week of May 14, 2012, Duncan appeared on the late night talk show\xc3\x82\xc2\xa0'
p685
sbsg27
S'9202a8c04000641f8000000005a89fbe'
p686
sg29
I31505
sg30
S'http://en.wikipedia.org/wiki/The_Late_Late_Show_with_Craig_Ferguson'
p687
sba(iedu.umass.cs.iesl.wikilink.expanded.data.ttypes
Mention
p688
(dp689
g16
S'Scotland'
p690
sg18
(iedu.umass.cs.iesl.wikilink.expanded.data.ttypes
Context
p691
(dp692
g21
S'Scotland'
p693
sg23
S'. Illness and death On July 13, 2012, Duncan was taken to a hospital after suffering a\xc3\x82\xc2\xa0 heart attack . [16] \xc3\x82\xc2\xa0Media reports suggested that'
p694
sg25
S'on the late night talk show\xc3\x82\xc2\xa0 The Late Late Show with Craig Ferguson \xc3\x82\xc2\xa0as a guest, when the show was taping for a week in\xc3\x82\xc2\xa0'
p695
sbsg27
S'9202a8c04000641f8000000000035837'
p696
sg29
I31671
sg30
S'http://en.wikipedia.org/wiki/Scotland'
p697
sba(iedu.umass.cs.iesl.wikilink.expanded.data.ttypes
Mention
p698
(dp699
g16
S'Intensive-care unit'
p700
sg18
(iedu.umass.cs.iesl.wikilink.expanded.data.ttypes
Context
p701
(dp702
g21
S'Intensive-care unit'
p703
sg23
S'\xc3\x82\xc2\xa0but remained hospitalized following his heart attack. [18] On September 3, Fehily quoted Manigault as saying that Duncan had died in Los Angeles. He added'
p704
sg25
S'save his life by performing\xc3\x82\xc2\xa0 CPR . [17] \xc3\x82\xc2\xa0Duncan\xe2\x80\x99s publicist, Joy Fehily, issued a statement on August 6 that read he was moved from the\xc3\x82\xc2\xa0'
p705
sbsg27
S'9202a8c04000641f8000000000e0b976'
p706
sg29
I32627
sg30
S'http://en.wikipedia.org/wiki/Intensive-care_unit'
p707
sba(iedu.umass.cs.iesl.wikilink.expanded.data.ttypes
Mention
p708
(dp709
g16
S'Variety'
p710
sg18
(iedu.umass.cs.iesl.wikilink.expanded.data.ttypes
Context
p711
(dp712
g21
S'Variety'
p713
sg23
S'. Retrieved 2008-02-23. ^ \xc3\x82\xc2\xa0Daniel Robert Epstein.\xc3\x82\xc2\xa0 \xe2\x80\x9cMichael Clarke Duncan Interview\xe2\x80\x9d .\xc3\x82\xc2\xa0 UGO . Retrieved 2008-02-23. ^ \xc3\x82\xc2\xa0Ryan J. Downey (February 6, 2003).\xc3\x82\xc2\xa0 \xe2\x80\x9cBen Affleck'
p714
sg25
S'CNN. ^ \xc3\x82\xc2\xa0 Awards for\xc3\x82\xc2\xa0 The Green Mile \xc3\x82\xc2\xa0at the\xc3\x82\xc2\xa0 Internet Movie Database ^ \xc3\x82\xc2\xa0McNary, Dave (January 9, 2002).\xc3\x82\xc2\xa0 \xe2\x80\x9cDuncan takes on\xc3\x82\xc2\xa0 Daredevil \xe2\x80\x9c .\xc3\x82\xc2\xa0'
p715
sbsg27
S'9202a8c04000641f8000000000195fb9'
p716
sg29
I55341
sg30
S'http://en.wikipedia.org/wiki/Variety_(magazine)'
p717
sba(iedu.umass.cs.iesl.wikilink.expanded.data.ttypes
Mention
p718
(dp719
g16
S'UGO'
p720
sg18
(iedu.umass.cs.iesl.wikilink.expanded.data.ttypes
Context
p721
(dp722
g21
S'UGO'
p723
sg23
S'. Retrieved 2008-02-23. ^ \xc3\x82\xc2\xa0Ryan J. Downey (February 6, 2003).\xc3\x82\xc2\xa0 \xe2\x80\x9cBen Affleck Dares to Dream\xc3\x82\xc2\xa0 Daredevil \xe2\x80\x9c . MTV. Retrieved 2008-02-21. ^ \xc3\x82\xc2\xa0Chavez, Kellvin (July'
p724
sg25
S'^ \xc3\x82\xc2\xa0McNary, Dave (January 9, 2002).\xc3\x82\xc2\xa0 \xe2\x80\x9cDuncan takes on\xc3\x82\xc2\xa0 Daredevil \xe2\x80\x9c .\xc3\x82\xc2\xa0 Variety . Retrieved 2008-02-23. ^ \xc3\x82\xc2\xa0Daniel Robert Epstein.\xc3\x82\xc2\xa0 \xe2\x80\x9cMichael Clarke Duncan Interview\xe2\x80\x9d .\xc3\x82\xc2\xa0'
p725
sbsg27
S'9202a8c04000641f8000000000c10570'
p726
sg29
I55738
sg30
S'http://en.wikipedia.org/wiki/UGO_Networks'
p727
sba(iedu.umass.cs.iesl.wikilink.expanded.data.ttypes
Mention
p728
(dp729
g16
S'BNO News'
p730
sg18
(iedu.umass.cs.iesl.wikilink.expanded.data.ttypes
Context
p731
(dp732
g21
S'BNO News'
p733
sg23
S'. 3 September 2012. Retrieved 3 September 2012. ^ \xc3\x82\xc2\xa0 \xe2\x80\x9cMichael Clarke Duncan dead at 54: \xc3\xa2\xe2\x82\xac\xcb\x9cGreen Mile\xc3\xa2\xe2\x82\xac\xe2\x84\xa2 actor dies nearly two months after suffering'
p734
sg25
S'^ \xc3\x82\xc2\xa0 \xe2\x80\x9cACTOR MICHAEL CLARKE DUNCAN REMAINS HOSPITALIZED\xe2\x80\x9d . AP. Retrieved 7 August 2012. ^ \xc3\x82\xc2\xa0 \xe2\x80\x9cStatement on the death of Michael Clarke Duncan\xe2\x80\x9d .\xc3\x82\xc2\xa0'
p735
sbsg27
S'9202a8c04000641f8000000006b21b47'
p736
sg29
I59181
sg30
S'http://en.wikipedia.org/wiki/BNO_News'
p737
sba(iedu.umass.cs.iesl.wikilink.expanded.data.ttypes
Mention
p738
(dp739
g16
S'SOCOM II: US Navy SEALs'
p740
sg18
Nsg27
S'9202a8c04000641f80000000004144be'
p741
sg29
I26918
sg30
S'http://en.wikipedia.org/wiki/SOCOM_II:_U.S._Navy_SEALs'
p742
sba(iedu.umass.cs.iesl.wikilink.expanded.data.ttypes
Mention
p743
(dp744
g16
S'The Notorious BIG'
p745
sg18
Nsg27
S'9202a8c04000641f8000000003af01c4'
p746
sg29
I20925
sg30
S'http://en.wikipedia.org/wiki/The_Notorious_B.I.G.'
p747
sbasS'doc_id'
p748
I10062
sS'rare_words'
p749
(lp750
(iedu.umass.cs.iesl.wikilink.expanded.data.ttypes
RareWord
p751
(dp752
S'word'
p753
S'sequel'
p754
sS'offset'
p755
I26233
sba(iedu.umass.cs.iesl.wikilink.expanded.data.ttypes
RareWord
p756
(dp757
g753
S'run'
p758
sg755
I19929
sba(iedu.umass.cs.iesl.wikilink.expanded.data.ttypes
RareWord
p759
(dp760
g753
S'me'
p761
sg755
I24802
sba(iedu.umass.cs.iesl.wikilink.expanded.data.ttypes
RareWord
p762
(dp763
g753
S'inches'
p764
sg755
I18930
sba(iedu.umass.cs.iesl.wikilink.expanded.data.ttypes
RareWord
p765
(dp766
g753
S'household'
p767
sg755
I18356
sba(iedu.umass.cs.iesl.wikilink.expanded.data.ttypes
RareWord
p768
(dp769
g753
S'Statement'
p770
sg755
I59055
sba(iedu.umass.cs.iesl.wikilink.expanded.data.ttypes
RareWord
p771
(dp772
g753
S'then'
p773
sg755
I22703
sba(iedu.umass.cs.iesl.wikilink.expanded.data.ttypes
RareWord
p774
(dp775
g753
S'Gas'
p776
sg755
I19143
sba(iedu.umass.cs.iesl.wikilink.expanded.data.ttypes
RareWord
p777
(dp778
g753
S'spinoff'
p779
sg755
I30847
sba(iedu.umass.cs.iesl.wikilink.expanded.data.ttypes
RareWord
p780
(dp781
g753
S'BNO'
p782
sg755
I59181
sbasb.