(iedu.umass.cs.iesl.wikilink.expanded.data.ttypes
WikiLinkItem
p0
(dp1
S'url'
p2
S'http://acuriousguy.blogspot.com/2012/06/requiem-for-heavyweight-rocketdyne.html'
p3
sS'content'
p4
(iedu.umass.cs.iesl.wikilink.expanded.data.ttypes
PageContentItem
p5
(dp6
S'articleText'
p7
NsS'raw'
p8
NsS'fullText'
p9
NsS'dom'
p10
S'<html dir="ltr">\n  <head>\n    <meta content="text/html; charset=UTF-8" http-equiv="Content-Type"></meta>\n    <script type="text/javascript">\n      (function() { var a=window,b=&quot;jstiming&quot;,d=&quot;tick&quot;;var e=function(c){this.t={};this.tick=function(c,p,h){h=void 0!=h?h:(new Date).getTime();this.t[c]=[h,p]};this[d](&quot;start&quot;,null,c)},f=new e;a.jstiming={Timer:e,load:f};if(a.performance&amp;&amp;a.performance.timing){var g=a.performance.timing,j=a[b].load,k=g.navigationStart,l=g.responseStart;0&lt;k&amp;&amp;l&gt;=k&amp;&amp;(j[d](&quot;_wtsrt&quot;,void 0,k),j[d](&quot;wtsrt_&quot;,&quot;_wtsrt&quot;,l),j[d](&quot;tbsd_&quot;,&quot;wtsrt_&quot;))}\ntry{var m=null;a.chrome&amp;&amp;a.chrome.csi&amp;&amp;(m=Math.floor(a.chrome.csi().pageT),j&amp;&amp;0&lt;k&amp;&amp;(j[d](&quot;_tbnd&quot;,void 0,a.chrome.csi().startE),j[d](&quot;tbnd_&quot;,&quot;_tbnd&quot;,k)));null==m&amp;&amp;a.gtbExternal&amp;&amp;(m=a.gtbExternal.pageT());null==m&amp;&amp;a.external&amp;&amp;(m=a.external.pageT,j&amp;&amp;0&lt;k&amp;&amp;(j[d](&quot;_tbnd&quot;,void 0,a.external.startE),j[d](&quot;tbnd_&quot;,&quot;_tbnd&quot;,k)));m&amp;&amp;(a[b].pt=m)}catch(n){};a.tickAboveFold=function(c){var i=0;if(c.offsetParent){do i+=c.offsetTop;while(c=c.offsetParent)}c=i;750&gt;=c&amp;&amp;a[b].load[d](&quot;aft&quot;)};var q=!1;function r(){q||(q=!0,a[b].load[d](&quot;firstScrollTime&quot;))}a.addEventListener?a.addEventListener(&quot;scroll&quot;,r,!1):a.attachEvent(&quot;onscroll&quot;,r);\n })();\n    </script>\n    <meta content="true" name="MSSmartTagsPreventParsing"></meta>\n    <meta content="blogger" name="generator"></meta>\n    <link type="image/x-icon" rel="icon" href="http://acuriousguy.blogspot.com/favicon.ico"></link>\n    <link rel="canonical" href="http://acuriousguy.blogspot.com/2012/06/requiem-for-heavyweight-rocketdyne.html"></link>\n    <link href="http://acuriousguy.blogspot.com/feeds/posts/default" title="Commercial Space - Atom" type="application/atom+xml" rel="alternate"></link>\n    <link href="http://acuriousguy.blogspot.com/feeds/posts/default?alt=rss" title="Commercial Space - RSS" type="application/rss+xml" rel="alternate"></link>\n    <link href="http://www.blogger.com/feeds/6618880/posts/default" title="Commercial Space - Atom" type="application/atom+xml" rel="service.post"></link>\n    <link href="http://www.blogger.com/rsd.g?blogID=6618880" title="RSD" type="application/rsd+xml" rel="EditURI"></link>\n    <link href="http://acuriousguy.blogspot.com/feeds/616289053762995603/comments/default" title="Commercial Space - Atom" type="application/atom+xml" rel="alternate"></link>\n    <link href="http://4.bp.blogspot.com/-mgJNU77Bs6I/T9dUBH3e88I/AAAAAAAAB-4/pHKq31_IKhw/s72-c/800px-Pratt_Whitney_Rocketdyne_space_shuttle_main_engines.jpg" rel="image_src"></link>\n    <link rel="publisher" href="https://plus.google.com/111976514537213098381"></link>\n    <title>Commercial Space: Requiem for a Heavyweight Rocketdyne</title>\n    <script type="text/javascript">\n      if (navigator.userAgent.indexOf(\'MSIE 6\') == -1) {\n  WebFontConfig = {\n    google: { families: [ \'Tinos\' ],\n    api: \'//themes.googleusercontent.com/fonts/css?kit=uEejoB7RACUK3s-W0a63ag\'\n    },\n    loading: function() {\n      if (window.jstiming) window.jstiming.load.tick(\'webfontLoading\');\n    },\n    active: function() {\n      if (window.jstiming) window.jstiming.load.tick(\'webfontActive\');\n    }\n  };\n  (function() {\n    var wf = document.createElement(\'script\');\n    wf.src = \'//ajax.googleapis.com/ajax/libs/webfont/1/webfont.js\';\n    wf.type = \'text/javascript\';\n    wf.async = \'true\';\n    var s = document.getElementsByTagName(\'script\')[0];\n    s.parentNode.insertBefore(wf, s);\n  })();\n} else {\n  document.documentElement.className = \'wf-inactive\';\n}\n    </script>\n    <style type="text/css"> </style>\n    <link href="//www.blogger.com/static/v1/widgets/1937454905-widget_css_bundle.css" rel="stylesheet" type="text/css"></link>\n    <link href="//www.google.com/uds/css/gsearch.css" rel="stylesheet" type="text/css"></link>\n    <link href="//www.blogger.com/dyn-css/authorization.css?targetBlogID=6618880&amp;zx=e92d368d-2f0b-4f02-8506-8f4423b74264" rel="stylesheet" type="text/css"></link>\n    <style type="text/css" id="page-skin-1">\n      &lt;!--\n/*\n-----------------------------------------------\nBlogger Template Style\nName:     Minima\nDate:     26 Feb 2004\nUpdated by: Blogger Team\n3 column by: http://www.simplebloggertutorials.com/\n----------------------------------------------- */\n/* Variable definitions\n====================\n&lt;Variable name=&quot;bgcolor&quot; description=&quot;Page Background Color&quot;\ntype=&quot;color&quot; default=&quot;#fff&quot;&gt;\n&lt;Variable name=&quot;textcolor&quot; description=&quot;Text Color&quot;\ntype=&quot;color&quot; default=&quot;#333&quot;&gt;\n&lt;Variable name=&quot;linkcolor&quot; description=&quot;Link Color&quot;\ntype=&quot;color&quot; default=&quot;#58a&quot;&gt;\n&lt;Variable name=&quot;pagetitlecolor&quot; description=&quot;Blog Title Color&quot;\ntype=&quot;color&quot; default=&quot;#666&quot;&gt;\n&lt;Variable name=&quot;descriptioncolor&quot; description=&quot;Blog Description Color&quot;\ntype=&quot;color&quot; default=&quot;#999&quot;&gt;\n&lt;Variable name=&quot;titlecolor&quot; description=&quot;Post Title Color&quot;\ntype=&quot;color&quot; default=&quot;#c60&quot;&gt;\n&lt;Variable name=&quot;bordercolor&quot; description=&quot;Border Color&quot;\ntype=&quot;color&quot; default=&quot;#ccc&quot;&gt;\n&lt;Variable name=&quot;sidebarcolor&quot; description=&quot;Sidebar Title Color&quot;\ntype=&quot;color&quot; default=&quot;#999&quot;&gt;\n&lt;Variable name=&quot;sidebartextcolor&quot; description=&quot;Sidebar Text Color&quot;\ntype=&quot;color&quot; default=&quot;#666&quot;&gt;\n&lt;Variable name=&quot;visitedlinkcolor&quot; description=&quot;Visited Link Color&quot;\ntype=&quot;color&quot; default=&quot;#999&quot;&gt;\n&lt;Variable name=&quot;bodyfont&quot; description=&quot;Text Font&quot;\ntype=&quot;font&quot; default=&quot;normal normal 100% Georgia, Serif&quot;&gt;\n&lt;Variable name=&quot;headerfont&quot; description=&quot;Sidebar Title Font&quot;\ntype=&quot;font&quot;\ndefault=&quot;normal normal 78% \'Trebuchet MS\',Trebuchet,Arial,Verdana,Sans-serif&quot;&gt;\n&lt;Variable name=&quot;pagetitlefont&quot; description=&quot;Blog Title Font&quot;\ntype=&quot;font&quot;\ndefault=&quot;normal normal 200% Georgia, Serif&quot;&gt;\n&lt;Variable name=&quot;descriptionfont&quot; description=&quot;Blog Description Font&quot;\ntype=&quot;font&quot;\ndefault=&quot;normal normal 78% \'Trebuchet MS\', Trebuchet, Arial, Verdana, Sans-serif&quot;&gt;\n&lt;Variable name=&quot;postfooterfont&quot; description=&quot;Post Footer Font&quot;\ntype=&quot;font&quot;\ndefault=&quot;normal normal 78% \'Trebuchet MS\', Trebuchet, Arial, Verdana, Sans-serif&quot;&gt;\n&lt;Variable name=&quot;startSide&quot; description=&quot;Side where text starts in blog language&quot;\ntype=&quot;automatic&quot; default=&quot;left&quot;&gt;\n&lt;Variable name=&quot;endSide&quot; description=&quot;Side where text ends in blog language&quot;\ntype=&quot;automatic&quot; default=&quot;right&quot;&gt;\n*/\n/* Use this with templates/template-twocol.html */\nbody {\nbackground:#ffffff;\nmargin:0;\ncolor:#333333;\nfont:x-small Georgia Serif;\nfont-size/* */:/**/small;\nfont-size: /**/small;\ntext-align: center;\n}\na:link {\ncolor:#0b5394;\ntext-decoration:none;\n}\na:visited {\ncolor:#6fa8dc;\ntext-decoration:none;\n}\na:hover {\ncolor:#cc6600;\ntext-decoration:underline;\n}\na img {\nborder-width:0;\n}\n/* Header\n-----------------------------------------------\n*/\n#header-wrapper {\nwidth:890px;\nmargin:0 auto 10px;\nborder:1px solid #cccccc;\n}\n#header-inner {\nbackground-position: center;\nmargin-left: auto;\nmargin-right: auto;\n}\n#header {\nmargin: 5px;\nborder: 1px solid #cccccc;\ntext-align: center;\ncolor:#000000;\n}\n#header h1 {\nmargin:5px 5px 0;\npadding:15px 20px .25em;\nline-height:1.2em;\ntext-transform:uppercase;\nletter-spacing:.2em;\nfont: normal bold 250% Tinos;\n}\n#header a {\ncolor:#000000;\ntext-decoration:none;\n}\n#header a:hover {\ncolor:#000000;\n}\n#header .description {\nmargin:0 5px 5px;\npadding:0 20px 15px;\nmax-width:880px;\ntext-transform:uppercase;\nletter-spacing:.2em;\nline-height: 1.4em;\nfont: italic normal 78% \'Trebuchet MS\', Trebuchet, Arial, Verdana, Sans-serif;\ncolor: #333333;\n}\n#header img {\nmargin-left: auto;\nmargin-right: auto;\n}\n/* Outer-Wrapper\n----------------------------------------------- */\n#outer-wrapper {\nwidth:890px;\nmargin:0 auto;\npadding:10px;\ntext-align:left;\nfont: normal normal 100% Tinos;\n}\n#main-wrapper {\nwidth: 410px;\nmargin:0 10px 0 0;\nfloat: left;\nword-wrap: break-word; /* fix for long text breaking sidebar float in IE */\noverflow: hidden;     /* fix for long non-text content breaking IE sidebar float */\n}\n#sidebar-wrapper {\nwidth: 220px;\nfloat: right;\nword-wrap: break-word; /* fix for long text breaking sidebar float in IE */\noverflow: hidden;      /* fix for long non-text content breaking IE sidebar float */\n}\n#left-sidebar-wrap {\nwidth: 220px;\nmargin:0 10px 0 0;\nfloat: left;\nword-wrap: break-word;\noverflow: hidden;\n}\n/* Headings\n----------------------------------------------- */\nh2 {\nmargin:1.5em 0 .75em;\nfont:normal normal 78% \'Trebuchet MS\',Trebuchet,Arial,Verdana,Sans-serif;\nline-height: 1.4em;\ntext-transform:uppercase;\nletter-spacing:.2em;\ncolor:#999999;\n}\n/* Posts\n-----------------------------------------------\n*/\nh2.date-header {\nmargin:1.5em 0 .5em;\n}\n.post {\nmargin:.5em 0 1.5em;\nborder-bottom:1px dotted #cccccc;\npadding-bottom:1.5em;\n}\n.post h3 {\nmargin:.25em 0 0;\npadding:0 0 4px;\nfont-size:140%;\nfont-weight:normal;\nline-height:1.4em;\ncolor:#cc6600;\n}\n.post h3 a, .post h3 a:visited, .post h3 strong {\ndisplay:block;\ntext-decoration:none;\ncolor:#cc6600;\nfont-weight:normal;\n}\n.post h3 strong, .post h3 a:hover {\ncolor:#333333;\n}\n.post-body {\nmargin:0 0 .75em;\nline-height:1.6em;\n}\n.post-body blockquote {\nline-height:1.3em;\n}\n.post-footer {\nmargin: .75em 0;\ncolor:#999999;\ntext-transform:uppercase;\nletter-spacing:.1em;\nfont: normal normal 78% \'Trebuchet MS\', Trebuchet, Arial, Verdana, Sans-serif;\nline-height: 1.4em;\n}\n.comment-link {\nmargin-left:.6em;\n}\n.post img, table.tr-caption-container {\npadding:4px;\nborder:1px solid #cccccc;\n}\n.tr-caption-container img {\nborder: none;\npadding: 0;\n}\n.post blockquote {\nmargin:1em 20px;\n}\n.post blockquote p {\nmargin:.75em 0;\n}\n/* Comments\n----------------------------------------------- */\n#comments h4 {\nmargin:1em 0;\nfont-weight: bold;\nline-height: 1.4em;\ntext-transform:uppercase;\nletter-spacing:.2em;\ncolor: #999999;\n}\n#comments-block {\nmargin:1em 0 1.5em;\nline-height:1.6em;\n}\n#comments-block .comment-author {\nmargin:.5em 0;\n}\n#comments-block .comment-body {\nmargin:.25em 0 0;\n}\n#comments-block .comment-footer {\nmargin:-.25em 0 2em;\nline-height: 1.4em;\ntext-transform:uppercase;\nletter-spacing:.1em;\n}\n#comments-block .comment-body p {\nmargin:0 0 .75em;\n}\n.deleted-comment {\nfont-style:italic;\ncolor:gray;\n}\n#blog-pager-newer-link {\nfloat: left;\n}\n#blog-pager-older-link {\nfloat: right;\n}\n#blog-pager {\ntext-align: center;\n}\n.feed-links {\nclear: both;\nline-height: 2.5em;\n}\n/* Sidebar Content\n----------------------------------------------- */\n.sidebar {\ncolor: #666666;\nline-height: 1.5em;\n}\n.sidebar ul {\nlist-style:none;\nmargin:0 0 0;\npadding:0 0 0;\n}\n.sidebar li {\nmargin:0;\npadding-top:0;\npadding-right:0;\npadding-bottom:.25em;\npadding-left:15px;\ntext-indent:-15px;\nline-height:1.5em;\n}\n.sidebar .widget, .main .widget {\nborder-bottom:1px dotted #cccccc;\nmargin:0 0 1.5em;\npadding:0 0 1.5em;\n}\n.main .Blog {\nborder-bottom-width: 0;\n}\n/* Profile\n----------------------------------------------- */\n.profile-img {\nfloat: left;\nmargin-top: 0;\nmargin-right: 5px;\nmargin-bottom: 5px;\nmargin-left: 0;\npadding: 4px;\nborder: 1px solid #cccccc;\n}\n.profile-data {\nmargin:0;\ntext-transform:uppercase;\nletter-spacing:.1em;\nfont: normal normal 78% \'Trebuchet MS\', Trebuchet, Arial, Verdana, Sans-serif;\ncolor: #999999;\nfont-weight: bold;\nline-height: 1.6em;\n}\n.profile-datablock {\nmargin:.5em 0 .5em;\n}\n.profile-textblock {\nmargin: 0.5em 0;\nline-height: 1.6em;\n}\n.profile-link {\nfont: normal normal 78% \'Trebuchet MS\', Trebuchet, Arial, Verdana, Sans-serif;\ntext-transform: uppercase;\nletter-spacing: .1em;\n}\n/* Footer\n----------------------------------------------- */\n#footer {\nwidth:880px;\nclear:both;\nmargin:0 auto;\npadding-top:15px;\nline-height: 1.6em;\ntext-transform:uppercase;\nletter-spacing:.1em;\ntext-align: center;\n}\n\n--&gt;\n    </style>\n    <script type="text/javascript">\n      var a=navigator,b=&quot;userAgent&quot;,c=&quot;indexOf&quot;,f=&quot;&amp;m=1&quot;,g=&quot;(^|&amp;)m=&quot;,h=&quot;?&quot;,i=&quot;?m=1&quot;;function j(){var d=window.location.href,e=d.split(h);switch(e.length){case 1:return d+i;case 2:return 0&lt;=e[1].search(g)?null:d+f;default:return null}}if(-1!=a[b][c](&quot;Mobile&quot;)&amp;&amp;-1!=a[b][c](&quot;WebKit&quot;)&amp;&amp;-1==a[b][c](&quot;iPad&quot;)||-1!=a[b][c](&quot;Opera Mini&quot;)||-1!=a[b][c](&quot;IEMobile&quot;)){var k=j();k&amp;&amp;window.location.replace(k)};\n    </script>\n    <script type="text/javascript"> if (window.jstiming) window.jstiming.load.tick(\'headEnd\'); </script>\n  </head>\n  <body>\n    <div id="navbar" class="navbar section">\n      <div id="Navbar1" class="widget Navbar">\n        <script type="text/javascript"> function setAttributeOnload(object, attribute, val) { if(window.addEventListener) { window.addEventListener(\'load\', function(){ object[attribute] = val; }, false); } else { window.attachEvent(\'onload\', function(){ object[attribute] = val; }); } } </script>\n        <div id="navbar-iframe-container"></div>\n        <script src="https://apis.google.com/js/plusone.js" type="text/javascript"></script>\n        <script type="text/javascript">\n          gapi.load(&quot;iframes-styles-bubble&quot;, function() {\n          if (window.iframes &amp;&amp; iframes.open) {\n            iframes.open(\n                \'//www.blogger.com/navbar.g?targetBlogID\\0756618880\\46blogName\\75Commercial+Space\\46publishMode\\75PUBLISH_MODE_BLOGSPOT\\46navbarType\\75BLUE\\46layoutType\\75LAYOUTS\\46searchRoot\\75http://acuriousguy.blogspot.com/search\\46blogLocale\\75en_US\\46v\\0752\\46homepageUrl\\75http://acuriousguy.blogspot.com/\\46targetPostID\\075616289053762995603\\46blogPostOrPageUrl\\75http://acuriousguy.blogspot.com/2012/06/requiem-for-heavyweight-rocketdyne.html\\46vt\\0757327167502549561337\',\n                {\n                  container: &quot;navbar-iframe-container&quot;,\n                  id: &quot;navbar-iframe&quot;\n                },\n                {\n                });\n          }\n        });\n        </script>\n        <script type="text/javascript">\n          (function() {\nvar script = document.createElement(\'script\');\nscript.type = \'text/javascript\';\nscript.src = \'//pagead2.googlesyndication.com/pagead/js/google_top_exp.js\';\nvar head = document.getElementsByTagName(\'head\')[0];\nif (head) {\nhead.appendChild(script);\n}})();\n        </script>\n      </div>\n    </div>\n    <div id="outer-wrapper">\n      <div id="wrap2">\n        <span style="display:none;" id="skiplinks">\n          <a href="#main" shape="rect">skip to main </a>\n          |\n          <a href="#sidebar" shape="rect">skip to sidebar</a>\n        </span>\n        <div id="header-wrapper">\n          <div id="header" class="header section">\n            <div id="Header1" class="widget Header">\n              <div id="header-inner">\n                <div class="titlewrapper">\n                  <h1 class="title">\n                    <a href="http://acuriousguy.blogspot.com/" shape="rect">Commercial Space</a>\n                  </h1>\n                </div>\n                <div class="descriptionwrapper">\n                  <p class="description">\n                    <span>Focused on Canadian money making activities high above the skies...</span>\n                  </p>\n                </div>\n              </div>\n            </div>\n          </div>\n        </div>\n        <div id="content-wrapper">\n          <div style="text-align:center" id="crosscol-wrapper">\n            <div id="crosscol" class="crosscol section">\n              <div id="PageList1" class="widget PageList">\n                <h2>Pages</h2>\n                <div class="widget-content">\n                  <ul>\n                    <li>\n                      <a href="http://acuriousguy.blogspot.com/" shape="rect">Home</a>\n                    </li>\n                    <li>\n                      <a href="http://acuriousguy.blogspot.com/p/resume.html" shape="rect">About this Blog</a>\n                    </li>\n                    <li>\n                      <a href="http://acuriousguy.blogspot.com/p/about-author.html" shape="rect">About the Author</a>\n                    </li>\n                    <li>\n                      <a href="http://acuriousguy.blogspot.com/p/our-weekly-mailing-list.html" shape="rect">Our Weekly Mailing List</a>\n                    </li>\n                    <li>\n                      <a href="http://acuriousguy.blogspot.com/p/context-background-materials.html" shape="rect">Context &amp; Background Materials</a>\n                    </li>\n                    <li>\n                      <a href="http://acuriousguy.blogspot.com/p/page-two.html" shape="rect">Space Jobs &amp; Career Boards</a>\n                    </li>\n                  </ul>\n                  <div class="clear"></div>\n                  <span class="widget-item-control">\n                    <span class="item-control blog-admin">\n                      <a \n                      title="Edit" target="configPageList1" onclick="return _WidgetManager._PopupConfig(document.getElementById(&quot;PageList1&quot;));" href="//www.blogger.com/rearrange?blogID=6618880&amp;widgetType=PageList&amp;widgetId=PageList1&amp;action=editWidget&amp;sectionId=crosscol" class="quickedit" shape="rect">\n                        <img width="18" src="http://img1.blogblog.com/img/icon18_wrench_allbkg.png" height="18" alt=""></img>\n</a>\n                    </span>\n                  </span>\n                  <div class="clear"></div>\n                </div>\n              </div>\n            </div>\n          </div>\n          <div id="main-wrapper">\n            <div id="main" class="main section">\n              <div id="Blog1" class="widget Blog">\n                <div class="blog-posts hfeed">\n                  <h2 class="date-header">Tuesday, June 12, 2012</h2>\n                  <div class="post hentry uncustomized-post-template">\n                    <a name="616289053762995603" shape="rect"></a>\n                    <h3 class="post-title entry-title">\n                      <a href="http://acuriousguy.blogspot.com/2012/06/requiem-for-heavyweight-rocketdyne.html" shape="rect">Requiem for a Heavyweight Rocketdyne</a>\n                    </h3>\n                    <div class="post-header-line-1"></div>\n                    <div class="post-body entry-content">\n                      <div trbidi="on" style="text-align: left;" dir="ltr">\n                        <br clear="none"></br>\n                        The publicly held American multinational\n                        <a href="http://en.wikipedia.org/wiki/United_Technologies_Corporation" shape="rect">United Technologies Corporation</a>\n                        (UTC)\n                        <span id="RDS_Site">\n                          is now &quot;\n                          <i>\n                            in negotiations with one buyer to sell \nstoried rocket engine maker\n                            <a href="http://en.wikipedia.org/wiki/Pratt_%26_Whitney_Rocketdyne" shape="rect">Pratt &amp; Whitney Rocketdyne</a>\n                            and a deal \nmay soon be announced\n                          </i>\n                          ,&quot; according to the\n                        </span>\n                        June 11th, 2012\n                        <a href="http://www.dailynews.com/" shape="rect">LA Daily News</a>\n                        article &quot;\n                        <a href="http://www.dailynews.com/ci_20835506/pratt-amp-whitney-rocketdyne-about-be-sold-private?source=most_viewed" shape="rect">Pratt &amp; Whitney Rocketdyne about to be sold to private-investor group</a>\n                        .&quot;\n                        <br clear="none"></br>\n                        <br clear="none"></br>\n                        <table style="margin-left: auto; margin-right: auto; text-align: center;" cellspacing="0" cellpadding="0" class="tr-caption-container" align="center">\n                          <tbody>\n                            <tr>\n                              <td style="text-align: center;" rowspan="1" colspan="1">\n                                <a style="margin-left: auto; margin-right: auto;" imageanchor="1" href="http://4.bp.blogspot.com/-mgJNU77Bs6I/T9dUBH3e88I/AAAAAAAAB-4/pHKq31_IKhw/s1600/800px-Pratt_Whitney_Rocketdyne_space_shuttle_main_engines.jpg" shape="rect">\n                                  <img width="400" src="http://4.bp.blogspot.com/-mgJNU77Bs6I/T9dUBH3e88I/AAAAAAAAB-4/pHKq31_IKhw/s400/800px-Pratt_Whitney_Rocketdyne_space_shuttle_main_engines.jpg" height="300" border="0"></img>\n                                </a>\n                              </td>\n                            </tr>\n                            <tr>\n                              <td style="text-align: center;" class="tr-caption" rowspan="1" colspan="1">\n                                \xc2\xa0The\n                                <span class="description">\n                                  Pratt &amp; Whitney Rocketdyne\n                                  <a title="Space Shuttle" href="http://commons.wikimedia.org/wiki/Space_Shuttle" shape="rect">space shuttle</a>\n                                  main engines from\n                                  <a href="http://en.wikipedia.org/wiki/Space_Shuttle_Endeavour" shape="rect">Endeavour</a>\n                                  \'s and\n                                  <a href="http://en.wikipedia.org/wiki/Space_Shuttle_Atlantis" shape="rect">Atlantis</a>\n                                  \' final missions in the Engine Shop at NASA\'s\n                                  <a title="Category:Kennedy Space Center" href="http://commons.wikimedia.org/wiki/Category:Kennedy_Space_Center" shape="rect">Kennedy Space Center</a>\n                                  in November 2011.\n                                </span>\n                              </td>\n                            </tr>\n                          </tbody>\n                        </table>\n                        <br clear="none"></br>\n                        As outlined in the May 22nd, 2012\n                        <a href="http://www.reuters.com/" shape="rect">Reuters</a>\n                        article &quot;\n                        <a href="http://www.reuters.com/article/2012/05/22/unitedtech-idUSL1E8GM7Z820120522" shape="rect">United Tech says Goodrich deal to close in July</a>\n                        ,&quot;\n                        <span id="articleText">\n                          the Rocketdyne subsidiary was always expected to be sold by UTC, along with the industrial arm of the\n                          <a href="http://en.wikipedia.org/wiki/Hamilton_Sundstrand" shape="rect">Hamilton Sundstrand</a>\n                          division, and the\n                          <a href="http://en.wikipedia.org/wiki/Clipper_Windpower" shape="rect">Clipper Windpower</a>\n                          operation, in order to fund the\n                        </span>\n                        $16.5 billion UTC takeover of aircraft components manufacturer\n                        <a href="http://en.wikipedia.org/wiki/Goodrich_Corporation" shape="rect">Goodrich Corporation</a>\n                        .\n                        <br clear="none"></br>\n                        <br clear="none"></br>\n                        But a private investment deal could end up giving the historic company (originally formed after the second world war to study the German\n                        <a title="V-2" href="http://en.wikipedia.org/wiki/V-2" shape="rect">V-2 missile</a>\n                        and adapt its engine to US requirements)\xc2\xa0 new capabilities and perhaps even the potential to compete in the international marketplace against privately held\n                        <a href="http://en.wikipedia.org/wiki/SpaceX" shape="rect">Space Exploration Technologies</a>\n                        (SpaceX).\n                        <br clear="none"></br>\n                        <br clear="none"></br>\n                        <table style="float: right; margin-left: 1em; text-align: right;" cellspacing="0" cellpadding="0" class="tr-caption-container">\n                          <tbody>\n                            <tr>\n                              <td style="text-align: center;" rowspan="1" colspan="1">\n                                <a style="clear: right; margin-bottom: 1em; margin-left: auto; margin-right: auto;" imageanchor="1" href="http://2.bp.blogspot.com/-J7FjZJB8uF8/T9dYpmTkR4I/AAAAAAAACAQ/FlswYJh67MQ/s1600/Mike+Griffen.jpg" shape="rect">\n                                  <img title="Mike Griffin" src="http://2.bp.blogspot.com/-J7FjZJB8uF8/T9dYpmTkR4I/AAAAAAAACAQ/FlswYJh67MQ/s1600/Mike+Griffen.jpg" border="0" alt="Mike Griffin"></img>\n                                </a>\n                              </td>\n                            </tr>\n                            <tr>\n                              <td style="text-align: center;" class="tr-caption" rowspan="1" colspan="1">Mike Griffin.</td>\n                            </tr>\n                          </tbody>\n                        </table>\n                        A June 11th, 2012 post on the\n                        <a href="http://nasawatch.com/" shape="rect">NASA Watch</a>\n                        under the title &quot;\n                        <a href="http://nasawatch.com/archives/2012/06/rocketdyne-sold.html" shape="rect">Rocketdyne Sold - Griffin as New CEO?</a>\n                        &quot; even states that the new owners, working through a group organized by the\n                        <a href="http://en.wikipedia.org/wiki/Chase_%28bank%29" shape="rect">Chase Bank</a>\n                        , have hired ex-NASA Director\n                        <a href="http://en.wikipedia.org/wiki/Michael_D._Griffin" shape="rect">Michael D. Griffin </a>\n                        as the new Rocketdyne CEO.\n                        <br clear="none"></br>\n                        <br clear="none"></br>\n                        All of which suggests the possibility of one final hurrah for the once promising and innovative company which simply grew too old and dependent on fixed price government contracts.\n                        <br clear="none"></br>\n                        <br clear="none"></br>\n                        Which kinda sounds like the plot of the 1956 teleplay &quot;\n                        <a href="http://en.wikipedia.org/wiki/Requiem_for_a_Heavyweight" shape="rect">Requiem for a Heavyweight</a>\n                        .&quot; Written by\n                        <a href="http://en.wikipedia.org/wiki/Rod_Serling" shape="rect">Rod Serling</a>\n                        (who later went on to create &quot;\n                        <a href="http://en.wikipedia.org/wiki/The_Twilight_Zone" shape="rect">The Twilight Zone</a>\n                        &quot;), the teleplay focused on Harlan &quot;\n                        <i>Mountain</i>\n                        &quot; McClintock, a once-promising but now washed-up boxer who faces the end of his career after being savagely defeated by a younger, and more capable foe.\n                        <br clear="none"></br>\n                        <br clear="none"></br>\n                        Boxing is all &quot;\n                        <i>Mountain</i>\n                        &quot; McClintock has ever known and he\'s both terrified of \ntrying something new and intensely loyal to the coach who has nurtured him\n from his youth, but also bets against him (much like the US government has hedged its bets once or twice with Rocketdyne in its various incarnations).\n                        <br clear="none"></br>\n                        <br clear="none"></br>\n                        Of course, analogies rarely transfer directly to the real world.\n                        <br clear="none"></br>\n                        <br clear="none"></br>\n                        Rocketdyne possesses serious political connections and legacy assets in the intellectual property surrounding the\n                        <a href="http://en.wikipedia.org/wiki/RL10" shape="rect">RL10</a>\n                        rocket engines, the\n                        <a href="http://en.wikipedia.org/wiki/RS-68" shape="rect">RS-68</a>\n                        first stage engine for the\n                        <a href="http://en.wikipedia.org/wiki/Delta_IV" shape="rect">Delta IV</a>\n                        , the\n                        <a href="http://en.wikipedia.org/wiki/Space_Shuttle_Main_Engine" shape="rect">RS-25</a>\n                        engines used as the\n                        <a href="http://en.wikipedia.org/wiki/Space_Shuttle" shape="rect">space shuttle</a>\n                        main engine and quite a few other programs and projects.\n                        <br clear="none"></br>\n                        <br clear="none"></br>\n                        And no one expects that the new owners will be &quot;\n                        <i>punch drunk</i>\n                        .&quot;\n                        <br clear="none"></br>\n                        <br clear="none"></br>\n                        Expect the official announcement of the sale and the new management team to be made over the next month.\n                      </div>\n                      <div style="clear: both;"></div>\n                    </div>\n                    <div class="post-footer">\n                      <div class="post-footer-line post-footer-line-1">\n                        <span class="post-author vcard">\n                          Posted by\n                          <span class="fn">Chuck Black</span>\n                        </span>\n                        <span class="post-timestamp"> </span>\n                        <span class="reaction-buttons"> </span>\n                        <span class="star-ratings"> </span>\n                        <span class="post-comment-link"> </span>\n                        <span class="post-backlinks post-comment-link"> </span>\n                        <span class="post-icons">\n                          <span class="item-action">\n                            <a title="Email Post" href="http://www.blogger.com/email-post.g?blogID=6618880&amp;postID=616289053762995603" shape="rect">\n                              <img width="18" src="http://www.blogger.com/img/icon18_email.gif" height="13" alt="" class="icon-action"></img>\n                            </a>\n                          </span>\n                          <span class="item-control blog-admin pid-1870921472">\n                            <a title="Edit Post" href="http://www.blogger.com/post-edit.g?blogID=6618880&amp;postID=616289053762995603&amp;from=pencil" shape="rect">\n                              <img width="18" src="http://www.blogger.com/img/icon18_edit_allbkg.gif" height="18" alt="" class="icon-action"></img>\n                            </a>\n                          </span>\n                        </span>\n                      </div>\n                      <div class="post-footer-line post-footer-line-2">\n                        <span class="post-labels">\n                          Labels:\n                          <a rel="tag" href="http://acuriousguy.blogspot.com/search/label/Commercial%20Space%20Activities" shape="rect">Commercial Space Activities</a>\n                          ,\n                          <a rel="tag" href="http://acuriousguy.blogspot.com/search/label/NASA" shape="rect">NASA</a>\n                        </span>\n                      </div>\n                      <div class="post-footer-line post-footer-line-3">\n                        <span class="post-location"> </span>\n                      </div>\n                    </div>\n                  </div>\n                  <div id="comments" class="comments">\n                    <a name="comments" shape="rect"></a>\n                    <h4> 0 comments: </h4>\n                    <dl id="comments-block" class="avatar-comment-indent"></dl>\n                    <p class="comment-footer"> </p>\n                    <div class="comment-form">\n                      <a name="comment-form" shape="rect"></a>\n                      <h4 id="comment-post-message">Post a Comment</h4>\n                      <p> </p>\n                      <a href="http://www.blogger.com/comment-iframe.g?blogID=6618880&amp;postID=616289053762995603" id="comment-editor-src" shape="rect"></a>\n                      <iframe width="100%" src="" name="comment-editor" height="410" allowtransparency="true" id="comment-editor" class="blogger-iframe-colorize blogger-comment-from-post" scrolling="auto" frameborder="0"></iframe>\n                      <script src="//www.blogger.com/static/v1/jsbin/4030612614-comment_from_post_iframe.js" type="text/javascript"></script>\n                      <script type="text/javascript"> BLOG_CMT_createIframe(\'http://www.blogger.com/rpc_relay.html\', \'18256602619004415959\'); </script>\n                    </div>\n                    <div id="backlinks-container">\n                      <div id="Blog1_backlinks-container">\n                        <a name="links" shape="rect"></a>\n                        <h4> </h4>\n                        <p class="comment-footer">\n                          <a target="_blank" href="" id="Blog1_backlinks-create-link" class="comment-link" shape="rect"> </a>\n                        </p>\n                      </div>\n                    </div>\n                  </div>\n                </div>\n                <div id="blog-pager" class="blog-pager">\n                  <span id="blog-pager-newer-link">\n                    <a title="Newer Post" href="http://acuriousguy.blogspot.com/2012/06/canadian-space-agency-pulling-financial.html" id="Blog1_blog-pager-newer-link" class="blog-pager-newer-link" shape="rect">Newer Post</a>\n                  </span>\n                  <span id="blog-pager-older-link">\n                    <a title="Older Post" href="http://acuriousguy.blogspot.com/2012/06/long-running-high-school-space-contest.html" id="Blog1_blog-pager-older-link" class="blog-pager-older-link" shape="rect">Older Post</a>\n                  </span>\n                  <a href="http://acuriousguy.blogspot.com/" class="home-link" shape="rect">Home</a>\n                </div>\n                <div class="clear"></div>\n                <div class="post-feeds">\n                  <div class="feed-links">\n                    Subscribe to:\n                    <a type="application/atom+xml" target="_blank" href="http://acuriousguy.blogspot.com/feeds/616289053762995603/comments/default" class="feed-link" shape="rect">Post Comments (Atom)</a>\n                  </div>\n                </div>\n              </div>\n              <div id="HTML2" class="widget HTML">\n                <div class="widget-content">\n                  <center>\n                    <span style="font-weight: bold;">Subscribe now</span>\n                    to the\n                    <a href="http://spaceconferencenews.blogspot.ca/" shape="rect">\n                      <span style="font-weight: bold;">Space Conference News</span>\n                    </a>\n                    (SCN)\n                    <a href="http://spaceconferencenews.blogspot.ca/p/ways-to-contribute.html" shape="rect">\n                      <span style="font-weight: bold;">Subscription Service</span>\n                    </a>\n                    and and receive three months advanced notice of 90+ space science, technology, engineering and mathematics events every month.\n                    <span class="st">\n                      <em></em>\n                    </span>\n                    <br style="font-weight: bold;" clear="none"></br>\n                    <span style="font-weight: bold;" class="st">\n                      <em></em>\n                    </span>\n                    <center>\n                      <form action="https://www.paypal.com/cgi-bin/webscr" method="post" enctype="application/x-www-form-urlencoded">\n                        <table>\n                          <tbody>\n                            <tr style="font-weight: bold;">\n                              <td rowspan="1" colspan="1">\n                                <input value="Space Conference News Subscription Payment Options" name="on0" type="hidden"></input>\n                                <span style="color: rgb(255, 255, 255);">...</span>\n                              </td>\n                            </tr>\n                            <tr>\n                              <td rowspan="1" colspan="1">\n                                <select name="os0">\n                                  <option value="One Month Subscription"></option>\n                                </select>\n                                One Month Subscription: $39.95 CAD - monthly\n                                <select>\n                                  <option value="One Year Subscription"></option>\n                                </select>\n                                One Year Subscription: $199.95 CAD - yearly\n                              </td>\n                            </tr>\n                          </tbody>\n                        </table>\n                        <input value="CAD" name="currency_code" type="hidden"></input>\n                        <input border="0" alt="PayPal - The safer, easier way to pay online!" name="submit" src="https://www.paypalobjects.com/en_US/i/btn/btn_buynowCC_LG.gif" type="image"></input>\n                        <img width="1" height="1" border="0" src="https://www.paypalobjects.com/en_US/i/scr/pixel.gif" alt=""></img>\n                      </form>\n                      <center></center>\n                      <span style="font-weight: bold;">The latest edition</span>\n                      , covering October, November and December 2012 is on sale now.\n                    </center>\n                  </center>\n                </div>\n                <div class="clear"></div>\n                <span class="widget-item-control">\n                  <span class="item-control blog-admin">\n                    <a title="Edit" target="configHTML2" onclick="return _WidgetManager._PopupConfig(document.getElementById(&quot;HTML2&quot;));" href="//www.blogger.com/rearrange?blogID=6618880&amp;widgetType=HTML&amp;widgetId=HTML2&amp;action=editWidget&amp;sectionId=main" class="quickedit" shape="rect">\n                      <img width="18" src="http://img1.blogblog.com/img/icon18_wrench_allbkg.png" height="18" alt=""></img>\n                    </a>\n                  </span>\n                </span>\n                <div class="clear"></div>\n              </div>\n            </div>\n          </div>\n          <div id="left-sidebar-wrap">\n            <div id="left-sidebar" class="sidebar section">\n              <div id="HTML3" class="widget HTML">\n                <h2 class="title">ShareThis</h2>\n                <div class="widget-content">\n                  <span id="st_finder"></span>\n                  <script src="http://w.sharethis.com/widget/stblogger2.js" type="text/javascript"></script>\n                  <script type="text/javascript">\n                    var switchTo5x=false;stBlogger2.init(&quot;http://w.sharethis.com/button/buttons.js&quot;, {&quot;sharethis&quot;:[&quot;&quot;,&quot;ShareThis&quot;,&quot;&quot;]} );var f = document.getElementById(&quot;st_finder&quot;);var c = f.parentNode.parentNode.childNodes;for (i=0;i&lt;c.length;i++) { try { c[i].style.display = &quot;none&quot;; } catch (err) {}}\n                  </script>\n                </div>\n                <div class="clear"></div>\n                <span class="widget-item-control">\n                  <span class="item-control blog-admin">\n                    <a title="Edit" target="configHTML3" onclick="return _WidgetManager._PopupConfig(document.getElementById(&quot;HTML3&quot;));" href="//www.blogger.com/rearrange?blogID=6618880&amp;widgetType=HTML&amp;widgetId=HTML3&amp;action=editWidget&amp;sectionId=left-sidebar" class="quickedit" shape="rect">\n                      <img width="18" src="http://img1.blogblog.com/img/icon18_wrench_allbkg.png" height="18" alt=""></img>\n                    </a>\n                  </span>\n                </span>\n                <div class="clear"></div>\n              </div>\n              <div id="CustomSearch1" class="widget CustomSearch">\n                <div class="widget-content">\n                  <div id="CustomSearch1_form">\n                    <span class="cse-status">Loading...</span>\n                  </div>\n                </div>\n                <style type="text/css">\n                  #uds-searchControl .gs-result .gs-title,\n      #uds-searchControl .gs-result .gs-title *,\n      #uds-searchControl .gsc-results .gsc-trailing-more-results,\n      #uds-searchControl .gsc-results .gsc-trailing-more-results * {\n        color:#0b5394;\n      }\n\n      #uds-searchControl .gs-result .gs-title a:visited,\n      #uds-searchControl .gs-result .gs-title a:visited * {\n        color:#6fa8dc;\n      }\n\n      #uds-searchControl .gs-relativePublishedDate,\n      #uds-searchControl .gs-publishedDate {\n        color: #999999;\n      }\n\n      #uds-searchControl .gs-result a.gs-visibleUrl,\n      #uds-searchControl .gs-result .gs-visibleUrl {\n        color: #cc6600;\n      }\n\n      #uds-searchControl .gsc-results {\n        border-color: #cccccc;\n        background-color: #ffffff;\n      }\n\n      #uds-searchControl .gsc-tabhActive {\n        border-color: #cccccc;\n        border-top-color: #cc6600;\n        background-color: #ffffff;\n        color: #333333;\n      }\n\n      #uds-searchControl .gsc-tabhInactive {\n        border-color: #cccccc;\n        background-color: transparent;\n        color: #0b5394;\n      }\n\n      #uds-searchClearResults {\n        border-color: #cccccc;\n      }\n\n      #uds-searchClearResults:hover {\n        border-color: #cc6600;\n      }\n\n      #uds-searchControl .gsc-cursor-page {\n        color: #0b5394;\n      }\n\n      #uds-searchControl .gsc-cursor-current-page {\n        color: #333333;\n      }\n                </style>\n                <div class="clear"></div>\n                <span class="widget-item-control">\n                  <span class="item-control blog-admin">\n                    <a \n                    title="Edit" target="configCustomSearch1" onclick="return _WidgetManager._PopupConfig(document.getElementById(&quot;CustomSearch1&quot;));" href="//www.blogger.com/rearrange?blogID=6618880&amp;widgetType=CustomSearch&amp;widgetId=CustomSearch1&amp;action=editWidget&amp;sectionId=left-sidebar" class="quickedit" shape="rect">\n                      <img width="18" src="http://img1.blogblog.com/img/icon18_wrench_allbkg.png" height="18" alt=""></img>\n</a>\n                  </span>\n                </span>\n                <div class="clear"></div>\n              </div>\n              <div id="Text1" class="widget Text">\n                <h2 class="title">Recent Useful Articles</h2>\n                <div class="widget-content">\n                  <a href="http://acuriousguy.blogspot.com/2011/04/two-billion-dollars-for-canadian-space.html" shape="rect">Two Billion Dollars for the Canadian Space Agency</a>\n                  - A budget primer.\n                  <br clear="none"></br>\n                  <a href="http://acuriousguy.blogspot.ca/2012/04/hard-truth-about-budget-and-canadian.html" shape="rect">\n                    <br clear="none"></br>\n                    The Hard Truth About the Budget and Canadian Space\n                  </a>\n                  - Reviews are mixed.\n                  <br clear="none"></br>\n                  <br clear="none"></br>\n                  <a href="http://acuriousguy.blogspot.ca/2012/04/global-space-industry-grows-41-over.html" shape="rect">Global Space Industry Grows 41% Over Five Years</a>\n                  - Faster than other sectors.\n                  <br clear="none"></br>\n                </div>\n                <div class="clear"></div>\n                <span class="widget-item-control">\n                  <span class="item-control blog-admin">\n                    <a title="Edit" target="configText1" onclick="return _WidgetManager._PopupConfig(document.getElementById(&quot;Text1&quot;));" href="//www.blogger.com/rearrange?blogID=6618880&amp;widgetType=Text&amp;widgetId=Text1&amp;action=editWidget&amp;sectionId=left-sidebar" class="quickedit" shape="rect">\n                      <img width="18" src="http://img1.blogblog.com/img/icon18_wrench_allbkg.png" height="18" alt=""></img>\n                    </a>\n                  </span>\n                </span>\n                <div class="clear"></div>\n              </div>\n              <div id="BlogList1" class="widget BlogList">\n                <h2 class="title">Blogs Being Tracked</h2>\n                <div class="widget-content">\n                  <div id="BlogList1_container" class="blog-list-container">\n                    <ul id="BlogList1_blogs">\n                      <li style="display: block;">\n                        <div class="blog-icon">\n                          <input value="http://21stcenturywaves.com/favicon.ico" type="hidden"></input>\n                        </div>\n                        <div class="blog-content">\n                          <div class="blog-title">\n                            <a target="_blank" href="http://21stcenturywaves.com" shape="rect"> 21st Century Waves</a>\n                          </div>\n                          <div class="item-content">\n                            <span class="item-title">\n                              <a target="_blank" href="http://21stcenturywaves.com/2012/09/30/the-napoleon-of-the-poles-and-our-future-in-space/" shape="rect"> The Napoleon of the Poles and Our Future in Space</a>\n                            </span>\n                            <div class="item-time"> 1 day ago </div>\n                          </div>\n                        </div>\n                        <div style="clear: both;"></div>\n                      </li>\n                      <li style="display: block;">\n                        <div class="blog-icon">\n                          <input value="http://www.aiac.ca/favicon.ico" type="hidden"></input>\n                        </div>\n                        <div class="blog-content">\n                          <div class="blog-title">\n                            <a target="_blank" href="http://www.aiac.ca/rss.ashx" shape="rect"> AIAC - Latest News</a>\n                          </div>\n                          <div class="item-content">\n                            <span class="item-title">\n                              <a target="_blank" href="http://www.aiac.ca/en/news.aspx?id=2427" shape="rect"> Statement from AIAC in response to the appointment of Tom Jenkins as Special Advisor to the Minister of Public Works</a>\n                            </span>\n                            <div class="item-time"> 4 days ago </div>\n                          </div>\n                        </div>\n                        <div style="clear: both;"></div>\n                      </li>\n                      <li style="display: block;">\n                        <div class="blog-icon">\n                          <input value="http://www.centauri-dreams.org/favicon.ico" type="hidden"></input>\n                        </div>\n                        <div class="blog-content">\n                          <div class="blog-title">\n                            <a target="_blank" href="http://www.centauri-dreams.org" shape="rect"> Centauri Dreams</a>\n                          </div>\n                          <div class="item-content">\n                            <span class="item-title">\n                              <a target="_blank" href="http://feedproxy.google.com/~r/centauri-dreams/eepu/~3/rvqK7IM4Yqk/" shape="rect"> Collier\xe2\x80\x99s: Gorgeous Art, Breathtaking Ideas</a>\n                            </span>\n                            <div class="item-time"> 2 hours ago </div>\n                          </div>\n                        </div>\n                        <div style="clear: both;"></div>\n                      </li>\n                      <li style="display: block;">\n                        <div class="blog-icon">\n                          <input value="http://spacecoalition.com/favicon.ico" type="hidden"></input>\n                        </div>\n                        <div class="blog-content">\n                          <div class="blog-title">\n                            <a target="_blank" href="http://spacecoalition.com" shape="rect"> Coalition for Space Exploration</a>\n                          </div>\n                          <div class="item-content">\n                            <span class="item-title">\n                              <a target="_blank" href="http://spacecoalition.com/newsroom/csextra-tuesday-october-2-2012" shape="rect"> CSExtra \xe2\x80\x93 Tuesday, October 2, 2012</a>\n                            </span>\n                            <div class="item-time"> 4 hours ago </div>\n                          </div>\n                        </div>\n                        <div style="clear: both;"></div>\n                      </li>\n                      <li style="display: block;">\n                        <div class="blog-icon">\n                          <input value="http://blogs.ottawacitizen.com/favicon.ico" type="hidden"></input>\n                        </div>\n                        <div class="blog-content">\n                          <div class="blog-title">\n                            <a target="_blank" href="http://blogs.ottawacitizen.com" shape="rect"> Defence Watch</a>\n                          </div>\n                          <div class="item-content">\n                            <span class="item-title">\n                              <a target="_blank" href="http://blogs.ottawacitizen.com/2012/09/27/defence-watch-is-on-assignment-posts-start-again-on-oct-6/" shape="rect"> Defence Watch Is On Assignment \xe2\x80\x93 Posts Start Again On Oct. 6</a>\n                            </span>\n                            <div class="item-time"> 5 days ago </div>\n                          </div>\n                        </div>\n                        <div style="clear: both;"></div>\n                      </li>\n                      <li style="display: block;">\n                        <div class="blog-icon">\n                          <input value="http://www.esa.int/favicon.ico" type="hidden"></input>\n                        </div>\n                        <div class="blog-content">\n                          <div class="blog-title">\n                            <a target="_blank" href="http://www.esa.int" shape="rect"> ESA Top News</a>\n                          </div>\n                          <div class="item-content">\n                            <span class="item-title">\n                              <a target="_blank" href="http://www.esa.int/esaCP/SEMILCERI7H_index_0.html" shape="rect"> A curious cold layer in the atmosphere of Venus</a>\n                            </span>\n                            <div class="item-time"> 1 day ago </div>\n                          </div>\n                        </div>\n                        <div style="clear: both;"></div>\n                      </li>\n                      <li style="display: block;">\n                        <div class="blog-icon">\n                          <input value="http://www.eurekalert.org/favicon.ico" type="hidden"></input>\n                        </div>\n                        <div class="blog-content">\n                          <div class="blog-title">\n                            <a target="_blank" href="http://www.eurekalert.org" shape="rect"> EurekAlert! - Business and Economics</a>\n                          </div>\n                          <div class="item-content">\n                            <span class="item-title">\n                              <a target="_blank" href="http://www.eurekalert.org/pub_releases/2012-10/r-rht100212.php" shape="rect"> Research!America honors trailblazers in health research advocacy</a>\n                            </span>\n                            <div class="item-time"> 12 hours ago </div>\n                          </div>\n                        </div>\n                        <div style="clear: both;"></div>\n                      </li>\n                      <li style="display: block;">\n                        <div class="blog-icon">\n                          <input value="http://evadot.com/favicon.ico" type="hidden"></input>\n                        </div>\n                        <div class="blog-content">\n                          <div class="blog-title">\n                            <a target="_blank" href="http://evadot.com/" shape="rect"> Evadot</a>\n                          </div>\n                          <div class="item-content">\n                            <span class="item-title">\n                              <a target="_blank" href="http://feedproxy.google.com/~r/Evadot/~3/H5srbqiXsiQ/" shape="rect"> Find a way or make one</a>\n                            </span>\n                            <div class="item-time"> 1 month ago </div>\n                          </div>\n                        </div>\n                        <div style="clear: both;"></div>\n                      </li>\n                      <li style="display: block;">\n                        <div class="blog-icon">\n                          <input value="http://www.exportlawblog.com/favicon.ico" type="hidden"></input>\n                        </div>\n                        <div class="blog-content">\n                          <div class="blog-title">\n                            <a target="_blank" href="http://www.exportlawblog.com" shape="rect"> Export Law Blog</a>\n                          </div>\n                          <div class="item-content">\n                            <span class="item-title">\n                              <a target="_blank" href="http://www.exportlawblog.com/archives/4402" shape="rect"> Brits Target Propofol Exports to U.S.</a>\n                            </span>\n                            <div class="item-time"> 5 days ago </div>\n                          </div>\n                        </div>\n                        <div style="clear: both;"></div>\n                      </li>\n                      <li style="display: block;">\n                        <div class="blog-icon">\n                          <input value="http://www.floridatoday.com/favicon.ico" type="hidden"></input>\n                        </div>\n                        <div class="blog-content">\n                          <div class="blog-title">\n                            <a target="_blank" href="http://www.floridatoday.com" shape="rect"> floridatoday</a>\n                          </div>\n                          <div class="item-content">\n                            <span class="item-title">\n                              <a target="_blank" href="http://www.floridatoday.com/article/20121001/SPACE/121001012" shape="rect"> Delta IV rocket prepped for Thursday launch</a>\n                            </span>\n                            <div class="item-time"> 1 day ago </div>\n                          </div>\n                        </div>\n                        <div style="clear: both;"></div>\n                      </li>\n                      <li style="display: block;">\n                        <div class="blog-icon">\n                          <input value="http://hacklab.to/favicon.ico" type="hidden"></input>\n                        </div>\n                        <div class="blog-content">\n                          <div class="blog-title">\n                            <a target="_blank" href="http://hacklab.to" shape="rect"> hacklab Toronto</a>\n                          </div>\n                          <div class="item-content">\n                            <span class="item-title">\n                              <a target="_blank" href="http://hacklab.to/archives/letting-the-magic-blue-smoke-out/" shape="rect"> Letting the magic blue smoke out.</a>\n                            </span>\n                            <div class="item-time"> 1 week ago </div>\n                          </div>\n                        </div>\n                        <div style="clear: both;"></div>\n                      </li>\n                      <li style="display: block;">\n                        <div class="blog-icon">\n                          <input value="http://www.flightglobal.com/favicon.ico" type="hidden"></input>\n                        </div>\n                        <div class="blog-content">\n                          <div class="blog-title">\n                            <a target="_blank" href="http://www.flightglobal.com/blogs/hyperbola/" shape="rect"> Hyperbola</a>\n                          </div>\n                          <div class="item-content">\n                            <span class="item-title">\n                              <a target="_blank" href="http://www.flightglobal.com/blogs/hyperbola/2012/09/mars-rover-curiosity-finds-smo.html" shape="rect"> Mars Curiosity Rover finds smooth round pebbles pointing to river erosion</a>\n                            </span>\n                            <div class="item-time"> 4 days ago </div>\n                          </div>\n                        </div>\n                        <div style="clear: both;"></div>\n                      </li>\n                      <li style="display: block;">\n                        <div class="blog-icon">\n                          <input value="http://ipinspace.com/favicon.ico" type="hidden"></input>\n                        </div>\n                        <div class="blog-content">\n                          <div class="blog-title">\n                            <a target="_blank" href="http://ipinspace.com" shape="rect"> IPinSpace</a>\n                          </div>\n                          <div class="item-content">\n                            <span class="item-title">\n                              <a target="_blank" href="http://ipinspace.com/2012/09/27/one-spark-event-may-ignite-your-space-startup/" shape="rect"> One Spark Event may Ignite your Space Startup</a>\n                            </span>\n                            <div class="item-time"> 5 days ago </div>\n                          </div>\n                        </div>\n                        <div style="clear: both;"></div>\n                      </li>\n                      <li style="display: block;">\n                        <div class="blog-icon">\n                          <input value="http://www.kentuckyspace.com/favicon.ico?option=com_content&amp;view=section&amp;id=7&amp;layout=blog&amp;Itemid=1" type="hidden"></input>\n                        </div>\n                        <div class="blog-content">\n                          <div class="blog-title">\n                            <a target="_blank" href="http://www.kentuckyspace.com/index.php?option=com_content&amp;view=section&amp;id=7&amp;layout=blog&amp;Itemid=1" shape="rect"> Kentucky Space Blog</a>\n                          </div>\n                          <div class="item-content">\n                            <span class="item-title">\n                              <a target="_blank" href="http://www.kentuckyspace.com/index.php?option=com_content&amp;view=article&amp;id=499:improvements-to-standard-cubesat-launcher-qmore-complex-missionq&amp;catid=45:kentuckyspaceblog&amp;Itemid=1" shape="rect">\n                                CubeSat launcher improvement: &quot;more complex missions&quot;\n                              </a>\n                            </span>\n                            <div class="item-time"> 1 day ago </div>\n                          </div>\n                        </div>\n                        <div style="clear: both;"></div>\n                      </li>\n                      <li style="display: block;">\n                        <div class="blog-icon">\n                          <input value="http://www.marsdd.com/favicon.ico" type="hidden"></input>\n                        </div>\n                        <div class="blog-content">\n                          <div class="blog-title">\n                            <a target="_blank" href="http://www.marsdd.com" shape="rect"> MaRS Discovery District</a>\n                          </div>\n                          <div class="item-content">\n                            <span class="item-title">\n                              <a target="_blank" href="http://www.marsdd.com/2012/10/02/sir-ken-robinson-brings-his-insight-and-passion-to-mars/" shape="rect"> Sir Ken Robinson brings his insight and passion to MaRS</a>\n                            </span>\n                            <div class="item-time"> 3 hours ago </div>\n                          </div>\n                        </div>\n                        <div style="clear: both;"></div>\n                      </li>\n                      <li style="display: block;">\n                        <div class="blog-icon">\n                          <input value="http://moonandback.com/favicon.ico" type="hidden"></input>\n                        </div>\n                        <div class="blog-content">\n                          <div class="blog-title">\n                            <a target="_blank" href="http://moonandback.com" shape="rect"> Moonandback</a>\n                          </div>\n                          <div class="item-content">\n                            <span class="item-title">\n                              <a target="_blank" href="http://moonandback.com/2012/10/02/jeff-krukin-the-newspace-industry-moonandback-interview/" shape="rect"> Jeff Krukin \xe2\x80\x94 The NewSpace Industry | Moonandback Interview</a>\n                            </span>\n                            <div class="item-time"> 1 hour ago </div>\n                          </div>\n                        </div>\n                        <div style="clear: both;"></div>\n                      </li>\n                      <li style="display: block;">\n                        <div class="blog-icon">\n                          <input value="http://cosmiclog.nbcnews.com/favicon.ico" type="hidden"></input>\n                        </div>\n                        <div class="blog-content">\n                          <div class="blog-title">\n                            <a target="_blank" href="http://cosmiclog.nbcnews.com/" shape="rect"> MSNBC Cosmic Log</a>\n                          </div>\n                          <div class="item-content">\n                            <span class="item-title">\n                              <a target="_blank" href="http://cosmiclog.nbcnews.com/_news/2012/10/01/14174251-postage-stamps-celebrate-the-planet" shape="rect"> Postage stamps celebrate the planet</a>\n                            </span>\n                            <div class="item-time"> 14 hours ago </div>\n                          </div>\n                        </div>\n                        <div style="clear: both;"></div>\n                      </li>\n                      <li style="display: block;">\n                        <div class="blog-icon">\n                          <input value="http://nasawatch.com/favicon.ico" type="hidden"></input>\n                        </div>\n                        <div class="blog-content">\n                          <div class="blog-title">\n                            <a target="_blank" href="http://nasawatch.com/" shape="rect"> NASA Watch</a>\n                          </div>\n                          <div class="item-content">\n                            <span class="item-title">\n                              <a target="_blank" href="http://feedproxy.google.com/~r/nasawatch/Aekt/~3/p74il2GB7MU/orbital-and-spa.html" shape="rect"> Orbital and SpaceX Make Progress</a>\n                            </span>\n                            <div class="item-time"> 12 hours ago </div>\n                          </div>\n                        </div>\n                        <div style="clear: both;"></div>\n                      </li>\n                      <li style="display: block;">\n                        <div class="blog-icon">\n                          <input value="http://www.nasaspaceflight.com/favicon.ico" type="hidden"></input>\n                        </div>\n                        <div class="blog-content">\n                          <div class="blog-title">\n                            <a target="_blank" href="http://www.nasaspaceflight.com" shape="rect"> NASASpaceFlight.com</a>\n                          </div>\n                          <div class="item-content">\n                            <span class="item-title">\n                              <a target="_blank" href="http://www.nasaspaceflight.com/2012/10/orbitals-antares-closing-debut-launch-pad-arrival/" shape="rect"> Orbital\xe2\x80\x99s Antares closing in on debut launch following pad arrival</a>\n                            </span>\n                            <div class="item-time"> 19 hours ago </div>\n                          </div>\n                        </div>\n                        <div style="clear: both;"></div>\n                      </li>\n                      <li style="display: block;">\n                        <div class="blog-icon">\n                          <input value="http://www.scoop.it/favicon.ico" type="hidden"></input>\n                        </div>\n                        <div class="blog-content">\n                          <div class="blog-title">\n                            <a target="_blank" href="http://www.scoop.it/t/new-space-a-new-era-in-space-exploration" shape="rect"> New Space from Scoopit</a>\n                          </div>\n                          <div class="item-content">\n                            <span class="item-title">\n                              <a target="_blank" href="http://www.scoop.it/t/new-space-a-new-era-in-space-exploration/p/2851920777/jeff-krukin-nasa-love-affair-moonandback" shape="rect"> Jeff Krukin -- NASA Love Affair | Moonandback</a>\n                            </span>\n                            <div class="item-time"> 13 hours ago </div>\n                          </div>\n                        </div>\n                        <div style="clear: both;"></div>\n                      </li>\n                      <li style="display: block;">\n                        <div class="blog-icon">\n                          <input value="http://www.newspacejournal.com/favicon.ico" type="hidden"></input>\n                        </div>\n                        <div class="blog-content">\n                          <div class="blog-title">\n                            <a target="_blank" href="http://www.newspacejournal.com" shape="rect"> NewSpace Journal</a>\n                          </div>\n                          <div class="item-content">\n                            <span class="item-title">\n                              <a target="_blank" href="http://www.newspacejournal.com/2012/09/30/rowlings-curious-cosmic-vacancy/" shape="rect"> Rowling\xe2\x80\x99s curious cosmic vacancy</a>\n                            </span>\n                            <div class="item-time"> 2 days ago </div>\n                          </div>\n                        </div>\n                        <div style="clear: both;"></div>\n                      </li>\n                      <li style="display: block;">\n                        <div class="blog-icon">\n                          <input value="http://newspacewatch.com/favicon.ico" type="hidden"></input>\n                        </div>\n                        <div class="blog-content">\n                          <div class="blog-title">\n                            <a target="_blank" href="http://newspacewatch.com/blog/" shape="rect"> NewSpace Watch</a>\n                          </div>\n                          <div class="item-content">\n                            <span class="item-title">\n                              <a target="_blank" href="http://www.newspacewatch.com/articles/october-2012-issue-of-thruster-newspace-global039s-monthly-market-tracking-report.html" shape="rect"> October 2012 Issue of Thruster - NewSpace Global\'s Monthly Market Tracking Report</a>\n                            </span>\n                            <div class="item-time"> 2 hours ago </div>\n                          </div>\n                        </div>\n                        <div style="clear: both;"></div>\n                      </li>\n                      <li style="display: block;">\n                        <div class="blog-icon">\n                          <input value="http://www.planetary.org/favicon.ico" type="hidden"></input>\n                        </div>\n                        <div class="blog-content">\n                          <div class="blog-title">\n                            <a target="_blank" href="http://www.planetary.org" shape="rect"> Planetary Society Blog</a>\n                          </div>\n                          <div class="item-content">\n                            <span class="item-title">\n                              <a target="_blank" href="http://www.planetary.org/blogs/emily-lakdawalla/2012/10011532-glenelg-panorama-sol54.html" shape="rect"> Beautiful rocks ahead at Glenelg, but first, Curiosity must dig in the sand</a>\n                            </span>\n                            <div class="item-time"> 17 hours ago </div>\n                          </div>\n                        </div>\n                        <div style="clear: both;"></div>\n                      </li>\n                      <li style="display: block;">\n                        <div class="blog-icon">\n                          <input value="http://www.researchmoneyinc.com/favicon.ico" type="hidden"></input>\n                        </div>\n                        <div class="blog-content">\n                          <div class="blog-title">\n                            <a target="_blank" href="http://www.researchmoneyinc.com/" shape="rect"> RE$EARCH MONEY</a>\n                          </div>\n                          <div class="item-content">\n                            <span class="item-title">\n                              <a target="_blank" href="http://www.researchmoneyinc.com/display.php?issue=26-14&amp;id=15567" shape="rect"> Opinion Leader: Dr Daniel Woolf, Principal and Vice-Chancellor, Queen\'s University</a>\n                            </span>\n                            <div class="item-time"> 1 week ago </div>\n                          </div>\n                        </div>\n                        <div style="clear: both;"></div>\n                      </li>\n                      <li style="display: block;">\n                        <div class="blog-icon">\n                          <input value="http://www.reddit.com/favicon.ico" type="hidden"></input>\n                        </div>\n                        <div class="blog-content">\n                          <div class="blog-title">\n                            <a target="_blank" href="http://www.reddit.com/r/space/" shape="rect"> Reddit Space News</a>\n                          </div>\n                          <div class="item-content">\n                            <span class="item-title">\n                              <a target="_blank" href="http://www.reddit.com/r/space/comments/10ruky/spectacular_view_of_atv3_iss_in_orbit_undocked_on/" shape="rect"> Spectacular view of ATV-3 &amp; ISS in orbit (undocked on the 28th sept. and impact forecast on the 3rd oct.)</a>\n                            </span>\n                            <div class="item-time"> 21 hours ago </div>\n                          </div>\n                        </div>\n                        <div style="clear: both;"></div>\n                      </li>\n                      <li style="display: block;">\n                        <div class="blog-icon">\n                          <input value="http://rescommunis.olemiss.edu/favicon.ico" type="hidden"></input>\n                        </div>\n                        <div class="blog-content">\n                          <div class="blog-title">\n                            <a target="_blank" href="http://rescommunis.olemiss.edu" shape="rect"> Res Communis</a>\n                          </div>\n                          <div class="item-content">\n                            <span class="item-title">\n                              <a target="_blank" href="http://rescommunis.olemiss.edu/2012/10/02/iac-2012-naples-italy/?utm_source=rss&amp;utm_medium=rss&amp;utm_campaign=iac-2012-naples-italy" shape="rect"> IAC 2012, Naples, Italy</a>\n                            </span>\n                            <div class="item-time"> 8 hours ago </div>\n                          </div>\n                        </div>\n                        <div style="clear: both;"></div>\n                      </li>\n                      <li style="display: block;">\n                        <div class="blog-icon">\n                          <input value="http://spaceboomerang.blogspot.com/favicon.ico" type="hidden"></input>\n                        </div>\n                        <div class="blog-content">\n                          <div class="blog-title">\n                            <a target="_blank" href="http://spaceboomerang.blogspot.com/" shape="rect"> Space Boomerang</a>\n                          </div>\n                          <div class="item-content">\n                            <span class="item-title">\n                              <a target="_blank" href="http://spaceboomerang.blogspot.com/2012/10/australian-space-policy-to-be-called.html" shape="rect"> Australian Space Policy to be called &quot;Satellite Utilisation Policy&quot;</a>\n                            </span>\n                            <div class="item-time"> 3 hours ago </div>\n                          </div>\n                        </div>\n                        <div style="clear: both;"></div>\n                      </li>\n                      <li style="display: block;">\n                        <div class="blog-icon">\n                          <input value="http://spaceconferencenews.blogspot.com/favicon.ico" type="hidden"></input>\n                        </div>\n                        <div class="blog-content">\n                          <div class="blog-title">\n                            <a target="_blank" href="http://spaceconferencenews.blogspot.com/" shape="rect"> Space Conference News</a>\n                          </div>\n                          <div class="item-content">\n                            <span class="item-title">\n                              <a target="_blank" href="http://spaceconferencenews.blogspot.com/2012/09/upcoming-events-for-october-2012.html" shape="rect"> Upcoming Events for October 2012</a>\n                            </span>\n                            <div class="item-time"> 2 weeks ago </div>\n                          </div>\n                        </div>\n                        <div style="clear: both;"></div>\n                      </li>\n                      <li style="display: block;">\n                        <div class="blog-icon">\n                          <input value="http://www.spacepolicyonline.com/favicon.ico" type="hidden"></input>\n                        </div>\n                        <div class="blog-content">\n                          <div class="blog-title">\n                            <a target="_blank" href="http://www.spacepolicyonline.com/" shape="rect"> Space Policy Online</a>\n                          </div>\n                          <div class="item-content">\n                            <span class="item-title">\n                              <a target="_blank" href="http://feedproxy.google.com/~r/Spacepolicyonline/~3/uB8NjCG2Bmo/orbitals-antares-rolls-out-to-pad-as-nasa-celebrates-54th-birthday" shape="rect"> Orbital\'s Antares Rolls Out to Pad as NASA Celebrates 54th Birthday</a>\n                            </span>\n                            <div class="item-time"> 1 day ago </div>\n                          </div>\n                        </div>\n                        <div style="clear: both;"></div>\n                      </li>\n                      <li style="display: block;">\n                        <div class="blog-icon">\n                          <input value="http://www.spacepolitics.com/favicon.ico" type="hidden"></input>\n                        </div>\n                        <div class="blog-content">\n                          <div class="blog-title">\n                            <a target="_blank" href="http://www.spacepolitics.com" shape="rect"> Space Politics</a>\n                          </div>\n                          <div class="item-content">\n                            <span class="item-title">\n                              <a target="_blank" href="http://www.spacepolitics.com/2012/10/02/okeefe-president-still-defining-nasas-mission/?utm_source=rss&amp;utm_medium=rss&amp;utm_campaign=okeefe-president-still-defining-nasas-mission" shape="rect"> O\xe2\x80\x99Keefe: president still defining NASA\xe2\x80\x99s mission</a>\n                            </span>\n                            <div class="item-time"> 2 hours ago </div>\n                          </div>\n                        </div>\n                        <div style="clear: both;"></div>\n                      </li>\n                      <li style="display: block;">\n                        <div class="blog-icon">\n                          <input value="http://spaceprizes.blogspot.com/favicon.ico" type="hidden"></input>\n                        </div>\n                        <div class="blog-content">\n                          <div class="blog-title">\n                            <a target="_blank" href="http://spaceprizes.blogspot.com/" shape="rect"> Space Prizes</a>\n                          </div>\n                          <div class="item-content">\n                            <span class="item-title">\n                              <a target="_blank" href="http://spaceprizes.blogspot.com/2012/10/space-prize-roundup-skybox-imaging-and.html" shape="rect"> Space Prize Roundup: Skybox Imaging and Conrad Foudation, UAV Outback Challenge, Reach for the Stars Rockets, More</a>\n                            </span>\n                            <div class="item-time"> 13 hours ago </div>\n                          </div>\n                        </div>\n                        <div style="clear: both;"></div>\n                      </li>\n                      <li style="display: block;">\n                        <div class="blog-icon">\n                          <input value="http://www.space.com/favicon.ico" type="hidden"></input>\n                        </div>\n                        <div class="blog-content">\n                          <div class="blog-title">\n                            <a target="_blank" href="http://www.space.com/" shape="rect"> SPACE.com</a>\n                          </div>\n                          <div class="item-content">\n                            <span class="item-title">\n                              <a target="_blank" href="http://www.space.com/17857-shuttle-atlantis-transport-visitors-center.html" shape="rect"> Journey with Atlantis: Public Invited to Last Space Shuttle Delivery</a>\n                            </span>\n                            <div class="item-time"> 33 minutes ago </div>\n                          </div>\n                        </div>\n                        <div style="clear: both;"></div>\n                      </li>\n                      <li style="display: block;">\n                        <div class="blog-icon">\n                          <input value="http://www.spacedaily.com/favicon.ico" type="hidden"></input>\n                        </div>\n                        <div class="blog-content">\n                          <div class="blog-title">\n                            <a target="_blank" href="http://www.spacedaily.com/index.html" shape="rect"> SpaceDaily.Com</a>\n                          </div>\n                          <div class="item-content">\n                            <span class="item-title">\n                              <a target="_blank" href="http://www.spacedaily.com/reports/Measuring_the_universes_exit_door_999.html" shape="rect"> Measuring the universe\'s \'exit door\'</a>\n                            </span>\n                            <div class="item-time"> 9 hours ago </div>\n                          </div>\n                        </div>\n                        <div style="clear: both;"></div>\n                      </li>\n                      <li style="display: block;">\n                        <div class="blog-icon">\n                          <input value="http://spaceports.blogspot.com/favicon.ico" type="hidden"></input>\n                        </div>\n                        <div class="blog-content">\n                          <div class="blog-title">\n                            <a target="_blank" href="http://spaceports.blogspot.com/" shape="rect"> Spaceports</a>\n                          </div>\n                          <div class="item-content">\n                            <span class="item-title">\n                              <a target="_blank" href="http://feedproxy.google.com/~r/Spaceports/~3/3LPq9PfFheg/apply-now-miner-job-opportunities.html" shape="rect"> APPLY NOW: Miner Job Opportunities</a>\n                            </span>\n                            <div class="item-time"> 1 hour ago </div>\n                          </div>\n                        </div>\n                        <div style="clear: both;"></div>\n                      </li>\n                      <li style="display: block;">\n                        <div class="blog-icon">\n                          <input value="http://spaceref.ca/favicon.ico" type="hidden"></input>\n                        </div>\n                        <div class="blog-content">\n                          <div class="blog-title">\n                            <a target="_blank" href="http://spaceref.ca/" shape="rect"> SpaceRef Canada</a>\n                          </div>\n                          <div class="item-content">\n                            <span class="item-title">\n                              <a target="_blank" href="http://feedproxy.google.com/~r/SpacerefCanada/~3/JmDRVxiB_I0/next-generation-canadarms-unveiled-at-macdonald-dettwiler-facility-in-brampton.html" shape="rect"> Next Generation Canadarms Unveiled at MacDonald Dettwiler Facility in Brampton</a>\n                            </span>\n                            <div class="item-time"> 4 days ago </div>\n                          </div>\n                        </div>\n                        <div style="clear: both;"></div>\n                      </li>\n                      <li style="display: block;">\n                        <div class="blog-icon">\n                          <input value="http://blog.sstl.co.uk/favicon.ico" type="hidden"></input>\n                        </div>\n                        <div class="blog-content">\n                          <div class="blog-title">\n                            <a target="_blank" href="http://blog.sstl.co.uk/" shape="rect"> Surry Satellite Space blog</a>\n                          </div>\n                          <div class="item-content">\n                            <span class="item-title">\n                              <a target="_blank" href="http://feedproxy.google.com/~r/SpaceBlog/~3/5X18USCYLTU/428-SSTL-showcases-innovation-at-the-IAC.html" shape="rect"> SSTL showcases innovation at the IAC</a>\n                            </span>\n                            <div class="item-time"> 5 days ago </div>\n                          </div>\n                        </div>\n                        <div style="clear: both;"></div>\n                      </li>\n                      <li style="display: block;">\n                        <div class="blog-icon">\n                          <input value="http://www.talkingspaceonline.com/favicon.ico" type="hidden"></input>\n                        </div>\n                        <div class="blog-content">\n                          <div class="blog-title">\n                            <a target="_blank" href="http://www.talkingspaceonline.com/home/" shape="rect"> Talking Space Online</a>\n                          </div>\n                          <div class="item-content">\n                            <span class="item-title">\n                              <a target="_blank" href="http://www.talkingspaceonline.com/home/episode-430-my-science-in-space-ready-set-go.html" shape="rect"> Episode 430: My Science in Space, Ready, Set, Go!</a>\n                            </span>\n                            <div class="item-time"> 3 days ago </div>\n                          </div>\n                        </div>\n                        <div style="clear: both;"></div>\n                      </li>\n                      <li style="display: block;">\n                        <div class="blog-icon">\n                          <input value="http://teamphoenicia.blogspot.com/favicon.ico" type="hidden"></input>\n                        </div>\n                        <div class="blog-content">\n                          <div class="blog-title">\n                            <a target="_blank" href="http://teamphoenicia.blogspot.com/" shape="rect"> Team Phoenicia</a>\n                          </div>\n                          <div class="item-content">\n                            <span class="item-title">\n                              <a target="_blank" href="http://teamphoenicia.blogspot.com/2012/09/3rd-annual-team-phoenicia-nanosat.html" shape="rect"> 3rd Annual Team Phoenicia Nanosat Launcher Seminar: Registration Now Open</a>\n                            </span>\n                            <div class="item-time"> 1 week ago </div>\n                          </div>\n                        </div>\n                        <div style="clear: both;"></div>\n                      </li>\n                      <li style="display: block;">\n                        <div class="blog-icon">\n                          <input value="http://www.thenightskyguy.com/favicon.ico" type="hidden"></input>\n                        </div>\n                        <div class="blog-content">\n                          <div class="blog-title">\n                            <a target="_blank" href="http://www.thenightskyguy.com" shape="rect"> The Night Sky Guy</a>\n                          </div>\n                          <div class="item-content">\n                            <span class="item-title">\n                              <a target="_blank" href="http://www.thenightskyguy.com/?p=3595" shape="rect"> Giant Asteroid Rich in Hydrogen</a>\n                            </span>\n                            <div class="item-time"> 1 week ago </div>\n                          </div>\n                        </div>\n                        <div style="clear: both;"></div>\n                      </li>\n                      <li style="display: block;">\n                        <div class="blog-icon">\n                          <input value="http://blogs.airspacemag.com/favicon.ico" type="hidden"></input>\n                        </div>\n                        <div class="blog-content">\n                          <div class="blog-title">\n                            <a target="_blank" href="http://blogs.airspacemag.com/moon" shape="rect"> The Once and Future Moon</a>\n                          </div>\n                          <div class="item-content">\n                            <span class="item-title">\n                              <a target="_blank" href="http://blogs.airspacemag.com/moon/2012/09/hit-and-run-science/" shape="rect"> Hit-and-Run Science</a>\n                            </span>\n                            <div class="item-time"> 3 days ago </div>\n                          </div>\n                        </div>\n                        <div style="clear: both;"></div>\n                      </li>\n                      <li style="display: block;">\n                        <div class="blog-icon">\n                          <input value="http://starspotpodcast.com/favicon.ico" type="hidden"></input>\n                        </div>\n                        <div class="blog-content">\n                          <div class="blog-title">\n                            <a target="_blank" href="http://starspotpodcast.com" shape="rect"> The Star Spot</a>\n                          </div>\n                          <div class="item-content">\n                            <span class="item-title">\n                              <a target="_blank" href="http://starspotpodcast.com/2012/09/21/ancient-aliens-astrology-pseudoatronomy-guy-harrison/" shape="rect"> Episode 13: Ancient Aliens, Astrology, and Pseudoatronomy, with Guy P. Harrison</a>\n                            </span>\n                            <div class="item-time"> 1 week ago </div>\n                          </div>\n                        </div>\n                        <div style="clear: both;"></div>\n                      </li>\n                      <li style="display: block;">\n                        <div class="blog-icon">\n                          <input value="http://www.rocketeers.co.uk/favicon.ico" type="hidden"></input>\n                        </div>\n                        <div class="blog-content">\n                          <div class="blog-title">\n                            <a target="_blank" href="http://www.rocketeers.co.uk" shape="rect"> UK Rocketeers</a>\n                          </div>\n                          <div class="item-content">\n                            <span class="item-title">\n                              <a target="_blank" href="http://www.rocketeers.co.uk/node/2446" shape="rect"> High-altitude bioprospecting</a>\n                            </span>\n                            <div class="item-time"> 3 days ago </div>\n                          </div>\n                        </div>\n                        <div style="clear: both;"></div>\n                      </li>\n                      <li style="display: block;">\n                        <div class="blog-icon">\n                          <input value="http://feeds2.feedburner.com/favicon.ico" type="hidden"></input>\n                        </div>\n                        <div class="blog-content">\n                          <div class="blog-title">\n                            <a target="_blank" href="http://feeds2.feedburner.com/universityaffairs" shape="rect"> University Affairs</a>\n                          </div>\n                          <div class="item-content">\n                            <span class="item-title">\n                              <a target="_blank" href="http://feedproxy.google.com/~r/UniversityAffairs/~3/JAUAWZMSv3Q/nl-desire2learn-business-attraction-1001.html" shape="rect"> E-learning company gets $3.5 million to set up in N.L.</a>\n                            </span>\n                            <div class="item-time"> 9 hours ago </div>\n                          </div>\n                        </div>\n                        <div style="clear: both;"></div>\n                      </li>\n                      <li style="display: block;">\n                        <div class="blog-icon">\n                          <input value="http://www.urthecast.com/favicon.ico" type="hidden"></input>\n                        </div>\n                        <div class="blog-content">\n                          <div class="blog-title">\n                            <a target="_blank" href="http://www.urthecast.com/blog" shape="rect"> UrtheCast</a>\n                          </div>\n                          <div class="item-content">\n                            <span class="item-title">\n                              <a target="_blank" href="http://www.urthecast.com/blog/environment/uns-earth-watch-monitoring-disasters-from-space/" shape="rect"> UN\xe2\x80\x99s Earth Watch: Monitoring Disasters from Space</a>\n                            </span>\n                            <div class="item-time"> 17 hours ago </div>\n                          </div>\n                        </div>\n                        <div style="clear: both;"></div>\n                      </li>\n                    </ul>\n                    <div class="clear"></div>\n                    <span class="widget-item-control">\n                      <span class="item-control blog-admin">\n                        <a \n                        title="Edit" target="configBlogList1" onclick="return _WidgetManager._PopupConfig(document.getElementById(&quot;BlogList1&quot;));" href="//www.blogger.com/rearrange?blogID=6618880&amp;widgetType=BlogList&amp;widgetId=BlogList1&amp;action=editWidget&amp;sectionId=left-sidebar" class="quickedit" shape="rect">\n                          <img width="18" src="http://img1.blogblog.com/img/icon18_wrench_allbkg.png" height="18" alt=""></img>\n</a>\n                      </span>\n                    </span>\n                    <div class="clear"></div>\n                  </div>\n                </div>\n              </div>\n            </div>\n          </div>\n          <div id="sidebar-wrapper">\n            <div id="sidebar" class="sidebar section">\n              <div id="Image2" class="widget Image">\n                <div class="widget-content">\n                  <a href="http://spaceconferencenews.blogspot.com/" shape="rect">\n                    <img width="220" src="http://3.bp.blogspot.com/-pdz7V7xYK4U/TlHGMPY3FZI/AAAAAAAAA50/rQ6xm4eZSDo/s1600/UPCOMING_EVENTS.jpg" height="81" alt="" id="Image2_img"></img>\n                  </a>\n                  <br clear="none"></br>\n                  <span class="caption">For the comprehensive list of 90+ upcoming STEM focused conferences in October 2012, check out the Space Conference News blog by clicking on the graphic above.</span>\n                </div>\n                <div class="clear"></div>\n                <span class="widget-item-control">\n                  <span class="item-control blog-admin">\n                    <a title="Edit" target="configImage2" onclick="return _WidgetManager._PopupConfig(document.getElementById(&quot;Image2&quot;));" href="//www.blogger.com/rearrange?blogID=6618880&amp;widgetType=Image&amp;widgetId=Image2&amp;action=editWidget&amp;sectionId=sidebar" class="quickedit" shape="rect">\n                      <img width="18" src="http://img1.blogblog.com/img/icon18_wrench_allbkg.png" height="18" alt=""></img>\n                    </a>\n                  </span>\n                </span>\n                <div class="clear"></div>\n              </div>\n              <div id="HTML4" class="widget HTML">\n                <div class="widget-content">\n                  <iframe width="220" height="250" src="http://www.scoop.it/t/the-commercial-space-blog/js?format=square&amp;numberOfPosts=7&amp;title=More+Space+News&amp;speed=5&amp;mode=normal&amp;width=220" scrolling="no" frameborder="0" align="middle"></iframe>\n                </div>\n                <div class="clear"></div>\n                <span class="widget-item-control">\n                  <span class="item-control blog-admin">\n                    <a title="Edit" target="configHTML4" onclick="return _WidgetManager._PopupConfig(document.getElementById(&quot;HTML4&quot;));" href="//www.blogger.com/rearrange?blogID=6618880&amp;widgetType=HTML&amp;widgetId=HTML4&amp;action=editWidget&amp;sectionId=sidebar" class="quickedit" shape="rect">\n                      <img width="18" src="http://img1.blogblog.com/img/icon18_wrench_allbkg.png" height="18" alt=""></img>\n                    </a>\n                  </span>\n                </span>\n                <div class="clear"></div>\n              </div>\n              <div id="HTML1" class="widget HTML">\n                <div class="widget-content">\n                  <script src="http://widgets.twimg.com/j/2/widget.js" charset="utf-8"></script>\n                  <script>\n                    new TWTR.Widget({\n  version: 2,\n  type: \'profile\',\n  rpp: 14,\n  interval: 30000,\n  width: 220,\n  height: 400,\n  theme: {\n    shell: {\n      background: \'#ababab\',\n      color: \'#ffffff\'\n    },\n    tweets: {\n      background: \'#ffffff\',\n      color: \'#262626\',\n      links: \'#545bde\'\n    }\n  },\n  features: {\n    scrollbar: true,\n    loop: false,\n    live: false,\n    behavior: \'all\'\n  }\n}).render().setUser(\'acuriousguy\').start();\n                  </script>\n                </div>\n                <div class="clear"></div>\n                <span class="widget-item-control">\n                  <span class="item-control blog-admin">\n                    <a title="Edit" target="configHTML1" onclick="return _WidgetManager._PopupConfig(document.getElementById(&quot;HTML1&quot;));" href="//www.blogger.com/rearrange?blogID=6618880&amp;widgetType=HTML&amp;widgetId=HTML1&amp;action=editWidget&amp;sectionId=sidebar" class="quickedit" shape="rect">\n                      <img width="18" src="http://img1.blogblog.com/img/icon18_wrench_allbkg.png" height="18" alt=""></img>\n                    </a>\n                  </span>\n                </span>\n                <div class="clear"></div>\n              </div>\n              <div id="BlogArchive1" class="widget BlogArchive">\n                <h2>Archived Posts</h2>\n                <div class="widget-content">\n                  <div id="ArchiveList">\n                    <div id="BlogArchive1_ArchiveList">\n                      <ul class="hierarchy">\n                        <li class="archivedate expanded">\n                          <a href="javascript:void(0)" class="toggle" shape="rect">\n                            <span class="zippy toggle-open">\xe2\x96\xbc\xc2\xa0</span>\n                          </a>\n                          <a href="http://acuriousguy.blogspot.com/search?updated-min=2012-01-01T00:00:00-08:00&amp;updated-max=2013-01-01T00:00:00-08:00&amp;max-results=50" class="post-count-link" shape="rect">2012</a>\n                          <span dir="ltr" class="post-count">(73)</span>\n                          <ul class="hierarchy">\n                            <li class="archivedate collapsed">\n                              <a href="javascript:void(0)" class="toggle" shape="rect">\n                                <span class="zippy"> \xe2\x96\xba\xc2\xa0 </span>\n                              </a>\n                              <a href="http://acuriousguy.blogspot.com/2012_10_01_archive.html" class="post-count-link" shape="rect">October</a>\n                              <span dir="ltr" class="post-count">(1)</span>\n                            </li>\n                          </ul>\n                          <ul class="hierarchy">\n                            <li class="archivedate collapsed">\n                              <a href="javascript:void(0)" class="toggle" shape="rect">\n                                <span class="zippy"> \xe2\x96\xba\xc2\xa0 </span>\n                              </a>\n                              <a href="http://acuriousguy.blogspot.com/2012_09_01_archive.html" class="post-count-link" shape="rect">September</a>\n                              <span dir="ltr" class="post-count">(9)</span>\n                            </li>\n                          </ul>\n                          <ul class="hierarchy">\n                            <li class="archivedate collapsed">\n                              <a href="javascript:void(0)" class="toggle" shape="rect">\n                                <span class="zippy"> \xe2\x96\xba\xc2\xa0 </span>\n                              </a>\n                              <a href="http://acuriousguy.blogspot.com/2012_08_01_archive.html" class="post-count-link" shape="rect">August</a>\n                              <span dir="ltr" class="post-count">(6)</span>\n                            </li>\n                          </ul>\n                          <ul class="hierarchy">\n                            <li class="archivedate collapsed">\n                              <a href="javascript:void(0)" class="toggle" shape="rect">\n                                <span class="zippy"> \xe2\x96\xba\xc2\xa0 </span>\n                              </a>\n                              <a href="http://acuriousguy.blogspot.com/2012_07_01_archive.html" class="post-count-link" shape="rect">July</a>\n                              <span dir="ltr" class="post-count">(3)</span>\n                            </li>\n                          </ul>\n                          <ul class="hierarchy">\n                            <li class="archivedate expanded">\n                              <a href="javascript:void(0)" class="toggle" shape="rect">\n                                <span class="zippy toggle-open">\xe2\x96\xbc\xc2\xa0</span>\n                              </a>\n                              <a href="http://acuriousguy.blogspot.com/2012_06_01_archive.html" class="post-count-link" shape="rect">June</a>\n                              <span dir="ltr" class="post-count">(9)</span>\n                              <ul class="posts">\n                                <li>\n                                  <a href="http://acuriousguy.blogspot.com/2012/06/macdonald-dettwiler-buys-space-systems.html" shape="rect">MacDonald Dettwiler buys Space Systems Loral for $...</a>\n                                </li>\n                                <li>\n                                  <a href="http://acuriousguy.blogspot.com/2012/06/five-canadian-newspace-companies-to.html" shape="rect">Five Canadian NewSpace Companies to Watch</a>\n                                </li>\n                                <li>\n                                  <a href="http://acuriousguy.blogspot.com/2012/06/jerry-pournelle-codominium-and-itar.html" shape="rect">Jerry Pournelle, the CoDominium and ITAR Policy</a>\n                                </li>\n                                <li>\n                                  <a href="http://acuriousguy.blogspot.com/2012/06/timmins-ballooning-french-and-lots-of.html" shape="rect">Timmins, Ballooning, the French and Lots of Hot Ai...</a>\n                                </li>\n                                <li>\n                                  <a href="http://acuriousguy.blogspot.com/2012/06/canadian-space-agency-pulling-financial.html" shape="rect">Canadian Space Agency &quot;Pulling Financial Support&quot; ...</a>\n                                </li>\n                                <li>\n                                  <a href="http://acuriousguy.blogspot.com/2012/06/requiem-for-heavyweight-rocketdyne.html" shape="rect">Requiem for a Heavyweight Rocketdyne</a>\n                                </li>\n                                <li>\n                                  <a href="http://acuriousguy.blogspot.com/2012/06/long-running-high-school-space-contest.html" shape="rect">Long Running High School Space Science Contest Wil...</a>\n                                </li>\n                                <li>\n                                  <a href="http://acuriousguy.blogspot.com/2012/06/state-politics-delays-exactearth.html" shape="rect">State Politics Delays exactEarth Baikonur Launch</a>\n                                </li>\n                                <li>\n                                  <a href="http://acuriousguy.blogspot.com/2012/06/meteorites-itar-secret-consortium-of.html" shape="rect">Meteorites, ITAR, a Secret Consortium of Research ...</a>\n                                </li>\n                              </ul>\n                            </li>\n                          </ul>\n                          <ul class="hierarchy">\n                            <li class="archivedate collapsed">\n                              <a href="javascript:void(0)" class="toggle" shape="rect">\n                                <span class="zippy"> \xe2\x96\xba\xc2\xa0 </span>\n                              </a>\n                              <a href="http://acuriousguy.blogspot.com/2012_05_01_archive.html" class="post-count-link" shape="rect">May</a>\n                              <span dir="ltr" class="post-count">(10)</span>\n                            </li>\n                          </ul>\n                          <ul class="hierarchy">\n                            <li class="archivedate collapsed">\n                              <a href="javascript:void(0)" class="toggle" shape="rect">\n                                <span class="zippy"> \xe2\x96\xba\xc2\xa0 </span>\n                              </a>\n                              <a href="http://acuriousguy.blogspot.com/2012_04_01_archive.html" class="post-count-link" shape="rect">April</a>\n                              <span dir="ltr" class="post-count">(9)</span>\n                            </li>\n                          </ul>\n                          <ul class="hierarchy">\n                            <li class="archivedate collapsed">\n                              <a href="javascript:void(0)" class="toggle" shape="rect">\n                                <span class="zippy"> \xe2\x96\xba\xc2\xa0 </span>\n                              </a>\n                              <a href="http://acuriousguy.blogspot.com/2012_03_01_archive.html" class="post-count-link" shape="rect">March</a>\n                              <span dir="ltr" class="post-count">(8)</span>\n                            </li>\n                          </ul>\n                          <ul class="hierarchy">\n                            <li class="archivedate collapsed">\n                              <a href="javascript:void(0)" class="toggle" shape="rect">\n                                <span class="zippy"> \xe2\x96\xba\xc2\xa0 </span>\n                              </a>\n                              <a href="http://acuriousguy.blogspot.com/2012_02_01_archive.html" class="post-count-link" shape="rect">February</a>\n                              <span dir="ltr" class="post-count">(8)</span>\n                            </li>\n                          </ul>\n                          <ul class="hierarchy">\n                            <li class="archivedate collapsed">\n                              <a href="javascript:void(0)" class="toggle" shape="rect">\n                                <span class="zippy"> \xe2\x96\xba\xc2\xa0 </span>\n                              </a>\n                              <a href="http://acuriousguy.blogspot.com/2012_01_01_archive.html" class="post-count-link" shape="rect">January</a>\n                              <span dir="ltr" class="post-count">(10)</span>\n                            </li>\n                          </ul>\n                        </li>\n                      </ul>\n                      <ul class="hierarchy">\n                        <li class="archivedate collapsed">\n                          <a href="javascript:void(0)" class="toggle" shape="rect">\n                            <span class="zippy"> \xe2\x96\xba\xc2\xa0 </span>\n                          </a>\n                          <a href="http://acuriousguy.blogspot.com/search?updated-min=2011-01-01T00:00:00-08:00&amp;updated-max=2012-01-01T00:00:00-08:00&amp;max-results=50" class="post-count-link" shape="rect">2011</a>\n                          <span dir="ltr" class="post-count">(103)</span>\n                          <ul class="hierarchy">\n                            <li class="archivedate collapsed">\n                              <a href="javascript:void(0)" class="toggle" shape="rect">\n                                <span class="zippy"> \xe2\x96\xba\xc2\xa0 </span>\n                              </a>\n                              <a href="http://acuriousguy.blogspot.com/2011_12_01_archive.html" class="post-count-link" shape="rect">December</a>\n                              <span dir="ltr" class="post-count">(4)</span>\n                            </li>\n                          </ul>\n                          <ul class="hierarchy">\n                            <li class="archivedate collapsed">\n                              <a href="javascript:void(0)" class="toggle" shape="rect">\n                                <span class="zippy"> \xe2\x96\xba\xc2\xa0 </span>\n                              </a>\n                              <a href="http://acuriousguy.blogspot.com/2011_11_01_archive.html" class="post-count-link" shape="rect">November</a>\n                              <span dir="ltr" class="post-count">(9)</span>\n                            </li>\n                          </ul>\n                          <ul class="hierarchy">\n                            <li class="archivedate collapsed">\n                              <a href="javascript:void(0)" class="toggle" shape="rect">\n                                <span class="zippy"> \xe2\x96\xba\xc2\xa0 </span>\n                              </a>\n                              <a href="http://acuriousguy.blogspot.com/2011_10_01_archive.html" class="post-count-link" shape="rect">October</a>\n                              <span dir="ltr" class="post-count">(11)</span>\n                            </li>\n                          </ul>\n                          <ul class="hierarchy">\n                            <li class="archivedate collapsed">\n                              <a href="javascript:void(0)" class="toggle" shape="rect">\n                                <span class="zippy"> \xe2\x96\xba\xc2\xa0 </span>\n                              </a>\n                              <a href="http://acuriousguy.blogspot.com/2011_09_01_archive.html" class="post-count-link" shape="rect">September</a>\n                              <span dir="ltr" class="post-count">(8)</span>\n                            </li>\n                          </ul>\n                          <ul class="hierarchy">\n                            <li class="archivedate collapsed">\n                              <a href="javascript:void(0)" class="toggle" shape="rect">\n                                <span class="zippy"> \xe2\x96\xba\xc2\xa0 </span>\n                              </a>\n                              <a href="http://acuriousguy.blogspot.com/2011_08_01_archive.html" class="post-count-link" shape="rect">August</a>\n                              <span dir="ltr" class="post-count">(9)</span>\n                            </li>\n                          </ul>\n                          <ul class="hierarchy">\n                            <li class="archivedate collapsed">\n                              <a href="javascript:void(0)" class="toggle" shape="rect">\n                                <span class="zippy"> \xe2\x96\xba\xc2\xa0 </span>\n                              </a>\n                              <a href="http://acuriousguy.blogspot.com/2011_07_01_archive.html" class="post-count-link" shape="rect">July</a>\n                              <span dir="ltr" class="post-count">(10)</span>\n                            </li>\n                          </ul>\n                          <ul class="hierarchy">\n                            <li class="archivedate collapsed">\n                              <a href="javascript:void(0)" class="toggle" shape="rect">\n                                <span class="zippy"> \xe2\x96\xba\xc2\xa0 </span>\n                              </a>\n                              <a href="http://acuriousguy.blogspot.com/2011_06_01_archive.html" class="post-count-link" shape="rect">June</a>\n                              <span dir="ltr" class="post-count">(8)</span>\n                            </li>\n                          </ul>\n                          <ul class="hierarchy">\n                            <li class="archivedate collapsed">\n                              <a href="javascript:void(0)" class="toggle" shape="rect">\n                                <span class="zippy"> \xe2\x96\xba\xc2\xa0 </span>\n                              </a>\n                              <a href="http://acuriousguy.blogspot.com/2011_05_01_archive.html" class="post-count-link" shape="rect">May</a>\n                              <span dir="ltr" class="post-count">(10)</span>\n                            </li>\n                          </ul>\n                          <ul class="hierarchy">\n                            <li class="archivedate collapsed">\n                              <a href="javascript:void(0)" class="toggle" shape="rect">\n                                <span class="zippy"> \xe2\x96\xba\xc2\xa0 </span>\n                              </a>\n                              <a href="http://acuriousguy.blogspot.com/2011_04_01_archive.html" class="post-count-link" shape="rect">April</a>\n                              <span dir="ltr" class="post-count">(8)</span>\n                            </li>\n                          </ul>\n                          <ul class="hierarchy">\n                            <li class="archivedate collapsed">\n                              <a href="javascript:void(0)" class="toggle" shape="rect">\n                                <span class="zippy"> \xe2\x96\xba\xc2\xa0 </span>\n                              </a>\n                              <a href="http://acuriousguy.blogspot.com/2011_03_01_archive.html" class="post-count-link" shape="rect">March</a>\n                              <span dir="ltr" class="post-count">(8)</span>\n                            </li>\n                          </ul>\n                          <ul class="hierarchy">\n                            <li class="archivedate collapsed">\n                              <a href="javascript:void(0)" class="toggle" shape="rect">\n                                <span class="zippy"> \xe2\x96\xba\xc2\xa0 </span>\n                              </a>\n                              <a href="http://acuriousguy.blogspot.com/2011_02_01_archive.html" class="post-count-link" shape="rect">February</a>\n                              <span dir="ltr" class="post-count">(9)</span>\n                            </li>\n                          </ul>\n                          <ul class="hierarchy">\n                            <li class="archivedate collapsed">\n                              <a href="javascript:void(0)" class="toggle" shape="rect">\n                                <span class="zippy"> \xe2\x96\xba\xc2\xa0 </span>\n                              </a>\n                              <a href="http://acuriousguy.blogspot.com/2011_01_01_archive.html" class="post-count-link" shape="rect">January</a>\n                              <span dir="ltr" class="post-count">(9)</span>\n                            </li>\n                          </ul>\n                        </li>\n                      </ul>\n                      <ul class="hierarchy">\n                        <li class="archivedate collapsed">\n                          <a href="javascript:void(0)" class="toggle" shape="rect">\n                            <span class="zippy"> \xe2\x96\xba\xc2\xa0 </span>\n                          </a>\n                          <a href="http://acuriousguy.blogspot.com/search?updated-min=2010-01-01T00:00:00-08:00&amp;updated-max=2011-01-01T00:00:00-08:00&amp;max-results=50" class="post-count-link" shape="rect">2010</a>\n                          <span dir="ltr" class="post-count">(78)</span>\n                          <ul class="hierarchy">\n                            <li class="archivedate collapsed">\n                              <a href="javascript:void(0)" class="toggle" shape="rect">\n                                <span class="zippy"> \xe2\x96\xba\xc2\xa0 </span>\n                              </a>\n                              <a href="http://acuriousguy.blogspot.com/2010_12_01_archive.html" class="post-count-link" shape="rect">December</a>\n                              <span dir="ltr" class="post-count">(9)</span>\n                            </li>\n                          </ul>\n                          <ul class="hierarchy">\n                            <li class="archivedate collapsed">\n                              <a href="javascript:void(0)" class="toggle" shape="rect">\n                                <span class="zippy"> \xe2\x96\xba\xc2\xa0 </span>\n                              </a>\n                              <a href="http://acuriousguy.blogspot.com/2010_11_01_archive.html" class="post-count-link" shape="rect">November</a>\n                              <span dir="ltr" class="post-count">(8)</span>\n                            </li>\n                          </ul>\n                          <ul class="hierarchy">\n                            <li class="archivedate collapsed">\n                              <a href="javascript:void(0)" class="toggle" shape="rect">\n                                <span class="zippy"> \xe2\x96\xba\xc2\xa0 </span>\n                              </a>\n                              <a href="http://acuriousguy.blogspot.com/2010_10_01_archive.html" class="post-count-link" shape="rect">October</a>\n                              <span dir="ltr" class="post-count">(10)</span>\n                            </li>\n                          </ul>\n                          <ul class="hierarchy">\n                            <li class="archivedate collapsed">\n                              <a href="javascript:void(0)" class="toggle" shape="rect">\n                                <span class="zippy"> \xe2\x96\xba\xc2\xa0 </span>\n                              </a>\n                              <a href="http://acuriousguy.blogspot.com/2010_09_01_archive.html" class="post-count-link" shape="rect">September</a>\n                              <span dir="ltr" class="post-count">(2)</span>\n                            </li>\n                          </ul>\n                          <ul class="hierarchy">\n                            <li class="archivedate collapsed">\n                              <a href="javascript:void(0)" class="toggle" shape="rect">\n                                <span class="zippy"> \xe2\x96\xba\xc2\xa0 </span>\n                              </a>\n                              <a href="http://acuriousguy.blogspot.com/2010_06_01_archive.html" class="post-count-link" shape="rect">June</a>\n                              <span dir="ltr" class="post-count">(8)</span>\n                            </li>\n                          </ul>\n                          <ul class="hierarchy">\n                            <li class="archivedate collapsed">\n                              <a href="javascript:void(0)" class="toggle" shape="rect">\n                                <span class="zippy"> \xe2\x96\xba\xc2\xa0 </span>\n                              </a>\n                              <a href="http://acuriousguy.blogspot.com/2010_05_01_archive.html" class="post-count-link" shape="rect">May</a>\n                              <span dir="ltr" class="post-count">(10)</span>\n                            </li>\n                          </ul>\n                          <ul class="hierarchy">\n                            <li class="archivedate collapsed">\n                              <a href="javascript:void(0)" class="toggle" shape="rect">\n                                <span class="zippy"> \xe2\x96\xba\xc2\xa0 </span>\n                              </a>\n                              <a href="http://acuriousguy.blogspot.com/2010_04_01_archive.html" class="post-count-link" shape="rect">April</a>\n                              <span dir="ltr" class="post-count">(8)</span>\n                            </li>\n                          </ul>\n                          <ul class="hierarchy">\n                            <li class="archivedate collapsed">\n                              <a href="javascript:void(0)" class="toggle" shape="rect">\n                                <span class="zippy"> \xe2\x96\xba\xc2\xa0 </span>\n                              </a>\n                              <a href="http://acuriousguy.blogspot.com/2010_03_01_archive.html" class="post-count-link" shape="rect">March</a>\n                              <span dir="ltr" class="post-count">(9)</span>\n                            </li>\n                          </ul>\n                          <ul class="hierarchy">\n                            <li class="archivedate collapsed">\n                              <a href="javascript:void(0)" class="toggle" shape="rect">\n                                <span class="zippy"> \xe2\x96\xba\xc2\xa0 </span>\n                              </a>\n                              <a href="http://acuriousguy.blogspot.com/2010_02_01_archive.html" class="post-count-link" shape="rect">February</a>\n                              <span dir="ltr" class="post-count">(10)</span>\n                            </li>\n                          </ul>\n                          <ul class="hierarchy">\n                            <li class="archivedate collapsed">\n                              <a href="javascript:void(0)" class="toggle" shape="rect">\n                                <span class="zippy"> \xe2\x96\xba\xc2\xa0 </span>\n                              </a>\n                              <a href="http://acuriousguy.blogspot.com/2010_01_01_archive.html" class="post-count-link" shape="rect">January</a>\n                              <span dir="ltr" class="post-count">(4)</span>\n                            </li>\n                          </ul>\n                        </li>\n                      </ul>\n                      <ul class="hierarchy">\n                        <li class="archivedate collapsed">\n                          <a href="javascript:void(0)" class="toggle" shape="rect">\n                            <span class="zippy"> \xe2\x96\xba\xc2\xa0 </span>\n                          </a>\n                          <a href="http://acuriousguy.blogspot.com/search?updated-min=2009-01-01T00:00:00-08:00&amp;updated-max=2010-01-01T00:00:00-08:00&amp;max-results=50" class="post-count-link" shape="rect">2009</a>\n                          <span dir="ltr" class="post-count">(50)</span>\n                          <ul class="hierarchy">\n                            <li class="archivedate collapsed">\n                              <a href="javascript:void(0)" class="toggle" shape="rect">\n                                <span class="zippy"> \xe2\x96\xba\xc2\xa0 </span>\n                              </a>\n                              <a href="http://acuriousguy.blogspot.com/2009_11_01_archive.html" class="post-count-link" shape="rect">November</a>\n                              <span dir="ltr" class="post-count">(8)</span>\n                            </li>\n                          </ul>\n                          <ul class="hierarchy">\n                            <li class="archivedate collapsed">\n                              <a href="javascript:void(0)" class="toggle" shape="rect">\n                                <span class="zippy"> \xe2\x96\xba\xc2\xa0 </span>\n                              </a>\n                              <a href="http://acuriousguy.blogspot.com/2009_10_01_archive.html" class="post-count-link" shape="rect">October</a>\n                              <span dir="ltr" class="post-count">(9)</span>\n                            </li>\n                          </ul>\n                          <ul class="hierarchy">\n                            <li class="archivedate collapsed">\n                              <a href="javascript:void(0)" class="toggle" shape="rect">\n                                <span class="zippy"> \xe2\x96\xba\xc2\xa0 </span>\n                              </a>\n                              <a href="http://acuriousguy.blogspot.com/2009_09_01_archive.html" class="post-count-link" shape="rect">September</a>\n                              <span dir="ltr" class="post-count">(9)</span>\n                            </li>\n                          </ul>\n                          <ul class="hierarchy">\n                            <li class="archivedate collapsed">\n                              <a href="javascript:void(0)" class="toggle" shape="rect">\n                                <span class="zippy"> \xe2\x96\xba\xc2\xa0 </span>\n                              </a>\n                              <a href="http://acuriousguy.blogspot.com/2009_08_01_archive.html" class="post-count-link" shape="rect">August</a>\n                              <span dir="ltr" class="post-count">(3)</span>\n                            </li>\n                          </ul>\n                          <ul class="hierarchy">\n                            <li class="archivedate collapsed">\n                              <a href="javascript:void(0)" class="toggle" shape="rect">\n                                <span class="zippy"> \xe2\x96\xba\xc2\xa0 </span>\n                              </a>\n                              <a href="http://acuriousguy.blogspot.com/2009_07_01_archive.html" class="post-count-link" shape="rect">July</a>\n                              <span dir="ltr" class="post-count">(9)</span>\n                            </li>\n                          </ul>\n                          <ul class="hierarchy">\n                            <li class="archivedate collapsed">\n                              <a href="javascript:void(0)" class="toggle" shape="rect">\n                                <span class="zippy"> \xe2\x96\xba\xc2\xa0 </span>\n                              </a>\n                              <a href="http://acuriousguy.blogspot.com/2009_06_01_archive.html" class="post-count-link" shape="rect">June</a>\n                              <span dir="ltr" class="post-count">(9)</span>\n                            </li>\n                          </ul>\n                          <ul class="hierarchy">\n                            <li class="archivedate collapsed">\n                              <a href="javascript:void(0)" class="toggle" shape="rect">\n                                <span class="zippy"> \xe2\x96\xba\xc2\xa0 </span>\n                              </a>\n                              <a href="http://acuriousguy.blogspot.com/2009_05_01_archive.html" class="post-count-link" shape="rect">May</a>\n                              <span dir="ltr" class="post-count">(3)</span>\n                            </li>\n                          </ul>\n                        </li>\n                      </ul>\n                    </div>\n                  </div>\n                  <div class="clear"></div>\n                  <span class="widget-item-control">\n                    <span class="item-control blog-admin">\n                      <a \n                      title="Edit" target="configBlogArchive1" onclick="return _WidgetManager._PopupConfig(document.getElementById(&quot;BlogArchive1&quot;));" href="//www.blogger.com/rearrange?blogID=6618880&amp;widgetType=BlogArchive&amp;widgetId=BlogArchive1&amp;action=editWidget&amp;sectionId=sidebar" class="quickedit" shape="rect">\n                        <img width="18" src="http://img1.blogblog.com/img/icon18_wrench_allbkg.png" height="18" alt=""></img>\n</a>\n                    </span>\n                  </span>\n                  <div class="clear"></div>\n                </div>\n              </div>\n              <div id="HTML5" class="widget HTML">\n                <div class="widget-content">\n                  <a href="http://www.topblogs.ca/" shape="rect">\n                    <img border="0" alt="Top Canadian Blogs - Top Blogs" src="http://www.topblogs.ca/button.php?u=chuckblack"></img>\n                  </a>\n                </div>\n                <div class="clear"></div>\n                <span class="widget-item-control">\n                  <span class="item-control blog-admin">\n                    <a title="Edit" target="configHTML5" onclick="return _WidgetManager._PopupConfig(document.getElementById(&quot;HTML5&quot;));" href="//www.blogger.com/rearrange?blogID=6618880&amp;widgetType=HTML&amp;widgetId=HTML5&amp;action=editWidget&amp;sectionId=sidebar" class="quickedit" shape="rect">\n                      <img width="18" src="http://img1.blogblog.com/img/icon18_wrench_allbkg.png" height="18" alt=""></img>\n                    </a>\n                  </span>\n                </span>\n                <div class="clear"></div>\n              </div>\n            </div>\n          </div>\n          <div class="clear">\xc2\xa0</div>\n        </div>\n        <div id="footer-wrapper">\n          <div id="footer" class="footer section"></div>\n        </div>\n      </div>\n    </div>\n    <script type="text/javascript"> if (window.jstiming) window.jstiming.load.tick(\'widgetJsBefore\'); </script>\n    <script src="//www.blogger.com/static/v1/widgets/1040267425-widgets.js" type="text/javascript"></script>\n    <script src="//www.google.com/jsapi" type="text/javascript"></script>\n    <script type="text/javascript">\n      if (typeof(BLOG_attachCsiOnload) != \'undefined\' &amp;&amp; BLOG_attachCsiOnload != null) { window[\'blogger_templates_experiment_id\'] = &quot;templatesV1&quot;;window[\'blogger_blog_id\'] = \'6618880\';BLOG_attachCsiOnload(\'item_\'); }_WidgetManager._Init(\'//www.blogger.com/rearrange?blogID\\x3d6618880\',\'//acuriousguy.blogspot.com/2012/06/requiem-for-heavyweight-rocketdyne.html\',\'6618880\');\n_WidgetManager._SetDataContext([{\'name\': \'blog\', \'data\': {\'blogId\': \'6618880\', \'bloggerUrl\': \'http://www.blogger.com\', \'title\': \'Commercial Space\', \'pageType\': \'item\', \'url\': \'http://acuriousguy.blogspot.com/2012/06/requiem-for-heavyweight-rocketdyne.html\', \'canonicalUrl\': \'http://acuriousguy.blogspot.com/2012/06/requiem-for-heavyweight-rocketdyne.html\', \'canonicalHomepageUrl\': \'http://acuriousguy.blogspot.com/\', \'homepageUrl\': \'http://acuriousguy.blogspot.com/\', \'blogspotFaviconUrl\': \'http://acuriousguy.blogspot.com/favicon.ico\', \'enabledCommentProfileImages\': true, \'adultContent\': false, \'disableAdSenseWidget\': false, \'analyticsAccountNumber\': \'\', \'searchLabel\': \'\', \'searchQuery\': \'\', \'pageName\': \'Requiem for a Heavyweight Rocketdyne\', \'pageTitle\': \'Commercial Space: Requiem for a Heavyweight Rocketdyne\', \'encoding\': \'UTF-8\', \'locale\': \'en-US\', \'isPrivate\': false, \'isMobile\': false, \'isMobileRequest\': false, \'mobileClass\': \'\', \'isPrivateBlog\': false, \'languageDirection\': \'ltr\', \'feedLinks\': \'\\74link rel\\75\\42alternate\\42 type\\75\\42application/atom+xml\\42 title\\75\\42Commercial Space - Atom\\42 href\\75\\42http://acuriousguy.blogspot.com/feeds/posts/default\\42 /\\76\\n\\74link rel\\75\\42alternate\\42 type\\75\\42application/rss+xml\\42 title\\75\\42Commercial Space - RSS\\42 href\\75\\42http://acuriousguy.blogspot.com/feeds/posts/default?alt\\75rss\\42 /\\76\\n\\74link rel\\75\\42service.post\\42 type\\75\\42application/atom+xml\\42 title\\75\\42Commercial Space - Atom\\42 href\\75\\42http://www.blogger.com/feeds/6618880/posts/default\\42 /\\76\\n\\74link rel\\75\\42EditURI\\42 type\\75\\42application/rsd+xml\\42 title\\75\\42RSD\\42 href\\75\\42http://www.blogger.com/rsd.g?blogID\\0756618880\\42 /\\76\\n\\74link rel\\75\\42alternate\\42 type\\75\\42application/atom+xml\\42 title\\75\\42Commercial Space - Atom\\42 href\\75\\42http://acuriousguy.blogspot.com/feeds/616289053762995603/comments/default\\42 /\\76\\n\', \'meTag\': \'\', \'openIdOpTag\': \'\', \'googleProfileUrl\': \'https://plus.google.com/111976514537213098381\', \'postImageThumbnailUrl\': \'http://4.bp.blogspot.com/-mgJNU77Bs6I/T9dUBH3e88I/AAAAAAAAB-4/pHKq31_IKhw/s72-c/800px-Pratt_Whitney_Rocketdyne_space_shuttle_main_engines.jpg\', \'imageSrcTag\': \'\\74link rel\\75\\42image_src\\42 href\\75\\42http://4.bp.blogspot.com/-mgJNU77Bs6I/T9dUBH3e88I/AAAAAAAAB-4/pHKq31_IKhw/s72-c/800px-Pratt_Whitney_Rocketdyne_space_shuttle_main_engines.jpg\\42 /\\76\\n\', \'latencyHeadScript\': \'\\74script type\\75\\42text/javascript\\42\\76(function() { var a\\75window,b\\75\\42jstiming\\42,d\\75\\42tick\\42;var e\\75function(c){this.t\\75{};this.tick\\75function(c,p,h){h\\75void 0!\\75h?h:(new Date).getTime();this.t[c]\\75[h,p]};this[d](\\42start\\42,null,c)},f\\75new e;a.jstiming\\75{Timer:e,load:f};if(a.performance\\46\\46a.performance.timing){var g\\75a.performance.timing,j\\75a[b].load,k\\75g.navigationStart,l\\75g.responseStart;0\\74k\\46\\46l\\76\\75k\\46\\46(j[d](\\42_wtsrt\\42,void 0,k),j[d](\\42wtsrt_\\42,\\42_wtsrt\\42,l),j[d](\\42tbsd_\\42,\\42wtsrt_\\42))}\\ntry{var m\\75null;a.chrome\\46\\46a.chrome.csi\\46\\46(m\\75Math.floor(a.chrome.csi().pageT),j\\46\\0460\\74k\\46\\46(j[d](\\42_tbnd\\42,void 0,a.chrome.csi().startE),j[d](\\42tbnd_\\42,\\42_tbnd\\42,k)));null\\75\\75m\\46\\46a.gtbExternal\\46\\46(m\\75a.gtbExternal.pageT());null\\75\\75m\\46\\46a.external\\46\\46(m\\75a.external.pageT,j\\46\\0460\\74k\\46\\46(j[d](\\42_tbnd\\42,void 0,a.external.startE),j[d](\\42tbnd_\\42,\\42_tbnd\\42,k)));m\\46\\46(a[b].pt\\75m)}catch(n){};a.tickAboveFold\\75function(c){var i\\0750;if(c.offsetParent){do i+\\75c.offsetTop;while(c\\75c.offsetParent)}c\\75i;750\\76\\75c\\46\\46a[b].load[d](\\42aft\\42)};var q\\75!1;function r(){q||(q\\75!0,a[b].load[d](\\42firstScrollTime\\42))}a.addEventListener?a.addEventListener(\\42scroll\\42,r,!1):a.attachEvent(\\42onscroll\\42,r);\\n })();\\74/script\\076\', \'mobileHeadScript\': \'\', \'view\': \'\', \'dynamicViewsCommentsSrc\': \'//www.blogblog.com/dynamicviews/4224c15c4e7c9321/js/comments.js\', \'dynamicViewsScriptSrc\': \'//www.blogblog.com/dynamicviews/04452fcc9c8aa994\'}}, {\'name\': \'skin\', \'data\': {\'vars\': {\'sidebartextcolor\': \'#666666\', \'linkcolor\': \'#0b5394\', \'visitedlinkcolor\': \'#6fa8dc\', \'textcolor\': \'#333333\', \'headerfont\': \'normal normal 78% \\47Trebuchet MS\\47,Trebuchet,Arial,Verdana,Sans-serif\', \'pagetitlefont\': \'normal bold 250% Tinos\', \'bgcolor\': \'#ffffff\', \'descriptioncolor\': \'#333333\', \'titlecolor\': \'#cc6600\', \'bordercolor\': \'#cccccc\', \'postfooterfont\': \'normal normal 78% \\47Trebuchet MS\\47, Trebuchet, Arial, Verdana, Sans-serif\', \'pagetitlecolor\': \'#000000\', \'bodyfont\': \'normal normal 100% Tinos\', \'endSide\': \'right\', \'startSide\': \'left\', \'descriptionfont\': \'italic normal 78% \\47Trebuchet MS\\47, Trebuchet, Arial, Verdana, Sans-serif\', \'sidebarcolor\': \'#999999\'}, \'override\': \'\'}}, {\'name\': \'view\', \'data\': {\'classic\': {\'name\': \'classic\', \'url\': \'/?view\\75classic\'}, \'flipcard\': {\'name\': \'flipcard\', \'url\': \'/?view\\75flipcard\'}, \'magazine\': {\'name\': \'magazine\', \'url\': \'/?view\\75magazine\'}, \'mosaic\': {\'name\': \'mosaic\', \'url\': \'/?view\\75mosaic\'}, \'sidebar\': {\'name\': \'sidebar\', \'url\': \'/?view\\75sidebar\'}, \'snapshot\': {\'name\': \'snapshot\', \'url\': \'/?view\\75snapshot\'}, \'timeslide\': {\'name\': \'timeslide\', \'url\': \'/?view\\75timeslide\'}}}]);\n_WidgetManager._RegisterWidget(\'_PageListView\', new _WidgetInfo(\'PageList1\', \'crosscol\', null, document.getElementById(\'PageList1\'), {\'title\': \'Pages\', \'links\': [{\'href\': \'http://acuriousguy.blogspot.com/\', \'title\': \'Home\', \'isCurrentPage\': false}, {\'href\': \'http://acuriousguy.blogspot.com/p/resume.html\', \'title\': \'About this Blog\', \'isCurrentPage\': false}, {\'href\': \'http://acuriousguy.blogspot.com/p/about-author.html\', \'title\': \'About the Author\', \'isCurrentPage\': false}, {\'href\': \'http://acuriousguy.blogspot.com/p/our-weekly-mailing-list.html\', \'title\': \'Our Weekly Mailing List\', \'isCurrentPage\': false}, {\'href\': \'http://acuriousguy.blogspot.com/p/context-background-materials.html\', \'title\': \'Context \\46 Background Materials\', \'isCurrentPage\': false}, {\'href\': \'http://acuriousguy.blogspot.com/p/page-two.html\', \'title\': \'Space Jobs \\46 Career Boards\', \'isCurrentPage\': false}], \'mobile\': false}, \'displayModeFull\'));\n_WidgetManager._RegisterWidget(\'_ImageView\', new _WidgetInfo(\'Image2\', \'sidebar\', null, document.getElementById(\'Image2\'), {\'resize\': false}, \'displayModeFull\'));\n_WidgetManager._RegisterWidget(\'_HTMLView\', new _WidgetInfo(\'HTML4\', \'sidebar\', null, document.getElementById(\'HTML4\'), {}, \'displayModeFull\'));\n_WidgetManager._RegisterWidget(\'_HTMLView\', new _WidgetInfo(\'HTML1\', \'sidebar\', null, document.getElementById(\'HTML1\'), {}, \'displayModeFull\'));\n_WidgetManager._RegisterWidget(\'_BlogArchiveView\', new _WidgetInfo(\'BlogArchive1\', \'sidebar\', null, document.getElementById(\'BlogArchive1\'), {\'languageDirection\': \'ltr\'}, \'displayModeFull\'));\n_WidgetManager._RegisterWidget(\'_HTMLView\', new _WidgetInfo(\'HTML5\', \'sidebar\', null, document.getElementById(\'HTML5\'), {}, \'displayModeFull\'));\n_WidgetManager._RegisterWidget(\'_HTMLView\', new _WidgetInfo(\'HTML3\', \'left-sidebar\', null, document.getElementById(\'HTML3\'), {}, \'displayModeFull\'));\n_WidgetManager._RegisterWidget(\'_CustomSearchView\', new _WidgetInfo(\'CustomSearch1\', \'left-sidebar\', null, document.getElementById(\'CustomSearch1\'), {\'title\': \'\', \'includeBlog\': true, \'includePostLinks\': true, \'includeWeb\': true, \'linkLists\': [], \'blogUrl\': \'http://acuriousguy.blogspot.com/\', \'loadingMsg\': \'Loading...\', \'thisBlogMsg\': \'This Blog\', \'linkedFromHereMsg\': \'Linked From Here\', \'theWebMsg\': \'The Web\', \'backgroundColor\': \'#ffffff\', \'textColor\': \'#333333\', \'dateColor\': \'#999999\', \'linkColor\': \'#0b5394\', \'urlColor\': \'#cc6600\', \'visitedLinkColor\': \'#6fa8dc\', \'borderColor\': \'#cccccc\', \'activeBorderColor\': \'#cc6600\'}, \'displayModeFull\'));\n_WidgetManager._RegisterWidget(\'_TextView\', new _WidgetInfo(\'Text1\', \'left-sidebar\', null, document.getElementById(\'Text1\'), {}, \'displayModeFull\'));\n_WidgetManager._RegisterWidget(\'_BlogListView\', new _WidgetInfo(\'BlogList1\', \'left-sidebar\', null, document.getElementById(\'BlogList1\'), {\'numItemsToShow\': 0, \'totalItems\': 44}, \'displayModeFull\'));\n_WidgetManager._RegisterWidget(\'_HeaderView\', new _WidgetInfo(\'Header1\', \'header\', null, document.getElementById(\'Header1\'), {}, \'displayModeFull\'));\n_WidgetManager._RegisterWidget(\'_NavbarView\', new _WidgetInfo(\'Navbar1\', \'navbar\', null, document.getElementById(\'Navbar1\'), {}, \'displayModeFull\'));\n_WidgetManager._RegisterWidget(\'_BlogView\', new _WidgetInfo(\'Blog1\', \'main\', null, document.getElementById(\'Blog1\'), {\'cmtInteractionsEnabled\': false, \'showBacklinks\': true, \'postId\': \'616289053762995603\', \'lightboxEnabled\': true, \'lightboxModuleUrl\': \'//www.blogger.com/static/v1/jsbin/1664432155-lbx.js\', \'lightboxCssUrl\': \'//www.blogger.com/static/v1/v-css/228702327-lightbox_bundle.css\'}, \'displayModeFull\'));\n_WidgetManager._RegisterWidget(\'_HTMLView\', new _WidgetInfo(\'HTML2\', \'main\', null, document.getElementById(\'HTML2\'), {}, \'displayModeFull\'));\n    </script>\n  </body>\n</html>'
p11
sbsS'mentions'
p12
(lp13
(iedu.umass.cs.iesl.wikilink.expanded.data.ttypes
Mention
p14
(dp15
S'anchor_text'
p16
S'United Technologies Corporation'
p17
sS'context'
p18
(iedu.umass.cs.iesl.wikilink.expanded.data.ttypes
Context
p19
(dp20
S'middle'
p21
S'United Technologies Corporation'
p22
sS'right'
p23
S'(UTC) is now " in negotiations with one buyer to sell storied rocket engine maker Pratt & Whitney Rocketdyne and a deal may soon be'
p24
sS'left'
p25
S'Mailing List Context & Background Materials Space Jobs & Career Boards Tuesday, June 12, 2012 Requiem for a Heavyweight Rocketdyne The publicly held American multinational'
p26
sbsS'freebase_id'
p27
S'9202a8c04000641f80000000002fb821'
p28
sS'raw_text_offset'
p29
I16870
sS'wiki_url'
p30
S'http://en.wikipedia.org/wiki/United_Technologies_Corporation'
p31
sba(iedu.umass.cs.iesl.wikilink.expanded.data.ttypes
Mention
p32
(dp33
g16
S'Pratt & Whitney Rocketdyne'
p34
sg18
(iedu.umass.cs.iesl.wikilink.expanded.data.ttypes
Context
p35
(dp36
g21
S'Pratt & Whitney Rocketdyne'
p37
sg23
S'and a deal may soon be announced ," according to the June 11th, 2012 LA Daily News article " Pratt & Whitney Rocketdyne about to'
p38
sg25
S'Heavyweight Rocketdyne The publicly held American multinational United Technologies Corporation (UTC) is now " in negotiations with one buyer to sell storied rocket engine maker'
p39
sbsg27
Nsg29
I17079
sg30
S'http://en.wikipedia.org/wiki/Pratt_%26_Whitney_Rocketdyne'
p40
sba(iedu.umass.cs.iesl.wikilink.expanded.data.ttypes
Mention
p41
(dp42
g16
S'Endeavour'
p43
sg18
(iedu.umass.cs.iesl.wikilink.expanded.data.ttypes
Context
p44
(dp45
g21
S'Endeavour'
p46
sg23
S"'s and Atlantis ' final missions in the Engine Shop at NASA's Kennedy Space Center in November 2011. As outlined in the May 22nd, 2012"
p47
sg25
S'News article " Pratt & Whitney Rocketdyne about to be sold to private-investor group ." \xc2\xa0The Pratt & Whitney Rocketdyne space shuttle main engines from'
p48
sbsg27
S'9202a8c04000641f8000000000037f44'
p49
sg29
I18382
sg30
S'http://en.wikipedia.org/wiki/Space_Shuttle_Endeavour'
p50
sba(iedu.umass.cs.iesl.wikilink.expanded.data.ttypes
Mention
p51
(dp52
g16
S'Atlantis'
p53
sg18
(iedu.umass.cs.iesl.wikilink.expanded.data.ttypes
Context
p54
(dp55
g21
S'Atlantis'
p56
sg23
S'\' final missions in the Engine Shop at NASA\'s Kennedy Space Center in November 2011. As outlined in the May 22nd, 2012 Reuters article "'
p57
sg25
S'Pratt & Whitney Rocketdyne about to be sold to private-investor group ." \xc2\xa0The Pratt & Whitney Rocketdyne space shuttle main engines from Endeavour \'s and'
p58
sbsg27
S'9202a8c04000641f8000000000037f34'
p59
sg29
I18464
sg30
S'http://en.wikipedia.org/wiki/Space_Shuttle_Atlantis'
p60
sba(iedu.umass.cs.iesl.wikilink.expanded.data.ttypes
Mention
p61
(dp62
g16
S'Hamilton Sundstrand'
p63
sg18
(iedu.umass.cs.iesl.wikilink.expanded.data.ttypes
Context
p64
(dp65
g21
S'Hamilton Sundstrand'
p66
sg23
S'division, and the Clipper Windpower operation, in order to fund the $16.5 billion UTC takeover of aircraft components manufacturer Goodrich Corporation . But a private'
p67
sg25
S'Goodrich deal to close in July ," the Rocketdyne subsidiary was always expected to be sold by UTC, along with the industrial arm of the'
p68
sbsg27
Nsg29
I19130
sg30
S'http://en.wikipedia.org/wiki/Hamilton_Sundstrand'
p69
sba(iedu.umass.cs.iesl.wikilink.expanded.data.ttypes
Mention
p70
(dp71
g16
S'Clipper Windpower'
p72
sg18
(iedu.umass.cs.iesl.wikilink.expanded.data.ttypes
Context
p73
(dp74
g21
S'Clipper Windpower'
p75
sg23
S'operation, in order to fund the $16.5 billion UTC takeover of aircraft components manufacturer Goodrich Corporation . But a private investment deal could end up'
p76
sg25
S'July ," the Rocketdyne subsidiary was always expected to be sold by UTC, along with the industrial arm of the Hamilton Sundstrand division, and the'
p77
sbsg27
S'9202a8c04000641f8000000006b00afa'
p78
sg29
I19229
sg30
S'http://en.wikipedia.org/wiki/Clipper_Windpower'
p79
sba(iedu.umass.cs.iesl.wikilink.expanded.data.ttypes
Mention
p80
(dp81
g16
S'Goodrich Corporation'
p82
sg18
(iedu.umass.cs.iesl.wikilink.expanded.data.ttypes
Context
p83
(dp84
g21
S'Goodrich Corporation'
p85
sg23
S'. But a private investment deal could end up giving the historic company (originally formed after the second world war to study the German V-2'
p86
sg25
S'industrial arm of the Hamilton Sundstrand division, and the Clipper Windpower operation, in order to fund the $16.5 billion UTC takeover of aircraft components manufacturer'
p87
sbsg27
S'9202a8c04000641f800000000028b85a'
p88
sg29
I19413
sg30
S'http://en.wikipedia.org/wiki/Goodrich_Corporation'
p89
sba(iedu.umass.cs.iesl.wikilink.expanded.data.ttypes
Mention
p90
(dp91
g16
S'V-2 missile'
p92
sg18
(iedu.umass.cs.iesl.wikilink.expanded.data.ttypes
Context
p93
(dp94
g21
S'V-2 missile'
p95
sg23
S'and adapt its engine to US requirements)\xc2\xa0 new capabilities and perhaps even the potential to compete in the international marketplace against privately held Space Exploration'
p96
sg25
S'Corporation . But a private investment deal could end up giving the historic company (originally formed after the second world war to study the German'
p97
sbsg27
S'9202a8c04000641f8000000000040437'
p98
sg29
I19644
sg30
S'http://en.wikipedia.org/wiki/V-2'
p99
sba(iedu.umass.cs.iesl.wikilink.expanded.data.ttypes
Mention
p100
(dp101
g16
S'Michael D. Griffin'
p102
sg18
(iedu.umass.cs.iesl.wikilink.expanded.data.ttypes
Context
p103
(dp104
g21
S'Michael D. Griffin'
p105
sg23
S'as the new Rocketdyne CEO. All of which suggests the possibility of one final hurrah for the once promising and innovative company which simply grew'
p106
sg25
S'Griffin as New CEO? " even states that the new owners, working through a group organized by the Chase Bank , have hired ex-NASA Director'
p107
sbsg27
S'9202a8c04000641f8000000000569e3e'
p108
sg29
I21011
sg30
S'http://en.wikipedia.org/wiki/Michael_D._Griffin'
p109
sba(iedu.umass.cs.iesl.wikilink.expanded.data.ttypes
Mention
p110
(dp111
g16
S'Requiem for a Heavyweight'
p112
sg18
(iedu.umass.cs.iesl.wikilink.expanded.data.ttypes
Context
p113
(dp114
g21
S'Requiem for a Heavyweight'
p115
sg23
S'." Written by Rod Serling (who later went on to create " The Twilight Zone "), the teleplay focused on Harlan " Mountain " McClintock,'
p116
sg25
S'innovative company which simply grew too old and dependent on fixed price government contracts. Which kinda sounds like the plot of the 1956 teleplay "'
p117
sbsg27
S'9202a8c04000641f800000000069b17a'
p118
sg29
I21388
sg30
S'http://en.wikipedia.org/wiki/Requiem_for_a_Heavyweight'
p119
sba(iedu.umass.cs.iesl.wikilink.expanded.data.ttypes
Mention
p120
(dp121
g16
S'Rod Serling'
p122
sg18
(iedu.umass.cs.iesl.wikilink.expanded.data.ttypes
Context
p123
(dp124
g21
S'Rod Serling'
p125
sg23
S'(who later went on to create " The Twilight Zone "), the teleplay focused on Harlan " Mountain " McClintock, a once-promising but now washed-up'
p126
sg25
S'and dependent on fixed price government contracts. Which kinda sounds like the plot of the 1956 teleplay " Requiem for a Heavyweight ." Written by'
p127
sbsg27
S'9202a8c04000641f80000000000adbcf'
p128
sg29
I21482
sg30
S'http://en.wikipedia.org/wiki/Rod_Serling'
p129
sba(iedu.umass.cs.iesl.wikilink.expanded.data.ttypes
Mention
p130
(dp131
g16
S'The Twilight Zone'
p132
sg18
(iedu.umass.cs.iesl.wikilink.expanded.data.ttypes
Context
p133
(dp134
g21
S'The Twilight Zone'
p135
sg23
S'"), the teleplay focused on Harlan " Mountain " McClintock, a once-promising but now washed-up boxer who faces the end of his career after being'
p136
sg25
S'sounds like the plot of the 1956 teleplay " Requiem for a Heavyweight ." Written by Rod Serling (who later went on to create "'
p137
sbsg27
S'9202a8c04000641f8000000000067efb'
p138
sg29
I21585
sg30
S'http://en.wikipedia.org/wiki/The_Twilight_Zone'
p139
sba(iedu.umass.cs.iesl.wikilink.expanded.data.ttypes
Mention
p140
(dp141
g16
S'RL10'
p142
sg18
(iedu.umass.cs.iesl.wikilink.expanded.data.ttypes
Context
p143
(dp144
g21
S'RL10'
p145
sg23
S'rocket engines, the RS-68 first stage engine for the Delta IV , the RS-25 engines used as the space shuttle main engine and quite a'
p146
sg25
S'incarnations). Of course, analogies rarely transfer directly to the real world. Rocketdyne possesses serious political connections and legacy assets in the intellectual property surrounding the'
p147
sbsg27
S'9202a8c04000641f80000000003287a6'
p148
sg29
I22385
sg30
S'http://en.wikipedia.org/wiki/RL10'
p149
sba(iedu.umass.cs.iesl.wikilink.expanded.data.ttypes
Mention
p150
(dp151
g16
S'RS-68'
p152
sg18
(iedu.umass.cs.iesl.wikilink.expanded.data.ttypes
Context
p153
(dp154
g21
S'RS-68'
p155
sg23
S'first stage engine for the Delta IV , the RS-25 engines used as the space shuttle main engine and quite a few other programs and'
p156
sg25
S'rarely transfer directly to the real world. Rocketdyne possesses serious political connections and legacy assets in the intellectual property surrounding the RL10 rocket engines, the'
p157
sbsg27
S'9202a8c04000641f800000000041c1b5'
p158
sg29
I22459
sg30
S'http://en.wikipedia.org/wiki/RS-68'
p159
sba(iedu.umass.cs.iesl.wikilink.expanded.data.ttypes
Mention
p160
(dp161
g16
S'Delta IV'
p162
sg18
(iedu.umass.cs.iesl.wikilink.expanded.data.ttypes
Context
p163
(dp164
g21
S'Delta IV'
p165
sg23
S', the RS-25 engines used as the space shuttle main engine and quite a few other programs and projects. And no one expects that the'
p166
sg25
S'world. Rocketdyne possesses serious political connections and legacy assets in the intellectual property surrounding the RL10 rocket engines, the RS-68 first stage engine for the'
p167
sbsg27
S'9202a8c04000641f80000000002fa592'
p168
sg29
I22544
sg30
S'http://en.wikipedia.org/wiki/Delta_IV'
p169
sba(iedu.umass.cs.iesl.wikilink.expanded.data.ttypes
Mention
p170
(dp171
g16
S'space shuttle'
p172
sg18
(iedu.umass.cs.iesl.wikilink.expanded.data.ttypes
Context
p173
(dp174
g21
S'space shuttle'
p175
sg23
S'main engine and quite a few other programs and projects. And no one expects that the new owners will be " punch drunk ." Expect'
p176
sg25
S'in the intellectual property surrounding the RL10 rocket engines, the RS-68 first stage engine for the Delta IV , the RS-25 engines used as the'
p177
sbsg27
Nsg29
I22710
sg30
S'http://en.wikipedia.org/wiki/Space_Shuttle'
p178
sba(iedu.umass.cs.iesl.wikilink.expanded.data.ttypes
Mention
p179
(dp180
g16
S'Chase Bank'
p181
sg18
(iedu.umass.cs.iesl.wikilink.expanded.data.ttypes
Context
p182
(dp183
g21
S'Chase Bank'
p184
sg23
S', have hired ex-NASA Director Michael D. Griffin as the new Rocketdyne CEO. All of which suggests the possibility of one final hurrah for the'
p185
sg25
S'under the title " Rocketdyne Sold - Griffin as New CEO? " even states that the new owners, working through a group organized by the'
p186
sbsg27
S'9202a8c04000641f800000000021077a'
p187
sg29
I20909
sg30
S'http://en.wikipedia.org/wiki/Chase_(bank)'
p188
sbasS'doc_id'
p189
I11017
sS'rare_words'
p190
(lp191
(iedu.umass.cs.iesl.wikilink.expanded.data.ttypes
RareWord
p192
(dp193
S'word'
p194
S'May'
p195
sS'offset'
p196
I18737
sba(iedu.umass.cs.iesl.wikilink.expanded.data.ttypes
RareWord
p197
(dp198
g194
S'Sundstrand'
p199
sg196
I19139
sba(iedu.umass.cs.iesl.wikilink.expanded.data.ttypes
RareWord
p200
(dp201
g194
S'analogies'
p202
sg196
I22160
sba(iedu.umass.cs.iesl.wikilink.expanded.data.ttypes
RareWord
p203
(dp204
g194
S'expects'
p205
sg196
I22810
sba(iedu.umass.cs.iesl.wikilink.expanded.data.ttypes
RareWord
p206
(dp207
g194
S'Reuters'
p208
sg196
I18786
sba(iedu.umass.cs.iesl.wikilink.expanded.data.ttypes
RareWord
p209
(dp210
g194
S'Michael'
p211
sg196
I21011
sba(iedu.umass.cs.iesl.wikilink.expanded.data.ttypes
RareWord
p212
(dp213
g194
S'first'
p214
sg196
I22469
sba(iedu.umass.cs.iesl.wikilink.expanded.data.ttypes
RareWord
p215
(dp216
g194
S'But'
p217
sg196
I19452
sba(iedu.umass.cs.iesl.wikilink.expanded.data.ttypes
RareWord
p218
(dp219
g194
S'Boxing'
p220
sg196
I21823
sba(iedu.umass.cs.iesl.wikilink.expanded.data.ttypes
RareWord
p221
(dp222
g194
S'possibility'
p223
sg196
I21100
sbasb.