(iedu.umass.cs.iesl.wikilink.expanded.data.ttypes
WikiLinkItem
p0
(dp1
S'url'
p2
S'http://adirondacktennis.wordpress.com/2011/03/10/potential-future-male-tennis-stars-richard-berankis/'
p3
sS'content'
p4
(iedu.umass.cs.iesl.wikilink.expanded.data.ttypes
PageContentItem
p5
(dp6
S'articleText'
p7
NsS'raw'
p8
NsS'fullText'
p9
NsS'dom'
p10
S'<html lang="en" dir="ltr">\n  <head>\n    <meta content="text/html; charset=UTF-8" http-equiv="Content-Type"></meta>\n    <title>Potential Future Male Tennis Stars \xe2\x80\x93 Richard Berankis \xc2\xab Adirondack Tennis</title>\n    <link media="all" type="text/css" href="http://s2.wp.com/wp-content/themes/pub/retro-fitted/style.css?m=1344957677g" rel="stylesheet"></link>\n    <link href="http://gmpg.org/xfn/11" rel="profile"></link>\n    <link href="http://adirondacktennis.wordpress.com/xmlrpc.php" rel="pingback"></link>\n    <meta content="VBHcK0BHnJfSYmGjGWOGu25xlqnDgtekkEIFp2XLhEQ" name="google-site-verification"></meta>\n    <link href="http://adirondacktennis.wordpress.com/feed/" title="Adirondack Tennis \xc2\xbb Feed" type="application/rss+xml" rel="alternate"></link>\n    <link href="http://adirondacktennis.wordpress.com/comments/feed/" title="Adirondack Tennis \xc2\xbb Comments Feed" type="application/rss+xml" rel="alternate"></link>\n    <link href="http://adirondacktennis.wordpress.com/2011/03/10/potential-future-male-tennis-stars-richard-berankis/feed/" title="Adirondack Tennis \xc2\xbb Potential Future Male Tennis Stars \xe2\x80\x93 Richard\xc2\xa0Berankis Comments Feed" type="application/rss+xml" rel="alternate"></link>\n    <script type="text/javascript"> /* &lt;![CDATA[ */ function addLoadEvent(func){var oldonload=window.onload;if(typeof window.onload!=\'function\'){window.onload=func;}else{window.onload=function(){oldonload();func();}}} /* ]]&gt; */ </script>\n    <link \n    media="all" type="text/css" href="http://s1.wp.com/_static/??/wp-content/blog-plugins/loggedout-follow/widget.css,/wp-content/mu-plugins/post-flair/style.css,/wp-content/mu-plugins/post-flair/sharing/sharing.css,/wp-content/themes/h4/global.css,/wp-content/mu-plugins/widgets/css/widget-grid-and-list.css?m=1349103886j" rel="stylesheet" id="all-css-0">\n</link>\n    <link media="print" type="text/css" href="http://s0.wp.com/wp-content/mu-plugins/global-print/global-print.css?m=1335386953g" rel="stylesheet" id="print-css-0"></link>\n    <script type="text/javascript"> /* &lt;![CDATA[ */ var LoggedOutFollow = {&quot;invalid_email&quot;:&quot;Your subscription did not succeed, please try again with a valid email address.&quot;}; /* ]]&gt; */ </script>\n    <script src="http://s0.wp.com/_static/??/wp-includes/js/jquery/jquery.js,/wp-content/blog-plugins/loggedout-follow/widget.js,/wp-includes/js/comment-reply.js,/wp-content/mu-plugins/widgets/js/widget-bump-view.js?m=1342269540j" type="text/javascript"></script>\n    <link media="all" type="text/css" href="http://s1.wp.com/wp-content/mu-plugins/highlander-comments/style.css?m=1343991657g" rel="stylesheet" id="all-css-0"></link>\n    <link href="http://adirondacktennis.wordpress.com/xmlrpc.php?rsd" title="RSD" type="application/rsd+xml" rel="EditURI"></link>\n    <link href="http://adirondacktennis.wordpress.com/wp-includes/wlwmanifest.xml" type="application/wlwmanifest+xml" rel="wlwmanifest"></link>\n    <link href="http://adirondacktennis.wordpress.com/2011/03/09/next-roger-federer/" title="Next Roger\xc2\xa0Federer?" rel="prev"></link>\n    <link href="http://adirondacktennis.wordpress.com/2011/03/11/male-tennis-players-thier-kids/" title="Male Tennis Players &amp; thier\xc2\xa0Kids" rel="next"></link>\n    <meta content="WordPress.com" name="generator"></meta>\n    <link href="http://adirondacktennis.wordpress.com/2011/03/10/potential-future-male-tennis-stars-richard-berankis/" rel="canonical"></link>\n    <link href="http://wp.me/pEaiE-JQ" rel="shortlink"></link>\n    <link href="http://public-api.wordpress.com/oembed/1.0/?format=json&amp;url=http%3A%2F%2Fadirondacktennis.wordpress.com%2F2011%2F03%2F10%2Fpotential-future-male-tennis-stars-richard-berankis%2F&amp;for=wpcom-auto-discovery" type="application/json+oembed" rel="alternate"></link>\n    <link href="http://public-api.wordpress.com/oembed/1.0/?format=xml&amp;url=http%3A%2F%2Fadirondacktennis.wordpress.com%2F2011%2F03%2F10%2Fpotential-future-male-tennis-stars-richard-berankis%2F&amp;for=wpcom-auto-discovery" type="application/xml+oembed" rel="alternate"></link>\n    <meta content="article" property="og:type"></meta>\n    <meta content="Potential Future Male Tennis Stars \xe2\x80\x93 Richard\xc2\xa0Berankis" property="og:title"></meta>\n    <meta content="http://adirondacktennis.wordpress.com/2011/03/10/potential-future-male-tennis-stars-richard-berankis/" property="og:url"></meta>\n    <meta content="Richard Berankis, Lithuania With a break in the main tour action this week, The Tennis Scoop has taken a look at a few of the players regarded as the stars of the near future on the ATP tour. We st..." property="og:description"></meta>\n    <meta content="Adirondack Tennis" property="og:site_name"></meta>\n    <meta content="http://adirondacktennis.files.wordpress.com/2011/03/berankis.jpg?w=200" property="og:image"></meta>\n    <meta content="http://adirondacktennis.files.wordpress.com/2011/03/berankis.jpg" name="twitter:image"></meta>\n    <meta content="photo" name="twitter:card"></meta>\n    <meta content="82016582" name="twitter:creator:id"></meta>\n    <meta content="249643311490" property="fb:app_id"></meta>\n    <link sizes="16x16 24x24 32x32 48x48" href="http://s2.wp.com/i/favicon.ico?m=1311976022g" type="image/x-icon" rel="shortcut icon"></link>\n    <link sizes="16x16 24x24 32x32 48x48" href="http://s2.wp.com/i/favicon.ico?m=1311976022g" type="image/x-icon" rel="icon"></link>\n    <link href="http://s0.wp.com/i/webclip.png?m=1311618091g" rel="apple-touch-icon-precomposed"></link>\n    <link href="http://adirondacktennis.wordpress.com/?openidserver=1" rel="openid.server"></link>\n    <link href="http://adirondacktennis.wordpress.com/" rel="openid.delegate"></link>\n    <link title="Adirondack Tennis" href="http://adirondacktennis.wordpress.com/osd.xml" type="application/opensearchdescription+xml" rel="search"></link>\n    <link title="WordPress.com" href="http://wordpress.com/opensearch.xml" type="application/opensearchdescription+xml" rel="search"></link>\n    <style>\n      /* &lt;![CDATA[ */\n\t\t/* Block: reblog */\n\t\t\n\t\t.reblog-from img                   { margin: 0 10px 0 0; vertical-align: middle; padding: 0; border: 0; }\n\t\t.reblogger-note img.avatar         { float: left; padding: 0; border: 0; }\n\t\t.reblogger-note-content            { margin: 0 0 20px; }\n\t\t.reblog-post .wpcom-enhanced-excerpt-content { border-left: 3px solid #eee; padding-left: 15px; }\n\t\t.reblog-post ul.thumb-list         { display: block; list-style: none; margin: 2px 0; padding: 0; clear: both; }\n\t\t.reblog-post ul.thumb-list li      { display: inline; margin: 0; padding: 0 1px; border: 0; }\n\t\t.reblog-post ul.thumb-list li a    { margin: 0; padding: 0; border: 0; }\n\t\t.reblog-post ul.thumb-list li img  { margin: 0; padding: 0; border: 0; }\n\t\t\n\t\t.reblog-post .wpcom-enhanced-excerpt { clear: both; }\n\t\t\n\t\t.reblog-post .wpcom-enhanced-excerpt address,\n\t\t.reblog-post .wpcom-enhanced-excerpt li,\n\t\t.reblog-post .wpcom-enhanced-excerpt h1,\n\t\t.reblog-post .wpcom-enhanced-excerpt h2,\n\t\t.reblog-post .wpcom-enhanced-excerpt h3,\n\t\t.reblog-post .wpcom-enhanced-excerpt h4,\n\t\t.reblog-post .wpcom-enhanced-excerpt h5,\n\t\t.reblog-post .wpcom-enhanced-excerpt h6,\n\t\t.reblog-post .wpcom-enhanced-excerpt p { font-size: 100% !important; }\n\t\t\n\t\t.reblog-post .wpcom-enhanced-excerpt blockquote,\n\t\t.reblog-post .wpcom-enhanced-excerpt pre,\n\t\t.reblog-post .wpcom-enhanced-excerpt code,\n\t\t.reblog-post .wpcom-enhanced-excerpt q { font-size: 98% !important; }\n\t\t\n\n\t\t/* ]]&gt; */\n    </style>\n    <meta content="Adirondack Tennis" name="application-name"></meta>\n    <meta content="width=device-width;height=device-height" name="msapplication-window"></meta>\n    <meta content="Local tennis covering the Northern Region - USTA Eastern Section" name="msapplication-tooltip"></meta>\n    <meta content="name=Subscribe;action-uri=http://adirondacktennis.wordpress.com/feed/;icon-uri=http://s2.wp.com/i/favicon.ico" name="msapplication-task"></meta>\n    <meta content="name=Sign up for a free blog;action-uri=http://wordpress.com/signup/;icon-uri=http://s2.wp.com/i/favicon.ico" name="msapplication-task"></meta>\n    <meta content="name=WordPress.com Support;action-uri=http://support.wordpress.com/;icon-uri=http://s2.wp.com/i/favicon.ico" name="msapplication-task"></meta>\n    <meta content="name=WordPress.com Forums;action-uri=http://forums.wordpress.com/;icon-uri=http://s2.wp.com/i/favicon.ico" name="msapplication-task"></meta>\n    <meta content="Potential Future Male Tennis Stars \xe2\x80\x93 Richard\xc2\xa0Berankis | Adirondack Tennis on WordPress.com" name="title"></meta>\n    <meta \n    content="Richard Berankis, Lithuania With a break in the main tour action this week, The Tennis Scoop has taken a look at a few of the players regarded as the stars of the near future on the ATP tour. We start off with highly rated Richard Berankis. The 20-year-old from Lithuania is currently ranked at a\xe2\x80\xa6" name="description">\n</meta>\n    <style> #site-title, #site-title a, #site-description { color: #04648d; } </style>\n    <style type="text/css"> body.custom-background #main{ background-image: url(\'http://adirondacktennis.files.wordpress.com/2012/02/the-falls1.jpg\'); background-repeat: repeat; background-position: top left; background-attachment: scroll; } </style>\n    <script src="http://partner.googleadservices.com/gampad/google_service.js" type="text/javascript"> </script>\n    <script type="text/javascript"> GS_googleAddAdSenseService(&quot;ca-pub-3443918307802676&quot;); GS_googleEnableAllServices(); </script>\n    <script type="text/javascript"> GA_googleAddSlot(&quot;ca-pub-3443918307802676&quot;, &quot;wpcom_below_post&quot;); </script>\n    <script type="text/javascript"> GA_googleFetchAds(); </script>\n    <script type="text/javascript"> window.google_analytics_uacct = &quot;UA-52447-2&quot;; </script>\n    <script type="text/javascript">\n      var _gaq = _gaq || [];\n\t_gaq.push([\'_setAccount\', \'UA-52447-2\']);\n\t_gaq.push([\'_setDomainName\', \'wordpress.com\']);\n\t_gaq.push([\'_initData\']);\n\t_gaq.push([\'_trackPageview\']);\n\n\t(function() {\n\t\tvar ga = document.createElement(\'script\'); ga.type = \'text/javascript\'; ga.async = true;\n\t\tga.src = (\'https:\' == document.location.protocol ? \'https://ssl\' : \'http://www\') + \'.google-analytics.com/ga.js\';\n\t\t(document.getElementsByTagName(\'head\')[0] || document.getElementsByTagName(\'body\')[0]).appendChild(ga);\n\t})();\n    </script>\n  </head>\n  <body class="single single-post postid-2842 single-format-standard custom-background content-sidebar highlander-enabled highlander-light">\n    <div id="container">\n      <div id="header" class="contain">\n        <div class="wrap">\n          <div id="branding">\n            <h1 id="site-title">\n              <a rel="home" title="Adirondack Tennis" href="http://adirondacktennis.wordpress.com/" shape="rect">Adirondack Tennis</a>\n            </h1>\n            <div id="site-description">Local tennis covering the Northern Region \xe2\x80\x93 USTA Eastern Section</div>\n          </div>\n        </div>\n      </div>\n      <div id="main">\n        <div class="wrap contain">\n          <div id="access">\n            <div class="menu">\n              <ul>\n                <li class="page_item page-item-2">\n                  <a href="http://adirondacktennis.wordpress.com/about/" shape="rect">About</a>\n                </li>\n                <li class="page_item page-item-5089">\n                  <a href="http://adirondacktennis.wordpress.com/donny-dudley/" shape="rect">Donny\xc2\xa0Dudley</a>\n                </li>\n                <li class="page_item page-item-4797">\n                  <a href="http://adirondacktennis.wordpress.com/links/" shape="rect">Links</a>\n                </li>\n                <li class="page_item page-item-189">\n                  <a href="http://adirondacktennis.wordpress.com/trivia-answers/" shape="rect">Trivia Answers \xe2\x80\x93\xc2\xa0Updated</a>\n                </li>\n              </ul>\n            </div>\n          </div>\n          <div id="content">\n            <div class="hfeed">\n              <div id="post-2842" class="post-2842 post type-post status-publish format-standard hentry category-professional-tennis tag-andre-agassi tag-association-of-tennis-professionals tag-dudi-sela tag-fernando-verdasco tag-richard-berankis contain">\n                <h1 class="entry-title">Potential Future Male Tennis Stars \xe2\x80\x93 Richard\xc2\xa0Berankis</h1>\n                <div class="byline">\n                  By\n                  <span class="author vcard">\n                    <a href="http://adirondacktennis.wordpress.com/author/pagreen374/" class="url fn n" shape="rect">pagreen374</a>\n                  </span>\n                  on\n                  <time pubdate="pubdate" title="Posted at 5:26 am" datetime="2011-03-10T05:26:05+00:00">March 10, 2011</time>\n                </div>\n                <div class="entry-content">\n                  <div id="pd_rating_holder_535330_post_2842" class="pd-rating"></div>\n                  <br clear="none"></br>\n                  <p>\n                    <a href="http://adirondacktennis.wordpress.com/2011/03/10/potential-future-male-tennis-stars-richard-berankis/berankis/" rel="attachment wp-att-2866" shape="rect">\n                      <img height="262" width="300" alt="" src="http://adirondacktennis.files.wordpress.com/2011/03/berankis.jpg?w=300&amp;h=262" title="berankis" class="alignleft size-medium wp-image-2866"></img>\n                    </a>\n                    Richard Berankis, Lithuania\n                  </p>\n                  <p>\n                    With a break in the main tour action this week, The Tennis Scoop has taken a look at a few of the players regarded as the stars of the near future on the\n                    <a href="http://www.atpworldtour.com" rel="homepage" title="Association of Tennis Professionals" class="zem_slink" shape="rect">ATP tour</a>\n                    . We start off with highly rated Richard Berankis.\n                  </p>\n                  <p>\n                    The 20-year-old from Lithuania is currently ranked at a career-high 73 in the world. The right-hander from Vilnius certainly has a lot of potential, although he doesn\xc3\xa2\xe2\x82\xac\xe2\x84\xa2t quite fit the mould for the modern male tennis pro. Standing in stark contrast to most of the breakthrough players of the last few years, such as Isner, Del Potro and more recently Raonic, Richard Berankis is only 1.75 meters tall and his stocky frame and speed around the court has drawn comparisons to\n                    <a href="http://en.wikipedia.org/wiki/Arnaud_Cl%C3%A9ment" rel="wikipedia" title="Arnaud Cl\xc3\x83\xc2\xa9ment" class="zem_slink" shape="rect">Arnaud Clement</a>\n                    . However the Lithuanian is far more explosive off the ground and is capable of some excellent shot making, which should help him to surpass the French journeymans career achievements.\n                    <br clear="none"></br>\n                    The youngster is already the highest ranked player to play for his native country, has captured the US Open Junior title in 2007 and the prestigeous Orange Bowl title, and became the world junior number one. He will also struggle to find a better base from which to launch his career, training and being coached at the IMG Bollettieri Academy in Florida, home to such legends as Pete Sampras,\n                    <a href="http://en.wikipedia.org/wiki/Bj%C3%B6rn_Borg" rel="wikipedia" title="Bj\xc3\x83\xc2\xb6rn Borg" class="zem_slink" shape="rect">Bjorn Borg</a>\n                    , Andre Agassi and the Williams sisters. He has however had the same coach, Remigijus Balzekas, since he was just 9 years old.\n                    <br clear="none"></br>\n                    2010 was the year that Berankis started to show signs he was ready to compete on the main tour. Two singles rubber wins against Great Britain set the tone early on. A challenger win on grass at the Nottingham event was followed up by an impressive second round exit at Wimbledon, taking a set off grass court veteran\n                    <a href="http://en.wikipedia.org/wiki/Feliciano_L%C3%B3pez" rel="wikipedia" title="Feliciano L\xc3\x83\xc2\xb3pez" class="zem_slink" shape="rect">Feliciano Lopez</a>\n                    in a 3-1 defeat. He reached another challenger final on the hard courts of Vancouver in week 31, losing in straight sets to Dudi Sela, before embarking on his strongest grand slam run to date. After defeating American Ryan Sweeting in the 1st round, Berankis then went on to give current world number 10\n                    <a href="http://www.juergenmelzer.com/" rel="homepage" title="J\xc3\x83\xc5\x92rgen Melzer" class="zem_slink" shape="rect">Jurgen Melzer</a>\n                    a scare in a 5 set epic, losing a tight 5th set 7-5. Richard finished off 2010 with another challenger win, this time against a strong field in Helsinki, including wins against Teimuraz Gabashvilli,\n                    <a href="http://en.wikipedia.org/wiki/Frank_Dancevic" rel="wikipedia" title="Frank Dancevic" class="zem_slink" shape="rect">Frank Dancevic</a>\n                    and fellow rising star Grigor Dimotrov.\n                  </p>\n                  <p>\n                    <a href="http://thetennisscoop.wordpress.com/2011/03/03/richard-berankis-3/" shape="rect">CLICK HERE</a>\n                    \xe2\x80\x93 For the complete article\n                  </p>\n                  <h6 style="font-size:1em;" class="zemanta-related-title">Related Articles</h6>\n                  <ul class="zemanta-article-ul">\n                    <li class="zemanta-article-ul-li">\n                      <a href="http://www.theglobeandmail.com/sports/more-sports/berankis-to-sap-open-quarter-finals/article1901427/?cmpid=rss1" shape="rect">Berankis to SAP Open Quarter-finals</a>\n                      (theglobeandmail.com)\n                    </li>\n                    <li class="zemanta-article-ul-li">\n                      <a href="http://www.sfgate.com/cgi-bin/blogs/threedotblog/detail?entry_id=83100" shape="rect">A Tennis Tradition Like Few Others</a>\n                      (sfgate.com)\n                    </li>\n                  </ul>\n                  <div style="position: relative; width:350px; text-align: center; padding: 0; background: #; margin: 10px auto; overflow: hidden;" class="wpadvert">\n                    <a rel="nofollow" href="http://en.wordpress.com/about-these-ads/" style="position: absolute; text-align: left; display: block; font: 9px/1 sans-serif; text-decoration: underline;" shape="rect">About these ads</a>\n                    <script type="text/javascript">\n                      GA_googleAddAttr(&quot;AdOpt&quot;, &quot;1&quot;);\nGA_googleAddAttr(&quot;Origin&quot;, &quot;other&quot;);\nGA_googleAddAttr(&quot;theme_bg&quot;, &quot;ffffff&quot;); \nGA_googleAddAttr(&quot;theme_text&quot;, &quot;333333&quot;); \nGA_googleAddAttr(&quot;theme_link&quot;, &quot;00648d&quot;); \nGA_googleAddAttr(&quot;theme_border&quot;, &quot;e7e1d4&quot;); \nGA_googleAddAttr(&quot;theme_url&quot;, &quot;00648d&quot;); \nGA_googleAddAttr(&quot;LangId&quot;, &quot;1&quot;);\nGA_googleAddAttr(&quot;Domain&quot;, &quot;adirondacktennis.wordpress.com&quot;);\nGA_googleAddAttr(&quot;Autotag&quot;, &quot;tennis&quot;);\nGA_googleAddAttr(&quot;Tag&quot;, &quot;professional-tennis&quot;);\nGA_googleAddAttr(&quot;Tag&quot;, &quot;andre-agassi&quot;);\nGA_googleAddAttr(&quot;Tag&quot;, &quot;association-of-tennis-professionals&quot;);\nGA_googleAddAttr(&quot;Tag&quot;, &quot;dudi-sela&quot;);\nGA_googleAddAttr(&quot;Tag&quot;, &quot;fernando-verdasco&quot;);\nGA_googleAddAttr(&quot;Tag&quot;, &quot;richard-berankis&quot;);\n\nGA_googleFillSlot(&quot;wpcom_below_post&quot;);\n                    </script>\n                  </div>\n                  <style type="text/css"> div.wpadvert&gt;div { margin-top: 1em; } </style>\n                  <div id="jp-post-flair" class="sharedaddy sd-rating-enabled sd-like-enabled sd-sharing-enabled">\n                    <div class="sharedaddy sd-sharing-enabled">\n                      <div class="robots-nocontent sd-block sd-social sd-social-icon-text sd-sharing">\n                        <h3 class="sd-title">Share this:</h3>\n                        <div class="sd-content">\n                          <ul>\n                            <li class="share-print">\n                              <a title="Click to print" href="http://adirondacktennis.wordpress.com/2011/03/10/potential-future-male-tennis-stars-richard-berankis/#print" rel="nofollow" class="share-print sd-button share-icon" shape="rect">\n                                <span>Print</span>\n                              </a>\n                            </li>\n                            <li class="share-digg">\n                              <a title="Click to Digg this post" href="http://adirondacktennis.wordpress.com/2011/03/10/potential-future-male-tennis-stars-richard-berankis/?share=digg" rel="nofollow" class="share-digg sd-button share-icon" shape="rect">\n                                <span>Digg</span>\n                              </a>\n                            </li>\n                            <li class="share-facebook">\n                              <a title="Share on Facebook" href="http://adirondacktennis.wordpress.com/2011/03/10/potential-future-male-tennis-stars-richard-berankis/?share=facebook" rel="nofollow" id="sharing-facebook-2842" class="share-facebook sd-button share-icon" shape="rect">\n                                <span>Facebook</span>\n                              </a>\n                            </li>\n                            <li class="share-stumbleupon">\n                              <a title="Click to share on StumbleUpon" href="http://adirondacktennis.wordpress.com/2011/03/10/potential-future-male-tennis-stars-richard-berankis/?share=stumbleupon" rel="nofollow" class="share-stumbleupon sd-button share-icon" shape="rect">\n                                <span>StumbleUpon</span>\n                              </a>\n                            </li>\n                            <li class="share-twitter">\n                              <a title="Click to share on Twitter" href="http://adirondacktennis.wordpress.com/2011/03/10/potential-future-male-tennis-stars-richard-berankis/?share=twitter" rel="nofollow" id="sharing-twitter-2842" class="share-twitter sd-button share-icon" shape="rect">\n                                <span>Twitter</span>\n                              </a>\n                            </li>\n                            <li class="share-reddit">\n                              <a title="Click to share on Reddit" href="http://adirondacktennis.wordpress.com/2011/03/10/potential-future-male-tennis-stars-richard-berankis/?share=reddit" rel="nofollow" class="share-reddit sd-button share-icon" shape="rect">\n                                <span>Reddit</span>\n                              </a>\n                            </li>\n                            <li class="share-pinterest">\n                              <a title="Click to share on Pinterest" href="http://adirondacktennis.wordpress.com/2011/03/10/potential-future-male-tennis-stars-richard-berankis/?share=pinterest" rel="nofollow" class="share-pinterest sd-button share-icon" shape="rect">\n                                <span>Pinterest</span>\n                              </a>\n                            </li>\n                            <li class="share-tumblr">\n                              <a title="Click to share on Tumblr" href="http://adirondacktennis.wordpress.com/2011/03/10/potential-future-male-tennis-stars-richard-berankis/?share=tumblr" rel="nofollow" class="share-tumblr sd-button share-icon" shape="rect">\n                                <span>Tumblr</span>\n                              </a>\n                            </li>\n                            <li class="share-email">\n                              <a title="Click to email this to a friend" href="http://adirondacktennis.wordpress.com/2011/03/10/potential-future-male-tennis-stars-richard-berankis/?share=email" rel="nofollow" class="share-email sd-button share-icon" shape="rect">\n                                <span>Email</span>\n                              </a>\n                            </li>\n                            <li class="share-linkedin">\n                              <a title="Click to share on LinkedIn" href="http://adirondacktennis.wordpress.com/2011/03/10/potential-future-male-tennis-stars-richard-berankis/?share=linkedin" rel="nofollow" id="sharing-linkedin-2842" class="share-linkedin sd-button share-icon" shape="rect">\n                                <span>LinkedIn</span>\n                              </a>\n                            </li>\n                            <li class="share-google-plus-1">\n                              <div class="googleplus1_button">\n                                <div data-href="http://adirondacktennis.wordpress.com/2011/03/10/potential-future-male-tennis-stars-richard-berankis/" data-callback="sharing_plusone" data-size="medium" class="g-plusone"></div>\n                              </div>\n                            </li>\n                            <li class="share-end"></li>\n                          </ul>\n                          <div class="sharing-clear"></div>\n                        </div>\n                      </div>\n                    </div>\n                    <div class="wpl-likebox sd-block sd-like">\n                      <h3 class="sd-title">Like this:</h3>\n                      <div class="sd-content">\n                        <div id="like-2842" class="wpl-button">\n                          <a rel="nofollow" title="I like this." href="http://adirondacktennis.wordpress.com/2011/03/10/potential-future-male-tennis-stars-richard-berankis/?like=1&amp;_wpnonce=d5d394453a" class="like needs-login sd-button" shape="rect">\n                            <span>Like</span>\n                          </a>\n                        </div>\n                        <div class="wpl-count sd-like-count">Be the first to like this.</div>\n                      </div>\n                    </div>\n                  </div>\n                </div>\n                <div class="entry-meta">\n                  Posted in:\n                  <a rel="category tag" title="View all posts in Professional Tennis" href="http://adirondacktennis.wordpress.com/category/professional-tennis/" shape="rect">Professional Tennis</a>\n                  | Tagged:\n                  <a rel="tag" href="http://adirondacktennis.wordpress.com/tag/andre-agassi/" shape="rect">Andre Agassi</a>\n                  ,\n                  <a rel="tag" href="http://adirondacktennis.wordpress.com/tag/association-of-tennis-professionals/" shape="rect">Association of Tennis Professionals</a>\n                  ,\n                  <a rel="tag" href="http://adirondacktennis.wordpress.com/tag/dudi-sela/" shape="rect">Dudi Sela</a>\n                  ,\n                  <a rel="tag" href="http://adirondacktennis.wordpress.com/tag/fernando-verdasco/" shape="rect">Fernando Verdasco</a>\n                  ,\n                  <a rel="tag" href="http://adirondacktennis.wordpress.com/tag/richard-berankis/" shape="rect">Richard Berankis</a>\n                </div>\n              </div>\n              <nav class="paged-navigation" id="post-nav">\n                <h1 class="assistive-text">Post navigation</h1>\n                <div class="nav-older">\n                  <a rel="prev" href="http://adirondacktennis.wordpress.com/2011/03/09/next-roger-federer/" shape="rect">\xe2\x86\x90 Older</a>\n                </div>\n                <div class="nav-newer">\n                  <a rel="next" href="http://adirondacktennis.wordpress.com/2011/03/11/male-tennis-players-thier-kids/" shape="rect">Newer \xe2\x86\x92</a>\n                </div>\n              </nav>\n              <div id="comments-template">\n                <div class="comments-wrap">\n                  <div id="comments">\n                    <h3 id="comments-number" class="comments-header">2 Responses</h3>\n                    <ol class="comment-list">\n                      <li id="comment-537" class="pingback even thread-even depth-1 highlander-comment">\n                        <div class="comment-wrap">\n                          <div class="comment-meta">\n                            <span class="fn comment-author">\n                              <a rel="external nofollow" href="http://Thetennisnews.info/?p=119480" class="url" shape="rect">Potential Future Male Tennis Stars \xc3\xa2\xe2\x82\xac\xe2\x80\x9c Richard Berankis\xc2\xa0|\xc2\xa0The Tennis News</a>\n                            </span>\n                            <a title="Permalink to this comment" href="http://adirondacktennis.wordpress.com/2011/03/10/potential-future-male-tennis-stars-richard-berankis/#comment-537" class="comment-permalink" shape="rect">\n                              <time datetime="2011-03-14T10:36:56+00:00" pubdate="pubdate">March 14, 2011 at 10:36 am</time>\n                            </a>\n                            |\n                            <a onclick="return addComment.moveForm(&quot;comment-537&quot;, &quot;537&quot;, &quot;respond&quot;, &quot;2842&quot;)" href="/2011/03/10/potential-future-male-tennis-stars-richard-berankis/?replytocom=537#respond" class="comment-reply-link" shape="rect">Reply</a>\n                          </div>\n                          <div class="comment-content comment-text">\n                            <p>[...] the rest here: Potential Future Male Tennis Stars \xc3\xa2\xe2\x82\xac\xe2\x80\x9c Richard Berankis \xc2\xa0 March 10th, 2011 Uncategorized Tags: already-the-highest, became-the-world, highest, [...]</p>\n                          </div>\n                        </div>\n                      </li>\n                      <li id="comment-539" class="pingback odd alt thread-odd thread-alt depth-1 highlander-comment">\n                        <div class="comment-wrap">\n                          <div class="comment-meta">\n                            <span class="fn comment-author">\n                              <a rel="external nofollow" href="http://tennissocialnetwork.info/?p=114317" class="url" shape="rect">Potential Future Male Tennis Stars \xc3\xa2\xe2\x82\xac\xe2\x80\x9c Richard Berankis</a>\n                            </span>\n                            <a title="Permalink to this comment" href="http://adirondacktennis.wordpress.com/2011/03/10/potential-future-male-tennis-stars-richard-berankis/#comment-539" class="comment-permalink" shape="rect">\n                              <time datetime="2011-03-14T13:47:21+00:00" pubdate="pubdate">March 14, 2011 at 1:47 pm</time>\n                            </a>\n                            |\n                            <a onclick="return addComment.moveForm(&quot;comment-539&quot;, &quot;539&quot;, &quot;respond&quot;, &quot;2842&quot;)" href="/2011/03/10/potential-future-male-tennis-stars-richard-berankis/?replytocom=539#respond" class="comment-reply-link" shape="rect">Reply</a>\n                          </div>\n                          <div class="comment-content comment-text">\n                            <p>[...] posted here: Potential Future Male Tennis Stars \xc3\xa2\xe2\x82\xac\xe2\x80\x9c Richard Berankis Tagged with: already-the-highest \xe2\x80\xa2 became-the-world \xe2\x80\xa2 highest \xe2\x80\xa2 highest-ranked [...]</p>\n                          </div>\n                        </div>\n                      </li>\n                    </ol>\n                  </div>\n                  <div id="respond">\n                    <h3 id="reply-title">\n                      Leave a Reply\n                      <small>\n                        <a style="display:none;" href="/2011/03/10/potential-future-male-tennis-stars-richard-berankis/#respond" rel="nofollow" id="cancel-comment-reply-link" shape="rect">Cancel reply</a>\n                      </small>\n                    </h3>\n                    <form action="http://adirondacktennis.wordpress.com/wp-comments-post.php" id="commentform" method="post" enctype="application/x-www-form-urlencoded">\n                      <input value="guest" name="hc_post_as" id="hc_post_as" type="hidden"></input>\n                      <div class="comment-form-field comment-textarea">\n                        <label for="comment">Enter your comment here...</label>\n                        <div id="comment-form-comment">\n                          <textarea name="comment" id="comment"></textarea>\n                        </div>\n                      </div>\n                      <div id="comment-form-identity">\n                        <div id="comment-form-nascar">\n                          <p>Fill in your details below or click an icon to log in:</p>\n                          <ul>\n                            <li style="display:none;" class="selected">\n                              <a title="Guest" href="#comment-form-guest" id="postas-guest" shape="rect">\n                                <span></span>\n                              </a>\n                            </li>\n                            <li>\n                              <a title="WordPress.com" href="#comment-form-load-service:WordPress.com" id="postas-wordpress" shape="rect">\n                                <span></span>\n                              </a>\n                            </li>\n                            <li>\n                              <a title="Twitter" href="#comment-form-load-service:Twitter" id="postas-twitter" shape="rect">\n                                <span></span>\n                              </a>\n                            </li>\n                            <li>\n                              <a title="Facebook" href="#comment-form-load-service:Facebook" id="postas-facebook" shape="rect">\n                                <span></span>\n                              </a>\n                            </li>\n                          </ul>\n                        </div>\n                        <div id="comment-form-guest" class="comment-form-service selected">\n                          <div class="comment-form-padder">\n                            <div class="comment-form-avatar">\n                              <a target="_blank" href="https://gravatar.com/site/signup/" shape="rect">\n                                <img width="25" alt="Gravatar" src="http://1.gravatar.com/avatar/ad516503a11cd5ca435acc9bb6523536?s=25&amp;d=identicon&amp;forcedefault=y&amp;r=G" class="no-grav"></img>\n                              </a>\n                            </div>\n                            <div class="comment-form-fields">\n                              <div class="comment-form-field comment-form-email">\n                                <label for="email">\n                                  Email\n                                  <span class="required">(required)</span>\n                                  <span class="nopublish">(Address never made public)</span>\n                                </label>\n                                <div class="comment-form-input">\n                                  <input value="" name="email" id="email" type="email"></input>\n                                </div>\n                              </div>\n                              <div class="comment-form-field comment-form-author">\n                                <label for="author">\n                                  Name\n                                  <span class="required">(required)</span>\n                                </label>\n                                <div class="comment-form-input">\n                                  <input value="" name="author" id="author" type="text"></input>\n                                </div>\n                              </div>\n                              <div class="comment-form-field comment-form-url">\n                                <label for="url">Website</label>\n                                <div class="comment-form-input">\n                                  <input value="" name="url" id="url" type="text"></input>\n                                </div>\n                              </div>\n                            </div>\n                          </div>\n                        </div>\n                        <div id="comment-form-wordpress" class="comment-form-service">\n                          <div class="comment-form-padder">\n                            <div class="comment-form-avatar">\n                              <img width="25" alt="WordPress.com Logo" src="http://s2.wp.com/wp-content/mu-plugins/highlander-comments/images/wplogo.png?m=1289230950g" class="no-grav"></img>\n                            </div>\n                            <div class="comment-form-fields">\n                              <input value="" name="wp_avatar" id="wordpress-avatar" class="comment-meta-wordpress" type="hidden"></input>\n                              <input value="" name="wp_user_id" id="wordpress-user_id" class="comment-meta-wordpress" type="hidden"></input>\n                              <input value="" name="wp_access_token" id="wordpress-access_token" class="comment-meta-wordpress" type="hidden"></input>\n                              <p class="comment-form-posting-as pa-wordpress">\n                                <strong></strong>\n                                You are commenting using your WordPress.com account.\n                                <span class="comment-form-log-out">\n                                  (\xc2\xa0\n                                  <a href="javascript:HighlanderComments.doExternalLogout( \'wordpress\' );" shape="rect">Log\xc2\xa0Out</a>\n                                  \xc2\xa0/\xc2\xa0\n                                  <a onclick="javascript:HighlanderComments.switchAccount();return false;" href="#" shape="rect">Change</a>\n                                  \xc2\xa0)\n                                </span>\n                              </p>\n                            </div>\n                          </div>\n                        </div>\n                        <div id="comment-form-twitter" class="comment-form-service">\n                          <div class="comment-form-padder">\n                            <div class="comment-form-avatar">\n                              <img width="25" alt="Twitter picture" src="http://1.gravatar.com/avatar/ad516503a11cd5ca435acc9bb6523536?s=25&amp;d=identicon&amp;forcedefault=y&amp;r=G" class="no-grav"></img>\n                            </div>\n                            <div class="comment-form-fields">\n                              <input value="" name="twitter_avatar" id="twitter-avatar" class="comment-meta-twitter" type="hidden"></input>\n                              <input value="" name="twitter_user_id" id="twitter-user_id" class="comment-meta-twitter" type="hidden"></input>\n                              <input value="" name="twitter_access_token" id="twitter-access_token" class="comment-meta-twitter" type="hidden"></input>\n                              <p class="comment-form-posting-as pa-twitter">\n                                <strong></strong>\n                                You are commenting using your Twitter account.\n                                <span class="comment-form-log-out">\n                                  (\xc2\xa0\n                                  <a href="javascript:HighlanderComments.doExternalLogout( \'twitter\' );" shape="rect">Log\xc2\xa0Out</a>\n                                  \xc2\xa0/\xc2\xa0\n                                  <a onclick="javascript:HighlanderComments.switchAccount();return false;" href="#" shape="rect">Change</a>\n                                  \xc2\xa0)\n                                </span>\n                              </p>\n                            </div>\n                          </div>\n                        </div>\n                        <div id="comment-form-facebook" class="comment-form-service">\n                          <div class="comment-form-padder">\n                            <div class="comment-form-avatar">\n                              <img width="25" alt="Facebook photo" src="http://1.gravatar.com/avatar/ad516503a11cd5ca435acc9bb6523536?s=25&amp;d=identicon&amp;forcedefault=y&amp;r=G" class="no-grav"></img>\n                            </div>\n                            <div class="comment-form-fields">\n                              <input value="" name="fb_avatar" id="facebook-avatar" class="comment-meta-facebook" type="hidden"></input>\n                              <input value="" name="fb_user_id" id="facebook-user_id" class="comment-meta-facebook" type="hidden"></input>\n                              <input value="" name="fb_access_token" id="facebook-access_token" class="comment-meta-facebook" type="hidden"></input>\n                              <p class="comment-form-posting-as pa-facebook">\n                                <strong></strong>\n                                You are commenting using your Facebook account.\n                                <span class="comment-form-log-out">\n                                  (\xc2\xa0\n                                  <a href="javascript:HighlanderComments.doExternalLogout( \'facebook\' );" shape="rect">Log\xc2\xa0Out</a>\n                                  \xc2\xa0/\xc2\xa0\n                                  <a onclick="javascript:HighlanderComments.switchAccount();return false;" href="#" shape="rect">Change</a>\n                                  \xc2\xa0)\n                                </span>\n                              </p>\n                            </div>\n                          </div>\n                        </div>\n                        <div id="comment-form-load-service" class="comment-form-service">\n                          <div class="comment-form-posting-as-cancel">\n                            <a href="javascript:HighlanderComments.cancelExternalWindow();" shape="rect">Cancel</a>\n                          </div>\n                          <p>Connecting to %s</p>\n                        </div>\n                      </div>\n                      <script type="text/javascript">\n                        jQuery(document).ready(function(){\n\tvar input = document.createElement( \'input\' ),\n\t    comment = jQuery( \'#comment\' );\n\n\tif ( \'placeholder\' in input ) {\n\t\tcomment.attr( \'placeholder\', jQuery( \'.comment-textarea label\' ).remove().text() );\n\t}\n\n\t// Expando Mode: start small, then auto-resize on first click + text length\n\tjQuery( \'#comment-form-identity\' ).hide();\n\tjQuery( \'#comment-form-subscribe\' ).hide();\n\tjQuery( \'#commentform .form-submit\' ).hide();\n\n\tcomment.css( { \'height\':\'10px\' } ).one( \'focus\', function() {\n\t\tvar timer = setInterval( HighlanderComments.resizeCallback, 10 )\n\t\tjQuery( this ).animate( { \'height\': HighlanderComments.initialHeight } ).delay( 100 ).queue( function(n) { clearInterval( timer ); HighlanderComments.resizeCallback(); n(); } );\n\t\tjQuery( \'#comment-form-identity\' ).slideDown();\n\t\tjQuery( \'#comment-form-subscribe\' ).slideDown();\n\t\tjQuery( \'#commentform .form-submit\' ).slideDown();\n\t});\n});\n                      </script>\n                      <div id="comment-form-subscribe">\n                        <p class="comment-subscription-form">\n                          <input style="width: auto;" value="subscribe" name="subscribe" id="subscribe" type="checkbox" tabindex="6"></input>\n                          <label id="subscribe-label" class="subscribe-label" for="subscribe">Notify me of follow-up comments via email.</label>\n                        </p>\n                      </div>\n                      <p class="form-submit">\n                        <input value="Post Comment" name="submit" id="comment-submit" type="submit"></input>\n                        <input value="2842" name="comment_post_ID" id="comment_post_ID" type="hidden"></input>\n                        <input value="0" name="comment_parent" id="comment_parent" type="hidden"></input>\n                      </p>\n                      <input value="1349196715" name="genseq" type="hidden"></input>\n                      <p style="display: none;">\n                        <input value="bab4d62d4a" name="akismet_comment_nonce" id="akismet_comment_nonce" type="hidden"></input>\n                      </p>\n                      <script src="http://s2.wp.com/wp-content/mu-plugins/akismet-2.5/form.js?m=1308783962g" type="text/javascript"></script>\n                      <p style="display: none;">\n                        <input value="23" name="ak_js" id="ak_js" type="hidden"></input>\n                      </p>\n                    </form>\n                  </div>\n                  <div style="clear: both"></div>\n                </div>\n              </div>\n            </div>\n          </div>\n          <div id="sidebar-primary" class="sidebar">\n            <div id="search-3" class="widget widget_search">\n              <div class="search">\n                <form action="http://adirondacktennis.wordpress.com/" id="searchform" method="get" enctype="application/x-www-form-urlencoded">\n                  <label class="assistive-text" for="s">Search</label>\n                  <input value="" placeholder="Search" name="s" id="s" class="field" type="text"></input>\n                  <input value="Search" name="submit" id="searchsubmit" class="submit" type="submit"></input>\n                </form>\n              </div>\n            </div>\n            <div id="top-posts-2" class="widget widget_top-posts">\n              <h3 class="widget-title">Top Posts</h3>\n              <ul>\n                <li>\n                  <a data-bump-view="tp" href="http://adirondacktennis.wordpress.com/2012/10/01/watch-the-ball-hit-the-strings/" class="bump-view" shape="rect">Watch the Ball Hit the Strings</a>\n                </li>\n                <li>\n                  <a data-bump-view="tp" href="http://adirondacktennis.wordpress.com/2012/09/19/girls-high-school-tennis-results-september-18-2012/" class="bump-view" shape="rect">Girls High School Tennis Results - September 18, 2012</a>\n                </li>\n                <li>\n                  <a data-bump-view="tp" href="http://adirondacktennis.wordpress.com/2012/09/26/high-school-tennis-results-september-25-2012/" class="bump-view" shape="rect">High School Tennis Results - September 25, 2012</a>\n                </li>\n                <li>\n                  <a data-bump-view="tp" href="http://adirondacktennis.wordpress.com/2011/11/01/emily-qua-and-holly-fletcher-star-for-hudson-valley/" class="bump-view" shape="rect">Emily Qua and Holly Fletcher Star for Hudson Valley</a>\n                </li>\n                <li>\n                  <a data-bump-view="tp" href="http://adirondacktennis.wordpress.com/2012/01/06/pasta-tennis-racquets/" class="bump-view" shape="rect">Pasta Tennis Racquets</a>\n                </li>\n                <li>\n                  <a data-bump-view="tp" href="http://adirondacktennis.wordpress.com/2012/09/29/bollettieri-stays-everyone-else-goes/" class="bump-view" shape="rect">Bollettieri stays - everyone else goes</a>\n                </li>\n                <li>\n                  <a data-bump-view="tp" href="http://adirondacktennis.wordpress.com/2012/02/03/tim-mayottes-reply-to-the-wayne-bryan-letter/" class="bump-view" shape="rect">Tim Mayotte\'s Reply to the Wayne Bryan Letter</a>\n                </li>\n                <li>\n                  <a data-bump-view="tp" href="http://adirondacktennis.wordpress.com/2012/09/29/high-school-tennis-results-september-28-2012/" class="bump-view" shape="rect">High School Tennis Results - September 28, 2012</a>\n                </li>\n                <li>\n                  <a data-bump-view="tp" href="http://adirondacktennis.wordpress.com/2012/09/30/october-2012-local-college-tennis-schedule/" class="bump-view" shape="rect">October 2012 Local College Tennis Schedule</a>\n                </li>\n                <li>\n                  <a data-bump-view="tp" href="http://adirondacktennis.wordpress.com/2011/07/26/federer-hingis-in-talks-for-2012-olympics/" class="bump-view" shape="rect">Federer, Hingis in talks for 2012 Olympics</a>\n                </li>\n              </ul>\n            </div>\n            <div id="linkcat-1999" class="widget widget_links">\n              <h3 class="widget-title">Tennis</h3>\n              <ul class="xoxo blogroll">\n                <li>\n                  <a href="http://adirondacktennis.com/" shape="rect">Adirondack Tennis</a>\n                </li>\n                <li>\n                  <a title="Capital Region Tennis &amp; Fitness Website" href="http://www.capitalregiontennis.com" shape="rect">Capital Region Tennis</a>\n                </li>\n              </ul>\n            </div>\n            <div id="linkcat-5028259" class="widget widget_links">\n              <h3 class="widget-title">Tennis Blogs</h3>\n              <ul class="xoxo blogroll">\n                <li>\n                  <a title="Irreverent musings from a Tennis Fanatic" href="http://craighickmanontennis.blogspot.com/" shape="rect">Criag Hickman\'s Tennis Blog</a>\n                </li>\n                <li>\n                  <a href="http://www.oncourtadvantage.com/" shape="rect">On Court Advantage</a>\n                </li>\n                <li>\n                  <a href="http://parentingaces.com/" shape="rect">Parenting Aces</a>\n                </li>\n                <li>\n                  <a href="http://www.tennisgrandstand.com/" shape="rect">Tennis Grandstand</a>\n                </li>\n                <li>\n                  <a href="http://the-slice.com/" shape="rect">The Slice</a>\n                </li>\n              </ul>\n            </div>\n            <div id="linkcat-63253233" class="widget widget_links">\n              <h3 class="widget-title">Tickets- Use Discount Code ADK for a 2% discount at checkout</h3>\n              <ul class="xoxo blogroll">\n                <li>\n                  <a href="http://rapidfiretickets.com/ResultsGeneral.aspx?pcatid=1&amp;ccatid=63&amp;gcatid=16&amp;kwds=Boston%20Red%20Sox" shape="rect">Boston Red Sox Tickets</a>\n                </li>\n                <li>\n                  <a href="http://rapidfiretickets.com/ResultsGeneral.aspx?stype=0&amp;kwds=glens%20falls%20civic" shape="rect">Glens Falls Civic Center Tickets</a>\n                </li>\n                <li>\n                  <a href="http://rapidfiretickets.com/ResultsGeneral.aspx?pcatid=1&amp;ccatid=63&amp;gcatid=16&amp;kwds=New%20York%20Mets" shape="rect">N.Y. Mets Tickets</a>\n                </li>\n                <li>\n                  <a href="http://rapidfiretickets.com/ResultsEvent.aspx?event=New+York+Yankees&amp;pid=735" shape="rect">N.Y. Yankee\'s Tickets</a>\n                </li>\n                <li>\n                  <a href="http://rapidfiretickets.com/ResultsGeneral.aspx?stype=2&amp;kwds=New%20England%20Patriots" shape="rect">New England Patriots Tickets</a>\n                </li>\n                <li>\n                  <a href="http://rapidfiretickets.com/ResultsGeneral.aspx?stype=2&amp;kwds=New%20York%20Giants" shape="rect">New York Giants Tickets</a>\n                </li>\n                <li>\n                  <a href="http://rapidfiretickets.com/ResultsVenue.aspx?venid=408&amp;vname=Palace+Theatre+Albany" shape="rect">Palace Theater Tickets</a>\n                </li>\n                <li>\n                  <a href="http://rapidfiretickets.com/ResultsGeneral.aspx?stype=0&amp;kwds=proctors" shape="rect">Proctor\'s Theater Tickets</a>\n                </li>\n                <li>\n                  <a href="http://rapidfiretickets.com/ResultsGeneral.aspx?stype=2&amp;kwds=Syracuse%20Orange&amp;pcatid=1&amp;ccatid=65&amp;gcatid=17" shape="rect">Syracuse Football Tickets</a>\n                </li>\n                <li>\n                  <a href="http://rapidfiretickets.com/ResultsVenue.aspx?venid=44&amp;vname=Times+Union+Center+%28formerly+Pepsi+Arena%29" shape="rect">Times Union Center Tickets</a>\n                </li>\n                <li>\n                  <a title="Use Disciunt Code ADK for a 2% discount at checkout" href="http://rapidfiretickets.com/ResultsCategory.aspx?pcatid=1&amp;ccatid=27" shape="rect">U.S.Open &amp; New Haven Tournament Tickets</a>\n                </li>\n              </ul>\n            </div>\n            <div id="linkcat-3346" class="widget widget_links">\n              <h3 class="widget-title">Web Sites</h3>\n              <ul class="xoxo blogroll">\n                <li>\n                  <a title="Online Blog Web Directory" href="http://www.blogpopular.net/" shape="rect">Blog Popular</a>\n                </li>\n                <li>\n                  <a href="http://wordpress.com/" shape="rect">WordPress.com</a>\n                </li>\n              </ul>\n            </div>\n            <div id="recent-posts-2" class="widget widget_recent_entries">\n              <h3 class="widget-title">Recent Posts</h3>\n              <ul>\n                <li>\n                  <a title="High School Tennis Results \xe2\x80\x93 October 1,\xc2\xa02012" href="http://adirondacktennis.wordpress.com/2012/10/02/high-school-tennis-results/" shape="rect">High School Tennis Results \xe2\x80\x93 October 1,\xc2\xa02012</a>\n                </li>\n                <li>\n                  <a title="Watch the Ball Hit the\xc2\xa0Strings" href="http://adirondacktennis.wordpress.com/2012/10/01/watch-the-ball-hit-the-strings/" shape="rect">Watch the Ball Hit the\xc2\xa0Strings</a>\n                </li>\n                <li>\n                  <a title="October 2012 Local College Tennis\xc2\xa0Schedule" href="http://adirondacktennis.wordpress.com/2012/09/30/october-2012-local-college-tennis-schedule/" shape="rect">October 2012 Local College Tennis\xc2\xa0Schedule</a>\n                </li>\n                <li>\n                  <a title="Bollettieri stays \xe2\x80\x93 everyone else\xc2\xa0goes" href="http://adirondacktennis.wordpress.com/2012/09/29/bollettieri-stays-everyone-else-goes/" shape="rect">Bollettieri stays \xe2\x80\x93 everyone else\xc2\xa0goes</a>\n                </li>\n                <li>\n                  <a title="High School Tennis Results \xe2\x80\x93 September 28,\xc2\xa02012" href="http://adirondacktennis.wordpress.com/2012/09/29/high-school-tennis-results-september-28-2012/" shape="rect">High School Tennis Results \xe2\x80\x93 September 28,\xc2\xa02012</a>\n                </li>\n              </ul>\n            </div>\n            <div id="blog-stats" class="widget widget_statscounter">\n              <h3 class="widget-title">Blog Stats</h3>\n              <ul>\n                <li>87,120 hits</li>\n              </ul>\n            </div>\n            <div id="categories-2" class="widget widget_categories">\n              <h3 class="widget-title">Categories</h3>\n              <ul>\n                <li class="cat-item cat-item-44445760">\n                  <a title="View all posts filed under Adirondacks Tennis" href="http://adirondacktennis.wordpress.com/category/adirondacks-tennis/" shape="rect">Adirondacks Tennis</a>\n                  (29)\n                </li>\n                <li class="cat-item cat-item-1053332">\n                  <a title="View all posts filed under College Tennis" href="http://adirondacktennis.wordpress.com/category/college-tennis/" shape="rect">College Tennis</a>\n                  (196)\n                </li>\n                <li class="cat-item cat-item-375350">\n                  <a title="View all posts filed under CTC" href="http://adirondacktennis.wordpress.com/category/ctc/" shape="rect">CTC</a>\n                  (11)\n                </li>\n                <li class="cat-item cat-item-25460280">\n                  <a title="View all posts filed under High School &amp; Team Tennis" href="http://adirondacktennis.wordpress.com/category/high-school-team-tennis/" shape="rect">High School &amp; Team Tennis</a>\n                  (135)\n                </li>\n                <li class="cat-item cat-item-53960817">\n                  <a title="View all posts filed under Local Tournament Tennis" href="http://adirondacktennis.wordpress.com/category/local-tournament-tennis/" shape="rect">Local Tournament Tennis</a>\n                  (85)\n                </li>\n                <li class="cat-item cat-item-16148">\n                  <a title="View all posts filed under Members" href="http://adirondacktennis.wordpress.com/category/members/" shape="rect">Members</a>\n                  (1)\n                </li>\n                <li class="cat-item cat-item-107453743">\n                  <a title="View all posts filed under Nationally Ranked Players" href="http://adirondacktennis.wordpress.com/category/nationally-ranked-players/" shape="rect">Nationally Ranked Players</a>\n                  (4)\n                </li>\n                <li class="cat-item cat-item-5637816">\n                  <a title="View all posts filed under Northern Region" href="http://adirondacktennis.wordpress.com/category/northern-region/" shape="rect">Northern Region</a>\n                  (161)\n                </li>\n                <li class="cat-item cat-item-4535477">\n                  <a title="View all posts filed under Professional Tennis" href="http://adirondacktennis.wordpress.com/category/professional-tennis/" shape="rect">Professional Tennis</a>\n                  (499)\n                </li>\n                <li class="cat-item cat-item-1431644">\n                  <a title="View all posts filed under Quickstart" href="http://adirondacktennis.wordpress.com/category/quickstart/" shape="rect">Quickstart</a>\n                  (16)\n                </li>\n                <li class="cat-item cat-item-1999">\n                  <a title="View all posts filed under Tennis" href="http://adirondacktennis.wordpress.com/category/tennis/" shape="rect">Tennis</a>\n                  (35)\n                </li>\n                <li class="cat-item cat-item-25460246">\n                  <a title="View all posts filed under Tennis Around the Net" href="http://adirondacktennis.wordpress.com/category/tennis-around-the-net/" shape="rect">Tennis Around the Net</a>\n                  (154)\n                </li>\n                <li class="cat-item cat-item-1076680">\n                  <a title="View all posts filed under Tennis Instruction" href="http://adirondacktennis.wordpress.com/category/tennis-instruction/" shape="rect">Tennis Instruction</a>\n                  (47)\n                </li>\n                <li class="cat-item cat-item-1">\n                  <a title="View all posts filed under Uncategorized" href="http://adirondacktennis.wordpress.com/category/uncategorized/" shape="rect">Uncategorized</a>\n                  (146)\n                </li>\n                <li class="cat-item cat-item-83658061">\n                  <a title="View all posts filed under USTA &amp; Rules of Tennis" href="http://adirondacktennis.wordpress.com/category/usta-rules-of-tennis/" shape="rect">USTA &amp; Rules of Tennis</a>\n                  (3)\n                </li>\n              </ul>\n            </div>\n          </div>\n        </div>\n      </div>\n      <div id="footer">\n        <div class="wrap">\n          <p class="credit">\n            <a rel="generator" href="http://wordpress.com/?ref=footer" shape="rect">Blog at WordPress.com</a>\n            .\n\t\t\t\t\tTheme: Retro-Fitted by\n            <a rel="designer" href="http://justintadlock.com/" shape="rect">Justin Tadlock</a>\n            .\n          </p>\n        </div>\n      </div>\n    </div>\n    <script type="text/javascript">\n      var _qevents = _qevents || [], wpcomQuantcastData = {&quot;qacct&quot;:&quot;p-18-mFEk4J448M&quot;,&quot;labels&quot;:&quot;,language.en,type.wpcom,posttag.andre-agassi,posttag.association-of-tennis-professionals,posttag.dudi-sela,posttag.fernando-verdasco,posttag.richard-berankis,as&quot;};\nfunction wpcomQuantcastPixel( labels, options ) {\n\tvar i, defaults = wpcomQuantcastData, data = { event: \'ajax\' };\n\n\tlabels  = labels  || \'\';\n\toptions = options || {};\n\n\tif ( typeof labels != \'string\' )\n\t\toptions = labels;\n\n\tfor ( i in defaults ) {\n\t\tdata[i] = defaults[i];\n\t}\n\n\tfor ( i in options ) {\n\t\tdata[i] = options[i];\n\t}\n\n\tif ( data.labels ) {\n\t\tdata.labels += \',\' + labels;\n\t} else {\n\t\tdata.labels = labels;\n\t}\n\n\t_qevents.push( data );\n};\n(function() {var elem = document.createElement(\'script\');elem.src = (document.location.protocol == &quot;https:&quot; ? &quot;https://secure&quot; : &quot;http://edge&quot;) + &quot;.quantserve.com/quant.js&quot;;elem.async = true;elem.type = &quot;text/javascript&quot;;var scpt = document.getElementsByTagName(\'script\')[0];scpt.parentNode.insertBefore(elem, scpt);  })();\n_qevents.push( wpcomQuantcastData );\n    </script>\n    <noscript>\n      <div style="display: none;">\n        <img alt="" width="1" height="1" src="//pixel.quantserve.com/pixel/p-18-mFEk4J448M.gif?labels=%2Clanguage.en%2Ctype.wpcom%2Cposttag.andre-agassi%2Cposttag.association-of-tennis-professionals%2Cposttag.dudi-sela%2Cposttag.fernando-verdasco%2Cposttag.richard-berankis%2Cas"></img>\n      </div>\n    </noscript>\n    <script type="text/javascript">\n      /* &lt;![CDATA[ */\n\t(function($){\n\t\t$(document).on( \'ready post-load\', function() {\n\n\t\t\t// Remove the login box when clicking the page\n\t\t\t$( document ).mousedown( function( e ) {\n\t\t\t\tif ( null == $( e.target ).closest( \'#wpl-mustlogin\' ).get( 0 ) ) {\n\t\t\t\t\t$( \'#wpl-mustlogin\' ).remove();\n\t\t\t\t}\n\t\t\t});\n\n\t\t\t// Handle clicking the like button itself\n\t\t\t$(\'.wpl-button &gt; a.like\').click( function(e) {\n\t\t\t\te.preventDefault();\n\n\t\t\t\tvar postid = $(this).parent().attr(\'id\').split(\'like-\')[1];\n\t\t\t\t$.post( \'http://adirondacktennis.wordpress.com/wp-admin/admin-ajax.php\', {\n\t\t\t\t\t\'action\': \'wpl_record_stat\',\n\t\t\t\t\t\'stat_name\': \'loggedout_like_click\'\n\t\t\t\t} );\n\n\t\t\t\tvar tenMins = new Date();\n\t\t\t\ttenMins.setTime( tenMins.getTime() + 600000 );\n\t\t\t\tdocument.cookie = \'wpl_rand=cc8892f7eb; expires=\' + tenMins.toGMTString() + \'; domain=wordpress.com; path=/;\';\n\n\t\t\t\t$(this).parent().siblings(\'.wpl-count\').after( \'\\\n\t\t\t\t\t&lt;div id=&quot;wpl-mustlogin&quot;&gt; \\\n\t\t\t\t\t\t&lt;form action=&quot;https://adirondacktennis.wordpress.com/wp-login.php&quot; method=&quot;post&quot;&gt; \\\n\t\t\t\t\t\t\t&lt;p&gt;Just one more step to like this:&lt;/p&gt; \\\n\t\t\t\t\t\t\t&lt;label&gt;&lt;span&gt;Username&lt;/span&gt; &lt;input type=&quot;text&quot; name=&quot;log&quot; id=&quot;user_login&quot; class=&quot;input&quot; value=&quot;&quot; size=&quot;20&quot; tabindex=&quot;80&quot; /&gt;&lt;/label&gt; \\\n\t\t\t\t\t\t\t&lt;label&gt;&lt;span&gt;Password&lt;/span&gt; &lt;input type=&quot;password&quot; name=&quot;pwd&quot; id=&quot;user_pass&quot; class=&quot;input&quot; value=&quot;&quot; size=&quot;20&quot; tabindex=&quot;81&quot; /&gt;&lt;/label&gt; \\\n\t\t\t\t\t\t\t&lt;input type=&quot;submit&quot; name=&quot;wp-submit&quot; id=&quot;wp-submit&quot; class=&quot;button-primary&quot; value=&quot;Log In&quot; tabindex=&quot;82&quot; /&gt; \\\n\t\t\t\t\t\t\t&lt;input type=&quot;hidden&quot; name=&quot;postid&quot; value=&quot;\' + postid + \'&quot; /&gt; \\\n\t\t\t\t\t\t\t&lt;input type=&quot;hidden&quot; name=&quot;redirect_to&quot; value=&quot;http://adirondacktennis.wordpress.com/2011/03/10/potential-future-male-tennis-stars-richard-berankis?year=2011&amp;#038;monthnum=03&amp;#038;day=10&amp;#038;name=potential-future-male-tennis-stars-richard-berankis&amp;#038;like=1&quot; /&gt; \\\n\t\t\t\t\t\t\t&lt;input type=&quot;hidden&quot; name=&quot;wpl_rand&quot; value=&quot;cc8892f7eb&quot; /&gt; \\\n\t\t\t\t\t\t\t&lt;p&gt;Not a member yet? &lt;a href=&quot;http://wordpress.com/signup/?ref=likebox&quot; id=&quot;wpl-signup-link&quot;&gt;Sign up with WordPress.com&lt;/a&gt;&lt;/p&gt; \\\n\t\t\t\t\t\t&lt;/form&gt; \\\n\t\t\t\t\t&lt;/div&gt; \\\n\t\t\t\t\');\n\n\t\t\t\t$(\'#wpl-mustlogin\').hide().slideDown(\'fast\');\n\t\t\t} );\n\n\t\t\t$(\'#wpl-mustlogin input.input\').live( \'focus\', function() {\n\t\t\t\t$(this).prev().hide();\n\t\t\t}).live( \'blur\', function() {\n\t\t\t\tif ( $(this).val() == \'\' ) {\n\t\t\t\t\t$(this).prev().show();\n\t\t\t\t}\n\t\t\t});\n\n\t\t\t$(\'#wpl-mustlogin input#wp-submit\').live( \'click\', function(e) {\n\t\t\t\te.preventDefault();\n\n\t\t\t\t$.post( \'http://adirondacktennis.wordpress.com/wp-admin/admin-ajax.php\', {\n\t\t\t\t\t\'action\': \'wpl_record_stat\',\n\t\t\t\t\t\'stat_name\': \'loggedout_login_submit\'\n\t\t\t\t}, function() {\n\t\t\t\t\t$(\'#wpl-mustlogin form\').submit();\n\t\t\t\t} );\n\t\t\t});\n\n\t\t\t$(\'#wpl-mustlogin a#wpl-signup-link\').live( \'click\', function(e) {\n\t\t\t\te.preventDefault();\n\n\t\t\t\tvar link = $(this).attr(\'href\');\n\n\t\t\t\t$.post( \'http://adirondacktennis.wordpress.com/wp-admin/admin-ajax.php\', {\n\t\t\t\t\t\'action\': \'wpl_record_stat\',\n\t\t\t\t\t\'stat_name\': \'loggedout_signup_click\'\n\t\t\t\t}, function() {\n\t\t\t\t\tlocation.href = link;\n\t\t\t\t} );\n\t\t\t});\n\t\t})\n\t})(jQuery);\n\t/* ]]&gt; */\n    </script>\n    <script src="http://s.gravatar.com/js/gprofiles.js?ver=201240ab" type="text/javascript"></script>\n    <script type="text/javascript"> /* &lt;![CDATA[ */ var WPGroHo = {&quot;my_hash&quot;:&quot;&quot;}; /* ]]&gt; */ </script>\n    <script src="http://s1.wp.com/wp-content/mu-plugins/gravatar-hovercards/wpgroho.js?m=1318621548g" type="text/javascript"></script>\n    <script>jQuery(document).ready(function($){ Gravatar.profile_cb = function( h, d ) { WPGroHo.syncProfileData( h, d ); }; Gravatar.my_hash = WPGroHo.my_hash; Gravatar.init( \'body\', \'#wp-admin-bar-my-account\' ); });</script>\n    <div style="display:none"> </div>\n    <script type="text/javascript">\n      /* &lt;![CDATA[ */\nvar HighlanderComments = {&quot;loggingInText&quot;:&quot;Logging In\\u2026&quot;,&quot;submittingText&quot;:&quot;Posting Comment\\u2026&quot;,&quot;postCommentText&quot;:&quot;Post Comment&quot;,&quot;connectingToText&quot;:&quot;Connecting to %s&quot;,&quot;commentingAsText&quot;:&quot;%1$s: You are commenting using your %2$s account.&quot;,&quot;logoutText&quot;:&quot;Log Out&quot;,&quot;loginText&quot;:&quot;Log In&quot;,&quot;connectURL&quot;:&quot;http:\\/\\/adirondacktennis.wordpress.com\\/public.api\\/connect\\/?action=request&quot;,&quot;logoutURL&quot;:&quot;http:\\/\\/adirondacktennis.wordpress.com\\/wp-login.php?action=logout&amp;_wpnonce=2e7e08429c&quot;,&quot;homeURL&quot;:&quot;http:\\/\\/adirondacktennis.wordpress.com\\/&quot;,&quot;postID&quot;:&quot;2842&quot;,&quot;gravDefault&quot;:&quot;identicon&quot;,&quot;enterACommentError&quot;:&quot;Please enter a comment&quot;,&quot;enterEmailError&quot;:&quot;Please enter your email address here&quot;,&quot;invalidEmailError&quot;:&quot;Invalid email address&quot;,&quot;enterAuthorError&quot;:&quot;Please enter your name here&quot;,&quot;gravatarFromEmail&quot;:&quot;This picture will show whenever you leave a comment. Click to customize it.&quot;,&quot;logInToExternalAccount&quot;:&quot;Log in to use details from one of these accounts.&quot;,&quot;change&quot;:&quot;Change&quot;,&quot;changeAccount&quot;:&quot;Change Account&quot;,&quot;comment_registration&quot;:&quot;&quot;,&quot;userIsLoggedIn&quot;:&quot;&quot;,&quot;isJetpack&quot;:&quot;0&quot;};\n/* ]]&gt; */\n    </script>\n    <script src="http://s0.wp.com/wp-content/mu-plugins/highlander-comments/script.js?m=1342824083g" type="text/javascript"></script>\n    <div id="bit" class="loggedout-follow-normal">\n      <a href="javascript:void(0)" class="bsub" shape="rect">\n        <span id="bsub-text">Follow</span>\n      </a>\n      <div id="bitsubscribe">\n        <h3>\n          <label for="loggedout-follow-field">Follow \xe2\x80\x9cAdirondack Tennis\xe2\x80\x9d</label>\n        </h3>\n        <form accept-charset="utf-8" action="https://subscribe.wordpress.com" id="loggedout-follow" method="post" enctype="application/x-www-form-urlencoded">\n          <p>Get every new post delivered to your Inbox.</p>\n          <p style="display: none;" id="loggedout-follow-error"></p>\n          <p class="bit-follow-count">Join 31 other followers</p>\n          <p>\n            <input \n            onblur="this.value=(this.value==&quot;&quot;) ? &quot;Enter email address&quot; : this.value;" onfocus="this.value=(this.value==&quot;Enter your email address&quot;) ? &quot;&quot; : this.value;" value="Enter your email address" style="width: 95%; padding: 1px 2px" name="email" id="loggedout-follow-field" type="email">\n</input>\n          </p>\n          <input value="subscribe" name="action" type="hidden"></input>\n          <input value="9572716" name="blog_id" type="hidden"></input>\n          <input value="http://adirondacktennis.wordpress.com/2011/03/10/potential-future-male-tennis-stars-richard-berankis/" name="source" type="hidden"></input>\n          <input value="loggedout-follow" name="sub-type" type="hidden"></input>\n          <input value="15eebad6ce" name="_wpnonce" id="_wpnonce" type="hidden"></input>\n          <input value="/2011/03/10/potential-future-male-tennis-stars-richard-berankis/" name="_wp_http_referer" type="hidden"></input>\n          <p id="bsub-subscribe-button">\n            <input value="Sign me up" type="submit"></input>\n          </p>\n        </form>\n        <div id="bsub-credit">\n          <a href="http://wordpress.com/signup/?ref=lof" shape="rect">Powered by WordPress.com</a>\n        </div>\n      </div>\n    </div>\n    <script charset="UTF-8" type="text/javascript" id="polldaddyRatings">\n      &lt;!--//--&gt;&lt;![CDATA[//&gt;&lt;!--\nPDRTJS_settings_535330_post_2842={&quot;id&quot;:535330,&quot;unique_id&quot;:&quot;wp-post-2842&quot;,&quot;title&quot;:&quot;Potential%20Future%20Male%20Tennis%20Stars%20%26%238211%3B%20Richard%26nbsp%3BBerankis&quot;,&quot;permalink&quot;:&quot;http:\\/\\/adirondacktennis.wordpress.com\\/2011\\/03\\/10\\/potential-future-male-tennis-stars-richard-berankis\\/&quot;,&quot;item_id&quot;:&quot;_post_2842&quot;}; if ( typeof PDRTJS_RATING !== \'undefined\' ){if ( typeof PDRTJS_535330_post_2842 == \'undefined\' ){PDRTJS_535330_post_2842 = new PDRTJS_RATING( PDRTJS_settings_535330_post_2842 );}}\n//--&gt;&lt;!]]&gt;\n    </script>\n    <script src="http://i.polldaddy.com/ratings/rating.js" charset="UTF-8" type="text/javascript"></script>\n    <script type="text/javascript"> WPCOM_sharing_counts = {&quot;http:\\/\\/adirondacktennis.wordpress.com\\/2011\\/03\\/10\\/potential-future-male-tennis-stars-richard-berankis\\/&quot;:2842} </script>\n    <script src="http://s0.wp.com/wp-content/mu-plugins/post-flair/sharing/sharing.js?m=1345189394g" type="text/javascript"></script>\n    <script charset="utf-8" type="text/javascript"> jQuery(document).ready(function(){ jQuery( \'.share-facebook\' ).click(function(){ window.open( jQuery(this).attr( \'href\' ), \'wpcomfacebook\', \'menubar=1,resizable=1,width=600,height=400\' ); return false; }); }); </script>\n    <script charset="utf-8" type="text/javascript"> jQuery(document).ready(function(){ jQuery( \'.share-twitter\' ).click(function(){ window.open( jQuery(this).attr( \'href\' ), \'wpcomtwitter\', \'menubar=1,resizable=1,width=600,height=350\' ); return false; }); }); </script>\n    <script charset="utf-8" type="text/javascript"> jQuery(document).ready(function(){ jQuery( \'.share-pinterest\' ).click(function(){ window.open( jQuery(this).attr( \'href\' ), \'wpcompinterest\', \'menubar=1,resizable=1,width=650,height=280\' ); return false; }); }); </script>\n    <script charset="utf-8" type="text/javascript"> jQuery(document).ready(function(){ jQuery( \'.share-tumblr\' ).click(function(){ window.open( jQuery(this).attr( \'href\' ), \'wpcomtumblr\', \'menubar=1,resizable=1,width=450,height=450\' ); return false; }); }); </script>\n    <div style="display: none;" id="sharing_email">\n      <form action="" method="post" enctype="application/x-www-form-urlencoded">\n        <label for="target_email">Send to Email Address</label>\n        <input value="" name="target_email" id="target_email" type="text"></input>\n        <label for="source_name">Your Name</label>\n        <input value="" name="source_name" id="source_name" type="text"></input>\n        <label for="source_email">Your Email Address</label>\n        <input value="" name="source_email" id="source_email" type="text"></input>\n        <div id="sharing_recaptcha" class="recaptcha"></div>\n        <input value="6LcYW8MSAAAAADBAuEH9yaPcF7lWh11Iq62ZKtoo" name="recaptcha_public_key" id="recaptcha_public_key" type="hidden"></input>\n        <img height="16" width="16" alt="loading" src="http://s2.wp.com/wp-content/mu-plugins/post-flair/sharing/images/loading.gif?m=1315610318g" style="float: right; display: none" class="loading"></img>\n        <input value="Send Email" class="sharing_send" type="submit"></input>\n        <a href="#cancel" class="sharing_cancel" shape="rect">Cancel</a>\n        <div style="display: none;" class="errors errors-1"> Post was not sent - check your email addresses! </div>\n        <div style="display: none;" class="errors errors-2"> Email check failed, please try again </div>\n        <div style="display: none;" class="errors errors-3"> Sorry, your blog cannot share posts by email. </div>\n      </form>\n    </div>\n    <script charset="utf-8" type="text/javascript"> jQuery(document).ready(function(){ jQuery( \'.share-linkedin\' ).click(function(){ window.open( jQuery(this).attr( \'href\' ), \'wpcomlinkedin\', \'menubar=1,resizable=1,width=580,height=450\' ); return false; }); }); </script>\n    <script charset="utf-8" type="text/javascript"> function sharing_plusone( obj ) { jQuery.ajax( { url: \'http://adirondacktennis.wordpress.com/2011/03/10/potential-future-male-tennis-stars-richard-berankis/?share=google-plus-1\', type: \'POST\', data: obj } ); } </script>\n    <script src="http://apis.google.com/js/plusone.js" type="text/javascript"></script>\n    <script src="http://b.scorecardresearch.com/beacon.js" type="text/javascript"></script>\n    <script type="text/javascript">try{COMSCORE.beacon({c1:2,c2:7518284});}catch(e){}</script>\n    <noscript>\n      <p class="robots-nocontent">\n        <img height="1" width="1" style="display:none" alt="" src="http://b.scorecardresearch.com/p?cj=1c1=2&amp;c2=7518284"></img>\n      </p>\n    </noscript>\n    <script src="http://s1.wp.com/wp-content/js/devicepx.js?m=1349105731g" type="text/javascript"></script>\n    <script type="text/javascript">\n      // &lt;![CDATA[\n(function() {\ntry{\n  if ( window.external &amp;&amp;\'msIsSiteMode\' in window.external) {\n    if (window.external.msIsSiteMode()) {\n      var jl = document.createElement(\'script\');\n      jl.type=\'text/javascript\';\n      jl.async=true;\n      jl.src=\'/wp-content/plugins/ie-sitemode/custom-jumplist.php\';\n      var s = document.getElementsByTagName(\'script\')[0];\n      s.parentNode.insertBefore(jl, s);\n    }\n  }\n}catch(e){}\n})();\n// ]]&gt;\n    </script>\n    <script type="text/javascript" src="http://s.stats.wordpress.com/w.js?21"></script>\n    <script type="text/javascript">\n      st_go({\'blog\':\'9572716\',\'v\':\'wpcom\',\'user_id\':\'0\',\'post\':\'2842\',\'subd\':\'adirondacktennis\'});\nex_go({\'crypt\':\'UE5XaGUuOTlwaD85flAmcm1mcmZsaDhkV11YdWpYP2xZaVBVeHZiOUhkaixZNmFbZU9LX1JpbmhKSEkueW95SVRXeG5vZUk4fHhBRklobj04Ymk2XWVSdTE/ZD9QOHZ+W1lXK0VUQjB5cEFULy1DTUFMc2NqY2JXaVBUWUkxUVoyfDBRRS9faGtEWnZ+VVZ+MS5BbyxlQnBBeEtaJTNrZXNTPWJvUk1WMHBJZzFRQ1BacDYlazAwbmlOPWNiNUk/aUpwZ1RfaEJ5N0FJeW0lK2pbNWdvb01uOTNlLG1TU11peUlPfHldV3pNbTlZNV1CNmgwW2h8P3pidG53fmEwc0psaG1aTkxFSnFucXVQPTBGWC5RaWp0fDQsLi9nZkYm\'});\naddLoadEvent(function(){linktracker_init(\'9572716\',2842);});\n    </script>\n    <noscript>\n      <img alt="" style="height:0px;width:0px;overflow:hidden" src="http://stats.wordpress.com/b.gif?v=noscript"></img>\n    </noscript>\n  </body>\n</html>'
p11
sbsS'mentions'
p12
(lp13
(iedu.umass.cs.iesl.wikilink.expanded.data.ttypes
Mention
p14
(dp15
S'anchor_text'
p16
S'Arnaud Clement'
p17
sS'context'
p18
(iedu.umass.cs.iesl.wikilink.expanded.data.ttypes
Context
p19
(dp20
S'middle'
p21
S'Arnaud Clement'
p22
sS'right'
p23
S'. However the Lithuanian is far more explosive off the ground and is capable of some excellent shot making, which should help him to surpass'
p24
sS'left'
p25
S'Potro and more recently Raonic, Richard Berankis is only 1.75 meters tall and his stocky frame and speed around the court has drawn comparisons to'
p26
sbsS'freebase_id'
p27
NsS'raw_text_offset'
p28
I12393
sS'wiki_url'
p29
S'http://en.wikipedia.org/wiki/Arnaud_Cl%C3%A9ment'
p30
sba(iedu.umass.cs.iesl.wikilink.expanded.data.ttypes
Mention
p31
(dp32
g16
S'Bjorn Borg'
p33
sg18
(iedu.umass.cs.iesl.wikilink.expanded.data.ttypes
Context
p34
(dp35
g21
S'Bjorn Borg'
p36
sg23
S', Andre Agassi and the Williams sisters. He has however had the same coach, Remigijus Balzekas, since he was just 9 years old. 2010 was'
p37
sg25
S'base from which to launch his career, training and being coached at the IMG Bollettieri Academy in Florida, home to such legends as Pete Sampras,'
p38
sbsg27
Nsg28
I13104
sg29
S'http://en.wikipedia.org/wiki/Bj%C3%B6rn_Borg'
p39
sba(iedu.umass.cs.iesl.wikilink.expanded.data.ttypes
Mention
p40
(dp41
g16
S'Feliciano Lopez'
p42
sg18
(iedu.umass.cs.iesl.wikilink.expanded.data.ttypes
Context
p43
(dp44
g21
S'Feliciano Lopez'
p45
sg23
S'in a 3-1 defeat. He reached another challenger final on the hard courts of Vancouver in week 31, losing in straight sets to Dudi Sela,'
p46
sg25
S'win on grass at the Nottingham event was followed up by an impressive second round exit at Wimbledon, taking a set off grass court veteran'
p47
sbsg27
Nsg28
I13687
sg29
S'http://en.wikipedia.org/wiki/Feliciano_L%C3%B3pez'
p48
sba(iedu.umass.cs.iesl.wikilink.expanded.data.ttypes
Mention
p49
(dp50
g16
S'Frank Dancevic'
p51
sg18
(iedu.umass.cs.iesl.wikilink.expanded.data.ttypes
Context
p52
(dp53
g21
S'Frank Dancevic'
p54
sg23
S'and fellow rising star Grigor Dimotrov. CLICK HERE \xe2\x80\x93 For the complete article Related Articles Berankis to SAP Open Quarter-finals (theglobeandmail.com) A Tennis Tradition Like'
p55
sg25
S'tight 5th set 7-5. Richard finished off 2010 with another challenger win, this time against a strong field in Helsinki, including wins against Teimuraz Gabashvilli,'
p56
sbsg27
S'9202a8c04000641f800000000088fa34'
p57
sg28
I14435
sg29
S'http://en.wikipedia.org/wiki/Frank_Dancevic'
p58
sbasS'doc_id'
p59
I11867
sS'rare_words'
p60
(lp61
(iedu.umass.cs.iesl.wikilink.expanded.data.ttypes
RareWord
p62
(dp63
S'word'
p64
S'coach'
p65
sS'offset'
p66
I13187
sba(iedu.umass.cs.iesl.wikilink.expanded.data.ttypes
RareWord
p67
(dp68
g64
S'courts'
p69
sg66
I13772
sba(iedu.umass.cs.iesl.wikilink.expanded.data.ttypes
RareWord
p70
(dp71
g64
S'Frank'
p72
sg66
I14435
sba(iedu.umass.cs.iesl.wikilink.expanded.data.ttypes
RareWord
p73
(dp74
g64
S'hard'
p75
sg66
I13767
sba(iedu.umass.cs.iesl.wikilink.expanded.data.ttypes
RareWord
p76
(dp77
g64
S'Ryan'
p78
sg66
I13925
sba(iedu.umass.cs.iesl.wikilink.expanded.data.ttypes
RareWord
p79
(dp80
g64
S'player'
p81
sg66
I12646
sba(iedu.umass.cs.iesl.wikilink.expanded.data.ttypes
RareWord
p82
(dp83
g64
S'making'
p84
sg66
I12511
sba(iedu.umass.cs.iesl.wikilink.expanded.data.ttypes
RareWord
p85
(dp86
g64
S'had'
p87
sg66
I13174
sba(iedu.umass.cs.iesl.wikilink.expanded.data.ttypes
RareWord
p88
(dp89
g64
S'fellow'
p90
sg66
I14458
sba(iedu.umass.cs.iesl.wikilink.expanded.data.ttypes
RareWord
p91
(dp92
g64
S'strong'
p93
sg66
I14253
sbasb.