(iedu.umass.cs.iesl.wikilink.expanded.data.ttypes
WikiLinkItem
p0
(dp1
S'url'
p2
S'http://www.andrewleger.com/about/'
p3
sS'content'
p4
(iedu.umass.cs.iesl.wikilink.expanded.data.ttypes
PageContentItem
p5
(dp6
S'articleText'
p7
NsS'raw'
p8
NsS'fullText'
p9
NsS'dom'
p10
S'<html lang="en-US" dir="ltr">\n  <head profile="http://gmpg.org/xfn/11">\n    <meta content="text/html; charset=UTF-8" http-equiv="Content-Type"></meta>\n    <meta content="NUCSSAaC8UE8-sz3UxxJZ13nH1cgdzgeUZ9oGgX_qOE" name="google-site-verification"></meta>\n    <title>About \xc2\xab Web Design, Print Design and Video Portfolio of Andrew Leger</title>\n    <style media="screen" type="text/css"> @import &quot;/wp-content/themes/aleger/css/style.css&quot;; @import &quot;/wp-content/themes/aleger/css/sifr.css&quot;; </style>\n    <style media="print" type="text/css"> @import &quot;/wp-content/themes/aleger/css/print.css&quot;; </style>\n    <script src="/wp-content/themes/aleger/js/sifr.js" type="text/javascript"></script>\n    <script src="/wp-content/themes/aleger/js/sifr-config.js" type="text/javascript"></script>\n    <link href="http://www.andrewleger.com/feed/" title="Web Design, Print Design and Video Portfolio of Andrew Leger RSS Feed" type="application/rss+xml" rel="alternate"></link>\n    <link href="http://www.andrewleger.com/feed/atom/" title="Web Design, Print Design and Video Portfolio of Andrew Leger Atom Feed" type="application/atom+xml" rel="alternate"></link>\n    <link href="http://www.andrewleger.com/xmlrpc.php" rel="pingback"></link>\n    <link href="http://www.andrewleger.com/xmlrpc.php?rsd" title="RSD" type="application/rsd+xml" rel="EditURI"></link>\n    <link href="http://www.andrewleger.com/wp-includes/wlwmanifest.xml" type="application/wlwmanifest+xml" rel="wlwmanifest"></link>\n    <script src="http://www.andrewleger.com/wp-includes/js/comment-reply.js?ver=20081210" type="text/javascript"></script>\n    <script src="http://www.andrewleger.com/wp-includes/js/jquery/jquery.js?ver=1.2.6" type="text/javascript"></script>\n    <script src="http://www.andrewleger.com/wp-includes/js/jquery/jquery.form.js?ver=2.02" type="text/javascript"></script>\n    <meta content="WordPress 2.7.1" name="generator"></meta>\n    <link type="text/css" href="http://www.andrewleger.com/wp-content/plugins/contact-form-7/stylesheet.css" rel="stylesheet"></link>\n    <script src="http://www.andrewleger.com/wp-content/plugins/contact-form-7/contact-form-7.js" type="text/javascript"></script>\n    <script src="http://www.andrewleger.com/wp-content/plugins/flash-video-player/swfobject.js" type="text/javascript"></script>\n  </head>\n  <body>\n    <div id="container">\n      <div id="header">\n        <div id="toolbar">\n          <a href="https://smartlightstudio.basecamphq.com/login" shape="rect">Client Area</a>\n        </div>\n        <div id="logo">\n          <a href="http://www.andrewleger.com" shape="rect">logo</a>\n        </div>\n        <div id="main-navigation">\n          <ul class="nav current-about">\n            <li class="home">\n              <a href="http://www.andrewleger.com/" shape="rect">Home</a>\n            </li>\n            <li class="about">\n              <a href="http://www.andrewleger.com/about/" shape="rect">About</a>\n            </li>\n            <li class="work">\n              <a href="http://www.andrewleger.com/work/web/" shape="rect">Work</a>\n            </li>\n            <li class="blog">\n              <a href="http://www.andrewleger.com/blog" shape="rect">Blog</a>\n            </li>\n            <li class="contact">\n              <a href="http://www.andrewleger.com/contact/" shape="rect">Contact</a>\n            </li>\n          </ul>\n        </div>\n      </div>\n      <div id="mainstorytop"></div>\n      <div id="mainstory-about">\n        <div class="boxabout about-left">\n          <h4>A little about me</h4>\n          <p>I have always been drawing, sculpting or doing other creative things. My earliest childhood memories include making my own stop motion animation with some creatures I had sculpted from clay.</p>\n          <p>\n            Over the next years, while I continued to groom my traditional art skills, I also discovered computers; specifically\n            <a target="_blank" href="http://en.wikipedia.org/wiki/Tandy_1000" shape="rect">Tandy 1000</a>\n            and the\n            <a target="_blank" href="http://en.wikipedia.org/wiki/Apple_II" shape="rect">Apple IIgs</a>\n            . Games like Space and Kings Quest fed my love for animation and captured those minutes that I didn\xc3\xa2\xe2\x82\xac\xe2\x84\xa2t spend doodling or creating animations of my own.\n          </p>\n          <p>\n            My interest in graphic design, or taking my art into the digital realm wasn\xc3\xa2\xe2\x82\xac\xe2\x84\xa2t piqued until Photoshop 3 came along. Once I saw how I could enhance my work on a mac however, there was no stopping my creative drive. I went from simple digital illustration, on to graphic design and web design, all the while still discovering more digital ways to create my animations.\n          </p>\n          <p>\n            My first professional experience with design, my foot in the door , so to speak, came along when a  local newspaper hired me on, while I was going to college. Known for its superb printing capability, the paper taught me from the ground up everything I needed to know about the printing world: I loaded paper with a forklift onto the\n            <a target="_blank" href="http://www.gossinternational.com/" shape="rect">Goss press</a>\n            , scraped the soy ink off of presses and rubbed elbows with the pressmen, who taught me everything they knew about their craft, including paste-up and negative stripping. While this whole process has gone digital today, the experience was still priceless and the knowledge I had gained in the print shop has been invaluable for my continued understanding of design.\n          </p>\n          <p>After receiving my diploma I was promoted to become a designer for that same paper. There I designed ads, commercial print, full tabloid spreads for local companies and weekly Realtor newsprint magazines. </p>\n          <p>\n            Eventually it was time to move on to a new challenge and I accepted a print designer position with one of the largest Banks in the Midwest,\n            <a target="_blank" href="http://www.firstnational.com" shape="rect">First National Bank of Omaha</a>\n            . My career-path with the bank was steep; I soon managed a team of four designers and two digital presses. While I know it was my drive and dedication that had lead to my promotion, I still believe that it was my solid foundation, the invaluable experience I had at my first job with the paper, that allowed me to grow into that new position as a manager of Design and Digital print.\n          </p>\n          <p>\n            Ever searching for new challenges however, I soon realized I had outgrown the world of print. Another industry, Web Design, had caught my eye. I left my management position to be hired on as an e-Commerce designer for First National Bank. There I created everything from banners, flash banners, emails, micro-sites to re-designing sites for First National and all of its affiliates. I love the fast-paced ever changing world of digital design and the opportunity to continuously grow within the field.\n          </p>\n          <p>\n            When the Bank  had a need to produce internal videos, I embraced the challenge. I created video graphics and video shoots developed for the Recognition of Outstanding Achievements and Results within the organization.  Produced on extremely tight deadlines, usually within 2 weeks from concept to creation the projects were a challenging test to my ever growing abilities.\n          </p>\n          <p>The bank, as much as the paper before it, has given me the foundation for this new journey of freelance design. Running with projects that have been lining up on a part time basis for the last few years, I am now accepting more and more work on a consulting or hiring basis.</p>\n        </div>\n        <div class="boxabout about-middle">\n          <div id="portrait">\n            <script language="JavaScript">\n              &lt;!--\n\n//Javascript Image Randomizer, yes I know it\'s inline. I will make it unobtrusive later.\n\nimages = new Array(4);\n\nimages[0] = &quot;&lt;img src=\'/images/random/random_01.jpg\' alt=\'A picture of me\'&gt;&quot;;\n\nimages[1] = &quot;&lt;img src=\'/images/random/random_02.jpg\' alt=\'A picture of me again\'&gt;&quot;;\n\nimages[2] = &quot;&lt;img src=\'/images/random/random_03.jpg\' alt=\'And another picture of me\'&gt;&quot;;\n\nimages[3] = &quot;&lt;img src=\'/images/random/random_04.jpg\' alt=\'Really it\'s another picture of me\'&gt;&quot;;\n\nimages[4] = &quot;&lt;img src=\'/images/random/random_05.jpg\' alt=\'Ha it\'s another picture of me\'&gt;&quot;;\n\nindex = Math.floor(Math.random() * images.length);\n\ndocument.write(images[index]);\n\n//done\n\n// --&gt;\n            </script>\n            <br clear="none"></br>\n          </div>\n          <p>A really random picture of me. You can find more on Flickr.</p>\n        </div>\n        <div class="boxabout about-right">\n          <h5>Accepting new design work as of April 2009</h5>\n          <p>\n            Like what you see? Want me to do something similar for you or your business? Then please\n            <a href="http://www.andrewleger.com/contact/" shape="rect">contact me</a>\n            .\n          </p>\n          <br clear="none"></br>\n          <h5>Find me here too:</h5>\n          <ul class="circle-ul">\n            <li>\n              <a target="_blank" href="http://www.linkedin.com/in/andrewleger" shape="rect">LinkedIn</a>\n            </li>\n            <li>\n              <a target="_blank" href="http://www.facebook.com/people/Andrew-Leger/1390353409" shape="rect">Facebook</a>\n            </li>\n            <li>\n              <a target="_blank" href="http://twitter.com/andrewleger" shape="rect">Twitter</a>\n            </li>\n            <li>\n              <a target="_blank" href="http://www.flickr.com/photos/23974775@N06/" shape="rect">Flickr</a>\n            </li>\n            <li>\n              <a target="_blank" href="http://www.last.fm/user/aleger" shape="rect">Last.fm</a>\n            </li>\n            <li>\n              <a target="_blank" href="http://www.vimeo.com/user1469930" shape="rect">Vimeo</a>\n            </li>\n          </ul>\n        </div>\n        <div class="clearfix"></div>\n      </div>\n      <div class="clearfix"></div>\n      <div id="mainstorybot"></div>\n      <div id="footer">\n        <div id="footerbg">\n          <div id="copyright">\xc2\xa9 2009 - 2011 Andrew Leger. All rights reserved. </div>\n        </div>\n      </div>\n    </div>\n    <script type="text/javascript">\n      var gaJsHost = ((&quot;https:&quot; == document.location.protocol) ? &quot;https://ssl.&quot; : &quot;http://www.&quot;);\ndocument.write(unescape(&quot;%3Cscript src=\'&quot; + gaJsHost + &quot;google-analytics.com/ga.js\' type=\'text/javascript\'%3E%3C/script%3E&quot;));\n    </script>\n    <script type="text/javascript"> var pageTracker = _gat._getTracker(&quot;UA-609322-5&quot;); pageTracker._trackPageview(); </script>\n  </body>\n</html>'
p11
sbsS'mentions'
p12
(lp13
(iedu.umass.cs.iesl.wikilink.expanded.data.ttypes
Mention
p14
(dp15
S'anchor_text'
p16
S'Tandy 1000'
p17
sS'context'
p18
(iedu.umass.cs.iesl.wikilink.expanded.data.ttypes
Context
p19
(dp20
S'middle'
p21
S'Tandy 1000'
p22
sS'right'
p23
S'and the Apple IIgs . Games like Space and Kings Quest fed my love for animation and captured those minutes that I didn\xc3\xa2\xe2\x82\xac\xe2\x84\xa2t spend doodling'
p24
sS'left'
p25
S'some creatures I had sculpted from clay. Over the next years, while I continued to groom my traditional art skills, I also discovered computers; specifically'
p26
sbsS'freebase_id'
p27
S'9202a8c04000641f800000000004ddb2'
p28
sS'raw_text_offset'
p29
I4101
sS'wiki_url'
p30
S'http://en.wikipedia.org/wiki/Tandy_1000'
p31
sba(iedu.umass.cs.iesl.wikilink.expanded.data.ttypes
Mention
p32
(dp33
g16
S'Apple IIgs'
p34
sg18
(iedu.umass.cs.iesl.wikilink.expanded.data.ttypes
Context
p35
(dp36
g21
S'Apple IIgs'
p37
sg23
S'. Games like Space and Kings Quest fed my love for animation and captured those minutes that I didn\xc3\xa2\xe2\x82\xac\xe2\x84\xa2t spend doodling or creating animations of'
p38
sg25
S'sculpted from clay. Over the next years, while I continued to groom my traditional art skills, I also discovered computers; specifically Tandy 1000 and the'
p39
sbsg27
S'9202a8c04000641f800000001d1e22e2'
p40
sg29
I4188
sg30
S'http://en.wikipedia.org/wiki/Apple_II'
p41
sbasS'doc_id'
p42
I5010197
sS'rare_words'
p43
(lp44
(iedu.umass.cs.iesl.wikilink.expanded.data.ttypes
RareWord
p45
(dp46
S'word'
p47
S'making'
p48
sS'offset'
p49
I3827
sba(iedu.umass.cs.iesl.wikilink.expanded.data.ttypes
RareWord
p50
(dp51
g47
S'magazines'
p52
sg49
I5721
sba(iedu.umass.cs.iesl.wikilink.expanded.data.ttypes
RareWord
p53
(dp54
g47
S'Running'
p55
sg49
I7368
sba(iedu.umass.cs.iesl.wikilink.expanded.data.ttypes
RareWord
p56
(dp57
g47
S'negative'
p58
sg49
I5302
sba(iedu.umass.cs.iesl.wikilink.expanded.data.ttypes
RareWord
p59
(dp60
g47
S'test'
p61
sg49
I7212
sba(iedu.umass.cs.iesl.wikilink.expanded.data.ttypes
RareWord
p62
(dp63
g47
S'knowledge'
p64
sg49
I5414
sba(iedu.umass.cs.iesl.wikilink.expanded.data.ttypes
RareWord
p65
(dp66
g47
S'tabloid'
p67
sg49
I5656
sba(iedu.umass.cs.iesl.wikilink.expanded.data.ttypes
RareWord
p68
(dp69
g47
S'Kings'
p70
sg49
I4225
sba(iedu.umass.cs.iesl.wikilink.expanded.data.ttypes
RareWord
p71
(dp72
g47
S'designers'
p73
sg49
I6041
sba(iedu.umass.cs.iesl.wikilink.expanded.data.ttypes
RareWord
p74
(dp75
g47
S'Once'
p76
sg49
I4482
sbasb.