(iedu.umass.cs.iesl.wikilink.expanded.data.ttypes
WikiLinkItem
p0
(dp1
S'url'
p2
S'http://artofweightlossblog.com/energy-system-development/'
p3
sS'content'
p4
(iedu.umass.cs.iesl.wikilink.expanded.data.ttypes
PageContentItem
p5
(dp6
S'articleText'
p7
NsS'raw'
p8
NsS'fullText'
p9
NsS'dom'
p10
S'<html lang="en-US" dir="ltr">\n  <script type="text/javascript">\n    // &lt;![CDATA[\n        var disqus_shortname = \'taowl\';\n        (function () {\n            var nodes = document.getElementsByTagName(\'span\');\n            for (var i = 0, url; i &lt; nodes.length; i++) {\n                if (nodes[i].className.indexOf(\'dsq-postid\') != -1) {\n                    nodes[i].parentNode.setAttribute(\'data-disqus-identifier\', nodes[i].getAttribute(\'rel\'));\n                    url = nodes[i].parentNode.href.split(\'#\', 1);\n                    if (url.length == 1) { url = url[0]; }\n                    else { url = url[1]; }\n                    nodes[i].parentNode.href = url + \'#disqus_thread\';\n                }\n            }\n            var s = document.createElement(\'script\'); s.async = true;\n            s.type = \'text/javascript\';\n                        s.src = \'http\' + \'://\' + \'disqus.com/forums/\' + disqus_shortname + \'/count.js\';\n            (document.getElementsByTagName(\'HEAD\')[0] || document.getElementsByTagName(\'BODY\')[0]).appendChild(s);\n        }());\n    //]]&gt;\n  </script>\n  <head>\n    <meta content="text/html; charset=UTF-8" http-equiv="Content-Type"></meta>\n    <title>Energy System Development</title>\n    <meta content="noodp, noydir" name="robots"></meta>\n    <meta content="As far as I know, Energy System Development is a term coined by Mark Verstegen, Founder of Athlete\xe2\x80\x99s Performance. Mark\xe2\x80\x99s a smart dude, but also the term obviously describes the intent, much the same way Neuromuscular System Development encapsulates training" name="description">\n    </meta>\n    <meta content="Aerobic exercise, Anaerobic exercise, energy systems, fat loss, fitness, fitness and health, fitness and nutrition, health and fitness, training, weight loss, well being" name="keywords"></meta>\n    <link media="screen, projection" type="text/css" href="http://artofweightlossblog.com/wp-content/themes/thesis_184/custom/layout.css" rel="stylesheet"></link>\n    <link media="screen, projection" type="text/css" href="http://artofweightlossblog.com/wp-content/themes/thesis_184/custom/custom.css" rel="stylesheet"></link>\n    <link href="http://artofweightlossblog.com/wp-content/uploads/2012/09/FettleImagefavicon.png" rel="shortcut icon"></link>\n    <link href="http://artofweightlossblog.com/energy-system-development/" rel="canonical"></link>\n    <link href="http://artofweightlossblog.com/feed/" title="The Art of Weight Loss RSS Feed" type="application/rss+xml" rel="alternate"></link>\n    <link href="http://artofweightlossblog.com/xmlrpc.php" rel="pingback"></link>\n    <link href="http://artofweightlossblog.com/xmlrpc.php?rsd" title="RSD" type="application/rsd+xml" rel="EditURI"></link>\n    <meta content="IE=edge,chrome=1" http-equiv="X-UA-Compatible"></meta>\n    <meta content="width=device-width" name="viewport"></meta>\n    <link href="http://artofweightlossblog.com/energy-system-development/feed/" title="The Art of Weight Loss \xc2\xbb Energy System Development Comments Feed" type="application/rss+xml" rel="alternate"></link>\n    <style type="text/css">\n      #upprev_box{bottom:345px;width:200px;right:5px;display:block;right:-255px;display:block;}\n #upprev_box h4 a { color: # #upprev_box .upprev_excerpt { color: #b91111; font-size: 15px; } #upprev_box .upprev_excerpt p { color: #b91111; font-size: 15px; } #upprev_box .upprev_excerpt p a{ color: #b91111; font-size: 15px; } #upprev_box .upprev_excerpt p a:hover { color: #ffe4e1; font-size: 15px; } #upprev_box .upprev_excerpt p a:visited { color: #b91111; font-size: 15px; } #upprev_box .upprev_thumb { color: #b91111; font-size: 15px; } #upprev_close { color: #b91111; font-size: 15px; }\n    </style>\n    <link media="all" type="text/css" href="http://artofweightlossblog.com/wp-content/plugins/OptinSkin/skins/css/ois_reset.css?ver=3.4.2" rel="stylesheet" id="ois_reset-css"></link>\n    <link media="all" type="text/css" href="http://artofweightlossblog.com/wp-content/plugins/OptinSkin//skins/css/design_2.css?ver=3.4.2" rel="stylesheet" id="ois_design_1-css"></link>\n    <link media="all" type="text/css" href="http://artofweightlossblog.com/wp-content/plugins/OptinSkin//skins/css/design_19.css?ver=3.4.2" rel="stylesheet" id="ois_design_18-css"></link>\n    <link media="all" type="text/css" href="http://artofweightlossblog.com/wp-content/plugins/OptinSkin//skins/css/design_13.css?ver=3.4.2" rel="stylesheet" id="ois_design_13-css"></link>\n    <link media="all" type="text/css" href="http://artofweightlossblog.com/wp-content/plugins/OptinSkin//skins/css/design_1.css?ver=3.4.2" rel="stylesheet" id="ois_design_15-css"></link>\n    <link media="all" type="text/css" href="http://artofweightlossblog.com/wp-content/plugins/OptinSkin//skins/css/design_17.css?ver=3.4.2" rel="stylesheet" id="ois_design_16-css"></link>\n    <link media="all" type="text/css" href="http://artofweightlossblog.com/wp-content/plugins/OptinSkin//skins/css/design_18.css?ver=3.4.2" rel="stylesheet" id="ois_design_17-css"></link>\n    <link media="all" type="text/css" href="http://artofweightlossblog.com/wp-content/plugins/OptinSkin//skins/css/design_11.css?ver=3.4.2" rel="stylesheet" id="ois_design_11-css"></link>\n    <link media="all" type="text/css" href="http://artofweightlossblog.com/wp-content/plugins/OptinSkin//skins/css/design_12.css?ver=3.4.2" rel="stylesheet" id="ois_design_12-css"></link>\n    <link media="all" type="text/css" href="http://artofweightlossblog.com/wp-content/plugins/OptinSkin//skins/css/design_15.css?ver=3.4.2" rel="stylesheet" id="ois_design_2-css"></link>\n    <link media="all" type="text/css" href="http://fonts.googleapis.com/css?family=Kaushan+Script&amp;ver=3.4.2" rel="stylesheet" id="google_font_Kaushan_Script-css"></link>\n    <link media="all" type="text/css" href="http://fonts.googleapis.com/css?family=Lobster&amp;ver=3.4.2" rel="stylesheet" id="google_font_Lobster-css"></link>\n    <link media="all" type="text/css" href="http://fonts.googleapis.com/css?family=Lora&amp;ver=3.4.2" rel="stylesheet" id="google_font_Lora-css"></link>\n    <link media="all" type="text/css" href="http://fonts.googleapis.com/css?family=Luckiest+Guy&amp;ver=3.4.2" rel="stylesheet" id="google_font_Luckiest_Guy-css"></link>\n    <link media="all" type="text/css" href="http://fonts.googleapis.com/css?family=Terminal+Dosis&amp;ver=3.4.2" rel="stylesheet" id="google_font_Terminal_Dosis-css"></link>\n    <link media="all" type="text/css" href="http://fonts.googleapis.com/css?family=Cambo&amp;ver=3.4.2" rel="stylesheet" id="google_font_Cambo-css"></link>\n    <link media="all" type="text/css" href="http://artofweightlossblog.com/wp-content/plugins/upprev/styles/upprev.css?ver=3.4.2" rel="stylesheet" id="upprev-css-css"></link>\n    <link media="all" type="text/css" href="http://artofweightlossblog.com/wp-content/plugins/table-of-contents-plus/screen.css?ver=3.4.2" rel="stylesheet" id="toc-screen-css"></link>\n    <link media="all" type="text/css" href="http://artofweightlossblog.com/wp-content/plugins/foobar/css/jquery.foobar.2.3.css?ver=2.3.1" rel="stylesheet" id="jquery-foobar-2-3-css"></link>\n    <link media="all" type="text/css" href="http://artofweightlossblog.com/?foobar-css-dynamic=css&amp;ver=3.4.2&amp;post_id=1326" rel="stylesheet" id="foobar-css-dynamic-css"></link>\n    <script type="text/javascript">\n      var iworks_upprev = { animation: \'flyout\', position: \'right\', offset_percent: 50, offset_element: \'\', css_width: 200, css_side: 5, compare: \'yarpp\', url_new_window: 0, ga_track_views: 1, ga_track_clicks: 1, ga_opt_noninteraction: 1, title: \'Energy System Development\' };\n    </script>\n    <script src="http://artofweightlossblog.com/wp-includes/js/jquery/jquery.js?ver=1.7.2" type="text/javascript"></script>\n    <script src="http://artofweightlossblog.com/wp-content/plugins/anflex-ga/js/event_tracking.js?ver=3.4.2" type="text/javascript"></script>\n    <script type="text/javascript"> /* &lt;![CDATA[ */ var tocplus = {&quot;visibility_show&quot;:&quot;show&quot;,&quot;visibility_hide&quot;:&quot;hide&quot;,&quot;width&quot;:&quot;275px&quot;}; /* ]]&gt; */ </script>\n    <script src="http://artofweightlossblog.com/wp-content/plugins/table-of-contents-plus/front.js?ver=3.4.2" type="text/javascript"></script>\n    <script src="http://artofweightlossblog.com/wp-content/plugins/table-of-contents-plus/jquery.c.min.js?ver=3.4.2" type="text/javascript"></script>\n    <script src="http://artofweightlossblog.com/wp-includes/js/comment-reply.js?ver=3.4.2" type="text/javascript"></script>\n    <script type="text/javascript">\n      /* &lt;![CDATA[ */\nvar ois = {&quot;ajaxurl&quot;:&quot;http:\\/\\/artofweightlossblog.com\\/wp-admin\\/admin-ajax.php&quot;,&quot;ois_submission_nonce&quot;:&quot;fbf3720d27&quot;,&quot;disable_submissions_stats&quot;:&quot;no&quot;,&quot;disable_impressions_stats&quot;:&quot;no&quot;};\n/* ]]&gt; */\n    </script>\n    <script src="http://artofweightlossblog.com/wp-content/plugins/OptinSkin/front/js/optin.js?ver=3.4.2" type="text/javascript"></script>\n    <script src="http://artofweightlossblog.com/wp-content/plugins/upprev/scripts/upprev.js?ver=3.3.9" type="text/javascript"></script>\n    <script src="http://artofweightlossblog.com/wp-content/plugins/foobar/js/jquery.foobar.2.3.min.js?ver=2.3.1" type="text/javascript"></script>\n    <script src="http://artofweightlossblog.com/?foobar-js-dynamic=js&amp;ver=3.4.2&amp;post_id=1326" type="text/javascript"></script>\n    <link media="screen" type="text/css" href="http://artofweightlossblog.com/wp-content/plugins/digg-digg/include/../css/diggdigg-style.css?ver=5.2.9" rel="stylesheet"></link>\n    <link href="http://farm1.staticflickr.com/116/287666827_016dc60fe5.jpg" rel="image_src"></link>\n    <link href="http://artofweightlossblog.com/wp-content/plugins/social-media-widget/social_widget.css" type="text/css" rel="stylesheet"></link>\n    <link media="screen" type="text/css" href="http://artofweightlossblog.com/wp-content/plugins/thesis-style-box/thesis-style-box.css" rel="stylesheet"></link>\n    <link href="http://artofweightlossblog.com/wp-content/plugins/websimon-tables/css/table_skins.php" rel="stylesheet" type="text/css"></link>\n    <meta content="ghpuj367M7KblGwxxzksb_k6XfGWa0eFgqG2Yxyhnpw" name="google-site-verification"></meta>\n    <script>(function(d, s, id) { var js, fjs = d.getElementsByTagName(s)[0]; if (d.getElementById(id)) return; js = d.createElement(s); js.id = id; js.src = &quot;//connect.facebook.net/en_GB/all.js#xfbml=1&quot;; fjs.parentNode.insertBefore(js, fjs); }(document, \'script\', \'facebook-jssdk\'));</script>\n  </head>\n  <body>\n    <div id="fb-root"></div>\n    <script>!function(d,s,id){var js,fjs=d.getElementsByTagName(s)[0];if(!d.getElementById(id)){js=d.createElement(s);js.id=id;js.src=&quot;//platform.twitter.com/widgets.js&quot;;fjs.parentNode.insertBefore(js,fjs);}}(document,&quot;script&quot;,&quot;twitter-wjs&quot;);</script>\n    <script type="text/javascript"> (function() { var po = document.createElement(\'script\'); po.type = \'text/javascript\'; po.async = true; po.src = \'https://apis.google.com/js/plusone.js\'; var s = document.getElementsByTagName(\'script\')[0]; s.parentNode.insertBefore(po, s); })(); </script>\n    <script type="text/javascript"> (function() { var li = document.createElement(\'script\'); li.type = \'text/javascript\'; li.async = true; li.src = \'https://platform.stumbleupon.com/1/widgets.js\'; var s = document.getElementsByTagName(\'script\')[0]; s.parentNode.insertBefore(li, s); })(); </script>\n    <script type="text/javascript" src="http://platform.linkedin.com/in.js"></script>\n  </body>\n  <body class="custom pattern-md">\n    <div id="header_area" class="full_width">\n      <div class="page">\n        <div id="header">\n          <ul class="menu">\n            <li class="tab tab-1">\n              <a title="Community" href="http://artofweightlossblog.com/forum/" shape="rect">Community</a>\n            </li>\n            <li class="tab tab-2">\n              <a title="Recommended Resources" href="http://artofweightlossblog.com/resources/" shape="rect">Resources</a>\n            </li>\n            <li class="tab tab-3">\n              <a title="Fettle" href="http://artofweightlossblog.com/my-company/" shape="rect">Fettle</a>\n            </li>\n            <li class="tab tab-4">\n              <a title="" href="http://artofweightlossblog.com/about-2/" shape="rect">About</a>\n              <ul class="submenu submenu-1">\n                <li class="item item-1">\n                  <a title="Bio" href="http://artofweightlossblog.com/about-2/bio/" shape="rect">Bio</a>\n                </li>\n              </ul>\n            </li>\n          </ul>\n          <p id="logo">\n            <a href="http://artofweightlossblog.com" shape="rect">The Art of Weight Loss</a>\n          </p>\n          <p id="tagline">Weight Loss is More Than Just Science, It\'s An Art!</p>\n        </div>\n      </div>\n    </div>\n    <div id="content_area" class="full_width">\n      <div class="page">\n        <div id="content_box">\n          <div id="content" class="hfeed">\n            <div \n            id="post-1326" class="post-1326 post type-post status-publish format-standard hentry category-energy-system-development category-movement tag-aerobic-exercise tag-anaerobic-exercise tag-energy-systems tag-fat-loss tag-fitness tag-fitness-and-health tag-fitness-and-nutrition tag-health-and-fitness tag-training-2 tag-weight-loss tag-well-being post_box top">\n              <div class="headline_area">\n                <h1 class="entry-title">Energy System Development</h1>\n                <p class="headline_meta">\n                  by\n                  <span class="author vcard fn">Darren Beattie</span>\n                </p>\n              </div>\n              <div class="format_text entry-content">\n                <a id="dd_start" shape="rect"></a>\n                <div style="width: 510px" class="wp-caption aligncenter">\n                  <a target="_blank" href="http://www.flickr.com/photos/51035555243@N01/287666827/" title="A Brand New Day" shape="rect">\n                    <img height="337" width="500" alt="A Brand New Day" src="http://farm1.staticflickr.com/116/287666827_016dc60fe5.jpg" title="A Brand New Day"></img>\n                  </a>\n                  <p class="wp-caption-text">CC Photo Credit: Thomas Hawk</p>\n                </div>\n                <p style="text-align: left;">\n                  As far as I know, Energy System Development is a term coined by\n                  <a target="_blank" href="http://www.athletesperformance.com/about/front-office/corporate-leadership/ap-mark-verstegen.html" shape="rect">Mark Verstegen</a>\n                  , Founder of\n                  <a target="_blank" href="http://www.athletesperformance.com/" shape="rect">Athlete\xe2\x80\x99s Performance</a>\n                  .\n                </p>\n                <p>\n                  Mark\xe2\x80\x99s a smart dude, but also the term obviously describes the intent, much the same way\n                  <a target="_blank" href="http://artofweightlossblog.com/?p=1328" title="Neuromuscular System Development" shape="rect">Neuromuscular System Development</a>\n                  encapsulates training for the nervous systems and muscular systems.\n                </p>\n                <p>\n                  Most people only know about \xe2\x80\x98\n                  <em>\n                    <a target="_blank" rel="wikipedia" href="http://en.wikipedia.org/wiki/Aerobics" title="Aerobics" class="zem_slink" shape="rect">Aerobics</a>\n                  </em>\n                  ,\xe2\x80\x99 or \xe2\x80\x98\n                  <em>\n                    <a target="_blank" rel="wikipedia" href="http://en.wikipedia.org/wiki/Aerobic_exercise" title="Aerobic exercise" class="zem_slink" shape="rect">Aerobic Training</a>\n                  </em>\n                  ,\xe2\x80\x99 or what I often hear people talk about in terms of \xe2\x80\x98\n                  <em>cardio,</em>\n                  \xe2\x80\x98 and maybe a few refer to as \xe2\x80\x98\n                  <em>conditioning</em>\n                  .\xe2\x80\x99\n                </p>\n                <p>\n                  <span id="more-1326"></span>\n                </p>\n                <p>\n                  Aerobic simply means, \xe2\x80\x98\n                  <em>with oxygen,\xe2\x80\x99 </em>\n                  and only compromises one of\xc3\x82\xc2\xa0three\n                  <a target="_blank" href="http://en.wikipedia.org/wiki/Energy_systems" shape="rect">energy systems</a>\n                  .\n                </p>\n                <p>\n                  Two are actually Anaerobic Pathways \xe2\x80\x94\n                  <em>which if you\xe2\x80\x99re wondering, basically means, \xe2\x80\x98without oxygen.\xe2\x80\x99 </em>\n                </p>\n                <p>We are capable of producing energy in an oxygen environment and in an environment exclusive of oxygen.</p>\n                <p>\n                  Oxygen is a catalyst for energy production, your aerobic energy system is actually far more efficient at generating energy via the production of\xc3\x82\xc2\xa0\n                  <a target="_blank" rel="wikipedia" href="http://en.wikipedia.org/wiki/Adenosine_triphosphate" title="Adenosine triphosphate" shape="rect">adenosine triphosphate</a>\n                  \xc3\x82\xc2\xa0(ATP)\xc3\x82\xc2\xa0\xe2\x80\x93\xc3\x82\xc2\xa0\n                  <em>the most basic component of energy that your body utilizes</em>\n                  \xc3\x82\xc2\xa0\xe2\x80\x93\xc3\x82\xc2\xa0\n                  <span style="text-decoration: underline;">but</span>\n                  at the expense of speed and a lower power output.\n                </p>\n                <p>You can\xe2\x80\x99t sustain a high level of energy output for too long, before the aerobic system must kick in to cope with the energy demands.</p>\n                <p>\n                  The other obvious drawback is that exclusive training of the aerobic system won\xe2\x80\x99t really contribute much in the development of the other two energy systems, while training the other two energy systems leads to dramatic improvement of the aerobic system, as shown most notably in the Tabata Study.\n                </p>\n                <p>\n                  Too much time spent in the mythological \xe2\x80\x98\n                  <em>fat-burn zone</em>\n                  \xe2\x80\x98 or too much low-level aerobic training also often leads to degradation of muscle tissue, making your body less metabolically active throughout the day.\n                </p>\n                <div id="toc_container" class="toc_wrap_right toc_transparent no_bullets">\n                  <p class="toc_title">Table of Contents</p>\n                  <ul class="toc_list">\n                    <li>\n                      <a href="#1_The_Quick_System" shape="rect">1. The Quick System</a>\n                    </li>\n                    <li>\n                      <a href="#2_The_Medium_System" shape="rect">2. The Medium System</a>\n                    </li>\n                    <li>\n                      <a href="#3_The_Long_System" shape="rect">3. The Long System</a>\n                    </li>\n                    <li>\n                      <a href="#Conclusion" shape="rect">Conclusion</a>\n                    </li>\n                    <li>\n                      <a href="#Summary" shape="rect">Summary</a>\n                    </li>\n                  </ul>\n                </div>\n                <h2>\n                  <span id="1_The_Quick_System">1. The Quick System</span>\n                </h2>\n                <p>\n                  <strong>AKA: ATP-CP Phosphagen System (Alactic Anerobic Energy System)</strong>\n                </p>\n                <p>This is your immediate or shortest duration energy system, lasting roughly no longer than 10 seconds.</p>\n                <p>You\xe2\x80\x99ll find this energy system heavily involved in sports like javalin, shot-putting, American Football, Baseball and short sprints.</p>\n                <p>It basically uses the\xc3\x82\xc2\xa0ATP stored\xc3\x82\xc2\xa0directly in your muscles, to produce energy quickly.</p>\n                <p>It\xe2\x80\x99s actually a pretty powerful energy system, but the obvious limitation is endurance.</p>\n                <p>\n                  A lot of\n                  <a href="http://artofweightlossblog.com/?p=1328" title="Neuromuscular System Development" shape="rect">NMSD</a>\n                  is actually geared to this system and strength training, particularly explosive strength, with less than 5 reps is often within this system, but in terms of everyday health and performance an ESD day of training geared to this system most likely has sprint variations of an exercise with longer periods of rest.\n                </p>\n                <p>For example, a 10 second sprint followed by 30-60 seconds of rest. Sprint intervals like this are often characterized by quick or short duration work periods, with longer rest periods as high as ten times the duration of the work portion.</p>\n                <p>Often energy system work in this realm is characterized by 3-6 times the amount of recovery relative to your work period, or enough time to allow a chemical process to restore ATP again within the muscle.</p>\n                <p>For example, 40m, 60m, 80m and 100m sprints are mostly geared to this energy system, and are among my favourite protocols for maintaining cardiovascular fitness via this system.</p>\n                <p>Often I\xe2\x80\x99ll just do a quick sprint, walk back slowly and repeat.</p>\n                <p>The nice thing about this type of training, is that you can do significantly less but get great results, while preserving metabolically active muscle tissue, so they are time efficient.</p>\n                <p>\n                  The more work you do in this realm, the more muscle mass is also likely to be preserved\n                  <em>(by comparison to the other two)</em>\n                  , but in my opinion shouldn\xe2\x80\x99t be at the expense of occasionally working on the other two energy systems.\n                </p>\n                <h2>\n                  <span id="2_The_Medium_System">2. The Medium System</span>\n                </h2>\n                <p>\n                  <strong>AKA: Glycolytic System (Lactic Anaerobic Energy System)</strong>\n                </p>\n                <p>The glycolytic system or your sugar system, still requires energy expenditure in an environment without oxygen like the ATP-CP system, but after about 10-12 seconds the body basically starts utilizing simple carbohydrates or glucose as a fuel source, rather than ATP.</p>\n                <p>Sugar requires some breakdown and chemical changes to occur for this system to be effective and training this system leads to a better utilization of glucose and a greater duration of exercise at a higher intensity.</p>\n                <p>This system is predominantly used in Power Sports like Soccer, Basketball, Hockey, Rugby, and 200m, 400m, 800m track events.</p>\n                <p>The downside?</p>\n                <p>\n                  <a target="_blank" rel="wikipedia" href="http://en.wikipedia.org/wiki/Lactic_acid" title="Lactic acid" class="zem_slink" shape="rect">Lactic Acid</a>\n                  build-up, which isn\xe2\x80\x99t as bad as most people think, however, it still creates a burning sensation as your body produces the acid \xc3\x82\xc2\xa0\xe2\x80\x93\n                  <em>which is actually a fuel source, basically your body in an anaerobic state produces lactic acid \xc3\x82\xc2\xa0</em>\n                  \xe2\x80\x93 and eventually will disallow you from continuing at that intensity.\n                </p>\n                <p>\n                  This is also often referred to as the\n                  <a target="_blank" rel="wikipedia" href="http://en.wikipedia.org/wiki/Anaerobic_exercise" title="Anaerobic exercise" class="zem_slink" shape="rect">Lactate Threshold</a>\n                  , but your body is good at dealing with it for about 90-120 seconds, depending on training, before it has to start utilizing the aerobic energy system and your power output has to drop.\n                </p>\n                <p>It\xe2\x80\x99s maintaining this intensity past your\xc3\x82\xc2\xa0initial\xc3\x82\xc2\xa0threshold, that makes training this energy system so vital, in so many activities.</p>\n                <p>\n                  The nice thing about this system though, is that with a little bit of rest, you can tax it pretty heavily and actually train your aerobic system at the same time \xe2\x80\x94\n                  <em>\n                    as a side note, these energy systems actually have a bit of a cascade effect in that ATP-CP can contribute to Glycolytic System development, which can lead to Aerobic system development, but the opposite is not true, you can\xe2\x80\x99t train your aerobic system and significantly develop your ATP-CP system.\n                  </em>\n                </p>\n                <p>\n                  <em></em>\n                  A good example of training protocols that develop this system would be 30 seconds on, 60\xc3\x82\xc2\xa0seconds\xc3\x82\xc2\xa0off intervals or basically anything where the work is less than about 2 minutes and characterized by at least an equal amount of rest but upwards of three times the amount of rest to work, in terms of a ratio.\n                </p>\n                <p>15 seconds on, 45 seconds off, is still an example of Glycolytic Interval Training.</p>\n                <p>\n                  <em>*Note more rest is needed when training the quick energy system, less for the medium, and even less for the long system.</em>\n                </p>\n                <p>\n                  One of my favourite and according to\n                  <a target="_blank" href="http://medicalsciences.med.unsw.edu.au/SOMSWeb.nsf/page/Exercise%20Reactivity%20and%20Health" shape="rect">Dr. Steven Boutcher</a>\n                  at the University of South Wales, perhaps the most effective for fat loss\n                  <em>(per time spent, and if using a bike for comparison), is an 8 seconds on, 12 seconds off protocol.\xc3\x82\xc2\xa0</em>\n                </p>\n                <p>A major advantage to this protocol, is that the rest permits you to keep your output high. Try it for 4-5 minutes.</p>\n                <p>\n                  One very popular interval training method, 20 seconds on, 10 seconds off \xe2\x80\x93\n                  <em>\n                    or\n                    <a target="_blank" href="http://en.wikipedia.org/wiki/High-intensity_interval_training#Tabata_method" shape="rect">Tabata Intevals</a>\n                    , probably popularized through Crossfit\n                  </em>\n                  \xc3\x82\xc2\xa0\xe2\x80\x93 falls into the the Glycolytic Realm too, though not exclusively.\n                </p>\n                <p>Interval training in these zones, has been shown to make significant improvements in markers for aerobic and cardiovascular health.</p>\n                <p>You can also limit training in this area significantly, perhaps even to only 20 minutes or less in a training session, while getting similar results (or better) to the typical long-slow distance aerobic work that many people still do for fat loss and weight loss.</p>\n                <h2>\n                  <span id="3_The_Long_System">3. The Long System</span>\n                </h2>\n                <p>\n                  <strong>AKA: Aerobic System</strong>\n                </p>\n                <p>\n                  This system is predominantly used in endurance sports such as long, typically slow\xc3\x82\xc2\xa0\n                  <em>(relative to their power sport counterparts)</em>\n                  \xc3\x82\xc2\xa0distance cycling, triathlons, marathons, kayak racing, and swimming.\n                </p>\n                <p>The aerobic system can handle medium intensity activities for about 90 minutes in duration, depending on training.</p>\n                <p>If you\xe2\x80\x99re ever heard the term \xe2\x80\x98bonking\xe2\x80\x99 or are familiar with the practice of \xe2\x80\x98carb-loading\xe2\x80\x99 in endurance sports, then you are probably aware of this limit, in that your body can only store so much fuel.</p>\n                <p>Once you run out of this fuel you can make yourself feel rather sickly.</p>\n                <p>Typically the average human being stores enough fuel for about 20 miles worth of activity.</p>\n                <p>Obviously through training you can increase this, and if your goals are suited to endurance sports, then you will want to do a considerable amount of training this system still.</p>\n                <p>\n                  Aerobic energy system training also what most people think of when they hear the term \xe2\x80\x98\n                  <em>cardio,</em>\n                  \xe2\x80\x98 but it\xe2\x80\x99s also the one style of training that typically falls short of expectations in my experience.\n                </p>\n                <p>Unlike the Anaerobic pathways, training your aerobic system yields little improvements in speed, power or strength and actually leads to a degradation of muscle tissue, the latter of which we know improves body composition and increases basal metabolic rate.</p>\n                <p>However, you are mostly in a state of aerobic energy expenditure all day, every day.</p>\n                <p>Walking, is\xc3\x82\xc2\xa0predominantly \xc3\x82\xc2\xa0aerobic, and yields numerous health benefits, not to mention provides many people a much needed break within the day.</p>\n                <p>I\xe2\x80\x99m not saying Aerobic training is evil, just that for fat-loss, you are better off focusing your energy on the other two systems in your training, and using the Aerobic system for other purposes.</p>\n                <p>Like what?</p>\n                <p>Mostly recovery purposes.</p>\n                <p>\n                  Going for a walk or light hike between workouts is a great activity for \xe2\x80\x98\n                  <em>active recovery</em>\n                  \xe2\x80\x98 days and low level blood flow has been shown to reduce muscle soreness from previous workouts,\n                </p>\n                <p>\n                  Even if it\xe2\x80\x99s only a placebo effect, light swimming and cycling\n                  <em>\n                    (\n                    <span style="text-decoration: underline;">notice</span>\n                    \xc3\x82\xc2\xa0non-weight bearing endurance activities\xe2\x80\xa6)\n                  </em>\n                  \xc3\x82\xc2\xa0have also been shown to reduce muscle soreness when done between harder workouts.\n                </p>\n                <p>\n                  My recommendation though, is to use this sparingly, for no more than 20 minutes at a time\n                  <em>(with the exception of walking)</em>\n                  , and if done on the same day, place it after your other training sessions or workouts.\n                </p>\n                <p>\xc2\xa0</p>\n                <h2 style="text-align: center;">\n                  <span id="Conclusion">Conclusion</span>\n                </h2>\n                <p>It is important to remember that these are more like guidelines, than rules.</p>\n                <p>We know that all three energy systems work interdependently, so it\xe2\x80\x99s not exactly cut and dry.</p>\n                <p>For example, working your quick or medium systems, means your aerobic system is in use during the recovery period.</p>\n                <p>If you want to optimize your training, it\xe2\x80\x99s important to order any energy system work within a training session or workout appropriately, so that the quick energy system is developed first, then the medium system, finishing with the long system.</p>\n                <p>This is of course assuming that you plan to train 2 or more energy systems within a given session.</p>\n                <p>\n                  Also you are better served utilizing some form or combination of\n                  <a target="_blank" href="http://artofweightlossblog.com/?p=1595" shape="rect">interval training</a>\n                  in your weight loss efforts, instead of typical aerobic exercise.\n                </p>\n                <h2 style="text-align: center;">\n                  <span id="Summary">\n                    <span style="color: #ff0000;">Summary</span>\n                  </span>\n                </h2>\n                <div style="padding: 12px; background-color: #ffe4e1; line-height: 1.2em;">\n                  <ul>\n                    <li style="line-height: 1.2em;">\n                      <span style="line-height: 18px;">Train all 3 energy systems on a semi-regular basis.</span>\n                    </li>\n                    <li style="line-height: 1.2em;">\n                      <span style="line-height: 18px;">Place emphasis on the Anaerobic System over the Aerobic System if weight loss is your goal, but not at the exclusion of any and all aerobic training.</span>\n                    </li>\n                    <li style="line-height: 1.2em;">\n                      <span style="line-height: 18px;">Your Quick Energy System means anything less than 10-12 seconds, with up to 6 times the rest, between bouts.</span>\n                    </li>\n                    <li>\n                      <span style="line-height: 18px;">Your Medium Energy System means anything lasting 10-120 seconds, with typically up to 4 times the rest, but more often a 1:2 or 1:3 ratio.</span>\n                    </li>\n                    <li>\n                      <span style="line-height: 18px;">\n                        Your Long Energy System will last roughly up to 20 miles which is typically where people bonk in Marathons without adequate training, or about 90-120 minutes\n                        <em>(depending on your level of training)</em>\n                        before your carbohydrate stores are depleted and additional carbohydrates must be consumed.\xc3\x82\xc2\xa0\n                      </span>\n                    </li>\n                    <li>\n                      <span style="line-height: 18px;">Intervals done in the Long Energy System typically have an inverse work to rest ratio (think walk-run protocol), often the rest is considerably shorter than the work phase, often 1:1, 2:1, 3:1 or even up to 10:1 or higher.</span>\n                    </li>\n                    <li>\n                      <span style="line-height: 18px;">If training more than one system within a given workout, train the systems from quickest to longest.</span>\n                    </li>\n                    <li>\n                      <span style="line-height: 18px;">All 3 systems work interdependently, not exclusively, so take most recommendations with a grain of salt.</span>\n                    </li>\n                  </ul>\n                </div>\n                <div style="margin-top: 10px; height: 15px;" class="zemanta-pixie">\n                  <img alt="" src="http://img.zemanta.com/pixy.gif?x-id=aa75e0b7-901a-49d0-aab0-ae22cbc31c37" style="border: none; float: right;" class="zemanta-pixie-img"></img>\n                </div>\n                <a id="dd_end" shape="rect"></a>\n                <div class="dd_outer">\n                  <div class="dd_inner">\n                    <div id="dd_ajax_float">\n                      <div class="dd_button_v">\n                        <div class="dd-fblike-ajax-load dd-fblike-1326"></div>\n                        <iframe allowtransparency="true" width="0" height="0" src="" class="DD_FBLIKE_AJAX_1326" scrolling="no" frameborder="0"></iframe>\n                      </div>\n                      <div style="clear:left"></div>\n                      <div class="dd_button_v">\n                        <div class="dd-twitter-ajax-load dd-twitter-1326"></div>\n                        <a data-via="darren_beattie" data-text="Energy System Development" data-count="vertical" data-url="http://artofweightlossblog.com/energy-system-development/" href="http://twitter.com/share" class="twitter-share-button" shape="rect"></a>\n                      </div>\n                      <div style="clear:left"></div>\n                      <div class="dd_button_v">\n                        <div class="dd-google1-ajax-load dd-google1-1326"></div>\n                        <g:plusone href="http://artofweightlossblog.com/energy-system-development/" size="tall"></g:plusone>\n                      </div>\n                      <div style="clear:left"></div>\n                      <div class="dd_button_extra_v">\n                        <script type="text/javascript">jQuery(document).load(function(){ stLight.options({publisher:\'3569f809-9e82-4ca1-8b86-5e55284fedfa\'}); });</script>\n                        <div class="st_email_custom">\n                          <span id="dd_email_text">email</span>\n                        </div>\n                      </div>\n                      <div style="clear:left"></div>\n                    </div>\n                  </div>\n                </div>\n                <script type="text/javascript">var dd_offset_from_content = 60; var dd_top_offset_from_content = 0;</script>\n                <script src="http://artofweightlossblog.com/wp-content/plugins/digg-digg/include/../js/diggdigg-floating-bar.js?ver=5.2.9" type="text/javascript"></script>\n                <script type="text/javascript"> jQuery(document).ready(function($) { window.setTimeout(\'loadFBLike_1326()\',1000);window.setTimeout(\'loadTwitter_1326()\',1000);window.setTimeout(\'loadGoogle1_1326()\',1000); }); </script>\n                <script type="text/javascript">\n                  function loadFBLike_1326(){ jQuery(document).ready(function($) { $(\'.dd-fblike-1326\').remove();$(\'.DD_FBLIKE_AJAX_1326\').attr(\'width\',\'50\');$(\'.DD_FBLIKE_AJAX_1326\').attr(\'height\',\'62\');$(\'.DD_FBLIKE_AJAX_1326\').attr(\'src\',\'http://www.facebook.com/plugins/like.php?href=http%3A%2F%2Fartofweightlossblog.com%2Fenergy-system-development%2F&amp;locale=en_US&amp;layout=box_count&amp;action=like&amp;width=50&amp;height=60&amp;colorscheme=light\'); }); } function loadTwitter_1326(){ jQuery(document).ready(function($) { $(\'.dd-twitter-1326\').remove();$.getScript(\'http://platform.twitter.com/widgets.js\'); }); } function loadGoogle1_1326(){ jQuery(document).ready(function($) { $(\'.dd-google1-1326\').remove();$.getScript(\'https://apis.google.com/js/plusone.js\'); }); }\n                </script>\n                <div style="clear:both;"></div>\n                <div rel="1326" style="padding-top:15px;padding-bottom:15px;" data="5" id="ois_5" class="ois_wrapper">\n                  <div style="width:600px !important;" class="ois_box_13">\n                    <div style="line-height: 26px !important;font-family: \'Georgia\', Arial !important; text-align:center !important; margin-bottom: 10px !important; font-size: 26px !important; color: #552d01 !important;" class="ois_main_title_13">Enjoy This Article?</div>\n                    <div style="background-color: #b91111 !important; padding-top: 10px !important;padding-bottom: 10px !important;" class="ois_inner_13">\n                      <table style="max-width: 100% !important; margin: 0 auto !important; " class="ois_outer_table_13">\n                        <tr>\n                          <td style="vertical-align:top !important;padding-right: 15px !important;" class="ois_share_td_13" rowspan="1" colspan="1">\n                            <div style="color: #fff !important;font-family: \'Kaushan Script\', Arial !important;padding-bottom: 10px !important; font-size: 20px !important;line-height: 20px !important;" class="ois_title_13">Share some love...</div>\n                            <table>\n                              <tr>\n                                <td class="ois_sm_button_13" rowspan="1" colspan="1">\n                                  <div data-show-faces="false" data-layout="box_count" sty="sty" data-send="false" style="width:50px !important;" class="fb-like"></div>\n                                </td>\n                                <td class="ois_sm_button_13" rowspan="1" colspan="1">\n                                  <a data-count="vertical" href="https://twitter.com/share" class="twitter-share-button" shape="rect">Tweet</a>\n                                </td>\n                                <td class="ois_sm_button_13" rowspan="1" colspan="1">\n                                  <g:plusone size="tall"></g:plusone>\n                                </td>\n                              </tr>\n                            </table>\n                          </td>\n                          <td style="padding-left:60px !important;vertical-align:top !important;" class="ois_sign_td_13" rowspan="1" colspan="1">\n                            <div style="color: #fff !important;font-family: \'Kaushan Script\', Arial !important;padding-bottom: 10px !important; font-size: 20px !important;" class="ois_title_13">Get free updates...</div>\n                            <form style="display:inline;" action="http://artofweightlossblog.us2.list-manage2.com/subscribe/post?u=5b7a066e0a6144896a7639797&amp;id=5d5f546fab" service="mailchimp" id="5" class="ois_form ois_form_13" method="post" enctype="application/x-www-form-urlencoded">\n                              <input style="width: 150px !important;" placeholder="Your Email Address..." name="EMAIL" id="5_email" class="ois_textbox_13 ois_textbox_email_13" type="text"></input>\n                              <br clear="none"></br>\n                              <input value="Update Me" class="ois_button_13" type="submit"></input>\n                            </form>\n                          </td>\n                        </tr>\n                      </table>\n                    </div>\n                  </div>\n                </div>\n                <p>Other Posts That Might Interest You:</p>\n                <ol>\n                  <li>\n                    <a title="Neuromuscular System Development" rel="bookmark" href="http://artofweightlossblog.com/neuromuscular-system-development/" shape="rect">Neuromuscular System Development</a>\n                  </li>\n                  <li>\n                    <a title="Help, I Still Get Tired During Workouts!" rel="bookmark" href="http://artofweightlossblog.com/help-i-still-get-tired-during-workouts/" shape="rect">Help, I Still Get Tired During Workouts!</a>\n                  </li>\n                  <li>\n                    <a title="The S.A.I.D. Principle" rel="bookmark" href="http://artofweightlossblog.com/the-s-a-i-d-principle/" shape="rect">The S.A.I.D. Principle</a>\n                  </li>\n                </ol>\n              </div>\n</div>\n            <div id="after_post" class="post_box">\n              <div class="format_text">\n                <p>\n                  If you like this content, you\'ll love the new coaching program I\'m about to launch. To get on the exclusive waiting list,\n                  <a href="http://fettle.ca/koachable/body-transformation-contest-and-coaching-program/" shape="rect">Click this Link!</a>\n                </p>\n                <p>I\'m only taking 100 students, and I\'m giving a 50% discount to my first group. </p>\n                <p>Please feel free though to leave a comment or share this post with your friends! </p>\n                <p>~ Darren, Coach</p>\n              </div>\n            </div>\n            <div id="disqus_thread">\n              <div id="dsq-content">\n                <ul id="dsq-comments">\n                  <li id="dsq-comment-101" class="comment even thread-even depth-1">\n                    <div id="dsq-comment-header-101" class="dsq-comment-header">\n                      <cite id="dsq-cite-101">\n                        http://twitter.com/RodzillaReviews\n                        <span id="dsq-author-user-101">Rodzilla</span>\n                      </cite>\n                    </div>\n                    <div id="dsq-comment-body-101" class="dsq-comment-body">\n                      <div id="dsq-comment-message-101" class="dsq-comment-message">\n                        <p>\n                          This was a great overview of the different systems and various types of interval training. One thing that I think should be noted though for the \xe2\x80\x9cmore is better\xe2\x80\x9d crowd \xe2\x80\x93 if doing high intensity intervals they should remember to cut back on their longer duration/steady state. Overdoing intense intervals is a sure way to burn-out.\xc3\x82\xc2\xa0\n                        </p>\n                      </div>\n                    </div>\n                  </li>\n                </ul>\n                <ul class="children">\n                  <li id="dsq-comment-102" class="comment odd alt depth-2">\n                    <div id="dsq-comment-header-102" class="dsq-comment-header">\n                      <cite id="dsq-cite-102">\n                        http://www.artofweightlossblog.com/\n                        <span id="dsq-author-user-102">Darren Beattie</span>\n                      </cite>\n                    </div>\n                    <div id="dsq-comment-body-102" class="dsq-comment-body">\n                      <div id="dsq-comment-message-102" class="dsq-comment-message">\n                        <p>Thanks for the comment, I completely agree.</p>\n                        <p>For the \xe2\x80\x9cmore is better crowd,\xe2\x80\x9d better is better, not more\xe2\x80\xa6 \xc3\x82\xc2\xa0;)\xc3\x82\xc2\xa0</p>\n                        <p>\n                          Actually I\xe2\x80\x99m going to be making more specific recommendations in an upcoming Interval Article, this was mostly just an overview of the energy systems (in following with the overview I did for neuromuscular training the week before) but might as well throw in the recommendation that typically I don\xe2\x80\x99t recommend High Intensity Interval Training (HIIT) for more than 30 minutes 2 or 3 times a week.\n                        </p>\n                        <p>This all kind of ties into an upcoming article that aims to simplify a modular system of training though too.</p>\n                        <p>\n                          However, I feel it is noteworthy that I used to play basketball and volleyball for up to 3 hours a day, 5-6 days a week, on top of 2-4x a week weight training. It is essentially interval training, and while I\xe2\x80\x99m sure it hit my immune system from time to time, and sometimes led to injury, you\xe2\x80\x99d be surprised what the human body is capable of.\n                        </p>\n                        <p>It\xe2\x80\x99s been my experience that there is a fine line between too much exercise and not enough.</p>\n                        <p>\n                          Provided there is a sensical progression leading up to more duration of higher intensity energy system work, it is possible to add a fair bit of interval training in place of long slow aerobic training, depending on desired outcomes. However, recovery and mobility work also need to increase to combat it.\n                        </p>\n                        <p>Lastly, proper nutrition goes a long way towards helping you recover from any kind of exercise, but especially intense exercise.</p>\n                      </div>\n                    </div>\n                  </li>\n                </ul>\n                <ul>\n                  <li class="post pingback">\n                    <p>\n                      Pingback:\n                      <a rel="external nofollow" href="http://artofweightlossblog.com/?p=1716" class="url" shape="rect">Why You Should Stop Circuit Training</a>\n                    </p>\n                  </li>\n                  <li class="post pingback">\n                    <p>\n                      Pingback:\n                      <a rel="external nofollow" href="http://artofweightlossblog.com/interval-training-part-i/" class="url" shape="rect">A Complete Guide to Interval Training</a>\n                    </p>\n                  </li>\n                  <li class="post pingback">\n                    <p>\n                      Pingback:\n                      <a rel="external nofollow" href="http://artofweightlossblog.com/interval-training-part-2/" class="url" shape="rect">A Complete Guide to Interval Training (Part 2)</a>\n                    </p>\n                  </li>\n                  <li class="post pingback">\n                    <p>\n                      Pingback:\n                      <a rel="external nofollow" href="http://artofweightlossblog.com/meal-frequency/" class="url" shape="rect">Meal Frequency &amp; Intermittent Fasting</a>\n                    </p>\n                  </li>\n                  <li class="post pingback">\n                    <p>\n                      Pingback:\n                      <a rel="external nofollow" href="http://www.quora.com/Fitness/Whats-the-best-training-curriculum-to-get-strength-and-maximum-muscle-endurance#ans1417790" class="url" shape="rect">Fitness: What\'s the best training curriculum to get strength and maximum muscle endurance? - Quora</a>\n                    </p>\n                  </li>\n                </ul>\n              </div>\n            </div>\n            <script type="text/javascript">\n              /* &lt;![CDATA[ */\n    var disqus_url = \'http://artofweightlossblog.com/energy-system-development/\';\n    var disqus_identifier = \'1326 http://artofweightlossblog.com/?p=1326\';\n    var disqus_container_id = \'disqus_thread\';\n    var disqus_domain = \'disqus.com\';\n    var disqus_shortname = \'taowl\';\n    var disqus_title = &quot;Energy System Development&quot;;\n        var disqus_config = function () {\n        var config = this; // Access to the config object\n\n        /*\n           All currently supported events:\n            * preData \xc3\xa2\xe2\x82\xac\xe2\x80\x9d fires just before we request for initial data\n            * preInit - fires after we get initial data but before we load any dependencies\n            * onInit  - fires when all dependencies are resolved but before dtpl template is rendered\n            * afterRender - fires when template is rendered but before we show it\n            * onReady - everything is done\n         */\n\n        config.callbacks.preData.push(function() {\n            // clear out the container (its filled for SEO/legacy purposes)\n            document.getElementById(disqus_container_id).innerHTML = \'\';\n        });\n                config.callbacks.onReady.push(function() {\n            // sync comments in the background so we don\'t block the page\n            var script = document.createElement(\'script\');\n            script.async = true;\n            script.src = \'?cf_action=sync_comments&amp;post_id=1326\';\n\n            var firstScript = document.getElementsByTagName( &quot;script&quot; )[0];\n            firstScript.parentNode.insertBefore(script, firstScript);\n        });\n                    };\n    var facebookXdReceiverPath = \'http://artofweightlossblog.com/wp-content/plugins/disqus-comment-system/xd_receiver.htm\';\n/* ]]&gt; */\n            </script>\n            <script type="text/javascript">\n              /* &lt;![CDATA[ */\n    var DsqLocal = {\n        \'trackbacks\': [\n            {\n                \'author_name\':    &quot;Why You Should Stop Circuit Training&quot;,\n                \'author_url\':    &quot;http:\\/\\/artofweightlossblog.com\\/?p=1716&quot;,\n                \'date\':            &quot;05\\/17\\/2012 08:36 AM&quot;,\n                \'excerpt\':        &quot;[...] see my most simplistic model read this article on Neuromuscular System Development and Energy System Development, and you&amp;#8217;ll see ...&quot;,\n                \'type\':            &quot;pingback&quot;            }\n,            {\n                \'author_name\':    &quot;A Complete Guide to Interval Training&quot;,\n                \'author_url\':    &quot;http:\\/\\/artofweightlossblog.com\\/interval-training-part-i\\/&quot;,\n                \'date\':            &quot;05\\/21\\/2012 08:04 AM&quot;,\n                \'excerpt\':        &quot;[...] For a quick look of a few different interval protocols used to train the three major energy systems, please ...&quot;,\n                \'type\':            &quot;pingback&quot;            }\n,            {\n                \'author_name\':    &quot;A Complete Guide to Interval Training (Part 2)&quot;,\n                \'author_url\':    &quot;http:\\/\\/artofweightlossblog.com\\/interval-training-part-2\\/&quot;,\n                \'date\':            &quot;05\\/29\\/2012 09:51 AM&quot;,\n                \'excerpt\':        &quot;[...] Quite often they are walk\\/run or jog\\/sprint protocols and they can be in any of the 3 energy systems. ...&quot;,\n                \'type\':            &quot;pingback&quot;            }\n,            {\n                \'author_name\':    &quot;Meal Frequency &amp;amp; Intermittent Fasting&quot;,\n                \'author_url\':    &quot;http:\\/\\/artofweightlossblog.com\\/meal-frequency\\/&quot;,\n                \'date\':            &quot;06\\/18\\/2012 08:09 AM&quot;,\n                \'excerpt\':        &quot;[...] essentially an exercise in &amp;#8216;conditioning&amp;#8216; and I don&amp;#8217;t mean elevate your heart rate, I mean Pavlov&amp;#8217;s [...] &quot;,\n                \'type\':            &quot;pingback&quot;            }\n,            {\n                \'author_name\':    &quot;Fitness: What&amp;#039;s the best training curriculum to get strength and maximum muscle endurance? - Quora&quot;,\n                \'author_url\':    &quot;http:\\/\\/www.quora.com\\/Fitness\\/Whats-the-best-training-curriculum-to-get-strength-and-maximum-muscle-endurance#ans1417790&quot;,\n                \'date\':            &quot;08\\/01\\/2012 07:58 PM&quot;,\n                \'excerpt\':        &quot;[...] Energy System Development (what it is) check out this blog post (Disclaimer: It&amp;#039;s my blog...):http:\\/\\/artofweightlossblog.com\\/e...Stick to the Major Lifts ...&quot;,\n                \'type\':            &quot;pingback&quot;            }\n        ],\n        \'trackback_url\': &quot;http:\\/\\/artofweightlossblog.com\\/energy-system-development\\/trackback\\/&quot;    };\n/* ]]&gt; */\n            </script>\n            <script type="text/javascript">\n              /* &lt;![CDATA[ */\n(function() {\n    var dsq = document.createElement(\'script\'); dsq.type = \'text/javascript\';\n    dsq.async = true;\n        dsq.src = \'http\' + \'://\' + disqus_shortname + \'.\' + \'disqus.com\' + \'/embed.js?pname=wordpress&amp;pver=2.73\';\n    (document.getElementsByTagName(\'head\')[0] || document.getElementsByTagName(\'body\')[0]).appendChild(dsq);\n})();\n/* ]]&gt; */\n            </script>\n            <div class="prev_next post_nav">\n              <p class="previous">\n                Previous post:\n                <a rel="prev" href="http://artofweightlossblog.com/nmsd-explained/" shape="rect">Neuromuscular Training Explained</a>\n              </p>\n              <p>\n                Next post:\n                <a rel="next" href="http://artofweightlossblog.com/help-how-often-should-i-train/" shape="rect">Help! How Often Should I Train?</a>\n              </p>\n            </div>\n          </div>\n          <div id="sidebars">\n            <div id="sidebar_1" class="sidebar">\n              <ul class="sidebar_list">\n                <li id="optinskin-widget-2" class="widget OptinSkin">\n                  <div rel="1326" style="padding-top:5px;padding-bottom:150px;" data="2" id="ois_2" class="ois_wrapper">\n                    <div \n                    style="background: #fafafa !important;background: -moz-linear-gradient(top, #fafafa 0%, #fff 100%) !important;background: -webkit-gradient(linear, left top, left bottom, color-stop(0%,#fafafa), color-stop(100%,#fff)) !important;background: -webkit-linear-gradient(top, #fafafa 0%,#fff 100%) !important;background: -o-linear-gradient(top, #fafafa 0%,#fff 100%) !important;background: -ms-linear-gradient(top, #fafafa 0%,#fff 100%) !important;background: linear-gradient(top, #fafafa 0%,#fff 100%) !important;filter: progid:DXImageTransform.Microsoft.gradient( startColorstr=\'#fafafa\', endColorstr=\'#fff\',GradientType=0 ) !important;width: 260px !important; padding: 15px 0 15px 15px !important; border-radius: 10px !important; -moz-border-radius: %-webkit-border-radius% !important; 10px !important; border-color: #000000 !important;" class="ois_box_1">\n                      <div style="color: #B91111 !important; font-size: 22px !important; font-family: \'Georgia\', Arial !important; padding-bottom: 10px !important; text-align: center !important;" class="ois_title_1">Get Updates, Free!</div>\n                      <div style="color: #000 !important;font-size: 16px !important; font-family: \'Georgia\', Arial !important; padding-bottom: 10px !important;" class="ois_subtitle_1">Learn the art of weight loss. </div>\n                      <div>\n                        <form style="display:inline;" action="http://fettle.us2.list-manage.com/subscribe/post?u=5b7a066e0a6144896a7639797&amp;id=5d5f546fab" service="mailchimp" id="2" class="ois_form ois_form_1" method="post" enctype="application/x-www-form-urlencoded">\n                          <input style="width: 240px !important;" placeholder="Email Address" name="EMAIL" id="2_email" class="ois_textbox_1 ois_textbox_email_1" type="text"></input>\n                          <br clear="none"></br>\n                          <input value="Sign Up Now" class="ois_button_1" type="submit"></input>\n                        </form>\n                      </div>\n</div>\n                    <style type="text/css"> .ois_button_1, .ois_box_1 input[type=&quot;submit&quot;] { background-color: #fff; border: 1px solid #000 !important; color: #B91111 !important; } </style>\n                  </div>\n                </li>\n                <li id="popular-widget-2" class="widget popular">\n                  <h3>Popular Articles</h3>\n                  <ul>\n                    <li>\n                      <a title="Permalink to Eating for Fat Loss" href="http://artofweightlossblog.com/eating-for-fat-loss/" shape="rect">Eating for Fat Loss</a>\n                    </li>\n                    <li>\n                      <a title="Permalink to Neuromuscular System Development" href="http://artofweightlossblog.com/neuromuscular-system-development/" shape="rect">Neuromuscular System Development</a>\n                    </li>\n                    <li>\n                      <a title="Permalink to Find Purpose" href="http://artofweightlossblog.com/find-purpose/" shape="rect">Find Purpose</a>\n                    </li>\n                    <li>\n                      <a title="Permalink to Energy System Development" href="http://artofweightlossblog.com/energy-system-development/" shape="rect">Energy System Development</a>\n                    </li>\n                    <li>\n                      <a title="Permalink to The PIESSEO Theory Explained" href="http://artofweightlossblog.com/the-piesseo-theory-explained/" shape="rect">The PIESSEO Theory Explained</a>\n                    </li>\n                  </ul>\n                </li>\n                <li id="text-7" class="widget widget_text">\n                  <div class="textwidget">\n                    <div align="center">\n                      <a href="http://artofweightlossblog.com/?page_id=1574" shape="rect">\n                        <img a="a" _="_" src="http://artofweightlossblog.com/wp-content/uploads/2012/05/WeightLossPsychology101DotImage1-e1335897783103.jpg"></img>\n                      </a>\n                      <div></div>\n                    </div>\n                  </div>\n                </li>\n                <li id="text-8" class="widget widget_text">\n                  <div class="textwidget">\n                    <div align="center">\n                      <a href="http://artofweightlossblog.com/?page_id=1673" shape="rect">\n                        <img a="a" _="_" src="http://artofweightlossblog.com/wp-content/uploads/2012/05/photo-2-e1336584610453.jpg"></img>\n                      </a>\n                      <div></div>\n                    </div>\n                  </div>\n                </li>\n                <li id="text-9" class="widget widget_text">\n                  <div class="textwidget">\n                    <div align="center">\n                      <a href="http://artofweightlossblog.com/?page_id=1654" shape="rect">\n                        <img a="a" _="_" src="http://artofweightlossblog.com/wp-content/uploads/2012/05/photo-3-e1336584581246.jpg"></img>\n                      </a>\n                      <div></div>\n                    </div>\n                  </div>\n                </li>\n                <li id="text-5" class="widget widget_text">\n                  <div class="textwidget">\n                    <div align="center">\n                      <a href="http://fettle.ca" shape="rect">\n                        <img src="http://artofweightlossblog.com/wp-content/uploads/2012/04/FettleImageFullSizeMedium.jpg" align="center"></img>\n                      </a>\n                    </div>\n                  </div>\n                </li>\n                <li id="text-4" class="widget widget_text">\n                  <div class="textwidget">\n                    <div align="center">\n                      <a href="http://koachable.com" shape="rect">\n                        <img src="http://artofweightlossblog.com/wp-content/uploads/2012/04/KoachableC70a-A02fT01a-Z_mdm.jpg" align="middle"></img>\n                      </a>\n                    </div>\n                  </div>\n                </li>\n                <li id="quotes-widget-2" class="widget quotes">\n                  <div class="quote_box">\n                    <div class="quote_content clear">\n                      <div class="detail_box">\n                        <img alt="Darren B. says\xe2\x80\xa6" src="http://fettle.ca/wp-content/uploads/2012/04/small.pic_.drums_.jpeg"></img>\n                        <span class="name">Darren B.</span>\n                        <span class="role">Creator of AofWL</span>\n                      </div>\n                      <div class="said_box">\n                        <p>&quot;I really hope you enjoy what I\'ve been working on for the last couple of years. Get in touch if there is content you\'d like to see.&quot;</p>\n                      </div>\n                    </div>\n                  </div>\n                </li>\n              </ul>\n            </div>\n          </div>\n        </div>\n      </div>\n    </div>\n    <div id="footer_area" class="full_width">\n      <div class="page">\n        <div id="footer">\n          <div id="fat_footer" class="clear">\n            <div class="column_wrap">\n              <div id="optinskin-widget-3" class="widget OptinSkin">\n                <div rel="738" style="padding-top:5px;padding-bottom:150px;" data="2" id="ois_2" class="ois_wrapper">\n                  <div \n                  style="background: #fafafa !important;background: -moz-linear-gradient(top, #fafafa 0%, #fff 100%) !important;background: -webkit-gradient(linear, left top, left bottom, color-stop(0%,#fafafa), color-stop(100%,#fff)) !important;background: -webkit-linear-gradient(top, #fafafa 0%,#fff 100%) !important;background: -o-linear-gradient(top, #fafafa 0%,#fff 100%) !important;background: -ms-linear-gradient(top, #fafafa 0%,#fff 100%) !important;background: linear-gradient(top, #fafafa 0%,#fff 100%) !important;filter: progid:DXImageTransform.Microsoft.gradient( startColorstr=\'#fafafa\', endColorstr=\'#fff\',GradientType=0 ) !important;width: 260px !important; padding: 15px 0 15px 15px !important; border-radius: 10px !important; -moz-border-radius: %-webkit-border-radius% !important; 10px !important; border-color: #000000 !important;" class="ois_box_1">\n                    <div style="color: #B91111 !important; font-size: 22px !important; font-family: \'Georgia\', Arial !important; padding-bottom: 10px !important; text-align: center !important;" class="ois_title_1">Get Updates, Free!</div>\n                    <div style="color: #000 !important;font-size: 16px !important; font-family: \'Georgia\', Arial !important; padding-bottom: 10px !important;" class="ois_subtitle_1">Learn the art of weight loss. </div>\n                    <div>\n                      <form style="display:inline;" action="http://fettle.us2.list-manage.com/subscribe/post?u=5b7a066e0a6144896a7639797&amp;id=5d5f546fab" service="mailchimp" id="2" class="ois_form ois_form_1" method="post" enctype="application/x-www-form-urlencoded">\n                        <input style="width: 240px !important;" placeholder="Email Address" name="EMAIL" id="2_email" class="ois_textbox_1 ois_textbox_email_1" type="text"></input>\n                        <br clear="none"></br>\n                        <input value="Sign Up Now" class="ois_button_1" type="submit"></input>\n                      </form>\n                    </div>\n</div>\n                  <style type="text/css"> .ois_button_1, .ois_box_1 input[type=&quot;submit&quot;] { background-color: #fff; border: 1px solid #000 !important; color: #B91111 !important; } </style>\n                </div>\n              </div>\n            </div>\n            <div class="column_wrap">\n              <div id="text-6" class="widget widget_text">\n                <div class="textwidget">\n                  <p>\n                    <a style="color: #ffffff" href="http://artofweightlossblog.com/?page_id=1204" shape="rect">ABOUT</a>\n                  </p>\n                  <p>\n                    <a style="color: #ffffff" href="http://fettle.ca/privacy-policy/" shape="rect">PRIVACY POLICY</a>\n                  </p>\n                  <p>\n                    <a style="color: #ffffff" href="http://fettle.ca/terms-of-use/" shape="rect">TERMS OF USE</a>\n                  </p>\n                  <p>\n                    <a style="color: #ffffff" href="http://fettle.ca/inquiries/" shape="rect">INQUIRES</a>\n                  </p>\n                </div>\n              </div>\n            </div>\n            <div class="column_wrap last">\n              <div id="social-widget-2" class="widget Social_Widget">\n                <h3> Stay In Touch</h3>\n                <div class="socialmedia-buttons smw_center">\n                  <a target="_blank" rel="nofollow" href="http://facebook.com/fettleinc" shape="rect">\n                    <img title="Follow Us Facebook" alt="Follow Us Facebook" src="http://artofweightlossblog.com/wp-content/plugins/social-media-widget/images/default/32/facebook.png" class="scale"></img>\n                  </a>\n                  <a target="_blank" rel="nofollow" href="https://plus.google.com/u/1/105938218834528889459" shape="rect">\n                    <img title="Follow Us Google+" alt="Follow Us Google+" src="http://artofweightlossblog.com/wp-content/plugins/social-media-widget/images/default/32/googleplus.png" class="scale"></img>\n                  </a>\n                  <a target="_blank" rel="nofollow" href="http://twitter.com/darren_beattie" shape="rect">\n                    <img title="Follow Us Twitter" alt="Follow Us Twitter" src="http://artofweightlossblog.com/wp-content/plugins/social-media-widget/images/default/32/twitter.png" class="scale"></img>\n                  </a>\n                  <a target="_blank" rel="nofollow" href="http://www.linkedin.com/in/dbeattie" shape="rect">\n                    <img title="Follow Us LinkedIn" alt="Follow Us LinkedIn" src="http://artofweightlossblog.com/wp-content/plugins/social-media-widget/images/default/32/linkedin.png" class="scale"></img>\n                  </a>\n                  <a target="_blank" rel="nofollow" href="http://www.youtube.com/fettleinc" shape="rect">\n                    <img title="Follow Us YouTube" alt="Follow Us YouTube" src="http://artofweightlossblog.com/wp-content/plugins/social-media-widget/images/default/32/youtube.png" class="scale"></img>\n                  </a>\n                  <a target="_blank" rel="nofollow" href="http://artofweightloss.tumblr.com/" shape="rect">\n                    <img title="Follow Us Tumblr" alt="Follow Us Tumblr" src="http://artofweightlossblog.com/wp-content/plugins/social-media-widget/images/default/32/tumblr.png" class="scale"></img>\n                  </a>\n                  <a target="_blank" rel="nofollow" href="http://feeds.feedburner.com/TheArtOfWeightLoss" shape="rect">\n                    <img title="Follow Us RSS" alt="Follow Us RSS" src="http://artofweightlossblog.com/wp-content/plugins/social-media-widget/images/default/32/rss.png" class="scale"></img>\n                  </a>\n                  <a target="_blank" rel="nofollow" href="mailto:darren@fettle.ca" shape="rect">\n                    <img title="Follow Us E-mail" alt="Follow Us E-mail" src="http://artofweightlossblog.com/wp-content/plugins/social-media-widget/images/default/32/email.png" class="scale"></img>\n                  </a>\n                </div>\n              </div>\n            </div>\n          </div>\n          <div id="footer_copy">\n            <p>\n              Creative Commons: Darren Beattie &amp;\n              <a style="color: #b91111" href="http://fettle.ca" shape="rect">Fettle Inc.</a>\n            </p>\n          </div>\n          <script type="text/javascript">\n            var _gaq = _gaq || [];\n  _gaq.push([\'_setAccount\', \'UA-26051369-3\']);\n  _gaq.push([\'_trackPageview\']);\n\n  (function() {\n    var ga = document.createElement(\'script\'); ga.type = \'text/javascript\'; ga.async = true;\n    ga.src = (\'https:\' == document.location.protocol ? \'https://ssl\' : \'http://www\') + \'.google-analytics.com/ga.js\';\n    var s = document.getElementsByTagName(\'script\')[0]; s.parentNode.insertBefore(ga, s);\n  })();\n\nif(anflexGA) {\n\tanflexGA.lt_e = true;\n\tanflexGA.internal_domain_list = location.hostname+&quot;&quot;;\n}\nif(anflexGA) {\n\tanflexGA.lt_d = true;\n\tanflexGA.download_extension_list = &quot;exe,txt,xml,doc,xls,ppt,docx,xlsx,pptx,pdf,zip,wav,mp3,mov,mpg,avi,wmv&quot;;\n}\n          </script>\n          <script src="http://w.sharethis.com/button/buttons.js?ver=3.4.2" type="text/javascript"></script>\n          <div id="upprev_box">\n            <p>Other Posts That Might Interest You:</p>\n            <ol>\n              <li>\n                <a title="The Dimensions of Well-Being" rel="bookmark" href="http://artofweightlossblog.com/the-dimensions-of-well-being/" shape="rect">The Dimensions of Well-Being</a>\n              </li>\n              <li>\n                <a title="The Bucket List" rel="bookmark" href="http://artofweightlossblog.com/the-bucket-list/" shape="rect">The Bucket List</a>\n              </li>\n              <li>\n                <a title="Why Goals Suck (Part II)" rel="bookmark" href="http://artofweightlossblog.com/why-goals-suck-part-ii/" shape="rect">Why Goals Suck (Part II)</a>\n              </li>\n            </ol>\n            <a rel="close" href="#" id="upprev_close" shape="rect">Close</a>\n          </div>\n        </div>\n      </div>\n    </div>\n    <script src="http://ajax.googleapis.com/ajax/libs/jquery/1.4.2/jquery.min.js" type="text/javascript"></script>\n    <script src="http://artofweightlossblog.com/wp-content/themes/thesis_184/custom/md/js/md-scripts.js"></script>\n  </body>\n</html>'
p11
sbsS'mentions'
p12
(lp13
(iedu.umass.cs.iesl.wikilink.expanded.data.ttypes
Mention
p14
(dp15
S'anchor_text'
p16
S'Aerobics'
p17
sS'context'
p18
(iedu.umass.cs.iesl.wikilink.expanded.data.ttypes
Context
p19
(dp20
S'middle'
p21
S'Aerobics'
p22
sS'right'
p23
S',\xe2\x80\x99 or \xe2\x80\x98 Aerobic Training ,\xe2\x80\x99 or what I often hear people talk about in terms of \xe2\x80\x98 cardio, \xe2\x80\x98 and maybe a few refer'
p24
sS'left'
p25
S'describes the intent, much the same way Neuromuscular System Development encapsulates training for the nervous systems and muscular systems. Most people only know about \xe2\x80\x98'
p26
sbsS'freebase_id'
p27
S'9202a8c04000641f80000000001318e6'
p28
sS'raw_text_offset'
p29
I14270
sS'wiki_url'
p30
S'http://en.wikipedia.org/wiki/Aerobics'
p31
sba(iedu.umass.cs.iesl.wikilink.expanded.data.ttypes
Mention
p32
(dp33
g16
S'Aerobic Training'
p34
sg18
(iedu.umass.cs.iesl.wikilink.expanded.data.ttypes
Context
p35
(dp36
g21
S'Aerobic Training'
p37
sg23
S',\xe2\x80\x99 or what I often hear people talk about in terms of \xe2\x80\x98 cardio, \xe2\x80\x98 and maybe a few refer to as \xe2\x80\x98 conditioning .\xe2\x80\x99'
p38
sg25
S'the same way Neuromuscular System Development encapsulates training for the nervous systems and muscular systems. Most people only know about \xe2\x80\x98 Aerobics ,\xe2\x80\x99 or \xe2\x80\x98'
p39
sbsg27
S'9202a8c04000641f8000000013a059a7'
p40
sg29
I14441
sg30
S'http://en.wikipedia.org/wiki/Aerobic_exercise'
p41
sba(iedu.umass.cs.iesl.wikilink.expanded.data.ttypes
Mention
p42
(dp43
g16
S'energy systems'
p44
sg18
(iedu.umass.cs.iesl.wikilink.expanded.data.ttypes
Context
p45
(dp46
g21
S'energy systems'
p47
sg23
S'. Two are actually Anaerobic Pathways \xe2\x80\x94 which if you\xe2\x80\x99re wondering, basically means, \xe2\x80\x98without oxygen.\xe2\x80\x99 We are capable of producing energy in an oxygen environment'
p48
sg25
S'of \xe2\x80\x98 cardio, \xe2\x80\x98 and maybe a few refer to as \xe2\x80\x98 conditioning .\xe2\x80\x99 Aerobic simply means, \xe2\x80\x98 with oxygen,\xe2\x80\x99 and only compromises one of\xc3\x82\xc2\xa0three'
p49
sbsg27
S'9202a8c04000641f80000000056e88b1'
p50
sg29
I14828
sg30
S'http://en.wikipedia.org/wiki/Energy_systems'
p51
sba(iedu.umass.cs.iesl.wikilink.expanded.data.ttypes
Mention
p52
(dp53
g16
S'adenosine triphosphate'
p54
sg18
(iedu.umass.cs.iesl.wikilink.expanded.data.ttypes
Context
p55
(dp56
g21
S'adenosine triphosphate'
p57
sg23
S'\xc3\x82\xc2\xa0(ATP)\xc3\x82\xc2\xa0\xe2\x80\x93\xc3\x82\xc2\xa0 the most basic component of energy that your body utilizes \xc3\x82\xc2\xa0\xe2\x80\x93\xc3\x82\xc2\xa0 but at the expense of speed and a lower power output. You can\xe2\x80\x99t'
p58
sg25
S'of oxygen. Oxygen is a catalyst for energy production, your aerobic energy system is actually far more efficient at generating energy via the production of\xc3\x82\xc2\xa0'
p59
sbsg27
S'9202a8c04000641f8000000000006538'
p60
sg29
I15377
sg30
S'http://en.wikipedia.org/wiki/Adenosine_triphosphate'
p61
sba(iedu.umass.cs.iesl.wikilink.expanded.data.ttypes
Mention
p62
(dp63
g16
S'Lactic Acid'
p64
sg18
(iedu.umass.cs.iesl.wikilink.expanded.data.ttypes
Context
p65
(dp66
g21
S'Lactic Acid'
p67
sg23
S'build-up, which isn\xe2\x80\x99t as bad as most people think, however, it still creates a burning sensation as your body produces the acid \xc3\x82\xc2\xa0\xe2\x80\x93 which is'
p68
sg25
S'at a higher intensity. This system is predominantly used in Power Sports like Soccer, Basketball, Hockey, Rugby, and 200m, 400m, 800m track events. The downside?'
p69
sbsg27
S'9202a8c04000641f8000000000139a1e'
p70
sg29
I19829
sg30
S'http://en.wikipedia.org/wiki/Lactic_acid'
p71
sbasS'doc_id'
p72
I3303734
sS'rare_words'
p73
(lp74
(iedu.umass.cs.iesl.wikilink.expanded.data.ttypes
RareWord
p75
(dp76
S'word'
p77
S'considerable'
p78
sS'offset'
p79
I23985
sba(iedu.umass.cs.iesl.wikilink.expanded.data.ttypes
RareWord
p80
(dp81
g77
S'creates'
p82
sg79
I19920
sba(iedu.umass.cs.iesl.wikilink.expanded.data.ttypes
RareWord
p83
(dp84
g77
S'drop'
p85
sg79
I20553
sba(iedu.umass.cs.iesl.wikilink.expanded.data.ttypes
RareWord
p86
(dp87
g77
S'guidelines'
p88
sg79
I25903
sba(iedu.umass.cs.iesl.wikilink.expanded.data.ttypes
RareWord
p89
(dp90
g77
S'Provided'
p91
sg79
I37382
sba(iedu.umass.cs.iesl.wikilink.expanded.data.ttypes
RareWord
p92
(dp93
g77
S'demands'
p94
sg79
I15740
sba(iedu.umass.cs.iesl.wikilink.expanded.data.ttypes
RareWord
p95
(dp96
g77
S'we'
p97
sg79
I24463
sba(iedu.umass.cs.iesl.wikilink.expanded.data.ttypes
RareWord
p98
(dp99
g77
S'outcomes'
p100
sg79
I37606
sba(iedu.umass.cs.iesl.wikilink.expanded.data.ttypes
RareWord
p101
(dp102
g77
S'isn'
p103
sg79
I19861
sba(iedu.umass.cs.iesl.wikilink.expanded.data.ttypes
RareWord
p104
(dp105
g77
S'evil'
p106
sg79
I24827
sbasb.