(iedu.umass.cs.iesl.wikilink.expanded.data.ttypes
WikiLinkItem
p0
(dp1
S'url'
p2
S'http://ask.metafilter.com/132897/Who-are-the-best-athletes-nobody-has-heard-of'
p3
sS'content'
p4
(iedu.umass.cs.iesl.wikilink.expanded.data.ttypes
PageContentItem
p5
(dp6
S'articleText'
p7
NsS'raw'
p8
NsS'fullText'
p9
NsS'dom'
p10
S'<html>\n  <head>\n    <meta content="IE=edge" http-equiv="X-UA-Compatible"></meta>\n    <meta content="DCFfHJ4UQbMnfKaS453mfXvyeqtaeZwGSKSjFmv3" name="readability-verification"></meta>\n    <script type="text/javascript">var _sf_startpt=(new Date()).getTime()</script>\n    <title>Who are the best athletes nobody has heard of? - obscure sports greatest | Ask MetaFilter</title>\n    <link type="text/css" rel="stylesheet" href="http://d217i264rvtnq0.cloudfront.net/styles/askmefi/comments021612b-min.css"></link>\n    <style type="text/css">\n      body{font-size:10pt;}\n.smallcopy{font-size:8pt;font-family:Verdana,sans-serif;}\na{font-weight:bold;text-decoration:none;}\ntd.copy{font-size:10pt;font-family:Verdana,sans-serif;line-height:130%;padding-top:2px;padding-bottom:2px;}\n.comments{font-size:10pt;font-family:Verdana,sans-serif;line-height:130%;margin-left:75px;margin-right:75px;}\n.copy{font-size:10pt;font-family:Verdana,sans-serif;line-height:130%;margin-left:50px;margin-right:50px;padding-top:2px;padding-bottom:2px;}\np{font-family:Verdana,sans-serif;line-height:130%;margin-left:0px;margin-right:0px;padding-top:2px;padding-bottom:2px;}\nblockquote{font-family:Verdana,sans-serif;line-height:130%;margin-left:50px;margin-right:50px;padding-top:2px;padding-bottom:2px;}\n.recently{background:#335036;margin-top:20px;margin-left:75px;margin-right:70px;margin-bottom:10px;padding:10px;width:475px;}\n.clearfix:after{content:&quot;.&quot;;display:block;height:0;clear:both;visibility:hidden;}\n.clearfix{display:inline-block;}\n.clearfix{display:block;}\n.cselected{background-color:#666;padding:5px;}\n.googleads{margin:0px 10px 20px 45px;width:736px;float:none;}\n.yahooright{float:right;margin:10px;}\n.skip{display:none;}\n.oldFav{display:none;}\n.new{color:#fff;}\n#triangle {position: absolute;display:none;line-height:0;height:0;width:0;left:0;top:0;border:10px solid transparent;border-left-color:#cc0;}\n.google-ad{margin:5px 0 0 0;}\n.google-label a{color:#aaa;text-transform:uppercase;font-size:10px;font-weight:400;padding:3px 3px 3px 0;} .google-text{overflow:hidden;line-height:140%;padding:6px 0;}\n.google-text-last{padding-bottom:0;}\n.google-html{min-height:200px;}\n.url{font-size:16px;font-weight:700;}\n.visible-url{font-size:11px;font-weight:400;}\n    </style>\n    <meta content="gEOzJ94HBqDkKWgGb+DkZb3ztZIprg+2l8JVSh7CaQM=" name="verify-v1"></meta>\n    <meta content="off" http-equiv="x-dns-prefetch-control"></meta>\n    <link href="/apple-touch-icon.png" rel="apple-touch-icon"></link>\n    <base target="_self"></base>\n    <link type="image/ico" href="http://d217i264rvtnq0.cloudfront.net/styles/askmefi/favicon.ico" rel="icon"></link>\n    <link href="http://d217i264rvtnq0.cloudfront.net/styles/askmefi/favicon.ico" rel="SHORTCUT ICON"></link>\n    <link title="MeFi Site Search" href="http://www.metafilter.com/opensearch.xml" type="application/opensearchdescription+xml" rel="search"></link>\n    <link href="http://ask.metafilter.com/132897/Who-are-the-best-athletes-nobody-has-heard-of" rel="canonical" id="canonical"></link>\n    <link href="http://ask.metafilter.com/132897/Who-are-the-best-athletes-nobody-has-heard-of/rss" title="Comments on: Who are the best athletes nobody has heard of?" type="application/rss+xml" rel="alternate"></link>\n    <link href="http://feeds.feedburner.com/mefi/PopularPosts" title="Popular Posts" type="application/rss+xml" rel="alternate"></link>\n    <link href="http://feeds.feedburner.com/mefi/PopularComments" title="Popular Comments" type="application/rss+xml" rel="alternate"></link>\n    <link href="http://d217i264rvtnq0.cloudfront.net/styles/mefi/handheld042210.css" media="handheld" type="text/css" rel="stylesheet"></link>\n    <link href="http://d217i264rvtnq0.cloudfront.net/styles/print010712-min.css" media="print" type="text/css" rel="stylesheet"></link>\n    <script type="text/javascript">\n      function addEvent(b,a,c){if(b.addEventListener){b.addEventListener(a,c,false);return true}else return b.attachEvent?b.attachEvent(&quot;on&quot;+a,c):false}\nvar cid,lid,sp;\nfunction dtm(){var b=new Array(&quot;January&quot;,&quot;February&quot;,&quot;March&quot;,&quot;April&quot;,&quot;May&quot;,&quot;June&quot;,&quot;July&quot;,&quot;August&quot;,&quot;September&quot;,&quot;October&quot;,&quot;November&quot;,&quot;December&quot;),a=new Date,c=&quot;&quot;;c=a.getDay();var e=a.getDate(),f=a.getMonth(),g=a.getFullYear(),d=a.getHours();a=a.getMinutes();c=d&lt;12?&quot;AM&quot;:&quot;PM&quot;;if(d==0)d=12;if(d&gt;12)d-=12;a+=&quot;&quot;;if(a.length==1)a=&quot;0&quot;+a;return b[f]+&quot; &quot;+e+&quot;, &quot;+g+&quot; &quot;+d+&quot;:&quot;+a+&quot; &quot;+c};\nvar google_adnum = 0;\nfunction google_ad_request_done(a){if(!(a.length&lt;1)){var b=&quot;&quot;,c;b+=\'&lt;div class=&quot;google-ad&quot;&gt;\';b+=\'&lt;div class=&quot;google-label&quot;&gt;\';google_info.feedback_url&amp;&amp;(b+=\'&lt;a href=&quot;\'+google_info.feedback_url+\'&quot;&gt;\');b+=&quot;Ads by Google&quot;;google_info.feedback_url&amp;&amp;(b+=&quot;&lt;/a&gt;&quot;);b+=&quot;&lt;/div&gt;&quot;;if(a[0].type==&quot;flash&quot;)b+=\'&lt;div class=&quot;google-flash&quot;&gt;\',b+=\'&lt;object classid=&quot;clsid:D27CDB6E-AE6D-11cf-96B8-444553540000&quot; codebase=&quot;http://download.macromedia.com/pub/shockwave/cabs/flash/swflash.cab#version=6,0,0,0&quot; WIDTH=&quot;\'+google_ad.image_width+\'&quot; HEIGHT=&quot;\'+google_ad.image_height+\'&quot;&gt; &lt;PARAM NAME=&quot;movie&quot; VALUE=&quot;\'+google_ad.image_url+\'&quot;&gt;&lt;PARAM NAME=&quot;quality&quot; VALUE=&quot;high&quot;&gt;&lt;PARAM NAME=&quot;AllowScriptAccess&quot; VALUE=&quot;never&quot;&gt;&lt;EMBED src=&quot;\'+google_ad.image_url+\'&quot; WIDTH=&quot;\'+google_ad.image_width+\'&quot; HEIGHT=&quot;\'+google_ad.image_height+\'&quot; TYPE=&quot;application/x-shockwave-flash&quot; AllowScriptAccess=&quot;never&quot;  PLUGINSPAGE=&quot;http://www.macromedia.com/go/getflashplayer&quot;&gt;&lt;/EMBED&gt;&lt;/OBJECT&gt;\',b+=&quot;&lt;/div&gt;&quot;;else if(a[0].type==&quot;image&quot;)b+=\'&lt;div class=&quot;google-image&quot;&gt;\',b+=\'&lt;a href=&quot;\'+a[0].url+\'&quot; target=&quot;_top&quot; title=&quot;go to \'+a[0].visible_url+\'&quot; onmouseout=&quot;window.status=\\\'\\\'&quot; onmouseover=&quot;window.status=\\\'go to \'+a[0].visible_url+\'\\\';return true&quot;&gt;&lt;img border=&quot;0&quot; src=&quot;\'+a[0].image_url+\'&quot;width=&quot;\'+a[0].image_width+\'&quot;height=&quot;\'+a[0].image_height+\'&quot;&gt;&lt;/a&gt;\',b+=&quot;&lt;/div&gt;&quot;;else if(a[0].type==&quot;html&quot;)b+=\'&lt;div class=&quot;google-html&quot;&gt;\'+a[0].snippet+\'&lt;/div&gt;&lt;div class=&quot;clearfix&quot;&gt;&lt;/div&gt;\';else if(a[0].type==&quot;text&quot;)for(c=0;c&lt;3;c++)a[c]&amp;&amp;typeof a[c]!=&quot;undefined&quot;&amp;&amp;(b+=\'&lt;div class=&quot;google-text\',c==2&amp;&amp;(b+=&quot; google-text-last&quot;),b+=\'&quot;&gt;\',b+=\'&lt;a title =&quot;\'+a[c].visible_url+\'&quot; href=&quot;\'+a[c].url+\'&quot; onmouseover=&quot;window.status=\\\'\'+a[c].visible_url+\'\\\'; return true;&quot; onmouseout=&quot;window.status=\\\'\\\'; return true;&quot; target=&quot;_blank&quot; class=&quot;url&quot;&gt;\'+a[c].line1+&quot;&lt;/a&gt;&quot;,b+=&quot;&lt;br&gt;&quot;,b+=\'&lt;a title =&quot;\'+a[c].visible_url+\'&quot; href=&quot;\'+a[c].url+\'&quot; onmouseover=&quot;window.status=\\\'\'+a[c].visible_url+\'\\\'; return true;&quot; onmouseout=&quot;window.status=\\\'\\\'; return true;&quot; target=&quot;_blank&quot; class=&quot;visible-url&quot;&gt;\'+a[c].visible_url+&quot;&lt;/a&gt;&quot;,b+=&quot; &quot;+a[c].line2,a[c].line3!=null&amp;&amp;a[c].line3!=&quot;&quot;&amp;&amp;(b+=&quot; &quot;,b+=a[c].line3),b+=&quot;&lt;/div&gt;&quot;);b+=&quot;&lt;/div&gt;&quot;;document.write(b);a[0].bidtype==&quot;CPC&quot;&amp;&amp;(google_adnum+=a.length)}};\n    </script>\n  </head>\n  <body id="body">\n    <a href="#content" class="skip" shape="rect">skip to main content</a>\n    <div id="logo">\n      <a target="_self" href="http://ask.metafilter.com/" shape="rect">\n        <img border="0" height="80" width="196" alt="Ask MetaFilter" src="http://d217i264rvtnq0.cloudfront.net/images/askmefi/askmefi.png"></img>\n      </a>\n    </div>\n    <div id="topline">\n      <ul id="navglobal">\n        <li>\n          <a target="_self" href="http://www.metafilter.com/" shape="rect">MetaFilter</a>\n        </li>\n        <li>\n          <a target="_self" href="http://ask.metafilter.com/" shape="rect">AskMeFi</a>\n        </li>\n        <li>\n          <a target="_self" href="http://projects.metafilter.com/" shape="rect">Projects</a>\n        </li>\n        <li>\n          <a target="_self" href="http://music.metafilter.com/" shape="rect">Music</a>\n        </li>\n        <li>\n          <a target="_self" href="http://jobs.metafilter.com/" shape="rect">Jobs</a>\n        </li>\n        <li>\n          <a target="_self" href="http://podcast.metafilter.com/" shape="rect">Podcast</a>\n        </li>\n        <li>\n          <a target="_self" href="http://irl.metafilter.com/" shape="rect">IRL</a>\n        </li>\n        <li>\n          <a target="_self" href="http://metatalk.metafilter.com/" shape="rect">MetaTalk</a>\n        </li>\n      </ul>\n    </div>\n    <div id="yellowbar">\n      <script type="text/javascript">document.write(dtm());</script>\n    </div>\n    <div id="bottomline">\n      <div style="width:300px;text-align:right;padding-right:6px;" id="search">\n        <form style="margin:0px;padding:0px;" action="/search.mefi" id="cse-search-box" method="get" enctype="application/x-www-form-urlencoded">\n          <div>\n            <input value="partner-pub-8621957794194569:9650013776" name="cx" type="hidden"></input>\n            <input value="FORID:10" name="cof" type="hidden"></input>\n            <input value="UTF-8" name="ie" type="hidden"></input>\n            <input style="width:120px;" size="31" name="q" type="text"></input>\n            <input style="margin-left:3px;" value="Search" name="sa" type="submit"></input>\n          </div>\n        </form>\n        <script src="http://www.google.com/coop/cse/brand?form=cse-search-box&amp;lang=en" type="text/javascript"></script>\n      </div>\n      <ul id="navseldom">\n        <li>\n          <a target="_self" href="/" shape="rect">Home</a>\n        </li>\n        <li>\n          <a target="_self" href="http://faq.metafilter.com/" shape="rect">FAQ</a>\n        </li>\n        <li>\n          <a target="_self" href="/archive.mefi" shape="rect">Archives</a>\n        </li>\n        <li>\n          <a target="_self" href="/tags/" shape="rect">Tags</a>\n        </li>\n        <li>\n          <a target="_self" href="http://www.metafilter.com/favorites/all" shape="rect">Popular</a>\n        </li>\n        <li>\n          <a target="_self" href="http://bestof.metafilter.com/" shape="rect">Best Of</a>\n        </li>\n        <li>\n          <a target="_self" href="/random" shape="rect">Random</a>\n        </li>\n      </ul>\n      <br clear="none"></br>\n      <ul id="navoften">\n        <li>\n          <a target="_self" href="https://login.metafilter.com/" shape="rect">Login</a>\n        </li>\n        <li>\n          <a target="_self" href="http://www.metafilter.com/newuser.mefi" shape="rect">New User</a>\n        </li>\n      </ul>\n    </div>\n    <br clear="all"></br>\n    <a name="content" shape="rect"></a>\n    <div id="topad" class="copy">\n      <script language="JavaScript">\n        var google_ad_client = \'pub-8621957794194569\';\nvar google_ad_channel = \'4287160468\';\nvar google_ad_output = \'js\';\nvar google_max_num_ads = \'3\';\nvar google_ad_type = \'image\';\nvar google_image_size = \'728x90\';\nvar google_feedback = \'on\';\nvar google_skip = google_adnum;\n      </script>\n      <script src="http://pagead2.googlesyndication.com/pagead/show_ads.js" language="JavaScript"></script>\n    </div>\n    <div id="page">\n      <div style="float:right;">\n        <div align="right">\n          <div class="tags">\n            Tags:\n            <div id="taglist">\n              <a target="_self" rel="tag" style="font-size:11px; font-weight:normal;text-decoration:underline;" href="http://ask.metafilter.com/tags/obscure" shape="rect">obscure</a>\n              <br clear="none"></br>\n              <a target="_self" rel="tag" style="font-size:11px; font-weight:normal;text-decoration:underline;" href="http://ask.metafilter.com/tags/sports" shape="rect">sports</a>\n              <br clear="none"></br>\n              <a target="_self" rel="tag" style="font-size:11px; font-weight:normal;text-decoration:underline;" href="http://ask.metafilter.com/tags/greatest" shape="rect">greatest</a>\n              <br clear="none"></br>\n              <a target="_self" rel="tag" style="font-size:11px; font-weight:normal;text-decoration:underline;" href="http://ask.metafilter.com/tags/players" shape="rect">players</a>\n              <br clear="none"></br>\n              <a target="_self" rel="tag" style="font-size:11px; font-weight:normal;text-decoration:underline;" href="http://ask.metafilter.com/tags/athletes" shape="rect">athletes</a>\n              <br clear="none"></br>\n            </div>\n          </div>\n          <div style="background:none;" id="sharelinks" class="tags">\n            Share:\n            <br clear="none"></br>\n            <a target="_blank" href="http://twitter.com/intent/tweet?text=Ask%20MeFi%3A%20Who%20are%20the%20best%20athletes%20nobody%20has%20heard%20of%3F%20http%3A%2F%2Fmefi%2Eus%2Fa%2F132897" id="tshare" class="shareicon twitter" shape="rect">Twitter</a>\n            <br clear="none"></br>\n            <a target="_blank" href="http://www.facebook.com/sharer.php?u=http://ask.metafilter.com/132897/Who-are-the-best-athletes-nobody-has-heard-of" id="fbshare" class="shareicon facebook" shape="rect">Facebook</a>\n          </div>\n          <br clear="all"></br>\n        </div>\n      </div>\n      <h1 class="posttitle">\n        Who are the best athletes nobody has heard of?\n        <br clear="none"></br>\n        <span class="smallcopy">\n          September 15, 2009 7:37 AM \xc2\xa0\n          <a href="/132897/Who-are-the-best-athletes-nobody-has-heard-of/rss" shape="rect">\n            <i class="feedicon"></i>\n          </a>\n          <a href="/132897/Who-are-the-best-athletes-nobody-has-heard-of/rss" shape="rect">Subscribe</a>\n        </span>\n      </h1>\n      <div class="copy">\n        Who are the absolute legends of obscure sports?\n        <br clear="none"></br>\n        <div style="border-top:1px dotted #777;margin-top:6px;padding-right:20px;">\n          <br clear="none"></br>\n          I realize even the most popular sports in one part of the world are unknown in another. But I\'m generally looking for, say, the best female badminton player ever or the greatest Buzkashi champion, as opposed to, say, Michael Jordan.\n          <br clear="none"></br>\n          (Clips of them doing their thing would also be cool).\n        </div>\n        <span class="smallcopy">\n          posted by\n          <a target="_self" href="http://www.metafilter.com/user/96810" shape="rect">Fireland</a>\n          to\n          <a target="_self" href="/sports-hobbies-recreation" shape="rect">sports, hobbies, &amp; recreation</a>\n          (55 answers total)\n          <span id="favcnt3132897">\n            <a target="_self" style="font-weight:normal;" href="http://ask.metafilter.com/favorited/3/132897" shape="rect">20 users marked this as a favorite</a>\n          </span>\n        </span>\n      </div>\n      <div style="margin-top:0px;margin-bottom:6px;" class="copy">\n        <script language="JavaScript">\n          var google_ad_client = \'pub-8621957794194569\';\nvar google_ad_channel = \'3683608966\';\nvar google_ad_output = \'js\';\nvar google_max_num_ads = \'3\';\nvar google_ad_type = \'text\';\nvar google_image_size = \'336x280,300x250\';\nvar google_feedback = \'on\';\nvar google_skip = google_adnum;\n        </script>\n        <script src="http://pagead2.googlesyndication.com/pagead/show_ads.js" language="JavaScript"></script>\n      </div>\n      <a name="1898424" shape="rect"></a>\n      <div id="c1898424" class="comments best">\n        <a href="http://en.wikipedia.org/wiki/Jeannie_Longo" shape="rect">Jeannie Longo</a>\n        , the greatest female bike racer that ever lived.\n        <br clear="none"></br>\n        <span class="smallcopy">\n          posted by\n          <a target="_self" href="http://www.metafilter.com/user/17573" shape="rect">box</a>\n          at\n          <a target="_self" href="/132897/Who-are-the-best-athletes-nobody-has-heard-of#1898424" shape="rect">7:39 AM</a>\n          on September 15, 2009 [\n          <a title="2 users marked this as favorite" style="font-weight:normal;" href="/favorited/4/1898424" shape="rect">2 favorites</a>\n          ]\n        </span>\n      </div>\n      <br clear="none"></br>\n      <br clear="none"></br>\n      <a name="1898429" shape="rect"></a>\n      <div id="c1898429" class="comments">\n        <a href="http://en.wikipedia.org/wiki/John_Tavares_(lacrosse)" shape="rect">John Tavares</a>\n        (No, not the hockey player, his uncle of the same name!)\n        <br clear="none"></br>\n        <span class="smallcopy">\n          posted by\n          <a target="_self" href="http://www.metafilter.com/user/77329" shape="rect">Citrus</a>\n          at\n          <a target="_self" href="/132897/Who-are-the-best-athletes-nobody-has-heard-of#1898429" shape="rect">7:47 AM</a>\n          on September 15, 2009\n        </span>\n      </div>\n      <br clear="none"></br>\n      <br clear="none"></br>\n      <a name="1898431" shape="rect"></a>\n      <div id="c1898431" class="comments">\n        <a href="http://en.wikipedia.org/wiki/Ole_Einar_Bj%C3%B8rndalen" shape="rect">Ole Einar Bj\xc3\x83\xc5\xberndalen</a>\n        is widely considered to be the greatest\n        <a href="http://en.wikipedia.org/wiki/Biathlon" shape="rect">biathlete</a>\n        (cross-country skiing and target shooting) of all time.\n        <br clear="none"></br>\n        <span class="smallcopy">\n          posted by\n          <a target="_self" href="http://www.metafilter.com/user/63307" shape="rect">burnmp3s</a>\n          at\n          <a target="_self" href="/132897/Who-are-the-best-athletes-nobody-has-heard-of#1898431" shape="rect">7:50 AM</a>\n          on September 15, 2009\n        </span>\n      </div>\n      <br clear="none"></br>\n      <br clear="none"></br>\n      <a name="1898436" shape="rect"></a>\n      <div id="c1898436" class="comments">\n        <a href="http://en.wikipedia.org/wiki/Eddy_Merckx" shape="rect">Eddy Merckx</a>\n        , greatest cyclist in the history of the sport.\n        <br clear="none"></br>\n        <span class="smallcopy">\n          posted by\n          <a target="_self" href="http://www.metafilter.com/user/14643" shape="rect">The Michael The</a>\n          at\n          <a target="_self" href="/132897/Who-are-the-best-athletes-nobody-has-heard-of#1898436" shape="rect">7:55 AM</a>\n          on September 15, 2009 [\n          <a title="1 user marked this as favorite" style="font-weight:normal;" href="/favorited/4/1898436" shape="rect">1 favorite</a>\n          ]\n        </span>\n      </div>\n      <br clear="none"></br>\n      <br clear="none"></br>\n      <a name="1898440" shape="rect"></a>\n      <div id="c1898440" class="comments">\n        Swedish swimmer\n        <a href="http://www.jarnmannen.com/7636/" shape="rect">Anders Olsson</a>\n        is pretty badass:\n        <br clear="none"></br>\n        <br clear="none"></br>\n        &quot;\n        <i>\n          Today, I\'m a Paralympic gold medallist (2004 &amp; 2008) and a world champion in handicapped swimming. I have improved my world records 52 times. Right now I hold ten current world records. I specialise in long-distance swimming. In 2008, I took part in the famous Swedish\n          <a href="http://en.wikipedia.org/wiki/Vansbrosimmet" shape="rect">Vansbrosimning</a>\n          swimming competition and came ninth out of the three thousand non-handicapped men who took part.\n        </i>\n        &quot;\n        <br clear="none"></br>\n        <span class="smallcopy">\n          posted by\n          <a target="_self" href="http://www.metafilter.com/user/7504" shape="rect">effbot</a>\n          at\n          <a target="_self" href="/132897/Who-are-the-best-athletes-nobody-has-heard-of#1898440" shape="rect">7:58 AM</a>\n          on September 15, 2009\n        </span>\n      </div>\n      <br clear="none"></br>\n      <br clear="none"></br>\n      <script language="JavaScript">\n        var google_ad_client = \'pub-8621957794194569\';\nvar google_ad_channel = \'3683608966\';\nvar google_ad_output = \'js\';\nvar google_max_num_ads = \'1\';\nvar google_ad_type = \'text\';\nvar google_image_size = \'336x280,300x250\';\nvar google_feedback = \'on\';\nvar google_skip = google_adnum;\n      </script>\n      <div class="comments">\n        <script src="http://pagead2.googlesyndication.com/pagead/show_ads.js" language="JavaScript"></script>\n      </div>\n      <br clear="none"></br>\n      <br clear="none"></br>\n      <a name="1898446" shape="rect"></a>\n      <div id="c1898446" class="comments">\n        <em>Jeannie Longo, the greatest female bike racer that ever lived.</em>\n        <br clear="none"></br>\n        <br clear="none"></br>\n        <a href="http://www.marlastreb.com/" shape="rect">Marla Streb</a>\n        , the greatest\n        <em>downhill </em>\n        female bike racer that ever lived.\n        <br clear="none"></br>\n        <span class="smallcopy">\n          posted by\n          <a target="_self" href="http://www.metafilter.com/user/66808" shape="rect">headnsouth</a>\n          at\n          <a target="_self" href="/132897/Who-are-the-best-athletes-nobody-has-heard-of#1898446" shape="rect">8:02 AM</a>\n          on September 15, 2009\n        </span>\n      </div>\n      <br clear="none"></br>\n      <br clear="none"></br>\n      <a name="1898448" shape="rect"></a>\n      <div id="c1898448" class="comments best">\n        <a href="http://www.lanefrost.com/" shape="rect">Lane Frost</a>\n        , &quot;Mr. Eight Seconds&quot;, greatest bull-rider in the history of professional rodeo.\n        <br clear="none"></br>\n        <span class="smallcopy">\n          posted by\n          <a target="_self" href="http://www.metafilter.com/user/50163" shape="rect">ormondsacker</a>\n          at\n          <a target="_self" href="/132897/Who-are-the-best-athletes-nobody-has-heard-of#1898448" shape="rect">8:03 AM</a>\n          on September 15, 2009\n        </span>\n      </div>\n      <br clear="none"></br>\n      <br clear="none"></br>\n      <a name="1898456" shape="rect"></a>\n      <div id="c1898456" class="comments">\n        <a href="http://en.wikipedia.org/wiki/Jahangir_Khan" shape="rect">Jehangir Khan</a>\n        dominated the game of Squash in the early 80\'s. He won 10 british open, was undefeated for 5 years/555 games.\n        <br clear="none"></br>\n        He was followed by\n        <a href="http://en.wikipedia.org/wiki/Jansher_Khan" shape="rect">Jansher Khan</a>\n        who dominated the sport in the latter half of the 80\'s.\n        <br clear="none"></br>\n        <span class="smallcopy">\n          posted by\n          <a target="_self" href="http://www.metafilter.com/user/97353" shape="rect">xufasch</a>\n          at\n          <a target="_self" href="/132897/Who-are-the-best-athletes-nobody-has-heard-of#1898456" shape="rect">8:08 AM</a>\n          on September 15, 2009\n        </span>\n      </div>\n      <br clear="none"></br>\n      <br clear="none"></br>\n      <a name="1898461" shape="rect"></a>\n      <div id="c1898461" class="comments">\n        <a href="http://www.richardpettinger.com/cycling/beryl_burton/" shape="rect">Beryl Burton</a>\n        , the greatest female cyclist who ever lived.  The only woman to beat the men in her sport.\n        <br clear="none"></br>\n        <span class="smallcopy">\n          posted by\n          <a target="_self" href="http://www.metafilter.com/user/26915" shape="rect">TheRaven</a>\n          at\n          <a target="_self" href="/132897/Who-are-the-best-athletes-nobody-has-heard-of#1898461" shape="rect">8:10 AM</a>\n          on September 15, 2009 [\n          <a title="1 user marked this as favorite" style="font-weight:normal;" href="/favorited/4/1898461" shape="rect">1 favorite</a>\n          ]\n        </span>\n      </div>\n      <br clear="none"></br>\n      <br clear="none"></br>\n      <a name="1898471" shape="rect"></a>\n      <div id="c1898471" class="comments">\n        In the U.S., everyone has heard about Bj\xc3\x83\xc2\xb6rn Borg. But nobody knows the name of the other sports hero from my childhood - the greatest Slalom and Giant Slalom skier ever,\n        <a href="http://en.wikipedia.org/wiki/Ingemar_Stenmark" shape="rect">Ingemar Stenmark</a>\n        .\n        <br clear="none"></br>\n        <br clear="none"></br>\n        &quot;\n        <em>Stenmark has won more alpine ski competitions than any other man with a total of 86 races (45 giant slaloms and 41 slaloms) in the Alpine Skiing World Cup, Hermann Maier being the second with 54 victories.</em>\n        &quot;\n        <br clear="none"></br>\n        <span class="smallcopy">\n          posted by\n          <a target="_self" href="http://www.metafilter.com/user/19207" shape="rect">gemmy</a>\n          at\n          <a target="_self" href="/132897/Who-are-the-best-athletes-nobody-has-heard-of#1898471" shape="rect">8:17 AM</a>\n          on September 15, 2009\n        </span>\n      </div>\n      <br clear="none"></br>\n      <br clear="none"></br>\n      <script language="JavaScript">\n        var google_ad_client = \'pub-8621957794194569\';\nvar google_ad_channel = \'3683608966\';\nvar google_ad_output = \'js\';\nvar google_max_num_ads = \'1\';\nvar google_ad_type = \'text\';\nvar google_image_size = \'336x280,300x250\';\nvar google_feedback = \'on\';\nvar google_skip = google_adnum;\n      </script>\n      <div class="comments">\n        <script src="http://pagead2.googlesyndication.com/pagead/show_ads.js" language="JavaScript"></script>\n      </div>\n      <br clear="none"></br>\n      <br clear="none"></br>\n      <a name="1898472" shape="rect"></a>\n      <div id="c1898472" class="comments best">\n        <a href="http://en.wikipedia.org/wiki/David_Foster_%28woodchopper%29" shape="rect">David Foster</a>\n        , who won the World 600 mm Double-handed Sawing Championship 21 years in a row.\n        <br clear="none"></br>\n        <span class="smallcopy">\n          posted by\n          <a target="_self" href="http://www.metafilter.com/user/48377" shape="rect">zamboni</a>\n          at\n          <a target="_self" href="/132897/Who-are-the-best-athletes-nobody-has-heard-of#1898472" shape="rect">8:17 AM</a>\n          on September 15, 2009\n        </span>\n      </div>\n      <br clear="none"></br>\n      <br clear="none"></br>\n      <a name="1898477" shape="rect"></a>\n      <div id="c1898477" class="comments">\n        <a href="http://en.wikipedia.org/wiki/Henry_Callahan" shape="rect">Henry Callahan</a>\n        from ultimate frisbee.\n        <br clear="none"></br>\n        <span class="smallcopy">\n          posted by\n          <a target="_self" href="http://www.metafilter.com/user/27278" shape="rect">martinX\'s bellbottoms</a>\n          at\n          <a target="_self" href="/132897/Who-are-the-best-athletes-nobody-has-heard-of#1898477" shape="rect">8:23 AM</a>\n          on September 15, 2009\n        </span>\n      </div>\n      <br clear="none"></br>\n      <br clear="none"></br>\n      <a name="1898482" shape="rect"></a>\n      <div id="c1898482" class="comments">\n        <em>John Tavares (No, not the hockey player, his uncle of the same name!)</em>\n        <br clear="none"></br>\n        Interesting choice.  I would\'ve thought\n        <a href="http://en.wikipedia.org/wiki/Gary_Gait" shape="rect">Gary Gait</a>\n        for lacrosse.\n        <br clear="none"></br>\n        <span class="smallcopy">\n          posted by\n          <a target="_self" href="http://www.metafilter.com/user/93187" shape="rect">That takes balls.</a>\n          at\n          <a target="_self" href="/132897/Who-are-the-best-athletes-nobody-has-heard-of#1898482" shape="rect">8:26 AM</a>\n          on September 15, 2009\n        </span>\n      </div>\n      <br clear="none"></br>\n      <br clear="none"></br>\n      <a name="1898485" shape="rect"></a>\n      <div id="c1898485" class="comments">\n        <a href="http://en.wikipedia.org/wiki/Yasuhiro_Yamashita" shape="rect">Yasuhiro Yamashita</a>\n        , one of the greatest Judo champions of all time.\n        <br clear="none"></br>\n        <span class="smallcopy">\n          posted by\n          <a target="_self" href="http://www.metafilter.com/user/52529" shape="rect">Comrade_robot</a>\n          at\n          <a target="_self" href="/132897/Who-are-the-best-athletes-nobody-has-heard-of#1898485" shape="rect">8:27 AM</a>\n          on September 15, 2009\n        </span>\n      </div>\n      <br clear="none"></br>\n      <br clear="none"></br>\n      <a name="1898487" shape="rect"></a>\n      <div id="c1898487" class="comments">\n        I recently\n        <a href="http://www.metafilter.com/84575/Not-Jesus-Christ-on-a-Pogo-Stick" shape="rect">posted this thread</a>\n        about Fred Grzybowski, a legend of extreme pogo-sticking.\n        <br clear="none"></br>\n        <span class="smallcopy">\n          posted by\n          <a target="_self" href="http://www.metafilter.com/user/62231" shape="rect">Lutoslawski</a>\n          at\n          <a target="_self" href="/132897/Who-are-the-best-athletes-nobody-has-heard-of#1898487" shape="rect">8:27 AM</a>\n          on September 15, 2009\n        </span>\n      </div>\n      <br clear="none"></br>\n      <br clear="none"></br>\n      <a name="1898491" shape="rect"></a>\n      <div id="c1898491" class="comments">\n        Although his track world records have been eclipsed by his countryman Kenenisa Bekele,\n        <a href="http://www.youtube.com/watch?v=ZCARH83vZpw" shape="rect">Haile Gebrselassie</a>\n        is the current marathon world record holder at 2:03:59 and is widely considered to be the greatest distance runner of all time.\n        <br clear="none"></br>\n        <span class="smallcopy">\n          posted by\n          <a target="_self" href="http://www.metafilter.com/user/17884" shape="rect">jimmythefish</a>\n          at\n          <a target="_self" href="/132897/Who-are-the-best-athletes-nobody-has-heard-of#1898491" shape="rect">8:30 AM</a>\n          on September 15, 2009\n        </span>\n      </div>\n      <br clear="none"></br>\n      <br clear="none"></br>\n      <a name="1898495" shape="rect"></a>\n      <div id="c1898495" class="comments">\n        <a href="http://en.wikipedia.org/wiki/Cliff_Young_(athlete)" shape="rect">Cliff Young</a>\n        , who won an 875km ultramarathon at age 61.\n        <br clear="none"></br>\n        <br clear="none"></br>\n        Hec Gervais, colossus of curling.\n        <br clear="none"></br>\n        <span class="smallcopy">\n          posted by\n          <a target="_self" href="http://www.metafilter.com/user/18069" shape="rect">scruss</a>\n          at\n          <a target="_self" href="/132897/Who-are-the-best-athletes-nobody-has-heard-of#1898495" shape="rect">8:32 AM</a>\n          on September 15, 2009 [\n          <a title="1 user marked this as favorite" style="font-weight:normal;" href="/favorited/4/1898495" shape="rect">1 favorite</a>\n          ]\n        </span>\n      </div>\n      <br clear="none"></br>\n      <br clear="none"></br>\n      <a name="1898496" shape="rect"></a>\n      <div id="c1898496" class="comments">\n        Here\'s a MeFi discussion on\n        <a href="http://www.metafilter.com/84438/Fedor-sounds-like-fighter" shape="rect">Fedor Emelianenko</a>\n        , who is considered to be the best heavyweight fighter in the world by most\n        <a href="http://en.wikipedia.org/wiki/Mixed_martial_arts" shape="rect">MMA</a>\n        journalists, fighters, and fans and is not fighting in the UFC, which is MMA\'s analogue to the NFL.\n        <br clear="none"></br>\n        <br clear="none"></br>\n        <a href="http://en.wikipedia.org/wiki/Kazushi_Sakuraba" shape="rect">Kazushi Sakuraba</a>\n        is another MMA fighter that beat many opponents that were much bigger than him, back when weight classes were much looser.\n        <br clear="none"></br>\n        <span class="smallcopy">\n          posted by\n          <a target="_self" href="http://www.metafilter.com/user/44769" shape="rect">ignignokt</a>\n          at\n          <a target="_self" href="/132897/Who-are-the-best-athletes-nobody-has-heard-of#1898496" shape="rect">8:32 AM</a>\n          on September 15, 2009\n        </span>\n      </div>\n      <br clear="none"></br>\n      <br clear="none"></br>\n      <a name="1898499" shape="rect"></a>\n      <div id="c1898499" class="comments">\n        I just learned about\n        <a href="http://en.wikipedia.org/wiki/Graeme_Obree" shape="rect">Graeme</a>\n        <a href="http://www.youtube.com/watch?v=ml6KT5MArC8" shape="rect">Obree</a>\n        from\n        <a href="http://www.metafilter.com/85038/High-Jump-Innovator#2740920" shape="rect">this comment</a>\n        .\n        <br clear="none"></br>\n        <br clear="none"></br>\n        He broke the the existing record for most distance covered on a bike in one hour back in 1993 on a bike he made himself.\n        <br clear="none"></br>\n        <span class="smallcopy">\n          posted by\n          <a target="_self" href="http://www.metafilter.com/user/17151" shape="rect">marsha56</a>\n          at\n          <a target="_self" href="/132897/Who-are-the-best-athletes-nobody-has-heard-of#1898499" shape="rect">8:34 AM</a>\n          on September 15, 2009\n        </span>\n      </div>\n      <br clear="none"></br>\n      <br clear="none"></br>\n      <a name="1898502" shape="rect"></a>\n      <div id="c1898502" class="comments">\n        It\'s more of a regional sport than an obscure one, but here\'s some\n        <a href="http://www.microkhan.com/tag/kabaddi/" shape="rect">kabaddi legends - Harjit Brar Bajakhana and Ameen Jatt</a>\n        .\n        <br clear="none"></br>\n        <br clear="none"></br>\n        <small>Hope I\'m not stepping on your turf, East Manitoba</small>\n        .\n        <br clear="none"></br>\n        <span class="smallcopy">\n          posted by\n          <a target="_self" href="http://www.metafilter.com/user/48377" shape="rect">zamboni</a>\n          at\n          <a target="_self" href="/132897/Who-are-the-best-athletes-nobody-has-heard-of#1898502" shape="rect">8:36 AM</a>\n          on September 15, 2009\n        </span>\n      </div>\n      <br clear="none"></br>\n      <br clear="none"></br>\n      <a name="1898505" shape="rect"></a>\n      <div id="c1898505" class="comments">\n        A champion bowler,\n        <a href="http://en.wikipedia.org/wiki/Walter_Ray_Williams,_Jr." shape="rect">Walter Ray Williams</a>\n        is also a 6 time world champion in  horseshoe throwing.\n        <br clear="none"></br>\n        <span class="smallcopy">\n          posted by\n          <a target="_self" href="http://www.metafilter.com/user/49856" shape="rect">BozoBurgerBonanza</a>\n          at\n          <a target="_self" href="/132897/Who-are-the-best-athletes-nobody-has-heard-of#1898505" shape="rect">8:37 AM</a>\n          on September 15, 2009\n        </span>\n      </div>\n      <br clear="none"></br>\n      <br clear="none"></br>\n      <a name="1898513" shape="rect"></a>\n      <div id="c1898513" class="comments best">\n        Regional rather than obscure, but\n        <a href="http://en.wikipedia.org/wiki/Donald_Bradman" shape="rect">Don Bradman in cricket</a>\n        :\n        <br clear="none"></br>\n        <br clear="none"></br>\n        &quot;Bradman\'s Test batting average of 99.94 has become one of cricket\'s most famous, iconic statistics.[33] No other player who has played more than 20 Test match innings has finished with a Test average of more than 61.&quot;\n        <br clear="none"></br>\n        <br clear="none"></br>\n        Akin to a major league batter having a\n        <em>career</em>\n        batting average of .392.  Just astonishing.\n        <br clear="none"></br>\n        <span class="smallcopy">\n          posted by\n          <a target="_self" href="http://www.metafilter.com/user/50412" shape="rect">idb</a>\n          at\n          <a target="_self" href="/132897/Who-are-the-best-athletes-nobody-has-heard-of#1898513" shape="rect">8:45 AM</a>\n          on September 15, 2009\n        </span>\n      </div>\n      <br clear="none"></br>\n      <br clear="none"></br>\n      <a name="1898514" shape="rect"></a>\n      <div id="c1898514" class="comments">\n        <em>\n          John Tavares (No, not the hockey player, his uncle of the same name!)\n          <br clear="none"></br>\n          Interesting choice. I would\'ve thought Gary Gait for lacrosse.\n        </em>\n        <br clear="none"></br>\n        <br clear="none"></br>\n        <a href="http://www.tsn.ca/nfl/story/?id=125485" shape="rect">Jim Brown</a>\n        , the football player is the greatest Lacrosse player of all time.\n        <br clear="none"></br>\n        <span class="smallcopy">\n          posted by\n          <a target="_self" href="http://www.metafilter.com/user/37485" shape="rect">JohnnyGunn</a>\n          at\n          <a target="_self" href="/132897/Who-are-the-best-athletes-nobody-has-heard-of#1898514" shape="rect">8:46 AM</a>\n          on September 15, 2009 [\n          <a title="2 users marked this as favorite" style="font-weight:normal;" href="/favorited/4/1898514" shape="rect">2 favorites</a>\n          ]\n        </span>\n      </div>\n      <br clear="none"></br>\n      <br clear="none"></br>\n      <a name="1898520" shape="rect"></a>\n      <div id="c1898520" class="comments">\n        <a href="http://www.youtube.com/watch?v=XauyTdXIL5A" shape="rect">Bart Helmholt</a>\n        , the first man to jump over 21 meter with a pole.\n        <br clear="none"></br>\n        <span class="smallcopy">\n          posted by\n          <a target="_self" href="http://www.metafilter.com/user/18752" shape="rect">ijsbrand</a>\n          at\n          <a target="_self" href="/132897/Who-are-the-best-athletes-nobody-has-heard-of#1898520" shape="rect">8:54 AM</a>\n          on September 15, 2009 [\n          <a title="1 user marked this as favorite" style="font-weight:normal;" href="/favorited/4/1898520" shape="rect">1 favorite</a>\n          ]\n        </span>\n      </div>\n      <br clear="none"></br>\n      <br clear="none"></br>\n      <a name="1898534" shape="rect"></a>\n      <div id="c1898534" class="comments">\n        <a href="http://en.wikipedia.org/wiki/Tanya_Streeter" shape="rect">Tanya Streeter</a>\n        is a world record-holding free-diving champion. In 2002, she broke the women\'s and men\'s no-limit world diving record by diving to a depth of 525 feet.\n        <br clear="none"></br>\n        <br clear="none"></br>\n        That record was broken by\n        <a href="http://en.wikipedia.org/wiki/Lo%C3%AFc_Leferme" shape="rect">Loic Laeferme</a>\n        , who dove to 531 feet. He died in a training session, and his record was broken by\n        <a href="http://en.wikipedia.org/wiki/Herbert_Nitsch" shape="rect">Herbert Nitsch</a>\n        , who dove to 702 feet.\n        <br clear="none"></br>\n        <span class="smallcopy">\n          posted by\n          <a target="_self" href="http://www.metafilter.com/user/92824" shape="rect">xingcat</a>\n          at\n          <a target="_self" href="/132897/Who-are-the-best-athletes-nobody-has-heard-of#1898534" shape="rect">9:04 AM</a>\n          on September 15, 2009\n        </span>\n      </div>\n      <br clear="none"></br>\n      <br clear="none"></br>\n      <a name="1898539" shape="rect"></a>\n      <div id="c1898539" class="comments">\n        I came here to say Don Bradman.  (Oddly enough, I only know about him through reading about G. H. Hardy, the mathematician, who was a big fan of cricket.)  If you crunch the numbers right it can be shown that nobody has dominated their sport to the extent that Bradman dominated cricket; see\n        <a href="http://www.nytimes.com/2001/02/27/sports/sir-donald-bradman-92-cricket-legend-dies.html" shape="rect">his New York Times obituary</a>\n        for some examples.\n        <br clear="none"></br>\n        <span class="smallcopy">\n          posted by\n          <a target="_self" href="http://www.metafilter.com/user/91774" shape="rect">madcaptenor</a>\n          at\n          <a target="_self" href="/132897/Who-are-the-best-athletes-nobody-has-heard-of#1898539" shape="rect">9:06 AM</a>\n          on September 15, 2009\n        </span>\n      </div>\n      <br clear="none"></br>\n      <br clear="none"></br>\n      <a name="1898543" shape="rect"></a>\n      <div id="c1898543" class="comments">\n        I found this recent article about Cesar Sala and Satish Jagnandan the\n        <a href="http://nymag.com/news/sports/58186/" shape="rect">&quot;Federer and Nadal of handball&quot;</a>\n        fascinating.\n        <br clear="none"></br>\n        <span class="smallcopy">\n          posted by\n          <a target="_self" href="http://www.metafilter.com/user/11501" shape="rect">bitdamaged</a>\n          at\n          <a target="_self" href="/132897/Who-are-the-best-athletes-nobody-has-heard-of#1898543" shape="rect">9:11 AM</a>\n          on September 15, 2009\n        </span>\n      </div>\n      <br clear="none"></br>\n      <br clear="none"></br>\n      <a name="1898550" shape="rect"></a>\n      <div id="c1898550" class="comments">\n        Oh and its hard to find much about him but many consider\n        <a href="http://en.wikipedia.org/wiki/Manuel_Estiarte" shape="rect">Manuel Estiarte</a>\n        from Spain the best Water Polo player to play the game.\n        <br clear="none"></br>\n        <br clear="none"></br>\n        Amazing because he was a little guy (5\' 10&quot;, 145lbs) in a sport dominated in the international game by big fellas.\n        <br clear="none"></br>\n        <span class="smallcopy">\n          posted by\n          <a target="_self" href="http://www.metafilter.com/user/11501" shape="rect">bitdamaged</a>\n          at\n          <a target="_self" href="/132897/Who-are-the-best-athletes-nobody-has-heard-of#1898550" shape="rect">9:17 AM</a>\n          on September 15, 2009\n        </span>\n      </div>\n      <br clear="none"></br>\n      <br clear="none"></br>\n      <a name="1898551" shape="rect"></a>\n      <div id="c1898551" class="comments">\n        Narimichi Fujiwara is probably the greatest kemari player in history.\n        <br clear="none"></br>\n        No films, as he lived in the 12th century.  However,\n        <a href="http://www.youtube.com/watch?v=UR-PU-H9OSU" shape="rect">here\'s</a>\n        a clip of modern players.\n        <br clear="none"></br>\n        <span class="smallcopy">\n          posted by\n          <a target="_self" href="http://www.metafilter.com/user/17603" shape="rect">spasm</a>\n          at\n          <a target="_self" href="/132897/Who-are-the-best-athletes-nobody-has-heard-of#1898551" shape="rect">9:17 AM</a>\n          on September 15, 2009\n        </span>\n      </div>\n      <br clear="none"></br>\n      <br clear="none"></br>\n      <a name="1898555" shape="rect"></a>\n      <div id="c1898555" class="comments">\n        Something about competitive cycling seems to attract exceptional characters. I nominate Mick Murphy, legend of The R\xc3\x83\xc2\xa1s Tailteann (an 8 day cycle race in Ireland).\n        <br clear="none"></br>\n        <br clear="none"></br>\n        <em>\n          <a href="http://www.fbdinsuranceras.com/event/fbdras_334.shtml" shape="rect">\n            He is conscious of the benefits of a good diet when in training, and maintains that this knowledge helped him in his cycling days: &quot;raw foods are best - meat, eggs, cheese, vegetables, honey - and I always took quantities of cows\' blood when I felt it was needed.&quot;\n          </a>\n        </em>\n        <br clear="none"></br>\n        <br clear="none"></br>\n        An amazing interview is linked from Jack Thurston\'s blog\n        <a href="http://thebikeshow.net/legends-of-the-ras/" shape="rect">here</a>\n        .\n        <br clear="none"></br>\n        <span class="smallcopy">\n          posted by\n          <a target="_self" href="http://www.metafilter.com/user/18183" shape="rect">Kiwi</a>\n          at\n          <a target="_self" href="/132897/Who-are-the-best-athletes-nobody-has-heard-of#1898555" shape="rect">9:19 AM</a>\n          on September 15, 2009\n        </span>\n      </div>\n      <br clear="none"></br>\n      <br clear="none"></br>\n      <a name="1898607" shape="rect"></a>\n      <div id="c1898607" class="comments">\n        A legend within the M62 corridor; I\'m assuming a virtual unknown to much of the rest of Britain, never mind the world. Possibly Rugby League\'s greatest ever player,\n        <a href="http://en.wikipedia.org/wiki/Ellery_Hanley" shape="rect">Ellery Hanley</a>\n        .\n        <br clear="none"></br>\n        <span class="smallcopy">\n          posted by\n          <a target="_self" href="http://www.metafilter.com/user/68485" shape="rect">Bodd</a>\n          at\n          <a target="_self" href="/132897/Who-are-the-best-athletes-nobody-has-heard-of#1898607" shape="rect">9:46 AM</a>\n          on September 15, 2009\n        </span>\n      </div>\n      <br clear="none"></br>\n      <br clear="none"></br>\n      <a name="1898663" shape="rect"></a>\n      <div id="c1898663" class="comments best">\n        Reg Mellor is the world champion\n        <a href="http://en.wikipedia.org/wiki/Ferret_legging" shape="rect">ferret legger.</a>\n        <br clear="none"></br>\n        <br clear="none"></br>\n        He kept a ferret in his pants for 5 hrs 26 min, which is a legend in my book.\n        <br clear="none"></br>\n        <span class="smallcopy">\n          posted by\n          <a target="_self" href="http://www.metafilter.com/user/72208" shape="rect">pseudonick</a>\n          at\n          <a target="_self" href="/132897/Who-are-the-best-athletes-nobody-has-heard-of#1898663" shape="rect">10:19 AM</a>\n          on September 15, 2009 [\n          <a title="1 user marked this as favorite" style="font-weight:normal;" href="/favorited/4/1898663" shape="rect">1 favorite</a>\n          ]\n        </span>\n      </div>\n      <br clear="none"></br>\n      <br clear="none"></br>\n      <a name="1898667" shape="rect"></a>\n      <div id="c1898667" class="comments best">\n        I\'ll see your Jehangir and Janshir\n        <a href="http://ask.metafilter.com/132897/Who-are-the-best-athletes-nobody-has-heard-of#1898456" shape="rect">Khans</a>\n        and raise you\n        <a href="http://en.wikipedia.org/wiki/Heather_McKay" shape="rect">Heather McKay</a>\n        , the greatest female squash player ever and arguably the most dominant athlete in any sport, ever. Among her accomplishments:\n        <br clear="none"></br>\n        <br clear="none"></br>\n        - She went undefeated for\n        <em>19 years</em>\n        .\n        <br clear="none"></br>\n        - She lost only two matches in her entire career.\n        <br clear="none"></br>\n        - She won the British Open (arguably the world championship) 16 straight times.\n        <br clear="none"></br>\n        - In 1967, she won the world championship final\n        <em>without losing a single point</em>\n        .\n        <br clear="none"></br>\n        <br clear="none"></br>\n        Oh, and by the way she also found time and energy to be a member of the Australian Women\'s Hockey Team, win the American Amateur Racquetball Championship once, the American Professional Racquetball Championship three times, and the Canadian Racquetball Championship five times.\n        <br clear="none"></br>\n        <span class="smallcopy">\n          posted by\n          <a target="_self" href="http://www.metafilter.com/user/19438" shape="rect">googly</a>\n          at\n          <a target="_self" href="/132897/Who-are-the-best-athletes-nobody-has-heard-of#1898667" shape="rect">10:21 AM</a>\n          on September 15, 2009 [\n          <a title="1 user marked this as favorite" style="font-weight:normal;" href="/favorited/4/1898667" shape="rect">1 favorite</a>\n          ]\n        </span>\n      </div>\n      <br clear="none"></br>\n      <br clear="none"></br>\n      <a name="1898680" shape="rect"></a>\n      <div id="c1898680" class="comments">\n        I just saw a documentary on on TV about an icelandic style of wrestling called\n        <a href="http://en.wikipedia.org/wiki/Glima" shape="rect">Glima</a>\n        . One of its masters appears to be a fellow called \xc3\x83\xc5\xbeorsteinn Kristj\xc3\x83\xc2\xa1nsson.\n        <br clear="none"></br>\n        <span class="smallcopy">\n          posted by\n          <a target="_self" href="http://www.metafilter.com/user/57371" shape="rect">edmz</a>\n          at\n          <a target="_self" href="/132897/Who-are-the-best-athletes-nobody-has-heard-of#1898680" shape="rect">10:28 AM</a>\n          on September 15, 2009 [\n          <a title="2 users marked this as favorite" style="font-weight:normal;" href="/favorited/4/1898680" shape="rect">2 favorites</a>\n          ]\n        </span>\n      </div>\n      <br clear="none"></br>\n      <br clear="none"></br>\n      <a name="1898688" shape="rect"></a>\n      <div id="c1898688" class="comments">\n        <a href="http://en.wikipedia.org/wiki/Juan_Manuel_Fangio" shape="rect">Juan Manuel Fangio</a>\n        was probably the greatest driver ever, though that\'s up for discussion.  I\'ll let you decide if muscling that machine around takes more athletic ability than bowling.  Certainly takes more balls to go out there with no seatbelt wearing just a leather hat.\n        <a href="http://www.youtube.com/watch?v=xoimATBQXfA" shape="rect">Amazing video</a>\n        .\n        <br clear="none"></br>\n        <br clear="none"></br>\n        Likewise,\n        <a href="http://en.wikipedia.org/wiki/Mich%C3%A8le_Mouton" shape="rect">Michele Mouton</a>\n        was the first (and arguably only) really competitive female driver, during the insane years of Group B rallying at that.  The cars got so fast that they were difficult to control and the series eventually was canceled.\n        <a href="http://www.youtube.com/watch?v=EKKfzR7dX-c" shape="rect">Decent video</a>\n        .\n        <br clear="none"></br>\n        <span class="smallcopy">\n          posted by\n          <a target="_self" href="http://www.metafilter.com/user/46561" shape="rect">paanta</a>\n          at\n          <a target="_self" href="/132897/Who-are-the-best-athletes-nobody-has-heard-of#1898688" shape="rect">10:34 AM</a>\n          on September 15, 2009\n        </span>\n      </div>\n      <br clear="none"></br>\n      <br clear="none"></br>\n      <a name="1898705" shape="rect"></a>\n      <div id="c1898705" class="comments">\n        <a href="http://video.google.com/videosearch?hl=en&amp;client=firefox-a&amp;rls=org.mozilla:en-US:official&amp;hs=bSc&amp;q=curling%20randy%20ferbey&amp;um=1&amp;ie=UTF-8&amp;sa=N&amp;tab=wv#" shape="rect">Randy Ferbey</a>\n        is one of the best curlers in the world.\n        <br clear="none"></br>\n        <span class="smallcopy">\n          posted by\n          <a target="_self" href="http://www.metafilter.com/user/60594" shape="rect">hydrobatidae</a>\n          at\n          <a target="_self" href="/132897/Who-are-the-best-athletes-nobody-has-heard-of#1898705" shape="rect">10:43 AM</a>\n          on September 15, 2009\n        </span>\n      </div>\n      <br clear="none"></br>\n      <br clear="none"></br>\n      <a name="1898712" shape="rect"></a>\n      <div id="c1898712" class="comments">\n        <a title="Major Taylor" href="http://en.wikipedia.org/wiki/Major_Taylor" shape="rect"></a>\n        , was an American cyclist who won the world one-mile track cycling championship in 1899\xc3\xa2\xe2\x82\xac\xe2\x80\x9dafter setting numerous world records and over-coming strong racial discrimination. Taylor was only the second African-American athlete to achieve the level of world championship\xc3\xa2\xe2\x82\xac\xe2\x80\x9dafter boxer George Dixon.\n        <br clear="none"></br>\n        <span class="smallcopy">\n          posted by\n          <a target="_self" href="http://www.metafilter.com/user/38286" shape="rect">i_like_camels</a>\n          at\n          <a target="_self" href="/132897/Who-are-the-best-athletes-nobody-has-heard-of#1898712" shape="rect">10:48 AM</a>\n          on September 15, 2009\n        </span>\n      </div>\n      <br clear="none"></br>\n      <br clear="none"></br>\n      <a name="1898714" shape="rect"></a>\n      <div id="c1898714" class="comments">\n        oops, fail, first time trying to post a link.\n        <br clear="none"></br>\n        Major Taylor was the cyclist I was trying to link to Wikipedia\n        <br clear="none"></br>\n        <span class="smallcopy">\n          posted by\n          <a target="_self" href="http://www.metafilter.com/user/38286" shape="rect">i_like_camels</a>\n          at\n          <a target="_self" href="/132897/Who-are-the-best-athletes-nobody-has-heard-of#1898714" shape="rect">10:49 AM</a>\n          on September 15, 2009\n        </span>\n      </div>\n      <br clear="none"></br>\n      <br clear="none"></br>\n      <a name="1898725" shape="rect"></a>\n      <div id="c1898725" class="comments">\n        <a href="http://www.youtube.com/watch?v=KOBCjRHfmOM" shape="rect">Sven Nys</a>\n        , who races\n        <a href="http://metatalk.metafilter.com/18216/Oregon-Cross" shape="rect">cyclocross</a>\n        , is hugely popular over here in Belgium, especially in Flanders.\n        <br clear="none"></br>\n        <span class="smallcopy">\n          posted by\n          <a target="_self" href="http://www.metafilter.com/user/29471" shape="rect">dseaton</a>\n          at\n          <a target="_self" href="/132897/Who-are-the-best-athletes-nobody-has-heard-of#1898725" shape="rect">10:58 AM</a>\n          on September 15, 2009\n        </span>\n      </div>\n      <br clear="none"></br>\n      <br clear="none"></br>\n      <a name="1898731" shape="rect"></a>\n      <div id="c1898731" class="comments">\n        mefi\'s own\n        <a href="http://metatalk.metafilter.com/18025/Follow-up-on-J-R-Salzman-aka-Logboy" shape="rect">logboy</a>\n        ?\n        <br clear="none"></br>\n        <span class="smallcopy">\n          posted by\n          <a target="_self" href="http://www.metafilter.com/user/24375" shape="rect">torticat</a>\n          at\n          <a target="_self" href="/132897/Who-are-the-best-athletes-nobody-has-heard-of#1898731" shape="rect">11:04 AM</a>\n          on September 15, 2009\n        </span>\n      </div>\n      <br clear="none"></br>\n      <br clear="none"></br>\n      <a name="1898752" shape="rect"></a>\n      <div id="c1898752" class="comments">\n        <a href="http://en.wikipedia.org/wiki/Ronnie_O%27Sullivan#Status" shape="rect">Ronnie O\'Sullivan</a>\n        is by many people considered to be the most talented Snooker player ever.\n        <br clear="none"></br>\n        <br clear="none"></br>\n        <a href="http://en.wikipedia.org/wiki/Phil_Taylor#Averages" shape="rect">Phil Taylor</a>\n        is held in the same regard for Darts.\n        <br clear="none"></br>\n        <br clear="none"></br>\n        Both of them are still competing.\n        <br clear="none"></br>\n        <br clear="none"></br>\n        Whether darts or snooker qualify as sports might be another matter.\n        <br clear="none"></br>\n        <span class="smallcopy">\n          posted by\n          <a target="_self" href="http://www.metafilter.com/user/12649" shape="rect">selton</a>\n          at\n          <a target="_self" href="/132897/Who-are-the-best-athletes-nobody-has-heard-of#1898752" shape="rect">11:22 AM</a>\n          on September 15, 2009\n        </span>\n      </div>\n      <br clear="none"></br>\n      <br clear="none"></br>\n      <a name="1898753" shape="rect"></a>\n      <div id="c1898753" class="comments best">\n        <a href="http://sumodb.sumogames.com/Rikishi.aspx?r=1354" shape="rect">Chiyonofuji</a>\n        , real name Akimoto Mitsugu, was the greatest sumo\n        <a href="http://www.youtube.com/watch?v=mU7Vp2OsH9g" shape="rect">grand champion</a>\n        of modern times, with a status comparable to Muhammed Ali multiplied by JFK in Japan at the time. Comparatively lightly built, he relied on technique, muscle and sheer willpower. He held the top rank of yokosuna for a decade, and notched up more than a thousand wins including a\n        <a href="http://www.youtube.com/watch?v=KnLBxW_GBG4" shape="rect">53-match unbroken winning streak</a>\n        .\n        <br clear="none"></br>\n        <span class="smallcopy">\n          posted by\n          <a target="_self" href="http://www.metafilter.com/user/64285" shape="rect">runincircles</a>\n          at\n          <a target="_self" href="/132897/Who-are-the-best-athletes-nobody-has-heard-of#1898753" shape="rect">11:22 AM</a>\n          on September 15, 2009 [\n          <a title="2 users marked this as favorite" style="font-weight:normal;" href="/favorited/4/1898753" shape="rect">2 favorites</a>\n          ]\n        </span>\n      </div>\n      <br clear="none"></br>\n      <br clear="none"></br>\n      <a name="1898828" shape="rect"></a>\n      <div id="c1898828" class="comments">\n        <a href="http://en.wikipedia.org/wiki/Luan_Jujie" shape="rect">Jujie Luan</a>\n        , my old fencing coach, is pretty awesome.  in her first international competition, the world junior championships in 1978, she took silver despite having taken a hit from a broken weapon that went right through her sword arm. she \'s a hero in China for that, and for taking gold in the 1984 Olympics.  she\'s pretty much retired now and living in Canada, but she decided that she wanted to go to the Beijing Olympics, for nostalgia\'s sake, really, and won a spot on the Canadian team at the age of 51.\n        <br clear="none"></br>\n        <span class="smallcopy">\n          posted by\n          <a target="_self" href="http://www.metafilter.com/user/90653" shape="rect">spindle</a>\n          at\n          <a target="_self" href="/132897/Who-are-the-best-athletes-nobody-has-heard-of#1898828" shape="rect">12:13 PM</a>\n          on September 15, 2009\n        </span>\n      </div>\n      <br clear="none"></br>\n      <br clear="none"></br>\n      <a name="1898896" shape="rect"></a>\n      <div id="c1898896" class="comments">\n        <a href="http://en.wikipedia.org/wiki/Garney_Henley" shape="rect">Garney Henley</a>\n        was a Canadian Football League perennial All-Star.  He played in seven Grey Cups and won four.  His most remarkable accomplishment, however, was as director of operations for Ottawa when he drafted a guy who had been dead for several months.\n        <br clear="none"></br>\n        <span class="smallcopy">\n          posted by\n          <a target="_self" href="http://www.metafilter.com/user/8721" shape="rect">joaquim</a>\n          at\n          <a target="_self" href="/132897/Who-are-the-best-athletes-nobody-has-heard-of#1898896" shape="rect">12:53 PM</a>\n          on September 15, 2009\n        </span>\n      </div>\n      <br clear="none"></br>\n      <br clear="none"></br>\n      <a name="1898953" shape="rect"></a>\n      <div id="c1898953" class="comments best">\n        <i>I\'ll see your Jehangir and Janshir Khans and raise you Heather McKay, the greatest female squash player ever and arguably the most dominant athlete in any sport, ever.</i>\n        <br clear="none"></br>\n        <br clear="none"></br>\n        I submit\n        <a href="http://en.wikipedia.org/wiki/Alexander_Karelin" shape="rect">Alexander Karelin</a>\n        , greatest greco-roman wrestler of all time.  He went undefeated from 1987 until his final match before retirement at the Sydney Olympics.  For the last\n        <i>six years</i>\n        of his streak he never gave up a single point.  In six years!  Against the greatest wrestlers in the world.  Utter domination.\n        <br clear="none"></br>\n        <span class="smallcopy">\n          posted by\n          <a target="_self" href="http://www.metafilter.com/user/20633" shape="rect">Justinian</a>\n          at\n          <a target="_self" href="/132897/Who-are-the-best-athletes-nobody-has-heard-of#1898953" shape="rect">1:35 PM</a>\n          on September 15, 2009 [\n          <a title="1 user marked this as favorite" style="font-weight:normal;" href="/favorited/4/1898953" shape="rect">1 favorite</a>\n          ]\n        </span>\n      </div>\n      <br clear="none"></br>\n      <br clear="none"></br>\n      <a name="1898960" shape="rect"></a>\n      <div id="c1898960" class="comments">\n        Poland\'s favorite athlete and probably the best ski jumper of all time,\n        <a href="http://en.wikipedia.org/wiki/Adam_Ma%C5%82ysz" shape="rect">Adam Ma\xc3\x85\xe2\x80\x9aysz</a>\n        .\n        <br clear="none"></br>\n        <span class="smallcopy">\n          posted by\n          <a target="_self" href="http://www.metafilter.com/user/26924" shape="rect">mdonley</a>\n          at\n          <a target="_self" href="/132897/Who-are-the-best-athletes-nobody-has-heard-of#1898960" shape="rect">1:40 PM</a>\n          on September 15, 2009\n        </span>\n      </div>\n      <br clear="none"></br>\n      <br clear="none"></br>\n      <a name="1899019" shape="rect"></a>\n      <div id="c1899019" class="comments">\n        If archery qualifies as an obscure sport, then\n        <a href="http://en.wikipedia.org/wiki/Howard_Hill" shape="rect">Howard Hill</a>\n        was probably the greatest archer of modern time. (A few videos on youtube)\n        <br clear="none"></br>\n        <span class="smallcopy">\n          posted by\n          <a target="_self" href="http://www.metafilter.com/user/58602" shape="rect">_dario</a>\n          at\n          <a target="_self" href="/132897/Who-are-the-best-athletes-nobody-has-heard-of#1899019" shape="rect">2:16 PM</a>\n          on September 15, 2009\n        </span>\n      </div>\n      <br clear="none"></br>\n      <br clear="none"></br>\n      <a name="1899025" shape="rect"></a>\n      <div id="c1899025" class="comments">\n        <a href="http://en.wikipedia.org/wiki/Emil_Z%C3%A1topek" shape="rect">Emil Z\xc3\x83\xc2\xa1topek</a>\n        is my favorite relatively forgotten athlete, although not obscure.  &quot;His final [Olympic Gold] medal came when he decided at the last minute to compete in the marathon for the first time in his life, and won. His strategy for the marathon was simple: he raced alongside Jim Peters, the British world-record holder. After a punishing first fifteen kilometers in which Peters knew he had overtaxed himself, Zatopek asked the Englishman what he thought of the race thus far. The astonished Peters told the Czech that the pace was &quot;too slow,&quot; at which point Zatopek simply accelerated. Peters never finished; Zatopek ran an Olympic record race.&quot;\n        <br clear="none"></br>\n        <span class="smallcopy">\n          posted by\n          <a target="_self" href="http://www.metafilter.com/user/39462" shape="rect">yeti</a>\n          at\n          <a target="_self" href="/132897/Who-are-the-best-athletes-nobody-has-heard-of#1899025" shape="rect">2:23 PM</a>\n          on September 15, 2009\n        </span>\n      </div>\n      <br clear="none"></br>\n      <br clear="none"></br>\n      <a name="1899047" shape="rect"></a>\n      <div id="c1899047" class="comments">\n        <a href="http://en.wikipedia.org/wiki/Billy_Bland_%28runner%29" shape="rect">Billy Bland</a>\n        , english\n        <a href="http://en.wikipedia.org/wiki/Fell_running" shape="rect">fell runner</a>\n        who holds the record for the\n        <a href="http://en.wikipedia.org/wiki/The_Bob_Graham_Round" shape="rect">Bob Graham Round</a>\n        of 42 Lake District peaks (27,000 ft of ascent and over 60 miles) in 13hrs 53 mins.\n        <br clear="none"></br>\n        <span class="smallcopy">\n          posted by\n          <a target="_self" href="http://www.metafilter.com/user/17610" shape="rect">badrolemodel</a>\n          at\n          <a target="_self" href="/132897/Who-are-the-best-athletes-nobody-has-heard-of#1899047" shape="rect">2:43 PM</a>\n          on September 15, 2009\n        </span>\n      </div>\n      <br clear="none"></br>\n      <br clear="none"></br>\n      <a name="1899184" shape="rect"></a>\n      <div id="c1899184" class="comments">\n        Rick Swenson, five-time winner of the Iditarod. His finish in 1991 alone would have cemented his reputation. In a raging blizzard near White Mountain, the toughest of the tough hunkered down for the night -- everyone else turned back. Swenson was the only musher of the entire field who pushed through, for his fifth title.\n        <br clear="none"></br>\n        <br clear="none"></br>\n        Lance Mackey, the musher from Fairbanks who in 2007 did what even the toughest of the old-school mushers thought was frankly impossible: Race in and win both the 1,000-mile Yukon Quest and the 1,161-mile Iditarod. Then in 2008, he did it again.\n        <br clear="none"></br>\n        <br clear="none"></br>\n        - Alaska Jack\n        <br clear="none"></br>\n        <span class="smallcopy">\n          posted by\n          <a target="_self" href="http://www.metafilter.com/user/91266" shape="rect">Alaska Jack</a>\n          at\n          <a target="_self" href="/132897/Who-are-the-best-athletes-nobody-has-heard-of#1899184" shape="rect">4:51 PM</a>\n          on September 15, 2009\n        </span>\n      </div>\n      <br clear="none"></br>\n      <br clear="none"></br>\n      <a name="1899593" shape="rect"></a>\n      <div id="c1899593" class="comments">\n        <a href="http://en.wikipedia.org/wiki/Bj%C3%B8rn_D%C3%A6hlie" shape="rect">Bj\xc3\x83\xc5\xbern D\xc3\x83\xc5\xa0hlie</a>\n        , cross-country skier, won 29 medals in Olympic and World Championships.\n        <br clear="none"></br>\n        <br clear="none"></br>\n        <a href="http://en.wikipedia.org/wiki/Johann_Olav_Koss" shape="rect">Johann Olav Koss</a>\n        , speed skater, won three gold medals in the \'94 Olympics, winning all races in world record time.\n        <br clear="none"></br>\n        <br clear="none"></br>\n        <a href="http://en.wikipedia.org/wiki/Matti_Nyk%C3%A4nen" shape="rect">Matti Nyk\xc3\x83\xe2\x82\xacnen</a>\n        is one of the greatest ski jumpers of all time.\n        <br clear="none"></br>\n        <br clear="none"></br>\n        <a href="Kjetil Andr\xc3\x83\xc2\xa9 Aamodt" shape="rect">Kjetil Andr\xc3\x83\xc2\xa9 Aamodt</a>\n        is the only Alpine skier to win 8 Olympic medals.\n        <br clear="none"></br>\n        <span class="smallcopy">\n          posted by\n          <a target="_self" href="http://www.metafilter.com/user/10322" shape="rect">edlundart</a>\n          at\n          <a target="_self" href="/132897/Who-are-the-best-athletes-nobody-has-heard-of#1899593" shape="rect">10:32 PM</a>\n          on September 15, 2009\n        </span>\n      </div>\n      <br clear="none"></br>\n      <br clear="none"></br>\n      <a name="1899594" shape="rect"></a>\n      <div id="c1899594" class="comments">\n        Oops, that last link should have been\n        <a href="http://en.wikipedia.org/wiki/Kjetil_Andre_Aamodt" shape="rect">this</a>\n        .\n        <br clear="none"></br>\n        <span class="smallcopy">\n          posted by\n          <a target="_self" href="http://www.metafilter.com/user/10322" shape="rect">edlundart</a>\n          at\n          <a target="_self" href="/132897/Who-are-the-best-athletes-nobody-has-heard-of#1899594" shape="rect">10:33 PM</a>\n          on September 15, 2009\n        </span>\n      </div>\n      <br clear="none"></br>\n      <br clear="none"></br>\n      <a name="1899707" shape="rect"></a>\n      <div id="c1899707" class="comments">\n        <a href="http://ask.metafilter.com/132897/Who-are-the-best-athletes-nobody-has-heard-of#1898520" shape="rect"> ijsbrand</a>\n        , there\'s no way you can casually link to a video like that and expect us to be satisfied :-)   I beg you to construct a FPP about whatever is going on in that sprinting-jumping-poleclimbing competition.\n        <br clear="none"></br>\n        <span class="smallcopy">\n          posted by\n          <a target="_self" href="http://www.metafilter.com/user/32883" shape="rect">primer_dimer</a>\n          at\n          <a target="_self" href="/132897/Who-are-the-best-athletes-nobody-has-heard-of#1899707" shape="rect">2:46 AM</a>\n          on September 16, 2009\n        </span>\n      </div>\n      <br clear="none"></br>\n      <br clear="none"></br>\n      <a name="1900132" shape="rect"></a>\n      <div id="c1900132" class="comments">\n        Ok, since others have mentioned ski jumpers:\n        <br clear="none"></br>\n        <br clear="none"></br>\n        <a href="http://en.wikipedia.org/wiki/Jan_Bokl%C3%B6v" shape="rect">Jan Bokl\xc3\x83\xc2\xb6v</a>\n        , Swedish ski jumper who invented the V-style in 1985. It was a huge controversy at first, and he always got style point deductions for the first few years of jumping that way. But he was able to jump about 10% further with his new style, which has since replaced the &quot;Daescher technique&quot; as the predominant ski-jumping technique. (Personal video of a V-style jumper\n        <a href="http://www.flickr.com/photos/gemstone/2613323884/in/photostream/" shape="rect">here</a>\n        .)\n        <br clear="none"></br>\n        <span class="smallcopy">\n          posted by\n          <a target="_self" href="http://www.metafilter.com/user/19207" shape="rect">gemmy</a>\n          at\n          <a target="_self" href="/132897/Who-are-the-best-athletes-nobody-has-heard-of#1900132" shape="rect">9:52 AM</a>\n          on September 16, 2009\n        </span>\n      </div>\n      <br clear="none"></br>\n      <br clear="none"></br>\n      <a name="1900287" shape="rect"></a>\n      <div id="c1900287" class="comments">\n        <a href="http://en.wikipedia.org/wiki/Eric_Heiden" shape="rect">Eric Heiden</a>\n        is the greatest long track speed skater of all time. His sweep of all the long track races (500, 1000, 1500, 5000 and 10000 meters) at the 1980 Olympics has never been repeated. He also set Olympic or world records during each performance.\n        <br clear="none"></br>\n        <br clear="none"></br>\n        <a href="http://en.wikipedia.org/wiki/Vasiliy_Alekseyev" shape="rect">Vasiliy Alekseyev</a>\n        is one of the greatest weightlifters to have ever lived, and the most accomplished super heavyweight lifter of all time, setting 80 world records in his career.\n        <br clear="none"></br>\n        <br clear="none"></br>\n        <a href="http://en.wikipedia.org/wiki/Kenenisa_Bekele" shape="rect">Kenenisa Bekele</a>\n        is probably the greatest middle distance runner of all time. He is the world and Olympic record holder in the 5000 and 10000 meters and most accomplished cross country runner of all time. What really sets him apart is his ability to run the last 400m of a race 11-12 seconds off world record pace for the 400m.\n        <br clear="none"></br>\n        <span class="smallcopy">\n          posted by\n          <a target="_self" href="http://www.metafilter.com/user/60312" shape="rect">zentrification</a>\n          at\n          <a target="_self" href="/132897/Who-are-the-best-athletes-nobody-has-heard-of#1900287" shape="rect">11:31 AM</a>\n          on September 16, 2009\n        </span>\n      </div>\n      <br clear="none"></br>\n      <br clear="none"></br>\n      <div class="comments">\n        <span style="font-size:11px;" class="whitesmallcopy">\n          <a target="_self" href="/132896/What-are-some-really-great-music-tutorial-websites" shape="rect">\xc2\xab Older</a>\n          What are some really great &amp;qu...\t\xc2\xa0\xc2\xa0|\xc2\xa0\xc2\xa0I\'m a career advisor looking t...\n          <a target="_self" href="/132898/Good-Resume-Books" shape="rect">Newer \xc2\xbb</a>\n        </span>\n      </div>\n      <div class="comments">\n        <script language="JavaScript">\n          var google_ad_client = \'pub-8621957794194569\';\nvar google_ad_channel = \'3683608966\';\nvar google_ad_output = \'js\';\nvar google_max_num_ads = \'3\';\nvar google_ad_type = \'text\';\nvar google_image_size = \'336x280,300x250\';\nvar google_feedback = \'on\';\nvar google_skip = google_adnum;\n        </script>\n        <script src="http://pagead2.googlesyndication.com/pagead/show_ads.js" language="JavaScript"></script>\n      </div>\n      <div style="margin-top:35px;" class="comments">This thread is closed to new comments.</div>\n      <br clear="none"></br>\n      <br clear="none"></br>\n      <div id="related" class="recently darker">\n        <div style="margin-bottom:4px;">Related Questions</div>\n        <a style="font-weight:normal;" href="http://ask.metafilter.com/224423/Athletes-who-zigged-when-others-were-zagging" shape="rect">Athletes who zigged when others were zagging</a>\n        <span class="smallcopy">September 13, 2012</span>\n        <br clear="none"></br>\n        <a style="font-weight:normal;" href="http://ask.metafilter.com/221248/Are-there-any-great-multiday-nonwilderness-walks-in-the-US" shape="rect">Are there any great, multi-day, non-wilderness...</a>\n        <span class="smallcopy">July 31, 2012</span>\n        <br clear="none"></br>\n        <a style="font-weight:normal;" href="http://ask.metafilter.com/216787/Unintended-Consequences-of-Minor-Rules-in-Sports-and-Games" shape="rect">Unintended Consequences of Minor Rules in Sports...</a>\n        <span class="smallcopy">June 1, 2012</span>\n        <br clear="none"></br>\n        <a style="font-weight:normal;" href="http://ask.metafilter.com/183840/Get-me-off-my-butt" shape="rect">Get me off my butt.</a>\n        <span class="smallcopy">April 19, 2011</span>\n        <br clear="none"></br>\n        <a style="font-weight:normal;" href="http://ask.metafilter.com/119779/What-music-keeps-you-going-and-going-and-going-asking-for-another-hill-to-come" shape="rect">What music keeps you going and going and going...</a>\n        <span class="smallcopy">April 17, 2009</span>\n        <br clear="none"></br>\n      </div>\n    </div>\n    <br clear="all"></br>\n    <div id="footer">\n      <div style="width:24%;float:left;">\n        <div class="footpad">\n          <p>\n            <strong>Features</strong>\n          </p>\n          -\n          <a target="_self" href="https://login.metafilter.com/" shape="rect">Login</a>\n          <br clear="none"></br>\n          -\n          <a target="_self" href="http://www.metafilter.com/newuser.mefi" shape="rect">New User</a>\n        </div>\n      </div>\n      <div style="width:25%;float:left;">\n        <div class="footpad">\n          <p>\n            <strong>Links</strong>\n          </p>\n          -\n          <a target="_self" href="/" shape="rect">Home</a>\n          <br clear="none"></br>\n          -\n          <a target="_self" href="/search.mefi" shape="rect">Search</a>\n          <br clear="none"></br>\n          -\n          <a target="_self" href="/archive.mefi" shape="rect">Archives</a>\n          <br clear="none"></br>\n          -\n          <a target="_self" href="/tags/" shape="rect">Tags</a>\n          <br clear="none"></br>\n          -\n          <a target="_self" href="http://www.metafilter.com/about.mefi" shape="rect">About</a>\n          <br clear="none"></br>\n          -\n          <a href="http://mssv.net/wiki" shape="rect">MeFi Wiki</a>\n        </div>\n      </div>\n      <div style="width:25%;float:left;">\n        <div class="footpad">\n          <p>\n            <strong>Sites</strong>\n          </p>\n          -\n          <a href="http://feeds.feedburner.com/Metafilter" shape="rect">\n            <i class="feedicon"></i>\n          </a>\n          <a target="_self" href="http://www.metafilter.com/" shape="rect">MetaFilter</a>\n          <br clear="none"></br>\n          -\n          <a href="http://feeds.feedburner.com/AskMetafilter" shape="rect">\n            <i class="feedicon"></i>\n          </a>\n          <a target="_self" href="http://ask.metafilter.com/" shape="rect">AskMeFi</a>\n          <br clear="none"></br>\n          -\n          <a href="http://feeds.feedburner.com/mefi/Projects" shape="rect">\n            <i class="feedicon"></i>\n          </a>\n          <a target="_self" href="http://projects.metafilter.com/" shape="rect">Projects</a>\n          <br clear="none"></br>\n          -\n          <a href="http://feeds.feedburner.com/mefi/Music" shape="rect">\n            <i class="feedicon"></i>\n          </a>\n          <a target="_self" href="http://music.metafilter.com/" shape="rect">Music</a>\n          <br clear="none"></br>\n          -\n          <a href="http://feeds.feedburner.com/MeFi/Jobs" shape="rect">\n            <i class="feedicon"></i>\n          </a>\n          <a target="_self" href="http://jobs.metafilter.com/" shape="rect">Jobs</a>\n          <br clear="none"></br>\n          -\n          <a href="http://feeds.feedburner.com/MeFiIRL" shape="rect">\n            <i class="feedicon"></i>\n          </a>\n          <a target="_self" href="http://irl.metafilter.com/" shape="rect">IRL</a>\n          <br clear="none"></br>\n          -\n          <a href="http://feeds.feedburner.com/MeFi/MetaTalk" shape="rect">\n            <i class="feedicon"></i>\n          </a>\n          <a target="_self" href="http://metatalk.metafilter.com/" shape="rect">MetaTalk</a>\n        </div>\n      </div>\n      <div style="width:25%;float:left;">\n        <div class="footpad">\n          <form style="margin-top:15px;" action="/search.mefi" id="cse-search-box" method="get" enctype="application/x-www-form-urlencoded">\n            <div>\n              <input value="partner-pub-8621957794194569:9650013776" name="cx" type="hidden"></input>\n              <input value="FORID:10" name="cof" type="hidden"></input>\n              <input value="UTF-8" name="ie" type="hidden"></input>\n              <input style="width:120px;" size="31" name="q" type="text"></input>\n              <input style="margin-left:3px;" value="Search" name="sa" type="submit"></input>\n            </div>\n          </form>\n          <script src="http://www.google.com/coop/cse/brand?form=cse-search-box&amp;lang=en" type="text/javascript"></script>\n          <span class="fineprint">\n            \xc2\xa9 1999-2012\n            <a target="_self" href="http://www.metafilter.net/" shape="rect">MetaFilter Network Inc.</a>\n            <br clear="none"></br>\n            All posts are \xc2\xa9 their original authors.\n          </span>\n          <br clear="none"></br>\n          <br clear="none"></br>\n          <span class="fineprint">\n            <a target="_self" href="http://faq.metafilter.com/" shape="rect">FAQ</a>\n            |\n            <a target="_self" href="http://www.metafilter.com/contact/" shape="rect">Contact</a>\n          </span>\n          <br clear="none"></br>\n          <br clear="none"></br>\n          <br clear="none"></br>\n        </div>\n      </div>\n      <br clear="all"></br>\n    </div>\n    <script src="http://ajax.googleapis.com/ajax/libs/jquery/1.6.3/jquery.min.js" type="text/javascript"></script>\n    <script src="http://d217i264rvtnq0.cloudfront.net/scripts/mefi/nonmembers102011b-min.js" type="text/javascript"></script>\n    <script type="text/javascript">\n      var hash = window.location.hash.substr(1);\n$(function(){\n$(window).hashchange(function(){hash=window.location.hash.substr(1);target(location.hash.substr(1));})\n$(window).resize(function(){hash=window.location.hash.substr(1);target(location.hash.substr(1));});\n});\n    </script>\n    <script type="text/javascript">\n      var _gaq=_gaq||[];_gaq.push([&quot;_setAccount&quot;,&quot;UA-251263-7&quot;]);_gaq.push([&quot;_setDomainName&quot;,&quot;metafilter.com&quot;]);_gaq.push([&quot;_setAllowHash&quot;,!1]);_gaq.push([&quot;_setCustomVar&quot;,1,&quot;User Type&quot;,&quot;non-member&quot;,1]);_gaq.push([&quot;_trackPageview&quot;]);(function(){var a=document.createElement(&quot;script&quot;);a.type=&quot;text/javascript&quot;;a.async=!0;a.src=(&quot;https:&quot;==document.location.protocol?&quot;https://ssl&quot;:&quot;http://www&quot;)+&quot;.google-analytics.com/ga.js&quot;;var b=document.getElementsByTagName(&quot;script&quot;)[0];b.parentNode.insertBefore(a,b)})();\nvar _sf_async_config={uid:2515,domain:&quot;ask.metafilter.com&quot;};(function(){function b(){window._sf_endpt=(new Date).getTime();var a=document.createElement(&quot;script&quot;);a.setAttribute(&quot;language&quot;,&quot;javascript&quot;);a.setAttribute(&quot;type&quot;,&quot;text/javascript&quot;);a.setAttribute(&quot;src&quot;,(&quot;https:&quot;==document.location.protocol?&quot;https://a248.e.akamai.net/chartbeat.download.akamai.com/102508/&quot;:&quot;http://static.chartbeat.com/&quot;)+&quot;js/chartbeat.js&quot;);document.body.appendChild(a)}var c=window.onload;window.onload=typeof window.onload!=&quot;function&quot;?b:function(){c();b()}})();\n    </script>\n  </body>\n</html>'
p11
sbsS'mentions'
p12
(lp13
(iedu.umass.cs.iesl.wikilink.expanded.data.ttypes
Mention
p14
(dp15
S'anchor_text'
p16
S'Jeannie Longo'
p17
sS'context'
p18
(iedu.umass.cs.iesl.wikilink.expanded.data.ttypes
Context
p19
(dp20
S'middle'
p21
S'Jeannie Longo'
p22
sS'right'
p23
S', the greatest female bike racer that ever lived. posted by box at 7:39 AM on September 15, 2009 [ 2 favorites ] John Tavares'
p24
sS'left'
p25
S'doing their thing would also be cool). posted by Fireland to sports, hobbies, & recreation (55 answers total) 20 users marked this as a favorite'
p26
sbsS'freebase_id'
p27
S'9202a8c04000641f80000000003b1b29'
p28
sS'raw_text_offset'
p29
I12989
sS'wiki_url'
p30
S'http://en.wikipedia.org/wiki/Jeannie_Longo'
p31
sba(iedu.umass.cs.iesl.wikilink.expanded.data.ttypes
Mention
p32
(dp33
g16
S'Ole Einar Bj\xc3\x83\xc5\xberndalen'
p34
sg18
(iedu.umass.cs.iesl.wikilink.expanded.data.ttypes
Context
p35
(dp36
g21
S'Ole Einar Bj\xc3\x83\xc5\xberndalen'
p37
sg23
S'is widely considered to be the greatest biathlete (cross-country skiing and target shooting) of all time. posted by burnmp3s at 7:50 AM on September 15,'
p38
sg25
S'favorites ] John Tavares (No, not the hockey player, his uncle of the same name!) posted by Citrus at 7:47 AM on September 15, 2009'
p39
sbsg27
Nsg29
I14008
sg30
S'http://en.wikipedia.org/wiki/Ole_Einar_Bj%C3%B8rndalen'
p40
sba(iedu.umass.cs.iesl.wikilink.expanded.data.ttypes
Mention
p41
(dp42
g16
S'Jehangir Khan'
p43
sg18
(iedu.umass.cs.iesl.wikilink.expanded.data.ttypes
Context
p44
(dp45
g21
S'Jehangir Khan'
p46
sg23
S"dominated the game of Squash in the early 80's. He won 10 british open, was undefeated for 5 years/555 games. He was followed by Jansher"
p47
sg25
S'2009 Lane Frost , "Mr. Eight Seconds", greatest bull-rider in the history of professional rodeo. posted by ormondsacker at 8:03 AM on September 15, 2009'
p48
sbsg27
S'9202a8c04000641f80000000004125a6'
p49
sg29
I17469
sg30
S'http://en.wikipedia.org/wiki/Jahangir_Khan'
p50
sba(iedu.umass.cs.iesl.wikilink.expanded.data.ttypes
Mention
p51
(dp52
g16
S'Jansher Khan'
p53
sg18
(iedu.umass.cs.iesl.wikilink.expanded.data.ttypes
Context
p54
(dp55
g21
S'Jansher Khan'
p56
sg23
S"who dominated the sport in the latter half of the 80's. posted by xufasch at 8:08 AM on September 15, 2009 Beryl Burton , the"
p57
sg25
S"Khan dominated the game of Squash in the early 80's. He won 10 british open, was undefeated for 5 years/555 games. He was followed by"
p58
sbsg27
S'9202a8c04000641f800000000078f5fc'
p59
sg29
I17673
sg30
S'http://en.wikipedia.org/wiki/Jansher_Khan'
p60
sba(iedu.umass.cs.iesl.wikilink.expanded.data.ttypes
Mention
p61
(dp62
g16
S'Ingemar Stenmark'
p63
sg18
(iedu.umass.cs.iesl.wikilink.expanded.data.ttypes
Context
p64
(dp65
g21
S'Ingemar Stenmark'
p66
sg23
S'. " Stenmark has won more alpine ski competitions than any other man with a total of 86 races (45 giant slaloms and 41 slaloms)'
p67
sg25
S'about Bj\xc3\x83\xc2\xb6rn Borg. But nobody knows the name of the other sports hero from my childhood - the greatest Slalom and Giant Slalom skier ever,'
p68
sbsg27
S'9202a8c04000641f800000000039d78d'
p69
sg29
I18899
sg30
S'http://en.wikipedia.org/wiki/Ingemar_Stenmark'
p70
sba(iedu.umass.cs.iesl.wikilink.expanded.data.ttypes
Mention
p71
(dp72
g16
S'Gary Gait'
p73
sg18
(iedu.umass.cs.iesl.wikilink.expanded.data.ttypes
Context
p74
(dp75
g21
S'Gary Gait'
p76
sg23
S'for lacrosse. posted by That takes balls. at 8:26 AM on September 15, 2009 Yasuhiro Yamashita , one of the greatest Judo champions of all'
p77
sg25
S"at 8:23 AM on September 15, 2009 John Tavares (No, not the hockey player, his uncle of the same name!) Interesting choice. I would've thought"
p78
sbsg27
S'9202a8c04000641f800000000065bfbb'
p79
sg29
I21038
sg30
S'http://en.wikipedia.org/wiki/Gary_Gait'
p80
sba(iedu.umass.cs.iesl.wikilink.expanded.data.ttypes
Mention
p81
(dp82
g16
S'Cliff Young'
p83
sg18
(iedu.umass.cs.iesl.wikilink.expanded.data.ttypes
Context
p84
(dp85
g21
S'Cliff Young'
p86
sg23
S', who won an 875km ultramarathon at age 61. Hec Gervais, colossus of curling. posted by scruss at 8:32 AM on September 15, 2009 ['
p87
sg25
S'at 2:03:59 and is widely considered to be the greatest distance runner of all time. posted by jimmythefish at 8:30 AM on September 15, 2009'
p88
sbsg27
S'9202a8c04000641f80000000045fe069'
p89
sg29
I23016
sg30
S'http://en.wikipedia.org/wiki/Cliff_Young_(athlete)'
p90
sba(iedu.umass.cs.iesl.wikilink.expanded.data.ttypes
Mention
p91
(dp92
g16
S'Kazushi Sakuraba'
p93
sg18
(iedu.umass.cs.iesl.wikilink.expanded.data.ttypes
Context
p94
(dp95
g21
S'Kazushi Sakuraba'
p96
sg23
S'is another MMA fighter that beat many opponents that were much bigger than him, back when weight classes were much looser. posted by ignignokt at'
p97
sg25
S"fighter in the world by most MMA journalists, fighters, and fans and is not fighting in the UFC, which is MMA's analogue to the NFL."
p98
sbsg27
S'9202a8c04000641f80000000004ca46c'
p99
sg29
I23979
sg30
S'http://en.wikipedia.org/wiki/Kazushi_Sakuraba'
p100
sba(iedu.umass.cs.iesl.wikilink.expanded.data.ttypes
Mention
p101
(dp102
g16
S'Graeme'
p103
sg18
(iedu.umass.cs.iesl.wikilink.expanded.data.ttypes
Context
p104
(dp105
g21
S'Graeme'
p106
sg23
S'Obree from this comment . He broke the the existing record for most distance covered on a bike in one hour back in 1993 on'
p107
sg25
S'much bigger than him, back when weight classes were much looser. posted by ignignokt at 8:32 AM on September 15, 2009 I just learned about'
p108
sbsg27
S'9202a8c04000641f800000000047c733'
p109
sg29
I24517
sg30
S'http://en.wikipedia.org/wiki/Graeme_Obree'
p110
sba(iedu.umass.cs.iesl.wikilink.expanded.data.ttypes
Mention
p111
(dp112
g16
S'Manuel Estiarte'
p113
sg18
(iedu.umass.cs.iesl.wikilink.expanded.data.ttypes
Context
p114
(dp115
g21
S'Manuel Estiarte'
p116
sg23
S'from Spain the best Water Polo player to play the game. Amazing because he was a little guy (5\' 10", 145lbs) in a sport dominated'
p117
sg25
S'of handball" fascinating. posted by bitdamaged at 9:11 AM on September 15, 2009 Oh and its hard to find much about him but many consider'
p118
sbsg27
S'9202a8c04000641f800000000089ce6a'
p119
sg29
I30479
sg30
S'http://en.wikipedia.org/wiki/Manuel_Estiarte'
p120
sba(iedu.umass.cs.iesl.wikilink.expanded.data.ttypes
Mention
p121
(dp122
g16
S'ferret legger.'
p123
sg18
(iedu.umass.cs.iesl.wikilink.expanded.data.ttypes
Context
p124
(dp125
g21
S'ferret legger.'
p126
sg23
S'He kept a ferret in his pants for 5 hrs 26 min, which is a legend in my book. posted by pseudonick at 10:19 AM'
p127
sg25
S"Possibly Rugby League's greatest ever player, Ellery Hanley . posted by Bodd at 9:46 AM on September 15, 2009 Reg Mellor is the world champion"
p128
sbsg27
S'9202a8c04000641f8000000000c665bf'
p129
sg29
I33164
sg30
S'http://en.wikipedia.org/wiki/Ferret_legging'
p130
sba(iedu.umass.cs.iesl.wikilink.expanded.data.ttypes
Mention
p131
(dp132
g16
S'Juan Manuel Fangio'
p133
sg18
(iedu.umass.cs.iesl.wikilink.expanded.data.ttypes
Context
p134
(dp135
g21
S'Juan Manuel Fangio'
p136
sg23
S"was probably the greatest driver ever, though that's up for discussion. I'll let you decide if muscling that machine around takes more athletic ability than"
p137
sg25
S'of its masters appears to be a fellow called \xc3\x83\xc5\xbeorsteinn Kristj\xc3\x83\xc2\xa1nsson. posted by edmz at 10:28 AM on September 15, 2009 [ 2 favorites ]'
p138
sbsg27
S'9202a8c04000641f800000000005fc40'
p139
sg29
I35786
sg30
S'http://en.wikipedia.org/wiki/Juan_Manuel_Fangio'
p140
sba(iedu.umass.cs.iesl.wikilink.expanded.data.ttypes
Mention
p141
(dp142
g16
S'Michele Mouton'
p143
sg18
(iedu.umass.cs.iesl.wikilink.expanded.data.ttypes
Context
p144
(dp145
g21
S'Michele Mouton'
p146
sg23
S'was the first (and arguably only) really competitive female driver, during the insane years of Group B rallying at that. The cars got so fast'
p147
sg25
S'more athletic ability than bowling. Certainly takes more balls to go out there with no seatbelt wearing just a leather hat. Amazing video . Likewise,'
p148
sbsg27
Nsg29
I36217
sg30
S'http://en.wikipedia.org/wiki/Mich%C3%A8le_Mouton'
p149
sba(iedu.umass.cs.iesl.wikilink.expanded.data.ttypes
Mention
p150
(dp151
g16
S'Phil Taylor'
p152
sg18
(iedu.umass.cs.iesl.wikilink.expanded.data.ttypes
Context
p153
(dp154
g21
S'Phil Taylor'
p155
sg23
S'is held in the same regard for Darts. Both of them are still competing. Whether darts or snooker qualify as sports might be another matter.'
p156
sg25
S"posted by torticat at 11:04 AM on September 15, 2009 Ronnie O'Sullivan is by many people considered to be the most talented Snooker player ever."
p157
sbsg27
Nsg29
I39726
sg30
S'http://en.wikipedia.org/wiki/Phil_Taylor#Averages'
p158
sba(iedu.umass.cs.iesl.wikilink.expanded.data.ttypes
Mention
p159
(dp160
g16
S'Alexander Karelin'
p161
sg18
(iedu.umass.cs.iesl.wikilink.expanded.data.ttypes
Context
p162
(dp163
g21
S'Alexander Karelin'
p164
sg23
S', greatest greco-roman wrestler of all time. He went undefeated from 1987 until his final match before retirement at the Sydney Olympics. For the last'
p165
sg25
S'Janshir Khans and raise you Heather McKay, the greatest female squash player ever and arguably the most dominant athlete in any sport, ever. I submit'
p166
sbsg27
S'9202a8c04000641f80000000002e5405'
p167
sg29
I43012
sg30
S'http://en.wikipedia.org/wiki/Alexander_Karelin'
p168
sba(iedu.umass.cs.iesl.wikilink.expanded.data.ttypes
Mention
p169
(dp170
g16
S'fell runner'
p171
sg18
(iedu.umass.cs.iesl.wikilink.expanded.data.ttypes
Context
p172
(dp173
g21
S'fell runner'
p174
sg23
S'who holds the record for the Bob Graham Round of 42 Lake District peaks (27,000 ft of ascent and over 60 miles) in 13hrs 53'
p175
sg25
S'simply accelerated. Peters never finished; Zatopek ran an Olympic record race." posted by yeti at 2:23 PM on September 15, 2009 Billy Bland , english'
p176
sbsg27
S'9202a8c04000641f800000000042c7ee'
p177
sg29
I45931
sg30
S'http://en.wikipedia.org/wiki/Fell_running'
p178
sba(iedu.umass.cs.iesl.wikilink.expanded.data.ttypes
Mention
p179
(dp180
g16
S'Bob Graham Round'
p181
sg18
(iedu.umass.cs.iesl.wikilink.expanded.data.ttypes
Context
p182
(dp183
g21
S'Bob Graham Round'
p184
sg23
S'of 42 Lake District peaks (27,000 ft of ascent and over 60 miles) in 13hrs 53 mins. posted by badrolemodel at 2:43 PM on September'
p185
sg25
S'Olympic record race." posted by yeti at 2:23 PM on September 15, 2009 Billy Bland , english fell runner who holds the record for the'
p186
sbsg27
S'9202a8c04000641f8000000000497e87'
p187
sg29
I46036
sg30
S'http://en.wikipedia.org/wiki/The_Bob_Graham_Round'
p188
sba(iedu.umass.cs.iesl.wikilink.expanded.data.ttypes
Mention
p189
(dp190
g16
S'Jan Bokl\xc3\x83\xc2\xb6v'
p191
sg18
(iedu.umass.cs.iesl.wikilink.expanded.data.ttypes
Context
p192
(dp193
g21
S'Jan Bokl\xc3\x83\xc2\xb6v'
p194
sg23
S', Swedish ski jumper who invented the V-style in 1985. It was a huge controversy at first, and he always got style point deductions for'
p195
sg25
S'whatever is going on in that sprinting-jumping-poleclimbing competition. posted by primer_dimer at 2:46 AM on September 16, 2009 Ok, since others have mentioned ski jumpers:'
p196
sbsg27
Nsg29
I49486
sg30
S'http://en.wikipedia.org/wiki/Jan_Bokl%C3%B6v'
p197
sba(iedu.umass.cs.iesl.wikilink.expanded.data.ttypes
Mention
p198
(dp199
g16
S'Eric Heiden'
p200
sg18
(iedu.umass.cs.iesl.wikilink.expanded.data.ttypes
Context
p201
(dp202
g21
S'Eric Heiden'
p203
sg23
S'is the greatest long track speed skater of all time. His sweep of all the long track races (500, 1000, 1500, 5000 and 10000 meters)'
p204
sg25
S'"Daescher technique" as the predominant ski-jumping technique. (Personal video of a V-style jumper here .) posted by gemmy at 9:52 AM on September 16, 2009'
p205
sbsg27
S'9202a8c04000641f800000000004da57'
p206
sg29
I50332
sg30
S'http://en.wikipedia.org/wiki/Eric_Heiden'
p207
sba(iedu.umass.cs.iesl.wikilink.expanded.data.ttypes
Mention
p208
(dp209
g16
S'Vasiliy Alekseyev'
p210
sg18
(iedu.umass.cs.iesl.wikilink.expanded.data.ttypes
Context
p211
(dp212
g21
S'Vasiliy Alekseyev'
p213
sg23
S'is one of the greatest weightlifters to have ever lived, and the most accomplished super heavyweight lifter of all time, setting 80 world records in'
p214
sg25
S'(500, 1000, 1500, 5000 and 10000 meters) at the 1980 Olympics has never been repeated. He also set Olympic or world records during each performance.'
p215
sbsg27
S'9202a8c04000641f8000000000139c56'
p216
sg29
I50656
sg30
S'http://en.wikipedia.org/wiki/Vasiliy_Alekseyev'
p217
sba(iedu.umass.cs.iesl.wikilink.expanded.data.ttypes
Mention
p218
(dp219
g16
S'Kenenisa Bekele'
p220
sg18
(iedu.umass.cs.iesl.wikilink.expanded.data.ttypes
Context
p221
(dp222
g21
S'Kenenisa Bekele'
p223
sg23
S'is probably the greatest middle distance runner of all time. He is the world and Olympic record holder in the 5000 and 10000 meters and'
p224
sg25
S'of the greatest weightlifters to have ever lived, and the most accomplished super heavyweight lifter of all time, setting 80 world records in his career.'
p225
sbsg27
S'9202a8c04000641f80000000001ec406'
p226
sg29
I50905
sg30
S'http://en.wikipedia.org/wiki/Kenenisa_Bekele'
p227
sba(iedu.umass.cs.iesl.wikilink.expanded.data.ttypes
Mention
p228
(dp229
g16
S"Ronnie O'Sullivan"
p230
sg18
(iedu.umass.cs.iesl.wikilink.expanded.data.ttypes
Context
p231
(dp232
g21
S"Ronnie O'Sullivan"
p233
sg23
S'is by many people considered to be the most talented Snooker player ever. Phil Taylor is held in the same regard for Darts. Both of'
p234
sg25
S"Flanders. posted by dseaton at 10:58 AM on September 15, 2009 mefi's own logboy ? posted by torticat at 11:04 AM on September 15, 2009"
p235
sbsg27
Nsg29
I39559
sg30
S"http://en.wikipedia.org/wiki/Ronnie_O'Sullivan#Status"
p236
sba(iedu.umass.cs.iesl.wikilink.expanded.data.ttypes
Mention
p237
(dp238
g16
S'Billy Bland'
p239
sg18
(iedu.umass.cs.iesl.wikilink.expanded.data.ttypes
Context
p240
(dp241
g21
S'Billy Bland'
p242
sg23
S', english fell runner who holds the record for the Bob Graham Round of 42 Lake District peaks (27,000 ft of ascent and over 60'
p243
sg25
S'at which point Zatopek simply accelerated. Peters never finished; Zatopek ran an Olympic record race." posted by yeti at 2:23 PM on September 15, 2009'
p244
sbsg27
S'9202a8c04000641f800000000ad3f2ef'
p245
sg29
I45854
sg30
S'http://en.wikipedia.org/wiki/Billy_Bland_(runner)'
p246
sbasS'doc_id'
p247
I38877
sS'rare_words'
p248
(lp249
(iedu.umass.cs.iesl.wikilink.expanded.data.ttypes
RareWord
p250
(dp251
S'word'
p252
S'darts'
p253
sS'offset'
p254
I39845
sba(iedu.umass.cs.iesl.wikilink.expanded.data.ttypes
RareWord
p255
(dp256
g252
S'Bj\xc3\x83\xc5\xberndalen'
p257
sg254
I14018
sba(iedu.umass.cs.iesl.wikilink.expanded.data.ttypes
RareWord
p258
(dp259
g252
S'Whether'
p260
sg254
I39837
sba(iedu.umass.cs.iesl.wikilink.expanded.data.ttypes
RareWord
p261
(dp262
g252
S'sheer'
p263
sg254
I40587
sba(iedu.umass.cs.iesl.wikilink.expanded.data.ttypes
RareWord
p264
(dp265
g252
S'deductions'
p266
sg254
I49622
sba(iedu.umass.cs.iesl.wikilink.expanded.data.ttypes
RareWord
p267
(dp268
g252
S'run'
p269
sg254
I51158
sba(iedu.umass.cs.iesl.wikilink.expanded.data.ttypes
RareWord
p270
(dp271
g252
S'Phil'
p272
sg254
I39726
sba(iedu.umass.cs.iesl.wikilink.expanded.data.ttypes
RareWord
p273
(dp274
g252
S'cars'
p275
sg254
I36362
sba(iedu.umass.cs.iesl.wikilink.expanded.data.ttypes
RareWord
p276
(dp277
g252
S'Canadian'
p278
sg254
I34604
sba(iedu.umass.cs.iesl.wikilink.expanded.data.ttypes
RareWord
p279
(dp280
g252
S'matter'
p281
sg254
I39897
sbasb.