(iedu.umass.cs.iesl.wikilink.expanded.data.ttypes
WikiLinkItem
p0
(dp1
S'url'
p2
S'http://andrewejenkins.wordpress.com/2012/06/08/the-bible-may-be-the-best-truth-we-are-ignoring/'
p3
sS'content'
p4
(iedu.umass.cs.iesl.wikilink.expanded.data.ttypes
PageContentItem
p5
(dp6
S'articleText'
p7
NsS'raw'
p8
NsS'fullText'
p9
NsS'dom'
p10
S'<html lang="en" dir="ltr">\n  <head>\n    <meta charset="UTF-8"></meta>\n    <title>The Bible may be the best truth we are ignoring | Be The Change</title>\n    <link href="http://gmpg.org/xfn/11" rel="profile"></link>\n    <link href="http://s1.wp.com/wp-content/themes/pub/pilcrow/style.css?m=1343926921g" media="all" type="text/css" rel="stylesheet"></link>\n    <link href="http://andrewejenkins.wordpress.com/xmlrpc.php" rel="pingback"></link>\n    <link href="http://andrewejenkins.wordpress.com/feed/" title="Be The Change \xc2\xbb Feed" type="application/rss+xml" rel="alternate"></link>\n    <link href="http://andrewejenkins.wordpress.com/comments/feed/" title="Be The Change \xc2\xbb Comments Feed" type="application/rss+xml" rel="alternate"></link>\n    <link href="http://andrewejenkins.wordpress.com/2012/06/08/the-bible-may-be-the-best-truth-we-are-ignoring/feed/" title="Be The Change \xc2\xbb The Bible may be the best truth we are\xc2\xa0ignoring Comments Feed" type="application/rss+xml" rel="alternate"></link>\n    <script type="text/javascript"> /* &lt;![CDATA[ */ function addLoadEvent(func){var oldonload=window.onload;if(typeof window.onload!=\'function\'){window.onload=func;}else{window.onload=function(){oldonload();func();}}} /* ]]&gt; */ </script>\n    <link \n    media="all" type="text/css" href="http://s1.wp.com/_static/??/wp-content/mu-plugins/infinity/themes/pub/pilcrow.css,/wp-content/mu-plugins/post-flair/style.css,/wp-content/mu-plugins/post-flair/sharing/sharing.css,/wp-content/themes/h4/global.css,/wp-content/mu-plugins/widgets/css/widget-grid-and-list.css?m=1349103886j" rel="stylesheet" id="all-css-0">\n</link>\n    <script src="http://s0.wp.com/_static/??/wp-includes/js/jquery/jquery.js,/wp-includes/js/comment-reply.js,/wp-content/mu-plugins/widgets/js/widget-bump-view.js?m=1342269540j" type="text/javascript"></script>\n    <link media="all" type="text/css" href="http://s1.wp.com/wp-content/mu-plugins/highlander-comments/style.css?m=1343991657g" rel="stylesheet" id="all-css-0"></link>\n    <link href="http://andrewejenkins.wordpress.com/xmlrpc.php?rsd" title="RSD" type="application/rsd+xml" rel="EditURI"></link>\n    <link href="http://andrewejenkins.wordpress.com/wp-includes/wlwmanifest.xml" type="application/wlwmanifest+xml" rel="wlwmanifest"></link>\n    <link href="http://andrewejenkins.wordpress.com/2012/06/07/demon-tactic-301-tell-them-to-wait/" title="Demon tactic #301: \xe2\x80\x9cTell them to\xc2\xa0wait.\xe2\x80\x9d" rel="prev"></link>\n    <link href="http://andrewejenkins.wordpress.com/2012/06/09/whats-the-bible-about/" title="What\xe2\x80\x99s the Bible\xc2\xa0about?" rel="next"></link>\n    <meta content="WordPress.com" name="generator"></meta>\n    <link href="http://andrewejenkins.wordpress.com/2012/06/08/the-bible-may-be-the-best-truth-we-are-ignoring/" rel="canonical"></link>\n    <link href="http://wp.me/p1Kyks-xA" rel="shortlink"></link>\n    <link href="http://public-api.wordpress.com/oembed/1.0/?format=json&amp;url=http%3A%2F%2Fandrewejenkins.wordpress.com%2F2012%2F06%2F08%2Fthe-bible-may-be-the-best-truth-we-are-ignoring%2F&amp;for=wpcom-auto-discovery" type="application/json+oembed" rel="alternate"></link>\n    <link href="http://public-api.wordpress.com/oembed/1.0/?format=xml&amp;url=http%3A%2F%2Fandrewejenkins.wordpress.com%2F2012%2F06%2F08%2Fthe-bible-may-be-the-best-truth-we-are-ignoring%2F&amp;for=wpcom-auto-discovery" type="application/xml+oembed" rel="alternate"></link>\n    <meta content="article" property="og:type"></meta>\n    <meta content="The Bible may be the best truth we are\xc2\xa0ignoring" property="og:title"></meta>\n    <meta content="http://andrewejenkins.wordpress.com/2012/06/08/the-bible-may-be-the-best-truth-we-are-ignoring/" property="og:url"></meta>\n    <meta content="There are several ways off looking at reality, of looking at the issue of \xc3\xa2\xe2\x82\xac\xc5\x93objective truth.\xc3\xa2\xe2\x82\xac\xef\xbf\xbd A story of three umpires summarizes the possibilities quite well\xe2\x80\xa6 \xc3\xa2\xe2\x82\xac\xc5\x93There\xc3\xa2\xe2\x82\xac\xe2\x84\xa2s balls and there\xc3\xa2\xe2\x82\xac\xe2\x84\xa2s strik..." property="og:description"></meta>\n    <meta content="Be The Change" property="og:site_name"></meta>\n    <meta content="http://andrewejenkins.files.wordpress.com/2012/06/umpire1.jpg?w=200" property="og:image"></meta>\n    <meta content="http://andrewejenkins.files.wordpress.com/2012/06/umpire1.jpg" name="twitter:image"></meta>\n    <meta content="photo" name="twitter:card"></meta>\n    <meta content="16070668" name="twitter:creator:id"></meta>\n    <meta content="249643311490" property="fb:app_id"></meta>\n    <link sizes="16x16" href="http://1.gravatar.com/blavatar/762ba895eac2affa2cf685e141664d40?s=16" type="image/x-icon" rel="shortcut icon"></link>\n    <link sizes="16x16" href="http://1.gravatar.com/blavatar/762ba895eac2affa2cf685e141664d40?s=16" type="image/x-icon" rel="icon"></link>\n    <link href="http://0.gravatar.com/blavatar/2f2621b0fd8d5cc0cdf089468fdb7272?s=114" rel="apple-touch-icon-precomposed"></link>\n    <link href="http://andrewejenkins.wordpress.com/?openidserver=1" rel="openid.server"></link>\n    <link href="http://andrewejenkins.wordpress.com/" rel="openid.delegate"></link>\n    <link title="Be The Change" href="http://andrewejenkins.wordpress.com/osd.xml" type="application/opensearchdescription+xml" rel="search"></link>\n    <link title="WordPress.com" href="http://wordpress.com/opensearch.xml" type="application/opensearchdescription+xml" rel="search"></link>\n    <style>\n      /* &lt;![CDATA[ */\n\t\t/* Block: reblog */\n\t\t\n\t\t.reblog-from img                   { margin: 0 10px 0 0; vertical-align: middle; padding: 0; border: 0; }\n\t\t.reblogger-note img.avatar         { float: left; padding: 0; border: 0; }\n\t\t.reblogger-note-content            { margin: 0 0 20px; }\n\t\t.reblog-post .wpcom-enhanced-excerpt-content { border-left: 3px solid #eee; padding-left: 15px; }\n\t\t.reblog-post ul.thumb-list         { display: block; list-style: none; margin: 2px 0; padding: 0; clear: both; }\n\t\t.reblog-post ul.thumb-list li      { display: inline; margin: 0; padding: 0 1px; border: 0; }\n\t\t.reblog-post ul.thumb-list li a    { margin: 0; padding: 0; border: 0; }\n\t\t.reblog-post ul.thumb-list li img  { margin: 0; padding: 0; border: 0; }\n\t\t\n\t\t.reblog-post .wpcom-enhanced-excerpt { clear: both; }\n\t\t\n\t\t.reblog-post .wpcom-enhanced-excerpt address,\n\t\t.reblog-post .wpcom-enhanced-excerpt li,\n\t\t.reblog-post .wpcom-enhanced-excerpt h1,\n\t\t.reblog-post .wpcom-enhanced-excerpt h2,\n\t\t.reblog-post .wpcom-enhanced-excerpt h3,\n\t\t.reblog-post .wpcom-enhanced-excerpt h4,\n\t\t.reblog-post .wpcom-enhanced-excerpt h5,\n\t\t.reblog-post .wpcom-enhanced-excerpt h6,\n\t\t.reblog-post .wpcom-enhanced-excerpt p { font-size: 100% !important; }\n\t\t\n\t\t.reblog-post .wpcom-enhanced-excerpt blockquote,\n\t\t.reblog-post .wpcom-enhanced-excerpt pre,\n\t\t.reblog-post .wpcom-enhanced-excerpt code,\n\t\t.reblog-post .wpcom-enhanced-excerpt q { font-size: 98% !important; }\n\t\t\n\n\t\t/* ]]&gt; */\n    </style>\n    <style type="text/css">.recentcomments a{display:inline !important;padding: 0 !important;margin: 0 !important;}</style>\n    <meta content="Be The Change" name="application-name"></meta>\n    <meta content="width=device-width;height=device-height" name="msapplication-window"></meta>\n    <meta content="Grace is always the right response" name="msapplication-tooltip"></meta>\n    <meta content="name=Subscribe;action-uri=http://andrewejenkins.wordpress.com/feed/;icon-uri=http://1.gravatar.com/blavatar/762ba895eac2affa2cf685e141664d40?s=16" name="msapplication-task"></meta>\n    <meta content="name=Sign up for a free blog;action-uri=http://wordpress.com/signup/;icon-uri=http://s2.wp.com/i/favicon.ico" name="msapplication-task"></meta>\n    <meta content="name=WordPress.com Support;action-uri=http://support.wordpress.com/;icon-uri=http://s2.wp.com/i/favicon.ico" name="msapplication-task"></meta>\n    <meta content="name=WordPress.com Forums;action-uri=http://forums.wordpress.com/;icon-uri=http://s2.wp.com/i/favicon.ico" name="msapplication-task"></meta>\n    <meta content="The Bible may be the best truth we are\xc2\xa0ignoring | Be The Change on WordPress.com" name="title"></meta>\n    <meta \n    content="There are several ways off looking at reality, of looking at the issue of \xc3\xa2\xe2\x82\xac\xc5\x93objective truth.\xc3\xa2\xe2\x82\xac\xef\xbf\xbd A story of three umpires summarizes the possibilities quite well\xe2\x80\xa6 \xc3\xa2\xe2\x82\xac\xc5\x93There\xc3\xa2\xe2\x82\xac\xe2\x84\xa2s balls and there\xc3\xa2\xe2\x82\xac\xe2\x84\xa2s strikes,\xc3\xa2\xe2\x82\xac\xef\xbf\xbd says the first, \xc3\xa2\xe2\x82\xac\xc5\x93and I call them the way \xe2\x80\xa6 Continue reading \xe2\x86\x92" name="description">\n</meta>\n    <style type="text/css">\n      table.recentcommentsavatar img.avatar {border: 0px; margin:0;}\ntable.recentcommentsavatar a {border: 0px !important;background-color: transparent !important}\ntd.recentcommentsavatartop {padding:0px 0px 1px 0px;margin:0px; }\ntd.recentcommentsavatarend {padding:0px 0px 1px 0px;margin:0px; }\ntd.recentcommentstexttop { border: none !important;padding:0px 0px 0px 10px;}\ntd.recentcommentstextend { border: none !important;padding:0px 0px 2px 10px;}\n    </style>\n    <style type="text/css"> #site-title a { color: #d63729 !important; } </style>\n    <script src="http://partner.googleadservices.com/gampad/google_service.js" type="text/javascript"> </script>\n    <script type="text/javascript"> GS_googleAddAdSenseService(&quot;ca-pub-3443918307802676&quot;); GS_googleEnableAllServices(); </script>\n    <script type="text/javascript"> GA_googleAddSlot(&quot;ca-pub-3443918307802676&quot;, &quot;wpcom_below_post&quot;); </script>\n    <script type="text/javascript"> GA_googleFetchAds(); </script>\n    <script type="text/javascript"> window.google_analytics_uacct = &quot;UA-52447-2&quot;; </script>\n    <script type="text/javascript">\n      var _gaq = _gaq || [];\n\t_gaq.push([\'_setAccount\', \'UA-52447-2\']);\n\t_gaq.push([\'_setDomainName\', \'wordpress.com\']);\n\t_gaq.push([\'_initData\']);\n\t_gaq.push([\'_trackPageview\']);\n\n\t(function() {\n\t\tvar ga = document.createElement(\'script\'); ga.type = \'text/javascript\'; ga.async = true;\n\t\tga.src = (\'https:\' == document.location.protocol ? \'https://ssl\' : \'http://www\') + \'.google-analytics.com/ga.js\';\n\t\t(document.getElementsByTagName(\'head\')[0] || document.getElementsByTagName(\'body\')[0]).appendChild(ga);\n\t})();\n    </script>\n  </head>\n  <body class="single single-post postid-2082 single-format-standard three-column content-sidebar-sidebar color-light highlander-enabled highlander-light">\n    <div id="container" class="hfeed">\n      <div id="page" class="blog">\n        <div id="header">\n          <div id="site-title">\n            <span>\n              <a rel="home" title="Be The Change" href="http://andrewejenkins.wordpress.com/" shape="rect">Be The Change</a>\n            </span>\n          </div>\n          <div role="navigation" id="nav">\n            <div class="skip-link screen-reader-text">\n              <a title="Skip to content" href="#content" shape="rect">Skip to content</a>\n            </div>\n            <div class="menu-header">\n              <ul id="menu-aj-menu" class="menu">\n                <li id="menu-item-130" class="menu-item menu-item-type-custom menu-item-object-custom menu-item-130">\n                  <a href="http://AndrewEJenkins.WordPress.com" shape="rect">Blog Home Page</a>\n                </li>\n                <li id="menu-item-115" class="menu-item menu-item-type-post_type menu-item-object-page menu-item-115">\n                  <a href="http://andrewejenkins.wordpress.com/about/" shape="rect">About</a>\n                </li>\n                <li id="menu-item-110" class="menu-item menu-item-type-post_type menu-item-object-page menu-item-110">\n                  <a href="http://andrewejenkins.wordpress.com/resources-free/" shape="rect">Resources</a>\n                  <ul class="sub-menu">\n                    <li id="menu-item-112" class="menu-item menu-item-type-post_type menu-item-object-page menu-item-112">\n                      <a href="http://andrewejenkins.wordpress.com/resources-free/resources-free/" shape="rect">Resources: Free</a>\n                      <ul class="sub-menu">\n                        <li id="menu-item-560" class="menu-item menu-item-type-post_type menu-item-object-page menu-item-560">\n                          <a href="http://andrewejenkins.wordpress.com/resources-free/resources-free/baptism/" shape="rect">Baptism</a>\n                        </li>\n                        <li id="menu-item-265" class="menu-item menu-item-type-post_type menu-item-object-page menu-item-265">\n                          <a href="http://andrewejenkins.wordpress.com/birmingham/" shape="rect">Birmingham</a>\n                        </li>\n                        <li id="menu-item-347" class="menu-item menu-item-type-post_type menu-item-object-page menu-item-347">\n                          <a href="http://andrewejenkins.wordpress.com/resources-free/resources-free/christianity-101/" shape="rect">Christianity 101</a>\n                        </li>\n                        <li id="menu-item-990" class="menu-item menu-item-type-post_type menu-item-object-page menu-item-990">\n                          <a href="http://andrewejenkins.wordpress.com/resources-free/resources-free/conference-notes/" shape="rect">Conferences</a>\n                          <ul class="sub-menu">\n                            <li id="menu-item-1031" class="menu-item menu-item-type-post_type menu-item-object-page menu-item-1031">\n                              <a href="http://andrewejenkins.wordpress.com/resources-free/resources-free/conference-notes/launch-lead-strong/" shape="rect">Launch</a>\n                            </li>\n                            <li id="menu-item-991" class="menu-item menu-item-type-post_type menu-item-object-page menu-item-991">\n                              <a href="http://andrewejenkins.wordpress.com/resources-free/resources-free/conference-notes/open-heavens-conference-2011-notes/" shape="rect">Open Heaven</a>\n                            </li>\n                          </ul>\n                        </li>\n                        <li id="menu-item-975" class="menu-item menu-item-type-post_type menu-item-object-page menu-item-975">\n                          <a href="http://andrewejenkins.wordpress.com/resources-free/resources-free/direction-the-job-development-process/" shape="rect">Direction: Job Help</a>\n                          <ul class="sub-menu">\n                            <li id="menu-item-974" class="menu-item menu-item-type-post_type menu-item-object-page menu-item-974">\n                              <a href="http://andrewejenkins.wordpress.com/resources-free/resources-free/direction-the-job-development-process/direction-the-book/" shape="rect">Direction // The Book</a>\n                            </li>\n                            <li id="menu-item-973" class="menu-item menu-item-type-post_type menu-item-object-page menu-item-973">\n                              <a href="http://andrewejenkins.wordpress.com/resources-free/resources-free/direction-the-job-development-process/direction-the-videos/" shape="rect">Direction // The Videos</a>\n                            </li>\n                          </ul>\n                        </li>\n                        <li id="menu-item-800" class="menu-item menu-item-type-post_type menu-item-object-page menu-item-800">\n                          <a href="http://andrewejenkins.wordpress.com/resources-free/resources-free/park-place-hip-hop-church-in-the-park/" shape="rect">Hip Hop Church</a>\n                        </li>\n                        <li id="menu-item-700" class="menu-item menu-item-type-post_type menu-item-object-page menu-item-700">\n                          <a href="http://andrewejenkins.wordpress.com/resources-free/resources-free/prayer-ministry-training/" shape="rect">Prayer Team</a>\n                        </li>\n                        <li id="menu-item-2227" class="menu-item menu-item-type-post_type menu-item-object-page menu-item-2227">\n                          <a href="http://andrewejenkins.wordpress.com/resources-free/resources-free/random-messages/" shape="rect">Random messages</a>\n                        </li>\n                        <li id="menu-item-1061" class="menu-item menu-item-type-post_type menu-item-object-page menu-item-1061">\n                          <a href="http://andrewejenkins.wordpress.com/resources-free/resources-free/spiritual-authority/" shape="rect">Spiritual Authority</a>\n                        </li>\n                        <li id="menu-item-208" class="menu-item menu-item-type-post_type menu-item-object-page menu-item-208">\n                          <a href="http://andrewejenkins.wordpress.com/the-blood-of-jesus/" shape="rect">The Blood\xe2\x80\xa6</a>\n                          <ul class="sub-menu">\n                            <li id="menu-item-214" class="menu-item menu-item-type-post_type menu-item-object-page menu-item-214">\n                              <a href="http://andrewejenkins.wordpress.com/the-blood-of-jesus/study-guide-the-blood-of-jesus/" shape="rect">Study Guide</a>\n                            </li>\n                            <li id="menu-item-266" class="menu-item menu-item-type-post_type menu-item-object-page menu-item-266">\n                              <a href="http://andrewejenkins.wordpress.com/the-blood-of-jesus/audio-the-blood-of-jesus/" shape="rect">Audio</a>\n                            </li>\n                          </ul>\n                        </li>\n                        <li id="menu-item-2467" class="menu-item menu-item-type-post_type menu-item-object-page menu-item-2467">\n                          <a href="http://andrewejenkins.wordpress.com/resources-free/resources-free/the-kingdom/" shape="rect">The Kingdom</a>\n                        </li>\n                        <li id="menu-item-2303" class="menu-item menu-item-type-post_type menu-item-object-page menu-item-2303">\n                          <a href="http://andrewejenkins.wordpress.com/resources-free/resources-free/the-village-intake-information-orientation/" shape="rect">The Village- intake information / orientation</a>\n                        </li>\n                        <li id="menu-item-565" class="menu-item menu-item-type-post_type menu-item-object-page menu-item-565">\n                          <a href="http://andrewejenkins.wordpress.com/resources-free/resources-free/who-is-the-most-important-question-audio/" shape="rect">\xe2\x80\x9cWho?\xe2\x80\x9d is the Q?</a>\n                        </li>\n                        <li id="menu-item-2315" class="menu-item menu-item-type-post_type menu-item-object-page menu-item-2315">\n                          <a href="http://andrewejenkins.wordpress.com/resources-free/resources-free/gadsden-ministry-mall/" shape="rect">Gadsden Ministry Mall</a>\n                        </li>\n                        <li id="menu-item-2424" class="menu-item menu-item-type-post_type menu-item-object-page menu-item-2424">\n                          <a href="http://andrewejenkins.wordpress.com/resources-free/resources-free/piedmont-restoration-station/" shape="rect">Piedmont Restoration Station</a>\n                        </li>\n                      </ul>\n                    </li>\n                    <li id="menu-item-111" class="menu-item menu-item-type-post_type menu-item-object-page menu-item-111">\n                      <a href="http://andrewejenkins.wordpress.com/resources-free/resources-fee/" shape="rect">Resources: Fee</a>\n                    </li>\n                  </ul>\n                </li>\n                <li id="menu-item-573" class="menu-item menu-item-type-post_type menu-item-object-page menu-item-573">\n                  <a href="http://andrewejenkins.wordpress.com/contact-aj/" shape="rect">Contact AJ</a>\n                </li>\n                <li id="menu-item-621" class="menu-item menu-item-type-post_type menu-item-object-page menu-item-621">\n                  <a href="http://andrewejenkins.wordpress.com/subscribe/" shape="rect">Subscribe</a>\n                </li>\n                <li id="menu-item-2378" class="menu-item menu-item-type-post_type menu-item-object-page menu-item-2378">\n                  <a href="http://andrewejenkins.wordpress.com/comments-policy/" shape="rect">Comments policy</a>\n                </li>\n              </ul>\n            </div>\n          </div>\n          <div id="pic">\n            <a rel="home" href="http://andrewejenkins.wordpress.com/" shape="rect">\n              <img alt="" height="257" width="990" src="http://andrewejenkins.files.wordpress.com/2012/08/cropped-dscn0012.jpg"></img>\n            </a>\n          </div>\n        </div>\n        <div id="content-box">\n          <div id="content-container">\n            <div role="main" id="content">\n              <div id="nav-above" class="navigation">\n                <div class="nav-previous">\n                  <a rel="prev" href="http://andrewejenkins.wordpress.com/2012/06/07/demon-tactic-301-tell-them-to-wait/" shape="rect">\n                    <span class="meta-nav">\xe2\x86\x90</span>\n                    Demon tactic #301: \xe2\x80\x9cTell them to\xc2\xa0wait.\xe2\x80\x9d\n                  </a>\n                </div>\n                <div class="nav-next">\n                  <a rel="next" href="http://andrewejenkins.wordpress.com/2012/06/09/whats-the-bible-about/" shape="rect">\n                    What\xe2\x80\x99s the Bible\xc2\xa0about?\n                    <span class="meta-nav">\xe2\x86\x92</span>\n                  </a>\n                </div>\n              </div>\n              <div id="post-2082" class="post-2082 post type-post status-publish format-standard hentry category-apologetics tag-books-of-the-bible tag-can-we-trust-the-bible tag-john-lennon tag-nature-of-truth tag-objectivity-philosophy tag-richard-abanes tag-ted-turner tag-the-bible tag-vatican-library">\n                <div class="entry-meta"> June 8, 2012 \xc2\xb7 8:26 am </div>\n                <div class="jump">\n                  <a href="http://andrewejenkins.wordpress.com/2012/06/08/the-bible-may-be-the-best-truth-we-are-ignoring/#comments" shape="rect">\n                    <span class="meta-nav">\xe2\x86\x93 </span>\n                    Jump to Comments\n                  </a>\n                </div>\n                <h1 class="entry-title">The Bible may be the best truth we are\xc2\xa0ignoring</h1>\n                <div class="entry entry-content">\n                  <div>\n                    <p>\n                      <a href="http://andrewejenkins.files.wordpress.com/2012/06/umpire1.jpg" shape="rect">\n                        <img height="199" width="300" alt="" src="http://andrewejenkins.files.wordpress.com/2012/06/umpire1.jpg?w=300&amp;h=199" title="Umpire1" class="alignright size-medium wp-image-2191"></img>\n                      </a>\n                      There are several ways off looking at reality, of looking at the issue of \xc3\xa2\xe2\x82\xac\xc5\x93\n                      <a target="_blank" rel="wikipedia" href="http://en.wikipedia.org/wiki/Objectivity_%28philosophy%29" title="Objectivity (philosophy)" class="zem_slink" shape="rect">objective truth</a>\n                      .\xc3\xa2\xe2\x82\xac\xef\xbf\xbd A story of three umpires summarizes the possibilities quite well\xe2\x80\xa6\n                    </p>\n                    <p>\xc3\xa2\xe2\x82\xac\xc5\x93There\xc3\xa2\xe2\x82\xac\xe2\x84\xa2s balls and there\xc3\xa2\xe2\x82\xac\xe2\x84\xa2s strikes,\xc3\xa2\xe2\x82\xac\xef\xbf\xbd says the first, \xc3\xa2\xe2\x82\xac\xc5\x93and I call them the way they are.\xc3\xa2\xe2\x82\xac\xef\xbf\xbd</p>\n                    <p>\xc3\xa2\xe2\x82\xac\xc5\x93No!\xc3\xa2\xe2\x82\xac\xef\xbf\xbd exclaims the second, \xc3\xa2\xe2\x82\xac\xc5\x93That\xc3\xa2\xe2\x82\xac\xe2\x84\xa2s arrogant. There\xc3\xa2\xe2\x82\xac\xe2\x84\xa2s balls and there\xc3\xa2\xe2\x82\xac\xe2\x84\xa2s strikes and I call them the way I see them.\xc3\xa2\xe2\x82\xac\xef\xbf\xbd</p>\n                    <p>\xc3\xa2\xe2\x82\xac\xc5\x93That\xc3\xa2\xe2\x82\xac\xe2\x84\xa2s no better,\xc3\xa2\xe2\x82\xac\xef\xbf\xbd says the third. \xc3\xa2\xe2\x82\xac\xc5\x93Why not be realistic about it\xe2\x80\xa6? There\xc3\xa2\xe2\x82\xac\xe2\x84\xa2s balls and there\xc3\xa2\xe2\x82\xac\xe2\x84\xa2s strikes and they ain\xc3\xa2\xe2\x82\xac\xe2\x84\xa2t nothing till I call them!\xc3\xa2\xe2\x82\xac\xef\xbf\xbd</p>\n                    <p>The three positions characterize people today.</p>\n                    <ul>\n                      <li>\n                        <strong>Those who call it objectively</strong>\n                        \xc3\xa2\xe2\x82\xac\xe2\x80\x9c and see truth as an entity existing on its own (calling it the way it is, like the first).\n                      </li>\n                    </ul>\n                    <ul>\n                      <li>\n                        <strong>Those who admit some degree of subjectivity.</strong>\n                        .. and feel like we create truth in some way, as we interpret and apply it (call it like we see it, like the second umpire).\n                        <em>And</em>\n                        ,\n                      </li>\n                    </ul>\n                    <ul>\n                      <li>\n                        <strong>\n                          There are those who suggest\n                          <em>we create reality</em>\n                          completely\n                        </strong>\n                        , that there is no objective truth!\n                      </li>\n                    </ul>\n                    <p>\n                      It seems that more and more society is leaning towards the perspective of the third umpire. We\xc3\xa2\xe2\x82\xac\xe2\x84\xa2re not even like the second, just claiming to bring our own baggage to the table with us. Rather, we\xc3\xa2\xe2\x82\xac\xe2\x84\xa2re creating our own realities on our own rules and terms. This is dangerous territory. For, remember, feelings and instincts and even good intuitions do not change\n                      <a target="_blank" rel="wikipedia" href="http://en.wikipedia.org/wiki/The_Nature_of_Truth" title="The Nature of Truth" class="zem_slink" shape="rect">the nature of Truth</a>\n                      . Truth exists outside ourselves, and it helps to have that standard (i.e. like the first umpire) whereby we can understand the world around us.\n                    </p>\n                    <p>A pilot I heard about was flying (during lessons) and hadn\xc3\xa2\xe2\x82\xac\xe2\x84\xa2t looked at the gauges in a while. His flight instructor, keenly aware of the situation, asked him how things were going\xe2\x80\xa6 He thought everything was fine, and he told the instructor. \xc3\xa2\xe2\x82\xac\xc5\x93All good,\xc3\xa2\xe2\x82\xac\xef\xbf\xbd he said.</p>\n                    <p>\n                      The teacher, then, told him to\n                      <strong>look at the gauges</strong>\n                      \xe2\x80\xa6 He did, and he learned he was flying straight down at a rapid rate! He felt fine, though\xe2\x80\xa6. And \xc3\xa2\xe2\x82\xac\xc5\x93his reality\xc3\xa2\xe2\x82\xac\xef\xbf\xbd suggested he was O.K. The point, though, is that, like him, we need a gauge of truth, a barometer or thermometer\xe2\x80\xa6\n                    </p>\n                    <p>\n                      Amidst this situation, the\n                      <a target="_blank" rel="wikipedia" href="http://en.wikipedia.org/wiki/Bible" title="Bible" class="zem_slink" shape="rect">Bible</a>\n                      claims to present truth\xc3\xa2\xe2\x82\xac\xe2\x80\x9c objective truth\xc3\xa2\xe2\x82\xac\xe2\x80\x9c unchanging, uncompromising truth. And, what is strange is that, even in our world that is sliding into the perspective of the third umpire, the Bible is gaining popularity.\n                    </p>\n                    <p>\n                      People now have access to the Bible like no other book.\n                      <a target="_blank" rel="wikipedia" href="http://en.wikipedia.org/wiki/Richard_Abanes" title="Richard Abanes" class="zem_slink" shape="rect">Richard Abanes</a>\n                      writes,\n                    </p>\n                    <blockquote>\n                      <p>\n                        \xc3\xa2\xe2\x82\xac\xc5\x93The Bible\xc3\xa2\xe2\x82\xac\xe2\x80\x9c history\xc3\xa2\xe2\x82\xac\xe2\x84\xa2s best-selling and most widely distributed book\xc3\xa2\xe2\x82\xac\xe2\x80\x9c is enjoying even greater popularity as time passes. Bible sales in 1995 climbed to a record $54 million from $29 million in 1991. Not surprisingly, Bible printing and distribution has become a lucrative industry, with a growing number of publishers and private entrepreneurs entering the business. Even media magnate\n                        <a target="_blank" rel="wikipedia" href="http://en.wikipedia.org/wiki/Ted_Turner" title="Ted Turner" class="zem_slink" shape="rect">Ted Turner</a>\n                        has released an edition of Scripture: \xc3\xa2\xe2\x82\xac\xcb\x9ca gilt-edged, 17-pound, $395 version of the Holy Bible [NRSV]\xe2\x80\xa6 Printed in Italy on six- colored presses and sparkling with metallic-gold ink, this oversized, boxed masterpiece features rare images from illuminated Renaissance manuscripts locked away for centuries in the Vatican Library.\xc3\xa2\xe2\x82\xac\xe2\x84\xa2\xc3\xa2\xe2\x82\xac\xef\xbf\xbd\n                      </p>\n                    </blockquote>\n                    <p>But, despite the access, rather than looking at it as objective truth, many of us opt for the position of one of the other umpires. Just because we have access to Scripture does not mean we trust it. Indeed, it doesn\xc3\xa2\xe2\x82\xac\xe2\x84\xa2t even mean that we know what\xc3\xa2\xe2\x82\xac\xe2\x84\xa2s written in the pages.</p>\n                    <p>Here are some of the issues, though:</p>\n                    <ul>\n                      <li>People can cite the fact that the Bible is the best-seller of all time, but they can\xc3\xa2\xe2\x82\xac\xe2\x84\xa2t quote anything from it.</li>\n                    </ul>\n                    <ul>\n                      <li>\n                        People cannot name four or five books of the Bible, but they could give you four or five names from this year\xc3\xa2\xe2\x82\xac\xe2\x84\xa2s\n                        <a target="_blank" rel="wikipedia" href="http://en.wikipedia.org/wiki/World_Series" title="World Series" class="zem_slink" shape="rect">World Series</a>\n                        .\n                      </li>\n                    </ul>\n                    <ul>\n                      <li>People claim Jesus is the greatest Teacher to have ever lived, but who can actually quote\xc3\xa2\xe2\x82\xac\xe2\x80\x9c or even misquote\xc3\xa2\xe2\x82\xac\xe2\x80\x9c anything that Jesus actually said?</li>\n                    </ul>\n                    <ul>\n                      <li>Can you give me the names of the twelve disciples? I bet you can give me those of the Seven Dwarfs\xe2\x80\xa6</li>\n                    </ul>\n                    <ul>\n                      <li>\n                        What\xc3\xa2\xe2\x82\xac\xe2\x84\xa2s the greatest achievement of\n                        <a target="_blank" rel="wikipedia" href="http://en.wikipedia.org/wiki/John_the_Baptist" title="John the Baptist" class="zem_slink" shape="rect">John the Baptist</a>\n                        ? What about that of John Lennon?\n                      </li>\n                    </ul>\n                    <p>You get the point\xe2\x80\xa6</p>\n                  </div>\n                  <div style="position: relative; width:300px; text-align: center; padding: 0; background: #; margin: 10px auto; overflow: hidden;" class="wpadvert">\n                    <a rel="nofollow" href="http://en.wordpress.com/about-these-ads/" style="position: absolute; text-align: left; display: block; font: 9px/1 sans-serif; text-decoration: underline;" shape="rect">About these ads</a>\n                    <script type="text/javascript">\n                      GA_googleAddAttr(&quot;AdOpt&quot;, &quot;1&quot;);\nGA_googleAddAttr(&quot;Origin&quot;, &quot;other&quot;);\nGA_googleAddAttr(&quot;theme_bg&quot;, &quot;ffffff&quot;); \nGA_googleAddAttr(&quot;theme_border&quot;, &quot;bbbbbb&quot;); \nGA_googleAddAttr(&quot;theme_text&quot;, &quot;333333&quot;); \nGA_googleAddAttr(&quot;theme_link&quot;, &quot;1c9bdc&quot;); \nGA_googleAddAttr(&quot;theme_url&quot;, &quot;1c9bdc&quot;); \nGA_googleAddAttr(&quot;LangId&quot;, &quot;1&quot;);\nGA_googleAddAttr(&quot;Domain&quot;, &quot;andrewejenkins.wordpress.com&quot;);\nGA_googleAddAttr(&quot;Autotag&quot;, &quot;religion&quot;);\nGA_googleAddAttr(&quot;Tag&quot;, &quot;apologetics&quot;);\nGA_googleAddAttr(&quot;Tag&quot;, &quot;books-of-the-bible&quot;);\nGA_googleAddAttr(&quot;Tag&quot;, &quot;can-we-trust-the-bible&quot;);\nGA_googleAddAttr(&quot;Tag&quot;, &quot;john-lennon&quot;);\nGA_googleAddAttr(&quot;Tag&quot;, &quot;nature-of-truth&quot;);\nGA_googleAddAttr(&quot;Tag&quot;, &quot;objectivity-philosophy&quot;);\nGA_googleAddAttr(&quot;Tag&quot;, &quot;richard-abanes&quot;);\nGA_googleAddAttr(&quot;Tag&quot;, &quot;ted-turner&quot;);\nGA_googleAddAttr(&quot;Tag&quot;, &quot;the-bible&quot;);\nGA_googleAddAttr(&quot;Tag&quot;, &quot;vatican-library&quot;);\n\nGA_googleFillSlot(&quot;wpcom_below_post&quot;);\n                    </script>\n                  </div>\n                  <style type="text/css"> div.wpadvert&gt;div { margin-top: 1em; } </style>\n                  <script type="text/javascript"> jQuery( window ).load( function() { if ( jQuery(&quot;.wpadvert script[src*=\'shareth.ru\']&quot;).length &gt; 0 ) { jQuery( \'.wpadvert\' ).css( \'width\', \'400px\' ); } } ); </script>\n                  <div id="jp-post-flair" class="sharedaddy sd-like-enabled sd-sharing-enabled">\n                    <div class="sharedaddy sd-sharing-enabled">\n                      <div class="robots-nocontent sd-block sd-social sd-social-icon-text sd-sharing">\n                        <h3 class="sd-title">Share this:</h3>\n                        <div class="sd-content">\n                          <ul>\n                            <li class="share-facebook">\n                              <a title="Share on Facebook" href="http://andrewejenkins.wordpress.com/2012/06/08/the-bible-may-be-the-best-truth-we-are-ignoring/?share=facebook" rel="nofollow" id="sharing-facebook-2082" class="share-facebook sd-button share-icon" shape="rect">\n                                <span>Facebook</span>\n                              </a>\n                            </li>\n                            <li class="share-twitter">\n                              <a title="Click to share on Twitter" href="http://andrewejenkins.wordpress.com/2012/06/08/the-bible-may-be-the-best-truth-we-are-ignoring/?share=twitter" rel="nofollow" id="sharing-twitter-2082" class="share-twitter sd-button share-icon" shape="rect">\n                                <span>Twitter</span>\n                              </a>\n                            </li>\n                            <li class="share-linkedin">\n                              <a title="Click to share on LinkedIn" href="http://andrewejenkins.wordpress.com/2012/06/08/the-bible-may-be-the-best-truth-we-are-ignoring/?share=linkedin" rel="nofollow" id="sharing-linkedin-2082" class="share-linkedin sd-button share-icon" shape="rect">\n                                <span>LinkedIn</span>\n                              </a>\n                            </li>\n                            <li class="share-email">\n                              <a title="Click to email this to a friend" href="http://andrewejenkins.wordpress.com/2012/06/08/the-bible-may-be-the-best-truth-we-are-ignoring/?share=email" rel="nofollow" class="share-email sd-button share-icon" shape="rect">\n                                <span>Email</span>\n                              </a>\n                            </li>\n                            <li class="share-print">\n                              <a title="Click to print" href="http://andrewejenkins.wordpress.com/2012/06/08/the-bible-may-be-the-best-truth-we-are-ignoring/#print" rel="nofollow" class="share-print sd-button share-icon" shape="rect">\n                                <span>Print</span>\n                              </a>\n                            </li>\n                            <li class="share-pinterest">\n                              <a title="Click to share on Pinterest" href="http://andrewejenkins.wordpress.com/2012/06/08/the-bible-may-be-the-best-truth-we-are-ignoring/?share=pinterest" rel="nofollow" class="share-pinterest sd-button share-icon" shape="rect">\n                                <span>Pinterest</span>\n                              </a>\n                            </li>\n                            <li class="share-end"></li>\n                          </ul>\n                          <div class="sharing-clear"></div>\n                        </div>\n                      </div>\n                    </div>\n                    <div class="wpl-likebox sd-block sd-like">\n                      <h3 class="sd-title">Like this:</h3>\n                      <div class="sd-content">\n                        <div id="like-2082" class="wpl-button">\n                          <a rel="nofollow" title="I like this." href="http://andrewejenkins.wordpress.com/2012/06/08/the-bible-may-be-the-best-truth-we-are-ignoring/?like=1&amp;_wpnonce=c9a121d596" class="like needs-login sd-button" shape="rect">\n                            <span>Like</span>\n                          </a>\n                        </div>\n                        <div class="wpl-count sd-like-count">Be the first to like this.</div>\n                      </div>\n                    </div>\n                  </div>\n                </div>\n                <div class="entry-links">\n                  <p class="comment-number">\n                    <a title="Comment on The Bible may be the best truth we are\xc2\xa0ignoring" href="http://andrewejenkins.wordpress.com/2012/06/08/the-bible-may-be-the-best-truth-we-are-ignoring/#comments" shape="rect">29 Comments</a>\n                  </p>\n                  <p class="entry-categories tagged">\n                    Filed under\n                    <a rel="category tag" title="View all posts in Apologetics" href="http://andrewejenkins.wordpress.com/category/apologetics/" shape="rect">Apologetics</a>\n                  </p>\n                  <p class="entry-tags tagged">\n                    Tagged as\n                    <a rel="tag" href="http://andrewejenkins.wordpress.com/tag/books-of-the-bible/" shape="rect">Books of the Bible</a>\n                    ,\n                    <a rel="tag" href="http://andrewejenkins.wordpress.com/tag/can-we-trust-the-bible/" shape="rect">Can we trust the Bible?</a>\n                    ,\n                    <a rel="tag" href="http://andrewejenkins.wordpress.com/tag/john-lennon/" shape="rect">John Lennon</a>\n                    ,\n                    <a rel="tag" href="http://andrewejenkins.wordpress.com/tag/nature-of-truth/" shape="rect">Nature of Truth</a>\n                    ,\n                    <a rel="tag" href="http://andrewejenkins.wordpress.com/tag/objectivity-philosophy/" shape="rect">Objectivity (philosophy)</a>\n                    ,\n                    <a rel="tag" href="http://andrewejenkins.wordpress.com/tag/richard-abanes/" shape="rect">Richard Abanes</a>\n                    ,\n                    <a rel="tag" href="http://andrewejenkins.wordpress.com/tag/ted-turner/" shape="rect">Ted Turner</a>\n                    ,\n                    <a rel="tag" href="http://andrewejenkins.wordpress.com/tag/the-bible/" shape="rect">The Bible</a>\n                    ,\n                    <a rel="tag" href="http://andrewejenkins.wordpress.com/tag/vatican-library/" shape="rect">Vatican Library</a>\n                    <br clear="none"></br>\n                  </p>\n                </div>\n              </div>\n              <div id="nav-below" class="navigation">\n                <div class="nav-previous">\n                  <a rel="prev" href="http://andrewejenkins.wordpress.com/2012/06/07/demon-tactic-301-tell-them-to-wait/" shape="rect">\n                    <span class="meta-nav">\xe2\x86\x90</span>\n                    Demon tactic #301: \xe2\x80\x9cTell them to\xc2\xa0wait.\xe2\x80\x9d\n                  </a>\n                </div>\n                <div class="nav-next">\n                  <a rel="next" href="http://andrewejenkins.wordpress.com/2012/06/09/whats-the-bible-about/" shape="rect">\n                    What\xe2\x80\x99s the Bible\xc2\xa0about?\n                    <span class="meta-nav">\xe2\x86\x92</span>\n                  </a>\n                </div>\n              </div>\n              <div id="comments">\n                <h3 id="comments-title" class="comment-head">\n                  29 Responses to\n                  <em>The Bible may be the best truth we are\xc2\xa0ignoring</em>\n                </h3>\n                <ol class="comment-list">\n                  <li id="li-comment-11091" class="comment even thread-even depth-1 highlander-comment">\n                    <div id="comment-11091" class="comment-container">\n                      <div class="comment-author vcard">\n                        <img width="48" height="48" src="http://0.gravatar.com/avatar/9dfce69af3c7825d8a8a4da3cd2efe10?s=48&amp;d=&amp;r=G" alt="" class="avatar avatar-48"></img>\n                        <cite class="fn">Kelly Mills</cite>\n                      </div>\n                      <div class="comment-meta commentmetadata">\n                        <a href="http://andrewejenkins.wordpress.com/2012/06/08/the-bible-may-be-the-best-truth-we-are-ignoring/#comment-11091" shape="rect"> June 8, 2012 at 8:32 am</a>\n                      </div>\n                      <div class="comment-body">\n                        <p>Some people are focused too much on worldly things and not things of God. In order for you to have a life more abundantly you have to change you\xe2\x80\x99re desires and thought process.</p>\n                      </div>\n                      <div class="reply">\n                        <a onclick="return addComment.moveForm(&quot;comment-11091&quot;, &quot;11091&quot;, &quot;respond&quot;, &quot;2082&quot;)" href="/2012/06/08/the-bible-may-be-the-best-truth-we-are-ignoring/?replytocom=11091#respond" class="comment-reply-link" shape="rect">Reply</a>\n                      </div>\n                    </div>\n                  </li>\n                  <li id="li-comment-11092" class="comment odd alt thread-odd thread-alt depth-1 highlander-comment">\n                    <div id="comment-11092" class="comment-container">\n                      <div class="comment-author vcard">\n                        <img width="48" height="48" src="http://0.gravatar.com/avatar/6c936b78d39c414e5a5adb5eaaf048ea?s=48&amp;d=&amp;r=G" alt="" class="avatar avatar-48"></img>\n                        <cite class="fn">tylercruce</cite>\n                      </div>\n                      <div class="comment-meta commentmetadata">\n                        <a href="http://andrewejenkins.wordpress.com/2012/06/08/the-bible-may-be-the-best-truth-we-are-ignoring/#comment-11092" shape="rect"> June 8, 2012 at 8:36 am</a>\n                      </div>\n                      <div class="comment-body">\n                        <p>Just live in truth because the truth will set you free</p>\n                      </div>\n                      <div class="reply">\n                        <a onclick="return addComment.moveForm(&quot;comment-11092&quot;, &quot;11092&quot;, &quot;respond&quot;, &quot;2082&quot;)" href="/2012/06/08/the-bible-may-be-the-best-truth-we-are-ignoring/?replytocom=11092#respond" class="comment-reply-link" shape="rect">Reply</a>\n                      </div>\n                    </div>\n                  </li>\n                  <li id="li-comment-11093" class="comment even thread-even depth-1 highlander-comment">\n                    <div id="comment-11093" class="comment-container">\n                      <div class="comment-author vcard">\n                        <img width="48" height="48" src="http://0.gravatar.com/avatar/0eabb8980b44932130929d66f80edf09?s=48&amp;d=&amp;r=G" alt="" class="avatar avatar-48"></img>\n                        <cite class="fn">demetriusmartin</cite>\n                      </div>\n                      <div class="comment-meta commentmetadata">\n                        <a href="http://andrewejenkins.wordpress.com/2012/06/08/the-bible-may-be-the-best-truth-we-are-ignoring/#comment-11093" shape="rect"> June 8, 2012 at 8:39 am</a>\n                      </div>\n                      <div class="comment-body">\n                        <p>\n                          I agree with kelly. We have to renew our mind daily because we are on a constant battle field, every day satan is seeking out someone to destroy. He only comes to steal, kill ,and destroy. Jesus came that we may have life and have it more abundantly., but the key is to seek him first and all these  other things shall be added to you.\n                        </p>\n                      </div>\n                      <div class="reply">\n                        <a onclick="return addComment.moveForm(&quot;comment-11093&quot;, &quot;11093&quot;, &quot;respond&quot;, &quot;2082&quot;)" href="/2012/06/08/the-bible-may-be-the-best-truth-we-are-ignoring/?replytocom=11093#respond" class="comment-reply-link" shape="rect">Reply</a>\n                      </div>\n                    </div>\n                  </li>\n                  <li id="li-comment-11095" class="comment odd alt thread-odd thread-alt depth-1 highlander-comment">\n                    <div id="comment-11095" class="comment-container">\n                      <div class="comment-author vcard">\n                        <img width="48" height="48" src="http://0.gravatar.com/avatar/948d9a25c440cb05fb70afcb87109ccc?s=48&amp;d=&amp;r=G" alt="" class="avatar avatar-48"></img>\n                        <cite class="fn">haileyparker</cite>\n                      </div>\n                      <div class="comment-meta commentmetadata">\n                        <a href="http://andrewejenkins.wordpress.com/2012/06/08/the-bible-may-be-the-best-truth-we-are-ignoring/#comment-11095" shape="rect"> June 8, 2012 at 9:37 am</a>\n                      </div>\n                      <div class="comment-body">\n                        <p>\n                          I believe the bible is the truth, i just believe that people choose to not listen to the truth that would mean they have to live on someones terms other than theres. If we read  the bible and apply it in our everyday lives we will be okay only we have the choice to listen to the truth which is the bible or listen to themselves instead which is the devil talking through us.\n                        </p>\n                      </div>\n                      <div class="reply">\n                        <a onclick="return addComment.moveForm(&quot;comment-11095&quot;, &quot;11095&quot;, &quot;respond&quot;, &quot;2082&quot;)" href="/2012/06/08/the-bible-may-be-the-best-truth-we-are-ignoring/?replytocom=11095#respond" class="comment-reply-link" shape="rect">Reply</a>\n                      </div>\n                    </div>\n                  </li>\n                  <li id="li-comment-11096" class="comment even thread-even depth-1 highlander-comment">\n                    <div id="comment-11096" class="comment-container">\n                      <div class="comment-author vcard">\n                        <img width="48" height="48" src="http://2.gravatar.com/avatar/2890b46b1e2acbe661a08aa9f6c2c1b9?s=48&amp;d=&amp;r=G" alt="" class="avatar avatar-48"></img>\n                        <cite class="fn">derrickdsmith</cite>\n                      </div>\n                      <div class="comment-meta commentmetadata">\n                        <a href="http://andrewejenkins.wordpress.com/2012/06/08/the-bible-may-be-the-best-truth-we-are-ignoring/#comment-11096" shape="rect"> June 8, 2012 at 9:38 am</a>\n                      </div>\n                      <div class="comment-body">\n                        <p>well i don\xe2\x80\x99t ignoring the bible at all i love the bible i read it all the time</p>\n                      </div>\n                      <div class="reply">\n                        <a onclick="return addComment.moveForm(&quot;comment-11096&quot;, &quot;11096&quot;, &quot;respond&quot;, &quot;2082&quot;)" href="/2012/06/08/the-bible-may-be-the-best-truth-we-are-ignoring/?replytocom=11096#respond" class="comment-reply-link" shape="rect">Reply</a>\n                      </div>\n                    </div>\n                  </li>\n                  <li id="li-comment-11100" class="comment odd alt thread-odd thread-alt depth-1 highlander-comment">\n                    <div id="comment-11100" class="comment-container">\n                      <div class="comment-author vcard">\n                        <img width="48" height="48" src="http://0.gravatar.com/avatar/01742660161c2a6b22529756fa89bcce?s=48&amp;d=&amp;r=G" alt="" class="avatar avatar-48"></img>\n                        <cite class="fn">Colbysmith</cite>\n                      </div>\n                      <div class="comment-meta commentmetadata">\n                        <a href="http://andrewejenkins.wordpress.com/2012/06/08/the-bible-may-be-the-best-truth-we-are-ignoring/#comment-11100" shape="rect"> June 8, 2012 at 11:17 am</a>\n                      </div>\n                      <div class="comment-body">\n                        <p>i think every body should look at it this way if you read the bible and it says something it,s true you just gotta believe</p>\n                      </div>\n                      <div class="reply">\n                        <a onclick="return addComment.moveForm(&quot;comment-11100&quot;, &quot;11100&quot;, &quot;respond&quot;, &quot;2082&quot;)" href="/2012/06/08/the-bible-may-be-the-best-truth-we-are-ignoring/?replytocom=11100#respond" class="comment-reply-link" shape="rect">Reply</a>\n                      </div>\n                    </div>\n                  </li>\n                  <li id="li-comment-11101" class="comment even thread-even depth-1 highlander-comment">\n                    <div id="comment-11101" class="comment-container">\n                      <div class="comment-author vcard">\n                        <img width="48" height="48" src="http://0.gravatar.com/avatar/00b0916ab1de304b769272259d8cc267?s=48&amp;d=&amp;r=G" alt="" class="avatar avatar-48"></img>\n                        <cite class="fn">bradley</cite>\n                      </div>\n                      <div class="comment-meta commentmetadata">\n                        <a href="http://andrewejenkins.wordpress.com/2012/06/08/the-bible-may-be-the-best-truth-we-are-ignoring/#comment-11101" shape="rect"> June 8, 2012 at 12:10 pm</a>\n                      </div>\n                      <div class="comment-body">\n                        <p>In my experience i have learned to stop desiring things not of God even though i still do sometimes i know the way to live life is to desire things and the ways of God. Strive to be like Jesus!</p>\n                      </div>\n                      <div class="reply">\n                        <a onclick="return addComment.moveForm(&quot;comment-11101&quot;, &quot;11101&quot;, &quot;respond&quot;, &quot;2082&quot;)" href="/2012/06/08/the-bible-may-be-the-best-truth-we-are-ignoring/?replytocom=11101#respond" class="comment-reply-link" shape="rect">Reply</a>\n                      </div>\n                    </div>\n                  </li>\n                  <li class="post pingback">\n                    <p>\n                      Pingback:\n                      <a rel="external nofollow" href="http://jessicasideways.com/2012/06/youre-ignorant-unless-you-agree-with-me/" class="url" shape="rect">\xe2\x80\x9cYou\xe2\x80\x99re Ignorant Unless You Agree With Me!\xe2\x80\x9d | Jessica Sideways.com</a>\n                    </p>\n                  </li>\n                  <li id="li-comment-11111" class="comment odd alt thread-odd thread-alt depth-1 highlander-comment">\n                    <div id="comment-11111" class="comment-container">\n                      <div class="comment-author vcard">\n                        <img width="48" height="48" src="http://0.gravatar.com/avatar/9653b68ba1635bd1a9429e90ac71473c?s=48&amp;d=&amp;r=G" alt="" class="avatar avatar-48"></img>\n                        <cite class="fn">Tara O\'Leary</cite>\n                      </div>\n                      <div class="comment-meta commentmetadata">\n                        <a href="http://andrewejenkins.wordpress.com/2012/06/08/the-bible-may-be-the-best-truth-we-are-ignoring/#comment-11111" shape="rect"> June 8, 2012 at 3:39 pm</a>\n                      </div>\n                      <div class="comment-body">\n                        <p>I believe the Bible is the truth. I believe the Bible also has a bigger story between the lines. When I read God\xe2\x80\x99s inspired word I pray that the mystery to the Gospel is revealed to me. When I really open my mind to what God has to say I am amazed at what He reveals to me.</p>\n                      </div>\n                      <div class="reply">\n                        <a onclick="return addComment.moveForm(&quot;comment-11111&quot;, &quot;11111&quot;, &quot;respond&quot;, &quot;2082&quot;)" href="/2012/06/08/the-bible-may-be-the-best-truth-we-are-ignoring/?replytocom=11111#respond" class="comment-reply-link" shape="rect">Reply</a>\n                      </div>\n                    </div>\n                  </li>\n                  <li id="li-comment-11112" class="comment even thread-even depth-1 highlander-comment">\n                    <div id="comment-11112" class="comment-container">\n                      <div class="comment-author vcard">\n                        <img width="48" height="48" src="http://2.gravatar.com/avatar/8fef155452f816dc9646e0b08ae9ad62?s=48&amp;d=&amp;r=G" alt="" class="avatar avatar-48"></img>\n                        <cite class="fn">Brian Van Valkenburgh</cite>\n                      </div>\n                      <div class="comment-meta commentmetadata">\n                        <a href="http://andrewejenkins.wordpress.com/2012/06/08/the-bible-may-be-the-best-truth-we-are-ignoring/#comment-11112" shape="rect"> June 8, 2012 at 3:56 pm</a>\n                      </div>\n                      <div class="comment-body">\n                        <p>The Bible is the Truth.Yet the Bible was written by man. Yes quite the paradox if you ask me. That\xe2\x80\x99s where faith comes in.</p>\n                      </div>\n                      <div class="reply">\n                        <a onclick="return addComment.moveForm(&quot;comment-11112&quot;, &quot;11112&quot;, &quot;respond&quot;, &quot;2082&quot;)" href="/2012/06/08/the-bible-may-be-the-best-truth-we-are-ignoring/?replytocom=11112#respond" class="comment-reply-link" shape="rect">Reply</a>\n                      </div>\n                    </div>\n                  </li>\n                  <li id="li-comment-11116" class="comment odd alt thread-odd thread-alt depth-1 highlander-comment">\n                    <div id="comment-11116" class="comment-container">\n                      <div class="comment-author vcard">\n                        <img width="48" height="48" src="http://0.gravatar.com/avatar/36828e78ec15596fb25b7058a411f2aa?s=48&amp;d=&amp;r=G" alt="" class="avatar avatar-48"></img>\n                        <cite class="fn">leslie sims</cite>\n                      </div>\n                      <div class="comment-meta commentmetadata">\n                        <a href="http://andrewejenkins.wordpress.com/2012/06/08/the-bible-may-be-the-best-truth-we-are-ignoring/#comment-11116" shape="rect"> June 8, 2012 at 7:31 pm</a>\n                      </div>\n                      <div class="comment-body">\n                        <p>My best daily renewal is Ephesians its like the basics of what you should and shouldn\xe2\x80\x99t do it kinda covers everything try reading it every day for thirty days. Blessings will have faith in that!</p>\n                      </div>\n                      <div class="reply">\n                        <a onclick="return addComment.moveForm(&quot;comment-11116&quot;, &quot;11116&quot;, &quot;respond&quot;, &quot;2082&quot;)" href="/2012/06/08/the-bible-may-be-the-best-truth-we-are-ignoring/?replytocom=11116#respond" class="comment-reply-link" shape="rect">Reply</a>\n                      </div>\n                    </div>\n                  </li>\n                  <li id="li-comment-11117" class="comment even thread-even depth-1 highlander-comment">\n                    <div id="comment-11117" class="comment-container">\n                      <div class="comment-author vcard">\n                        <img width="48" height="48" src="http://1.gravatar.com/avatar/a158e892665921da554ed6afaac06d04?s=48&amp;d=&amp;r=G" alt="" class="avatar avatar-48"></img>\n                        <cite class="fn">larryclancy01</cite>\n                      </div>\n                      <div class="comment-meta commentmetadata">\n                        <a href="http://andrewejenkins.wordpress.com/2012/06/08/the-bible-may-be-the-best-truth-we-are-ignoring/#comment-11117" shape="rect"> June 8, 2012 at 7:45 pm</a>\n                      </div>\n                      <div class="comment-body">\n                        <p>Reading gods word helped me through some things it also helped me recognize who i am in christ.</p>\n                      </div>\n                      <div class="reply">\n                        <a onclick="return addComment.moveForm(&quot;comment-11117&quot;, &quot;11117&quot;, &quot;respond&quot;, &quot;2082&quot;)" href="/2012/06/08/the-bible-may-be-the-best-truth-we-are-ignoring/?replytocom=11117#respond" class="comment-reply-link" shape="rect">Reply</a>\n                      </div>\n                    </div>\n                  </li>\n                  <li id="li-comment-11160" class="comment odd alt thread-odd thread-alt depth-1 highlander-comment">\n                    <div id="comment-11160" class="comment-container">\n                      <div class="comment-author vcard">\n                        <img width="48" height="48" src="http://0.gravatar.com/avatar/fb74be8378f66c6a42d0750241dac9e3?s=48&amp;d=&amp;r=G" alt="" class="avatar avatar-48"></img>\n                        <cite class="fn">joe</cite>\n                      </div>\n                      <div class="comment-meta commentmetadata">\n                        <a href="http://andrewejenkins.wordpress.com/2012/06/08/the-bible-may-be-the-best-truth-we-are-ignoring/#comment-11160" shape="rect"> June 9, 2012 at 9:08 am</a>\n                      </div>\n                      <div class="comment-body">\n                        <p>the bible is the truth and if you live by it any thing is possible</p>\n                      </div>\n                      <div class="reply">\n                        <a onclick="return addComment.moveForm(&quot;comment-11160&quot;, &quot;11160&quot;, &quot;respond&quot;, &quot;2082&quot;)" href="/2012/06/08/the-bible-may-be-the-best-truth-we-are-ignoring/?replytocom=11160#respond" class="comment-reply-link" shape="rect">Reply</a>\n                      </div>\n                    </div>\n                  </li>\n                  <li id="li-comment-11175" class="comment even thread-even depth-1 highlander-comment">\n                    <div id="comment-11175" class="comment-container">\n                      <div class="comment-author vcard">\n                        <img width="48" height="48" src="http://2.gravatar.com/avatar/e52aec4d8429c983be7b7732dee44451?s=48&amp;d=&amp;r=G" alt="" class="avatar avatar-48"></img>\n                        <cite class="fn">J.Cotton</cite>\n                      </div>\n                      <div class="comment-meta commentmetadata">\n                        <a href="http://andrewejenkins.wordpress.com/2012/06/08/the-bible-may-be-the-best-truth-we-are-ignoring/#comment-11175" shape="rect"> June 9, 2012 at 11:18 am</a>\n                      </div>\n                      <div class="comment-body">\n                        <p>For me it has been a battle for whenever I get close to God I\xe2\x80\x99m reading the bible daily an everything falls into place. Thats when you seek him the most I started my day reading something to get filled up so my day will go by a lot smoother it just seems to be that way.</p>\n                      </div>\n                      <div class="reply">\n                        <a onclick="return addComment.moveForm(&quot;comment-11175&quot;, &quot;11175&quot;, &quot;respond&quot;, &quot;2082&quot;)" href="/2012/06/08/the-bible-may-be-the-best-truth-we-are-ignoring/?replytocom=11175#respond" class="comment-reply-link" shape="rect">Reply</a>\n                      </div>\n                    </div>\n                  </li>\n                  <li id="li-comment-11215" class="comment odd alt thread-odd thread-alt depth-1 highlander-comment">\n                    <div id="comment-11215" class="comment-container">\n                      <div class="comment-author vcard">\n                        <img width="48" height="48" src="http://0.gravatar.com/avatar/90a6ad3ed61214eb5ce448a2b61ae8e8?s=48&amp;d=&amp;r=G" alt="" class="avatar avatar-48"></img>\n                        <cite class="fn">gregorythomas</cite>\n                      </div>\n                      <div class="comment-meta commentmetadata">\n                        <a href="http://andrewejenkins.wordpress.com/2012/06/08/the-bible-may-be-the-best-truth-we-are-ignoring/#comment-11215" shape="rect"> June 9, 2012 at 8:13 pm</a>\n                      </div>\n                      <div class="comment-body">\n                        <p>I don\xe2\x80\x99t think we are ignoring it a lot of people just don\xe2\x80\x99t understand what they are reading,and others really don\xe2\x80\x99t care at all.I bet if there were some way the bible was fix like some kind of video game then many people know more about it.Sad but true.</p>\n                      </div>\n                      <div class="reply">\n                        <a onclick="return addComment.moveForm(&quot;comment-11215&quot;, &quot;11215&quot;, &quot;respond&quot;, &quot;2082&quot;)" href="/2012/06/08/the-bible-may-be-the-best-truth-we-are-ignoring/?replytocom=11215#respond" class="comment-reply-link" shape="rect">Reply</a>\n                      </div>\n                    </div>\n                  </li>\n                  <li id="li-comment-11331" class="comment even thread-even depth-1 highlander-comment">\n                    <div id="comment-11331" class="comment-container">\n                      <div class="comment-author vcard">\n                        <img width="48" height="48" src="http://1.gravatar.com/avatar/7257a205766b4ad0ffea6554ea3be875?s=48&amp;d=&amp;r=G" alt="" class="avatar avatar-48"></img>\n                        <cite class="fn">david price</cite>\n                      </div>\n                      <div class="comment-meta commentmetadata">\n                        <a href="http://andrewejenkins.wordpress.com/2012/06/08/the-bible-may-be-the-best-truth-we-are-ignoring/#comment-11331" shape="rect"> June 11, 2012 at 8:13 am</a>\n                      </div>\n                      <div class="comment-body">\n                        <p>the bible isn\xe2\x80\x99t just a book. It\xe2\x80\x99s our map to jesus.</p>\n                      </div>\n                      <div class="reply">\n                        <a onclick="return addComment.moveForm(&quot;comment-11331&quot;, &quot;11331&quot;, &quot;respond&quot;, &quot;2082&quot;)" href="/2012/06/08/the-bible-may-be-the-best-truth-we-are-ignoring/?replytocom=11331#respond" class="comment-reply-link" shape="rect">Reply</a>\n                      </div>\n                    </div>\n                  </li>\n                  <li id="li-comment-11374" class="comment odd alt thread-odd thread-alt depth-1 highlander-comment">\n                    <div id="comment-11374" class="comment-container">\n                      <div class="comment-author vcard">\n                        <img width="48" height="48" src="http://1.gravatar.com/avatar/4848c3fb0227e3b65983b9d025b254e1?s=48&amp;d=&amp;r=G" alt="" class="avatar avatar-48"></img>\n                        <cite class="fn">venesiacovan</cite>\n                      </div>\n                      <div class="comment-meta commentmetadata">\n                        <a href="http://andrewejenkins.wordpress.com/2012/06/08/the-bible-may-be-the-best-truth-we-are-ignoring/#comment-11374" shape="rect"> June 11, 2012 at 3:14 pm</a>\n                      </div>\n                      <div class="comment-body">\n                        <p>the bible is real</p>\n                      </div>\n                      <div class="reply">\n                        <a onclick="return addComment.moveForm(&quot;comment-11374&quot;, &quot;11374&quot;, &quot;respond&quot;, &quot;2082&quot;)" href="/2012/06/08/the-bible-may-be-the-best-truth-we-are-ignoring/?replytocom=11374#respond" class="comment-reply-link" shape="rect">Reply</a>\n                      </div>\n                    </div>\n                  </li>\n                  <li id="li-comment-11379" class="comment even thread-even depth-1 highlander-comment">\n                    <div id="comment-11379" class="comment-container">\n                      <div class="comment-author vcard">\n                        <img width="48" height="48" src="http://0.gravatar.com/avatar/f443220f63f3c20ca88a22dadcdb8d1b?s=48&amp;d=&amp;r=G" alt="" class="avatar avatar-48"></img>\n                        <cite class="fn">HaroldDavis</cite>\n                      </div>\n                      <div class="comment-meta commentmetadata">\n                        <a href="http://andrewejenkins.wordpress.com/2012/06/08/the-bible-may-be-the-best-truth-we-are-ignoring/#comment-11379" shape="rect"> June 11, 2012 at 4:03 pm</a>\n                      </div>\n                      <div class="comment-body">\n                        <p>Read the bible is the woundful thing to do i think</p>\n                      </div>\n                      <div class="reply">\n                        <a onclick="return addComment.moveForm(&quot;comment-11379&quot;, &quot;11379&quot;, &quot;respond&quot;, &quot;2082&quot;)" href="/2012/06/08/the-bible-may-be-the-best-truth-we-are-ignoring/?replytocom=11379#respond" class="comment-reply-link" shape="rect">Reply</a>\n                      </div>\n                    </div>\n                  </li>\n                  <li id="li-comment-11401" class="comment odd alt thread-odd thread-alt depth-1 highlander-comment">\n                    <div id="comment-11401" class="comment-container">\n                      <div class="comment-author vcard">\n                        <img width="48" height="48" src="http://1.gravatar.com/avatar/a158e892665921da554ed6afaac06d04?s=48&amp;d=&amp;r=G" alt="" class="avatar avatar-48"></img>\n                        <cite class="fn">larryclancy01</cite>\n                      </div>\n                      <div class="comment-meta commentmetadata">\n                        <a href="http://andrewejenkins.wordpress.com/2012/06/08/the-bible-may-be-the-best-truth-we-are-ignoring/#comment-11401" shape="rect"> June 11, 2012 at 9:02 pm</a>\n                      </div>\n                      <div class="comment-body">\n                        <p>Well said david price.</p>\n                      </div>\n                      <div class="reply">\n                        <a onclick="return addComment.moveForm(&quot;comment-11401&quot;, &quot;11401&quot;, &quot;respond&quot;, &quot;2082&quot;)" href="/2012/06/08/the-bible-may-be-the-best-truth-we-are-ignoring/?replytocom=11401#respond" class="comment-reply-link" shape="rect">Reply</a>\n                      </div>\n                    </div>\n                  </li>\n                  <li id="li-comment-11409" class="comment even thread-even depth-1 highlander-comment">\n                    <div id="comment-11409" class="comment-container">\n                      <div class="comment-author vcard">\n                        <img width="48" height="48" src="http://0.gravatar.com/avatar/62bf686769402e00e2bf8bfe5bd9ac8b?s=48&amp;d=&amp;r=G" alt="" class="avatar avatar-48"></img>\n                        <cite class="fn">jamesbrown</cite>\n                      </div>\n                      <div class="comment-meta commentmetadata">\n                        <a href="http://andrewejenkins.wordpress.com/2012/06/08/the-bible-may-be-the-best-truth-we-are-ignoring/#comment-11409" shape="rect"> June 11, 2012 at 9:27 pm</a>\n                      </div>\n                      <div class="comment-body">\n                        <p>the bible isa wonderful book</p>\n                      </div>\n                      <div class="reply">\n                        <a onclick="return addComment.moveForm(&quot;comment-11409&quot;, &quot;11409&quot;, &quot;respond&quot;, &quot;2082&quot;)" href="/2012/06/08/the-bible-may-be-the-best-truth-we-are-ignoring/?replytocom=11409#respond" class="comment-reply-link" shape="rect">Reply</a>\n                      </div>\n                    </div>\n                  </li>\n                  <li id="li-comment-11464" class="comment odd alt thread-odd thread-alt depth-1 highlander-comment">\n                    <div id="comment-11464" class="comment-container">\n                      <div class="comment-author vcard">\n                        <img width="48" height="48" src="http://0.gravatar.com/avatar/376813ea9b2ec4350bf3cf156678e6c0?s=48&amp;d=&amp;r=G" alt="" class="avatar avatar-48"></img>\n                        <cite class="fn">Kelley Smith</cite>\n                      </div>\n                      <div class="comment-meta commentmetadata">\n                        <a href="http://andrewejenkins.wordpress.com/2012/06/08/the-bible-may-be-the-best-truth-we-are-ignoring/#comment-11464" shape="rect"> June 13, 2012 at 6:37 pm</a>\n                      </div>\n                      <div class="comment-body">\n                        <p>I believe the bible is truth.</p>\n                      </div>\n                      <div class="reply">\n                        <a onclick="return addComment.moveForm(&quot;comment-11464&quot;, &quot;11464&quot;, &quot;respond&quot;, &quot;2082&quot;)" href="/2012/06/08/the-bible-may-be-the-best-truth-we-are-ignoring/?replytocom=11464#respond" class="comment-reply-link" shape="rect">Reply</a>\n                      </div>\n                    </div>\n                  </li>\n                  <li id="li-comment-11547" class="comment even thread-even depth-1 highlander-comment">\n                    <div id="comment-11547" class="comment-container">\n                      <div class="comment-author vcard">\n                        <img width="48" height="48" src="http://2.gravatar.com/avatar/bfcc5029cde88cfe9d6ff0881bdc40f3?s=48&amp;d=&amp;r=G" alt="" class="avatar avatar-48"></img>\n                        <cite class="fn">robertfortune</cite>\n                      </div>\n                      <div class="comment-meta commentmetadata">\n                        <a href="http://andrewejenkins.wordpress.com/2012/06/08/the-bible-may-be-the-best-truth-we-are-ignoring/#comment-11547" shape="rect"> June 17, 2012 at 2:47 pm</a>\n                      </div>\n                      <div class="comment-body">\n                        <p>ok david price</p>\n                      </div>\n                      <div class="reply">\n                        <a onclick="return addComment.moveForm(&quot;comment-11547&quot;, &quot;11547&quot;, &quot;respond&quot;, &quot;2082&quot;)" href="/2012/06/08/the-bible-may-be-the-best-truth-we-are-ignoring/?replytocom=11547#respond" class="comment-reply-link" shape="rect">Reply</a>\n                      </div>\n                    </div>\n                  </li>\n                  <li id="li-comment-11559" class="comment odd alt thread-odd thread-alt depth-1 highlander-comment">\n                    <div id="comment-11559" class="comment-container">\n                      <div class="comment-author vcard">\n                        <img width="48" height="48" src="http://2.gravatar.com/avatar/bf5a9b9373d7322fb69599f2561177ae?s=48&amp;d=&amp;r=G" alt="" class="avatar avatar-48"></img>\n                        <cite class="fn">moses jackson</cite>\n                      </div>\n                      <div class="comment-meta commentmetadata">\n                        <a href="http://andrewejenkins.wordpress.com/2012/06/08/the-bible-may-be-the-best-truth-we-are-ignoring/#comment-11559" shape="rect"> June 18, 2012 at 9:11 am</a>\n                      </div>\n                      <div class="comment-body">\n                        <p>there are many great profits but jesus is the author of the bible</p>\n                      </div>\n                      <div class="reply">\n                        <a onclick="return addComment.moveForm(&quot;comment-11559&quot;, &quot;11559&quot;, &quot;respond&quot;, &quot;2082&quot;)" href="/2012/06/08/the-bible-may-be-the-best-truth-we-are-ignoring/?replytocom=11559#respond" class="comment-reply-link" shape="rect">Reply</a>\n                      </div>\n                    </div>\n                  </li>\n                  <li id="li-comment-11592" class="comment even thread-even depth-1 highlander-comment">\n                    <div id="comment-11592" class="comment-container">\n                      <div class="comment-author vcard">\n                        <img width="48" height="48" src="http://2.gravatar.com/avatar/eadb532b7e8a89c0c6703606977566d8?s=48&amp;d=&amp;r=G" alt="" class="avatar avatar-48"></img>\n                        <cite class="fn">heath</cite>\n                      </div>\n                      <div class="comment-meta commentmetadata">\n                        <a href="http://andrewejenkins.wordpress.com/2012/06/08/the-bible-may-be-the-best-truth-we-are-ignoring/#comment-11592" shape="rect"> June 18, 2012 at 6:23 pm</a>\n                      </div>\n                      <div class="comment-body">\n                        <p>we should live by the word of god</p>\n                      </div>\n                      <div class="reply">\n                        <a onclick="return addComment.moveForm(&quot;comment-11592&quot;, &quot;11592&quot;, &quot;respond&quot;, &quot;2082&quot;)" href="/2012/06/08/the-bible-may-be-the-best-truth-we-are-ignoring/?replytocom=11592#respond" class="comment-reply-link" shape="rect">Reply</a>\n                      </div>\n                    </div>\n                  </li>\n                  <li id="li-comment-11637" class="comment odd alt thread-odd thread-alt depth-1 highlander-comment">\n                    <div id="comment-11637" class="comment-container">\n                      <div class="comment-author vcard">\n                        <img width="48" height="48" src="http://1.gravatar.com/avatar/41aae72f674963cc8542583012cbd934?s=48&amp;d=&amp;r=G" alt="" class="avatar avatar-48"></img>\n                        <cite class="fn">robertcrawford</cite>\n                      </div>\n                      <div class="comment-meta commentmetadata">\n                        <a href="http://andrewejenkins.wordpress.com/2012/06/08/the-bible-may-be-the-best-truth-we-are-ignoring/#comment-11637" shape="rect"> June 19, 2012 at 8:55 pm</a>\n                      </div>\n                      <div class="comment-body">\n                        <p>It is the truth we sometimes don\xe2\x80\x99t want to believe it or we are to wrapped up in satan work we miss our blessing</p>\n                      </div>\n                      <div class="reply">\n                        <a onclick="return addComment.moveForm(&quot;comment-11637&quot;, &quot;11637&quot;, &quot;respond&quot;, &quot;2082&quot;)" href="/2012/06/08/the-bible-may-be-the-best-truth-we-are-ignoring/?replytocom=11637#respond" class="comment-reply-link" shape="rect">Reply</a>\n                      </div>\n                    </div>\n                  </li>\n                  <li id="li-comment-11658" class="comment even thread-even depth-1 highlander-comment">\n                    <div id="comment-11658" class="comment-container">\n                      <div class="comment-author vcard">\n                        <img width="48" height="48" src="http://0.gravatar.com/avatar/6909eacd8bd740de803f1dabfac34cf9?s=48&amp;d=&amp;r=G" alt="" class="avatar avatar-48"></img>\n                        <cite class="fn">stacey pannell</cite>\n                      </div>\n                      <div class="comment-meta commentmetadata">\n                        <a href="http://andrewejenkins.wordpress.com/2012/06/08/the-bible-may-be-the-best-truth-we-are-ignoring/#comment-11658" shape="rect"> June 20, 2012 at 8:28 am</a>\n                      </div>\n                      <div class="comment-body">\n                        <p>the more i read of the word the more i understand gods love</p>\n                      </div>\n                      <div class="reply">\n                        <a onclick="return addComment.moveForm(&quot;comment-11658&quot;, &quot;11658&quot;, &quot;respond&quot;, &quot;2082&quot;)" href="/2012/06/08/the-bible-may-be-the-best-truth-we-are-ignoring/?replytocom=11658#respond" class="comment-reply-link" shape="rect">Reply</a>\n                      </div>\n                    </div>\n                  </li>\n                  <li id="li-comment-11694" class="comment odd alt thread-odd thread-alt depth-1 highlander-comment">\n                    <div id="comment-11694" class="comment-container">\n                      <div class="comment-author vcard">\n                        <img width="48" height="48" src="http://2.gravatar.com/avatar/b07b85286563d85be873d8a1970b0565?s=48&amp;d=&amp;r=G" alt="" class="avatar avatar-48"></img>\n                        <cite class="fn">michael starns</cite>\n                      </div>\n                      <div class="comment-meta commentmetadata">\n                        <a href="http://andrewejenkins.wordpress.com/2012/06/08/the-bible-may-be-the-best-truth-we-are-ignoring/#comment-11694" shape="rect"> June 21, 2012 at 12:06 pm</a>\n                      </div>\n                      <div class="comment-body">\n                        <p>\n                          theres is a paradox as mr. b says but a normal paradox is solved by human an ordinary man made thought process. the bible is not a normal book an requires abnormal thinking to agree upon. the bible is a true accordn written by men of god an faith does play a gigantic role in understanding it.\n                        </p>\n                      </div>\n                      <div class="reply">\n                        <a onclick="return addComment.moveForm(&quot;comment-11694&quot;, &quot;11694&quot;, &quot;respond&quot;, &quot;2082&quot;)" href="/2012/06/08/the-bible-may-be-the-best-truth-we-are-ignoring/?replytocom=11694#respond" class="comment-reply-link" shape="rect">Reply</a>\n                      </div>\n                    </div>\n                  </li>\n                  <li id="li-comment-11714" class="comment even thread-even depth-1 highlander-comment">\n                    <div id="comment-11714" class="comment-container">\n                      <div class="comment-author vcard">\n                        <img width="48" height="48" src="http://1.gravatar.com/avatar/dd2ed97bc8ede04524edf387540e26da?s=48&amp;d=&amp;r=G" alt="" class="avatar avatar-48"></img>\n                        <cite class="fn">richard</cite>\n                      </div>\n                      <div class="comment-meta commentmetadata">\n                        <a href="http://andrewejenkins.wordpress.com/2012/06/08/the-bible-may-be-the-best-truth-we-are-ignoring/#comment-11714" shape="rect"> June 21, 2012 at 7:20 pm</a>\n                      </div>\n                      <div class="comment-body">\n                        <p>well if you ignoring the bible peoples around here are crazy to life but with me I\xe2\x80\x99m always going to believe in the lord jesus christ.</p>\n                      </div>\n                      <div class="reply">\n                        <a onclick="return addComment.moveForm(&quot;comment-11714&quot;, &quot;11714&quot;, &quot;respond&quot;, &quot;2082&quot;)" href="/2012/06/08/the-bible-may-be-the-best-truth-we-are-ignoring/?replytocom=11714#respond" class="comment-reply-link" shape="rect">Reply</a>\n                      </div>\n                    </div>\n                  </li>\n                  <li id="li-comment-15335" class="comment odd alt thread-odd thread-alt depth-1 highlander-comment">\n                    <div id="comment-15335" class="comment-container">\n                      <div class="comment-author vcard">\n                        <img width="48" height="48" src="http://0.gravatar.com/avatar/fb35ffbbbf404f2c280745aec1fefc16?s=48&amp;d=&amp;r=G" alt="" class="avatar avatar-48"></img>\n                        <cite class="fn">gracesanders</cite>\n                      </div>\n                      <div class="comment-meta commentmetadata">\n                        <a href="http://andrewejenkins.wordpress.com/2012/06/08/the-bible-may-be-the-best-truth-we-are-ignoring/#comment-15335" shape="rect"> October 1, 2012 at 8:56 pm</a>\n                      </div>\n                      <div class="comment-body">\n                        <p>I will always believe in god.</p>\n                      </div>\n                      <div class="reply">\n                        <a onclick="return addComment.moveForm(&quot;comment-15335&quot;, &quot;15335&quot;, &quot;respond&quot;, &quot;2082&quot;)" href="/2012/06/08/the-bible-may-be-the-best-truth-we-are-ignoring/?replytocom=15335#respond" class="comment-reply-link" shape="rect">Reply</a>\n                      </div>\n                    </div>\n                  </li>\n                </ol>\n                <div id="respond">\n                  <h3 id="reply-title">\n                    Leave a Reply\n                    <small>\n                      <a style="display:none;" href="/2012/06/08/the-bible-may-be-the-best-truth-we-are-ignoring/#respond" rel="nofollow" id="cancel-comment-reply-link" shape="rect">Cancel reply</a>\n                    </small>\n                  </h3>\n                  <form action="http://andrewejenkins.wordpress.com/wp-comments-post.php" id="commentform" method="post" enctype="application/x-www-form-urlencoded">\n                    <input value="guest" name="hc_post_as" id="hc_post_as" type="hidden"></input>\n                    <div class="comment-form-field comment-textarea">\n                      <label for="comment">Enter your comment here...</label>\n                      <div id="comment-form-comment">\n                        <textarea name="comment" id="comment"></textarea>\n                      </div>\n                    </div>\n                    <div id="comment-form-identity">\n                      <div id="comment-form-nascar">\n                        <p>Fill in your details below or click an icon to log in:</p>\n                        <ul>\n                          <li style="display:none;" class="selected">\n                            <a title="Guest" href="#comment-form-guest" id="postas-guest" shape="rect">\n                              <span></span>\n                            </a>\n                          </li>\n                          <li>\n                            <a title="WordPress.com" href="#comment-form-load-service:WordPress.com" id="postas-wordpress" shape="rect">\n                              <span></span>\n                            </a>\n                          </li>\n                          <li>\n                            <a title="Twitter" href="#comment-form-load-service:Twitter" id="postas-twitter" shape="rect">\n                              <span></span>\n                            </a>\n                          </li>\n                          <li>\n                            <a title="Facebook" href="#comment-form-load-service:Facebook" id="postas-facebook" shape="rect">\n                              <span></span>\n                            </a>\n                          </li>\n                        </ul>\n                      </div>\n                      <div id="comment-form-guest" class="comment-form-service selected">\n                        <div class="comment-form-padder">\n                          <div class="comment-form-avatar">\n                            <a target="_blank" href="https://gravatar.com/site/signup/" shape="rect">\n                              <img width="25" alt="Gravatar" src="http://1.gravatar.com/avatar/ad516503a11cd5ca435acc9bb6523536?s=25&amp;d=&amp;forcedefault=y&amp;r=G" class="no-grav"></img>\n                            </a>\n                          </div>\n                          <div class="comment-form-fields">\n                            <div class="comment-form-field comment-form-email">\n                              <label for="email">\n                                Email\n                                <span class="required">(required)</span>\n                                <span class="nopublish">(Address never made public)</span>\n                              </label>\n                              <div class="comment-form-input">\n                                <input value="" name="email" id="email" type="email"></input>\n                              </div>\n                            </div>\n                            <div class="comment-form-field comment-form-author">\n                              <label for="author">\n                                Name\n                                <span class="required">(required)</span>\n                              </label>\n                              <div class="comment-form-input">\n                                <input value="" name="author" id="author" type="text"></input>\n                              </div>\n                            </div>\n                            <div class="comment-form-field comment-form-url">\n                              <label for="url">Website</label>\n                              <div class="comment-form-input">\n                                <input value="" name="url" id="url" type="text"></input>\n                              </div>\n                            </div>\n                          </div>\n                        </div>\n                      </div>\n                      <div id="comment-form-wordpress" class="comment-form-service">\n                        <div class="comment-form-padder">\n                          <div class="comment-form-avatar">\n                            <img width="25" alt="WordPress.com Logo" src="http://s2.wp.com/wp-content/mu-plugins/highlander-comments/images/wplogo.png?m=1289230950g" class="no-grav"></img>\n                          </div>\n                          <div class="comment-form-fields">\n                            <input value="" name="wp_avatar" id="wordpress-avatar" class="comment-meta-wordpress" type="hidden"></input>\n                            <input value="" name="wp_user_id" id="wordpress-user_id" class="comment-meta-wordpress" type="hidden"></input>\n                            <input value="" name="wp_access_token" id="wordpress-access_token" class="comment-meta-wordpress" type="hidden"></input>\n                            <p class="comment-form-posting-as pa-wordpress">\n                              <strong></strong>\n                              You are commenting using your WordPress.com account.\n                              <span class="comment-form-log-out">\n                                (\xc2\xa0\n                                <a href="javascript:HighlanderComments.doExternalLogout( \'wordpress\' );" shape="rect">Log\xc2\xa0Out</a>\n                                \xc2\xa0/\xc2\xa0\n                                <a onclick="javascript:HighlanderComments.switchAccount();return false;" href="#" shape="rect">Change</a>\n                                \xc2\xa0)\n                              </span>\n                            </p>\n                          </div>\n                        </div>\n                      </div>\n                      <div id="comment-form-twitter" class="comment-form-service">\n                        <div class="comment-form-padder">\n                          <div class="comment-form-avatar">\n                            <img width="25" alt="Twitter picture" src="http://1.gravatar.com/avatar/ad516503a11cd5ca435acc9bb6523536?s=25&amp;d=&amp;forcedefault=y&amp;r=G" class="no-grav"></img>\n                          </div>\n                          <div class="comment-form-fields">\n                            <input value="" name="twitter_avatar" id="twitter-avatar" class="comment-meta-twitter" type="hidden"></input>\n                            <input value="" name="twitter_user_id" id="twitter-user_id" class="comment-meta-twitter" type="hidden"></input>\n                            <input value="" name="twitter_access_token" id="twitter-access_token" class="comment-meta-twitter" type="hidden"></input>\n                            <p class="comment-form-posting-as pa-twitter">\n                              <strong></strong>\n                              You are commenting using your Twitter account.\n                              <span class="comment-form-log-out">\n                                (\xc2\xa0\n                                <a href="javascript:HighlanderComments.doExternalLogout( \'twitter\' );" shape="rect">Log\xc2\xa0Out</a>\n                                \xc2\xa0/\xc2\xa0\n                                <a onclick="javascript:HighlanderComments.switchAccount();return false;" href="#" shape="rect">Change</a>\n                                \xc2\xa0)\n                              </span>\n                            </p>\n                          </div>\n                        </div>\n                      </div>\n                      <div id="comment-form-facebook" class="comment-form-service">\n                        <div class="comment-form-padder">\n                          <div class="comment-form-avatar">\n                            <img width="25" alt="Facebook photo" src="http://1.gravatar.com/avatar/ad516503a11cd5ca435acc9bb6523536?s=25&amp;d=&amp;forcedefault=y&amp;r=G" class="no-grav"></img>\n                          </div>\n                          <div class="comment-form-fields">\n                            <input value="" name="fb_avatar" id="facebook-avatar" class="comment-meta-facebook" type="hidden"></input>\n                            <input value="" name="fb_user_id" id="facebook-user_id" class="comment-meta-facebook" type="hidden"></input>\n                            <input value="" name="fb_access_token" id="facebook-access_token" class="comment-meta-facebook" type="hidden"></input>\n                            <p class="comment-form-posting-as pa-facebook">\n                              <strong></strong>\n                              You are commenting using your Facebook account.\n                              <span class="comment-form-log-out">\n                                (\xc2\xa0\n                                <a href="javascript:HighlanderComments.doExternalLogout( \'facebook\' );" shape="rect">Log\xc2\xa0Out</a>\n                                \xc2\xa0/\xc2\xa0\n                                <a onclick="javascript:HighlanderComments.switchAccount();return false;" href="#" shape="rect">Change</a>\n                                \xc2\xa0)\n                              </span>\n                            </p>\n                          </div>\n                        </div>\n                      </div>\n                      <div id="comment-form-load-service" class="comment-form-service">\n                        <div class="comment-form-posting-as-cancel">\n                          <a href="javascript:HighlanderComments.cancelExternalWindow();" shape="rect">Cancel</a>\n                        </div>\n                        <p>Connecting to %s</p>\n                      </div>\n                    </div>\n                    <script type="text/javascript">\n                      jQuery(document).ready(function(){\n\tvar input = document.createElement( \'input\' ),\n\t    comment = jQuery( \'#comment\' );\n\n\tif ( \'placeholder\' in input ) {\n\t\tcomment.attr( \'placeholder\', jQuery( \'.comment-textarea label\' ).remove().text() );\n\t}\n\n\t// Expando Mode: start small, then auto-resize on first click + text length\n\tjQuery( \'#comment-form-identity\' ).hide();\n\tjQuery( \'#comment-form-subscribe\' ).hide();\n\tjQuery( \'#commentform .form-submit\' ).hide();\n\n\tcomment.css( { \'height\':\'10px\' } ).one( \'focus\', function() {\n\t\tvar timer = setInterval( HighlanderComments.resizeCallback, 10 )\n\t\tjQuery( this ).animate( { \'height\': HighlanderComments.initialHeight } ).delay( 100 ).queue( function(n) { clearInterval( timer ); HighlanderComments.resizeCallback(); n(); } );\n\t\tjQuery( \'#comment-form-identity\' ).slideDown();\n\t\tjQuery( \'#comment-form-subscribe\' ).slideDown();\n\t\tjQuery( \'#commentform .form-submit\' ).slideDown();\n\t});\n});\n                    </script>\n                    <div id="comment-form-subscribe">\n                      <p class="comment-subscription-form">\n                        <input style="width: auto;" value="subscribe" name="subscribe" id="subscribe" type="checkbox" tabindex="6"></input>\n                        <label id="subscribe-label" class="subscribe-label" for="subscribe">Notify me of follow-up comments via email.</label>\n                      </p>\n                      <p class="post-subscription-form">\n                        <input style="width: auto;" value="subscribe" name="subscribe_blog" id="subscribe_blog" type="checkbox" tabindex="7"></input>\n                        <label id="subscribe-blog-label" class="subscribe-label" for="subscribe_blog">Notify me of new posts via email.</label>\n                      </p>\n                    </div>\n                    <p class="form-submit">\n                      <input value="Post Comment" name="submit" id="comment-submit" type="submit"></input>\n                      <input value="2082" name="comment_post_ID" id="comment_post_ID" type="hidden"></input>\n                      <input value="0" name="comment_parent" id="comment_parent" type="hidden"></input>\n                    </p>\n                    <input value="1349304902" name="genseq" type="hidden"></input>\n                    <p style="display: none;">\n                      <input value="9ca59d4fc9" name="akismet_comment_nonce" id="akismet_comment_nonce" type="hidden"></input>\n                    </p>\n                    <script src="http://s2.wp.com/wp-content/mu-plugins/akismet-2.5/form.js?m=1308783962g" type="text/javascript"></script>\n                    <p style="display: none;">\n                      <input value="208" name="ak_js" id="ak_js" type="hidden"></input>\n                    </p>\n                  </form>\n                </div>\n                <div style="clear: both"></div>\n              </div>\n            </div>\n          </div>\n          <div id="main-sidebars">\n            <div role="complementary" id="feature" class="widget-area">\n              <ul class="xoxo sidebar-list">\n                <li id="gravatar-3" class="widget widget_gravatar">\n                  <p>\n                    <img width="128" height="128" src="http://0.gravatar.com/avatar/3426635632082cf99676f427c36e816a?s=128&amp;d=&amp;r=G" alt="" class="avatar avatar-128"></img>\n                  </p>\n                  <p>Thinker, Organizer of Chaos (and, sometimes Creator of it), Writer, Implementer of Ideas... Father of 6, Husband of 1... Lover of Jesus &amp; all the people He came to set free.</p>\n                </li>\n                <li id="wp_tag_cloud" class="widget wp_widget_tag_cloud">\n                  <h3 class="widget-title">Tags</h3>\n                  <div style="overflow:hidden">\n                    <a style="font-size: 10.191304347826pt;" title="11 topics" href="http://andrewejenkins.wordpress.com/tag/adoption/" class="tag-link-19290" shape="rect">adoption</a>\n                    <a style="font-size: 10.55652173913pt;" title="12 topics" href="http://andrewejenkins.wordpress.com/tag/can-we-trust-the-bible/" class="tag-link-13304985" shape="rect">Can we trust the Bible?</a>\n                    <a style="font-size: 11.408695652174pt;" title="14 topics" href="http://andrewejenkins.wordpress.com/tag/change/" class="tag-link-14526" shape="rect">Change</a>\n                    <a style="font-size: 10.55652173913pt;" title="12 topics" href="http://andrewejenkins.wordpress.com/tag/christianity/" class="tag-link-214" shape="rect">Christianity</a>\n                    <a style="font-size: 8.6086956521739pt;" title="8 topics" href="http://andrewejenkins.wordpress.com/tag/divine-healing/" class="tag-link-893225" shape="rect">Divine Healing</a>\n                    <a style="font-size: 11.652173913043pt;" title="15 topics" href="http://andrewejenkins.wordpress.com/tag/does-god-exist/" class="tag-link-598903" shape="rect">Does God exist</a>\n                    <a style="font-size: 9.2173913043478pt;" title="9 topics" href="http://andrewejenkins.wordpress.com/tag/does-hell-exist/" class="tag-link-18679039" shape="rect">Does Hell exist?</a>\n                    <a style="font-size: 9.704347826087pt;" title="10 topics" href="http://andrewejenkins.wordpress.com/tag/dominion/" class="tag-link-184812" shape="rect">Dominion</a>\n                    <a style="font-size: 9.704347826087pt;" title="10 topics" href="http://andrewejenkins.wordpress.com/tag/dominion-and-authority/" class="tag-link-29704391" shape="rect">dominion and authority</a>\n                    <a style="font-size: 13.35652173913pt;" title="21 topics" href="http://andrewejenkins.wordpress.com/tag/doubt/" class="tag-link-234842" shape="rect">Doubt</a>\n                    <a style="font-size: 15.547826086957pt;" title="32 topics" href="http://andrewejenkins.wordpress.com/tag/faith/" class="tag-link-401" shape="rect">faith</a>\n                    <a style="font-size: 10.191304347826pt;" title="11 topics" href="http://andrewejenkins.wordpress.com/tag/fbc-athens/" class="tag-link-107573793" shape="rect">FBC Athens</a>\n                    <a style="font-size: 10.55652173913pt;" title="12 topics" href="http://andrewejenkins.wordpress.com/tag/freedom/" class="tag-link-5648" shape="rect">freedom</a>\n                    <a style="font-size: 9.704347826087pt;" title="10 topics" href="http://andrewejenkins.wordpress.com/tag/god/" class="tag-link-7816" shape="rect">God</a>\n                    <a style="font-size: 22pt;" title="110 topics" href="http://andrewejenkins.wordpress.com/tag/grace/" class="tag-link-18215" shape="rect">Grace</a>\n                    <a style="font-size: 10.191304347826pt;" title="11 topics" href="http://andrewejenkins.wordpress.com/tag/healing/" class="tag-link-12188" shape="rect">Healing</a>\n                    <a style="font-size: 8.6086956521739pt;" title="8 topics" href="http://andrewejenkins.wordpress.com/tag/hell/" class="tag-link-23940" shape="rect">Hell</a>\n                    <a style="font-size: 16.521739130435pt;" title="39 topics" href="http://andrewejenkins.wordpress.com/tag/honor/" class="tag-link-132355" shape="rect">Honor</a>\n                    <a style="font-size: 13.113043478261pt;" title="20 topics" href="http://andrewejenkins.wordpress.com/tag/idols/" class="tag-link-103079" shape="rect">Idols</a>\n                    <a style="font-size: 8.6086956521739pt;" title="8 topics" href="http://andrewejenkins.wordpress.com/tag/is-jesus-the-only-way/" class="tag-link-1173135" shape="rect">Is Jesus the only way</a>\n                    <a style="font-size: 9.704347826087pt;" title="10 topics" href="http://andrewejenkins.wordpress.com/tag/jesus/" class="tag-link-8329" shape="rect">Jesus</a>\n                    <a style="font-size: 11.408695652174pt;" title="14 topics" href="http://andrewejenkins.wordpress.com/tag/jesus-resurrection/" class="tag-link-761348" shape="rect">Jesus\' Resurrection</a>\n                    <a style="font-size: 8pt;" title="7 topics" href="http://andrewejenkins.wordpress.com/tag/law/" class="tag-link-2054" shape="rect">Law</a>\n                    <a style="font-size: 8.6086956521739pt;" title="8 topics" href="http://andrewejenkins.wordpress.com/tag/physical-healing/" class="tag-link-322121" shape="rect">Physical Healing</a>\n                    <a style="font-size: 9.2173913043478pt;" title="9 topics" href="http://andrewejenkins.wordpress.com/tag/pluralism/" class="tag-link-55973" shape="rect">pluralism</a>\n                    <a style="font-size: 8pt;" title="7 topics" href="http://andrewejenkins.wordpress.com/tag/prayer/" class="tag-link-853" shape="rect">Prayer</a>\n                    <a style="font-size: 11.04347826087pt;" title="13 topics" href="http://andrewejenkins.wordpress.com/tag/redemption/" class="tag-link-194461" shape="rect">Redemption</a>\n                    <a style="font-size: 17.739130434783pt;" title="49 topics" href="http://andrewejenkins.wordpress.com/tag/relationships/" class="tag-link-197" shape="rect">Relationships</a>\n                    <a style="font-size: 9.2173913043478pt;" title="9 topics" href="http://andrewejenkins.wordpress.com/tag/relativism/" class="tag-link-42497" shape="rect">relativism</a>\n                    <a style="font-size: 9.704347826087pt;" title="10 topics" href="http://andrewejenkins.wordpress.com/tag/resurrection/" class="tag-link-93648" shape="rect">Resurrection</a>\n                    <a style="font-size: 10.191304347826pt;" title="11 topics" href="http://andrewejenkins.wordpress.com/tag/scripture/" class="tag-link-25731" shape="rect">Scripture</a>\n                    <a style="font-size: 12.017391304348pt;" title="16 topics" href="http://andrewejenkins.wordpress.com/tag/sozo/" class="tag-link-1683232" shape="rect">sozo</a>\n                    <a style="font-size: 12.626086956522pt;" title="18 topics" href="http://andrewejenkins.wordpress.com/tag/spiritual-growth/" class="tag-link-13993" shape="rect">Spiritual growth</a>\n                    <a style="font-size: 16.765217391304pt;" title="41 topics" href="http://andrewejenkins.wordpress.com/tag/spiritual-transformation/" class="tag-link-102646" shape="rect">Spiritual transformation</a>\n                    <a style="font-size: 13.6pt;" title="22 topics" href="http://andrewejenkins.wordpress.com/tag/the-blood/" class="tag-link-254415" shape="rect">The Blood</a>\n                    <a style="font-size: 13.6pt;" title="22 topics" href="http://andrewejenkins.wordpress.com/tag/the-blood-of-jesus/" class="tag-link-1014855" shape="rect">The Blood of Jesus</a>\n                    <a style="font-size: 11.408695652174pt;" title="14 topics" href="http://andrewejenkins.wordpress.com/tag/the-cross/" class="tag-link-6454" shape="rect">The Cross</a>\n                    <a style="font-size: 14.695652173913pt;" title="27 topics" href="http://andrewejenkins.wordpress.com/tag/the-village/" class="tag-link-220319" shape="rect">The Village</a>\n                    <a style="font-size: 11.04347826087pt;" title="13 topics" href="http://andrewejenkins.wordpress.com/tag/time-ministries/" class="tag-link-62434058" shape="rect">TIME Ministries</a>\n                    <a style="font-size: 9.704347826087pt;" title="10 topics" href="http://andrewejenkins.wordpress.com/tag/top-5/" class="tag-link-46772" shape="rect">Top 5</a>\n                    <a style="font-size: 19.2pt;" title="65 topics" href="http://andrewejenkins.wordpress.com/tag/transformation/" class="tag-link-86178" shape="rect">Transformation</a>\n                    <a style="font-size: 11.652173913043pt;" title="15 topics" href="http://andrewejenkins.wordpress.com/tag/uganda/" class="tag-link-4510" shape="rect">Uganda</a>\n                    <a style="font-size: 9.2173913043478pt;" title="9 topics" href="http://andrewejenkins.wordpress.com/tag/who-before-what/" class="tag-link-63062800" shape="rect">Who before What</a>\n                    <a style="font-size: 8.6086956521739pt;" title="8 topics" href="http://andrewejenkins.wordpress.com/tag/who-over-what/" class="tag-link-63063433" shape="rect">Who over what</a>\n                    <a style="font-size: 12.017391304348pt;" title="16 topics" href="http://andrewejenkins.wordpress.com/tag/word/" class="tag-link-162" shape="rect">Word</a>\n                  </div>\n                </li>\n                <li id="categories-3" class="widget widget_categories">\n                  <h3 class="widget-title">Categories</h3>\n                  <ul>\n                    <li class="cat-item cat-item-19393">\n                      <a title="View all posts filed under Apologetics" href="http://andrewejenkins.wordpress.com/category/apologetics/" shape="rect">Apologetics</a>\n                    </li>\n                    <li class="cat-item cat-item-406">\n                      <a title="View all posts filed under Family" href="http://andrewejenkins.wordpress.com/category/family/" shape="rect">Family</a>\n                    </li>\n                    <li class="cat-item cat-item-18215">\n                      <a title="View all posts filed under Grace" href="http://andrewejenkins.wordpress.com/category/grace/" shape="rect">Grace</a>\n                    </li>\n                    <li class="cat-item cat-item-415">\n                      <a title="View all posts filed under Guest post" href="http://andrewejenkins.wordpress.com/category/guest-post/" shape="rect">Guest post</a>\n                    </li>\n                    <li class="cat-item cat-item-1559766">\n                      <a title="View all posts filed under Life plan" href="http://andrewejenkins.wordpress.com/category/life-plan/" shape="rect">Life plan</a>\n                    </li>\n                    <li class="cat-item cat-item-1760812">\n                      <a title="View all posts filed under Ministry opportunity" href="http://andrewejenkins.wordpress.com/category/ministry-opportunity/" shape="rect">Ministry opportunity</a>\n                    </li>\n                    <li class="cat-item cat-item-35223097">\n                      <a title="View all posts filed under Miracles" href="http://andrewejenkins.wordpress.com/category/miracles-2/" shape="rect">Miracles</a>\n                    </li>\n                    <li class="cat-item cat-item-853">\n                      <a title="View all posts filed under Prayer" href="http://andrewejenkins.wordpress.com/category/prayer/" shape="rect">Prayer</a>\n                    </li>\n                    <li class="cat-item cat-item-62265444">\n                      <a title="View all posts filed under Prayer Force United" href="http://andrewejenkins.wordpress.com/category/prayer-force-united/" shape="rect">Prayer Force United</a>\n                    </li>\n                    <li class="cat-item cat-item-197">\n                      <a title="View all posts filed under Relationships" href="http://andrewejenkins.wordpress.com/category/relationships/" shape="rect">Relationships</a>\n                    </li>\n                    <li class="cat-item cat-item-955">\n                      <a title="View all posts filed under Stories" href="http://andrewejenkins.wordpress.com/category/stories/" shape="rect">Stories</a>\n                    </li>\n                    <li class="cat-item cat-item-220319">\n                      <a title="View all posts filed under The Village" href="http://andrewejenkins.wordpress.com/category/the-village/" shape="rect">The Village</a>\n                    </li>\n                    <li class="cat-item cat-item-86178">\n                      <a title="View all posts filed under Transformation" href="http://andrewejenkins.wordpress.com/category/transformation/" shape="rect">Transformation</a>\n                    </li>\n                    <li class="cat-item cat-item-4510">\n                      <a title="View all posts filed under Uganda" href="http://andrewejenkins.wordpress.com/category/uganda/" shape="rect">Uganda</a>\n                    </li>\n                    <li class="cat-item cat-item-1">\n                      <a title="View all posts filed under Uncategorized" href="http://andrewejenkins.wordpress.com/category/uncategorized/" shape="rect">Uncategorized</a>\n                    </li>\n                    <li class="cat-item cat-item-412">\n                      <a title="View all posts filed under Video" href="http://andrewejenkins.wordpress.com/category/video/" shape="rect">Video</a>\n                    </li>\n                  </ul>\n                </li>\n              </ul>\n            </div>\n            <div role="complementary" id="sidebar" class="widget-area">\n              <ul class="xoxo sidebar-list">\n                <li id="recent-posts-3" class="widget widget_recent_entries">\n                  <h3 class="widget-title">Recent Posts</h3>\n                  <ul>\n                    <li>\n                      <a title="Ugandans plan / schedule differently than Americans- or, How Vincent (the bishop over the Ugandan orphanage) ended up in my kitchen" href="http://andrewejenkins.wordpress.com/2012/09/18/2722/" shape="rect">\n                        Ugandans plan / schedule differently than Americans- or, How Vincent (the bishop over the Ugandan orphanage) ended up in my kitchen\n                      </a>\n                    </li>\n                    <li>\n                      <a title="The kids are ready to travel the world! \xc3\x82\xc2\xab J Crew,\xc2\xa0too!" href="http://andrewejenkins.wordpress.com/2012/09/13/the-kids-are-ready-to-travel-the-world-j-crew-too/" shape="rect">The kids are ready to travel the world! \xc3\x82\xc2\xab J Crew,\xc2\xa0too!</a>\n                    </li>\n                    <li>\n                      <a title="Day 10, Saturday- the second half of a long day of flying / the mental drain of social media &amp;\xc2\xa0entertainment" href="http://andrewejenkins.wordpress.com/2012/09/13/day-10-saturday-the-second-half-of-a-long-day-of-flying-the-mental-drain-of-social-media-entertainment/" shape="rect">\n                        Day 10, Saturday- the second half of a long day of flying / the mental drain of social media &amp;\xc2\xa0entertainment\n                      </a>\n                    </li>\n                    <li>\n                      <a title="Day 09, Friday, part 2- more about the shoes, the pastors\xe2\x80\x99 conference, children\xc2\xa0identified" href="http://andrewejenkins.wordpress.com/2012/09/12/day-09-friday-part-2-more-about-the-shoes-the-pastors-conference-children-identified/" shape="rect">\n                        Day 09, Friday, part 2- more about the shoes, the pastors\xe2\x80\x99 conference, children\xc2\xa0identified\n                      </a>\n                    </li>\n                    <li>\n                      <a title="Day 09- Friday / final day- in Kampala- shoes to orphans, identifying children, graduate the pastors,\xc2\xa0etc." href="http://andrewejenkins.wordpress.com/2012/09/11/day-09-friday-final-day-in-kampala-shoes-to-orphans-identifying-children-graduate-the-pastors-etc/" shape="rect">\n                        Day 09- Friday / final day- in Kampala- shoes to orphans, identifying children, graduate the pastors,\xc2\xa0etc.\n                      </a>\n                    </li>\n                  </ul>\n                </li>\n                <li id="recent-comments" class="widget widget_recent_comments">\n                  <h3 class="widget-title">Recent Comments</h3>\n                  <table border="0" cellpadding="0" cellspacing="0" class="recentcommentsavatar">\n                    <tr>\n                      <td style="height:48px; width:48px" title="Rodney Lundy" class="recentcommentsavatartop" rowspan="1" colspan="1">\n                        <img width="48" height="48" src="http://0.gravatar.com/avatar/0fec486003cc5ce5d6ddde53a50a7c20?s=48&amp;d=&amp;r=G" alt="" class="avatar avatar-48"></img>\n                      </td>\n                      <td class="recentcommentstexttop" rowspan="1" colspan="1">\n                        Rodney Lundy on\n                        <a href="http://andrewejenkins.wordpress.com/2011/09/18/be-the-change-you-want-your-kids-to-be/#comment-15386" shape="rect">Be the change you want your ki\xe2\x80\xa6</a>\n                      </td>\n                    </tr>\n                    <tr>\n                      <td style="height:48px; width:48px" title="Rodney Lundy" class="recentcommentsavatarend" rowspan="1" colspan="1">\n                        <img width="48" height="48" src="http://0.gravatar.com/avatar/0fec486003cc5ce5d6ddde53a50a7c20?s=48&amp;d=&amp;r=G" alt="" class="avatar avatar-48"></img>\n                      </td>\n                      <td class="recentcommentstextend" rowspan="1" colspan="1">\n                        Rodney Lundy on\n                        <a href="http://andrewejenkins.wordpress.com/2011/11/03/overcoming-team-hoyt/#comment-15385" shape="rect">Overcoming / Team\xc2\xa0Hoyt</a>\n                      </td>\n                    </tr>\n                    <tr>\n                      <td style="height:48px; width:48px" title="Rodney Lundy" class="recentcommentsavatarend" rowspan="1" colspan="1">\n                        <img width="48" height="48" src="http://0.gravatar.com/avatar/0fec486003cc5ce5d6ddde53a50a7c20?s=48&amp;d=&amp;r=G" alt="" class="avatar avatar-48"></img>\n                      </td>\n                      <td class="recentcommentstextend" rowspan="1" colspan="1">\n                        Rodney Lundy on\n                        <a href="http://andrewejenkins.wordpress.com/2011/10/12/jumping-in-my-own-empty-well-as-opposed-to-swimming-in-the-fountain-of-life/#comment-15384" shape="rect">Jumping in my own empty well a\xe2\x80\xa6</a>\n                      </td>\n                    </tr>\n                    <tr>\n                      <td style="height:48px; width:48px" title="Rodney Lundy" class="recentcommentsavatarend" rowspan="1" colspan="1">\n                        <img width="48" height="48" src="http://0.gravatar.com/avatar/0fec486003cc5ce5d6ddde53a50a7c20?s=48&amp;d=&amp;r=G" alt="" class="avatar avatar-48"></img>\n                      </td>\n                      <td class="recentcommentstextend" rowspan="1" colspan="1">\n                        Rodney Lundy on\n                        <a href="http://andrewejenkins.wordpress.com/2011/10/17/there-is-greatness-in-you-waiting-to-shine-forth/#comment-15383" shape="rect">There is greatness in you wait\xe2\x80\xa6</a>\n                      </td>\n                    </tr>\n                    <tr>\n                      <td style="height:48px; width:48px" title="Rodney Lundy" class="recentcommentsavatarend" rowspan="1" colspan="1">\n                        <img width="48" height="48" src="http://0.gravatar.com/avatar/0fec486003cc5ce5d6ddde53a50a7c20?s=48&amp;d=&amp;r=G" alt="" class="avatar avatar-48"></img>\n                      </td>\n                      <td class="recentcommentstextend" rowspan="1" colspan="1">\n                        Rodney Lundy on\n                        <a href="http://andrewejenkins.wordpress.com/2011/10/19/god-is-still-god-and-god-is-still-good/#comment-15382" shape="rect">God is still God and God is st\xe2\x80\xa6</a>\n                      </td>\n                    </tr>\n                  </table>\n                </li>\n                <li id="top-posts-2" class="widget widget_top-posts">\n                  <h3 class="widget-title">Top Posts &amp; Pages</h3>\n                  <ul>\n                    <li>\n                      <a data-bump-view="tp" href="http://andrewejenkins.wordpress.com/2012/05/30/the-game-of-life-it-goes-back-in-the-box-on-the-shelf-and-we-all-walk-away/" class="bump-view" shape="rect">The Game of Life / It goes back in the box, on the shelf, and we all walk away...</a>\n                    </li>\n                    <li>\n                      <a data-bump-view="tp" href="http://andrewejenkins.wordpress.com/2012/04/10/what-is-evil/" class="bump-view" shape="rect">What is evil?</a>\n                    </li>\n                    <li>\n                      <a data-bump-view="tp" href="http://andrewejenkins.wordpress.com/2012/06/07/demon-tactic-301-tell-them-to-wait/" class="bump-view" shape="rect">Demon tactic #301: &quot;Tell them to wait.&quot;</a>\n                    </li>\n                    <li>\n                      <a data-bump-view="tp" href="http://andrewejenkins.wordpress.com/2011/09/21/god-gives-through-giving-people-aka-generous-people-always-have-more-than-enough/" class="bump-view" shape="rect">God gives through giving people / aka generous people always have more than enough</a>\n                    </li>\n                    <li>\n                      <a data-bump-view="tp" href="http://andrewejenkins.wordpress.com/2012/04/06/youve-got-to-at-least-entertain-the-possibility-that-marvin-the-martian-actually-exists/" class="bump-view" shape="rect">You\'ve got to at least entertain the possibility that Marvin the Martian actually exists : )</a>\n                    </li>\n                    <li>\n                      <a data-bump-view="tp" href="http://andrewejenkins.wordpress.com/2011/09/07/god-honors-his-word-above-his-name-to-honor-god-honor-his-word/" class="bump-view" shape="rect">God honors His Word above His name; to honor God, honor His Word</a>\n                    </li>\n                    <li>\n                      <a data-bump-view="tp" href="http://andrewejenkins.wordpress.com/2011/11/12/youre-part-of-a-bigger-story/" class="bump-view" shape="rect">You\'re part of a bigger story</a>\n                    </li>\n                    <li>\n                      <a data-bump-view="tp" href="http://andrewejenkins.wordpress.com/2011/10/01/a-team-is-a-team-is-not-2-0/" class="bump-view" shape="rect">A team is // a team is not- 2.0</a>\n                    </li>\n                    <li>\n                      <a data-bump-view="tp" href="http://andrewejenkins.wordpress.com/2011/10/26/letting-people-live-rent-free-in-your-mind/" class="bump-view" shape="rect">Letting people live rent-free in your mind...</a>\n                    </li>\n                    <li>\n                      <a data-bump-view="tp" href="http://andrewejenkins.wordpress.com/2011/09/01/you-go-to-god-for-what-you-can-get-for-what-you-gain/" class="bump-view" shape="rect">You go to God for what you can get, for what you gain...</a>\n                    </li>\n                  </ul>\n                </li>\n                <li id="pages-3" class="widget widget_pages">\n                  <h3 class="widget-title">Site map</h3>\n                  <ul>\n                    <li class="page_item page-item-2">\n                      <a href="http://andrewejenkins.wordpress.com/about/" shape="rect">About</a>\n                    </li>\n                    <li class="page_item page-item-220">\n                      <a href="http://andrewejenkins.wordpress.com/birmingham/" shape="rect">Birmingham</a>\n                    </li>\n                    <li class="page_item page-item-2374">\n                      <a href="http://andrewejenkins.wordpress.com/comments-policy/" shape="rect">Comments\xc2\xa0policy</a>\n                    </li>\n                    <li class="page_item page-item-567">\n                      <a href="http://andrewejenkins.wordpress.com/contact-aj/" shape="rect">Contact\xc2\xa0AJ</a>\n                    </li>\n                    <li class="page_item page-item-200">\n                      <a href="http://andrewejenkins.wordpress.com/the-blood-of-jesus/" shape="rect">Identity // The Blood of\xc2\xa0Jesus</a>\n                      <ul class="children">\n                        <li class="page_item page-item-219">\n                          <a href="http://andrewejenkins.wordpress.com/the-blood-of-jesus/audio-the-blood-of-jesus/" shape="rect">Audio</a>\n                        </li>\n                        <li class="page_item page-item-210">\n                          <a href="http://andrewejenkins.wordpress.com/the-blood-of-jesus/study-guide-the-blood-of-jesus/" shape="rect">Study\xc2\xa0Guide</a>\n                        </li>\n                      </ul>\n                    </li>\n                    <li class="page_item page-item-48">\n                      <a href="http://andrewejenkins.wordpress.com/resources-free/" shape="rect">Resources</a>\n                      <ul class="children">\n                        <li class="page_item page-item-54">\n                          <a href="http://andrewejenkins.wordpress.com/resources-free/resources-fee/" shape="rect">Resources:\xc2\xa0Fee</a>\n                          <ul class="children">\n                            <li class="page_item page-item-1538">\n                              <a href="http://andrewejenkins.wordpress.com/resources-free/resources-fee/manuals-etc/" shape="rect">Manuals,\xc2\xa0etc.</a>\n                            </li>\n                          </ul>\n                        </li>\n                        <li class="page_item page-item-52">\n                          <a href="http://andrewejenkins.wordpress.com/resources-free/resources-free/" shape="rect">Resources:\xc2\xa0Free</a>\n                          <ul class="children">\n                            <li class="page_item page-item-320">\n                              <a href="http://andrewejenkins.wordpress.com/resources-free/resources-free/who-is-the-most-important-question-audio/" shape="rect">\xe2\x80\x9cWho?\xe2\x80\x9d is the most important\xc2\xa0question</a>\n                            </li>\n                            <li class="page_item page-item-556">\n                              <a href="http://andrewejenkins.wordpress.com/resources-free/resources-free/baptism/" shape="rect">Baptism</a>\n                            </li>\n                            <li class="page_item page-item-344">\n                              <a href="http://andrewejenkins.wordpress.com/resources-free/resources-free/christianity-101/" shape="rect">Christianity\xc2\xa0101</a>\n                            </li>\n                            <li class="page_item page-item-986">\n                              <a href="http://andrewejenkins.wordpress.com/resources-free/resources-free/conference-notes/" shape="rect">Conference\xc2\xa0Notes</a>\n                              <ul class="children">\n                                <li class="page_item page-item-1026">\n                                  <a href="http://andrewejenkins.wordpress.com/resources-free/resources-free/conference-notes/launch-lead-strong/" shape="rect">Launch / Lead\xc2\xa0Strong</a>\n                                </li>\n                                <li class="page_item page-item-979">\n                                  <a href="http://andrewejenkins.wordpress.com/resources-free/resources-free/conference-notes/open-heavens-conference-2011-notes/" shape="rect">Open Heavens Conference 2011\xc2\xa0(Notes)</a>\n                                </li>\n                              </ul>\n                            </li>\n                            <li class="page_item page-item-966">\n                              <a href="http://andrewejenkins.wordpress.com/resources-free/resources-free/direction-the-job-development-process/" shape="rect">Direction: The Job Development\xc2\xa0Process</a>\n                              <ul class="children">\n                                <li class="page_item page-item-968">\n                                  <a href="http://andrewejenkins.wordpress.com/resources-free/resources-free/direction-the-job-development-process/direction-the-book/" shape="rect">Direction // The\xc2\xa0Book</a>\n                                </li>\n                                <li class="page_item page-item-970">\n                                  <a href="http://andrewejenkins.wordpress.com/resources-free/resources-free/direction-the-job-development-process/direction-the-videos/" shape="rect">Direction // The\xc2\xa0Videos</a>\n                                </li>\n                              </ul>\n                            </li>\n                            <li class="page_item page-item-2309">\n                              <a href="http://andrewejenkins.wordpress.com/resources-free/resources-free/gadsden-ministry-mall/" shape="rect">Gadsden Ministry\xc2\xa0Mall</a>\n                            </li>\n                            <li class="page_item page-item-1819">\n                              <a href="http://andrewejenkins.wordpress.com/resources-free/resources-free/intern-info/" shape="rect">Intern\xc2\xa0info</a>\n                            </li>\n                            <li class="page_item page-item-793">\n                              <a href="http://andrewejenkins.wordpress.com/resources-free/resources-free/park-place-hip-hop-church-in-the-park/" shape="rect">Park Place / Hip Hop Church in the\xc2\xa0Park</a>\n                            </li>\n                            <li class="page_item page-item-2420">\n                              <a href="http://andrewejenkins.wordpress.com/resources-free/resources-free/piedmont-restoration-station/" shape="rect">Piedmont Restoration\xc2\xa0Station</a>\n                            </li>\n                            <li class="page_item page-item-686">\n                              <a href="http://andrewejenkins.wordpress.com/resources-free/resources-free/prayer-ministry-training/" shape="rect">Prayer Ministry\xc2\xa0Training</a>\n                            </li>\n                            <li class="page_item page-item-2225">\n                              <a href="http://andrewejenkins.wordpress.com/resources-free/resources-free/random-messages/" shape="rect">Random\xc2\xa0messages</a>\n                            </li>\n                            <li class="page_item page-item-1056">\n                              <a href="http://andrewejenkins.wordpress.com/resources-free/resources-free/spiritual-authority/" shape="rect">Spiritual\xc2\xa0Authority</a>\n                            </li>\n                            <li class="page_item page-item-2465">\n                              <a href="http://andrewejenkins.wordpress.com/resources-free/resources-free/the-kingdom/" shape="rect">The\xc2\xa0Kingdom</a>\n                            </li>\n                            <li class="page_item page-item-2275">\n                              <a href="http://andrewejenkins.wordpress.com/resources-free/resources-free/the-village-intake-information-orientation/" shape="rect">The Village- intake information /\xc2\xa0orientation</a>\n                            </li>\n                          </ul>\n                        </li>\n                      </ul>\n                    </li>\n                    <li class="page_item page-item-619">\n                      <a href="http://andrewejenkins.wordpress.com/subscribe/" shape="rect">Subscribe</a>\n                    </li>\n                  </ul>\n                </li>\n                <li id="calendar-4" class="widget widget_calendar">\n                  <h3 class="widget-title">\xc2\xa0</h3>\n                  <div id="calendar_wrap">\n                    <table id="wp-calendar">\n                      <caption>June 2012</caption>\n                      <thead>\n                        <tr>\n                          <th title="Sunday" scope="col" rowspan="1" colspan="1">S</th>\n                          <th title="Monday" scope="col" rowspan="1" colspan="1">M</th>\n                          <th title="Tuesday" scope="col" rowspan="1" colspan="1">T</th>\n                          <th title="Wednesday" scope="col" rowspan="1" colspan="1">W</th>\n                          <th title="Thursday" scope="col" rowspan="1" colspan="1">T</th>\n                          <th title="Friday" scope="col" rowspan="1" colspan="1">F</th>\n                          <th title="Saturday" scope="col" rowspan="1" colspan="1">S</th>\n                        </tr>\n                      </thead>\n                      <tfoot>\n                        <tr>\n                          <td id="prev" rowspan="1" colspan="3">\n                            <a title="View posts for May 2012" href="http://andrewejenkins.wordpress.com/2012/05/" shape="rect">\xc2\xab May</a>\n                          </td>\n                          <td class="pad" rowspan="1" colspan="1">\xc2\xa0</td>\n                          <td id="next" rowspan="1" colspan="3">\n                            <a title="View posts for July 2012" href="http://andrewejenkins.wordpress.com/2012/07/" shape="rect">Jul \xc2\xbb</a>\n                          </td>\n                        </tr>\n                      </tfoot>\n                      <tbody>\n                        <tr>\n                          <td class="pad" rowspan="1" colspan="5">\xc2\xa0</td>\n                          <td rowspan="1" colspan="1">\n                            <a title="A miss is a\xc2\xa0miss Happy birthday, Cristy. Here are 36 of the things I love about\xc2\xa0you\xe2\x80\xa6" href="http://andrewejenkins.wordpress.com/2012/06/01/" shape="rect">1</a>\n                          </td>\n                          <td rowspan="1" colspan="1">\n                            <a title="Why believe in Hell? Should we believe in\xc2\xa0Hell?" href="http://andrewejenkins.wordpress.com/2012/06/02/" shape="rect">2</a>\n                          </td>\n                        </tr>\n                        <tr>\n                          <td rowspan="1" colspan="1">\n                            <a title="Jeffrey Dahmer, justice, and Hell to\xc2\xa0pay" href="http://andrewejenkins.wordpress.com/2012/06/03/" shape="rect">3</a>\n                          </td>\n                          <td rowspan="1" colspan="1">\n                            <a title="Why are people afraid of\xc2\xa0Hell?" href="http://andrewejenkins.wordpress.com/2012/06/04/" shape="rect">4</a>\n                          </td>\n                          <td rowspan="1" colspan="1">\n                            <a title="Hell\xe2\x80\x99s not fair? What about people who never\xc2\xa0hear?" href="http://andrewejenkins.wordpress.com/2012/06/05/" shape="rect">5</a>\n                          </td>\n                          <td rowspan="1" colspan="1">\n                            <a title="We don\xe2\x80\x99t reach to Him / He reaches to\xc2\xa0us" href="http://andrewejenkins.wordpress.com/2012/06/06/" shape="rect">6</a>\n                          </td>\n                          <td rowspan="1" colspan="1">\n                            <a title="Demon tactic #301: \xe2\x80\x9cTell them to\xc2\xa0wait.\xe2\x80\x9d" href="http://andrewejenkins.wordpress.com/2012/06/07/" shape="rect">7</a>\n                          </td>\n                          <td rowspan="1" colspan="1">\n                            <a title="The Bible may be the best truth we are\xc2\xa0ignoring" href="http://andrewejenkins.wordpress.com/2012/06/08/" shape="rect">8</a>\n                          </td>\n                          <td rowspan="1" colspan="1">\n                            <a title="What\xe2\x80\x99s the Bible\xc2\xa0about?" href="http://andrewejenkins.wordpress.com/2012/06/09/" shape="rect">9</a>\n                          </td>\n                        </tr>\n                        <tr>\n                          <td rowspan="1" colspan="1">\n                            <a title="The Bible: chunk it and chunk the rest of ancient history with\xc2\xa0it" href="http://andrewejenkins.wordpress.com/2012/06/10/" shape="rect">10</a>\n                          </td>\n                          <td rowspan="1" colspan="1">\n                            <a title="Why we get more certain of the Bible\xe2\x80\x99s message with each \xe2\x80\x9ccorrupt\xe2\x80\x9d version we\xc2\xa0find\xe2\x80\xa6" href="http://andrewejenkins.wordpress.com/2012/06/11/" shape="rect">11</a>\n                          </td>\n                          <td rowspan="1" colspan="1">12</td>\n                          <td rowspan="1" colspan="1">13</td>\n                          <td rowspan="1" colspan="1">\n                            <a title="The new (old) house- formerly white w/ hot pink\xc2\xa0trim" href="http://andrewejenkins.wordpress.com/2012/06/14/" shape="rect">14</a>\n                          </td>\n                          <td rowspan="1" colspan="1">15</td>\n                          <td rowspan="1" colspan="1">16</td>\n                        </tr>\n                        <tr>\n                          <td rowspan="1" colspan="1">17</td>\n                          <td rowspan="1" colspan="1">18</td>\n                          <td rowspan="1" colspan="1">19</td>\n                          <td rowspan="1" colspan="1">20</td>\n                          <td rowspan="1" colspan="1">21</td>\n                          <td rowspan="1" colspan="1">22</td>\n                          <td rowspan="1" colspan="1">23</td>\n                        </tr>\n                        <tr>\n                          <td rowspan="1" colspan="1">24</td>\n                          <td rowspan="1" colspan="1">25</td>\n                          <td rowspan="1" colspan="1">26</td>\n                          <td rowspan="1" colspan="1">27</td>\n                          <td rowspan="1" colspan="1">28</td>\n                          <td rowspan="1" colspan="1">29</td>\n                          <td rowspan="1" colspan="1">\n                            <a title="The Bible is full of self-damaging material\xe2\x80\xa6 which helps show us that it\xe2\x80\x99s all true :\xc2\xa0)" href="http://andrewejenkins.wordpress.com/2012/06/30/" shape="rect">30</a>\n                          </td>\n                        </tr>\n                      </tbody>\n                    </table>\n                  </div>\n                </li>\n                <li id="archives-3" class="widget widget_archive">\n                  <h3 class="widget-title">Archives</h3>\n                  <select onchange="document.location.href=this.options[this.selectedIndex].value;" name="archive-dropdown">\n                    <option value="">Select Month</option>\n                    <option value="http://andrewejenkins.wordpress.com/2012/09/"> September 2012 \xc2\xa0(14)</option>\n                    <option value="http://andrewejenkins.wordpress.com/2012/08/"> August 2012 \xc2\xa0(17)</option>\n                    <option value="http://andrewejenkins.wordpress.com/2012/07/"> July 2012 \xc2\xa0(23)</option>\n                    <option value="http://andrewejenkins.wordpress.com/2012/06/"> June 2012 \xc2\xa0(14)</option>\n                    <option value="http://andrewejenkins.wordpress.com/2012/05/"> May 2012 \xc2\xa0(29)</option>\n                    <option value="http://andrewejenkins.wordpress.com/2012/04/"> April 2012 \xc2\xa0(31)</option>\n                    <option value="http://andrewejenkins.wordpress.com/2012/03/"> March 2012 \xc2\xa0(36)</option>\n                    <option value="http://andrewejenkins.wordpress.com/2012/02/"> February 2012 \xc2\xa0(30)</option>\n                    <option value="http://andrewejenkins.wordpress.com/2012/01/"> January 2012 \xc2\xa0(14)</option>\n                    <option value="http://andrewejenkins.wordpress.com/2011/12/"> December 2011 \xc2\xa0(1)</option>\n                    <option value="http://andrewejenkins.wordpress.com/2011/11/"> November 2011 \xc2\xa0(22)</option>\n                    <option value="http://andrewejenkins.wordpress.com/2011/10/"> October 2011 \xc2\xa0(27)</option>\n                    <option value="http://andrewejenkins.wordpress.com/2011/09/"> September 2011 \xc2\xa0(42)</option>\n                    <option value="http://andrewejenkins.wordpress.com/2011/08/"> August 2011 \xc2\xa0(32)</option>\n                  </select>\n                </li>\n              </ul>\n            </div>\n            <div role="complementary" id="secondary-sidebar" class="widget-area">\n              <ul class="xoxo sidebar-list">\n                <li id="blog_subscription-3" class="widget widget_blog_subscription">\n                  <h3 class="widget-title">\n                    <label for="subscribe-field">Email Subscription</label>\n                  </h3>\n                  <form accept-charset="utf-8" action="https://subscribe.wordpress.com" id="subscribe-blog" method="post" enctype="application/x-www-form-urlencoded">\n                    <p>Enter your email address to subscribe to this blog and receive notifications of new posts by email.</p>\n                    <p>Join 322 other followers</p>\n                    <p>\n                      <input value="" style="width: 95%; padding: 1px 2px" name="email" id="subscribe-field" type="text"></input>\n                    </p>\n                    <p>\n                      <input value="subscribe" name="action" type="hidden"></input>\n                      <input value="25871388" name="blog_id" type="hidden"></input>\n                      <input value="http://andrewejenkins.wordpress.com/2012/06/08/the-bible-may-be-the-best-truth-we-are-ignoring/" name="source" type="hidden"></input>\n                      <input value="widget" name="sub-type" type="hidden"></input>\n                      <input value="blog_subscription-3" name="redirect_fragment" type="hidden"></input>\n                      <input value="f4d0b1a483" name="_wpnonce" id="_wpnonce" type="hidden"></input>\n                      <input value="Sign me up!" type="submit"></input>\n                    </p>\n                  </form>\n                </li>\n                <li id="search-3" class="widget widget_search">\n                  <h3 class="widget-title">Search</h3>\n                  <form action="http://andrewejenkins.wordpress.com/" role="search" id="searchform" method="get" enctype="application/x-www-form-urlencoded">\n                    <div>\n                      <label class="screen-reader-text" for="s">Search for:</label>\n                      <input name="s" value="" id="s" type="text"></input>\n                      <input value="Search" id="searchsubmit" type="submit"></input>\n                    </div>\n                  </form>\n                </li>\n                <li id="twitter-3" class="widget widget_twitter">\n                  <h3 class="widget-title">\n                    <a href="http://twitter.com/AndrewEJenkins" shape="rect">Recently Tweeted</a>\n                  </h3>\n                  <ul class="tweets">\n                    <li>\n                      Irony- Must have ID to prove u are US citizen 2 work a job BUT no ID needed 2 vote 4 US Pres????\n                      <a href="http://www.huffingtonpost.com/mobileweb/2012/10/02/pennsylvania-voter-id-ruling_n_1919187.html?ncid=edlinkusaolp00000003" shape="rect"> huffingtonpost.com/mobileweb/2012\xc3\xa2\xe2\x82\xac\xc5\xa0</a>\n                      <a href="http://twitter.com/AndrewEJenkins/statuses/253245111620759552" class="timesince" shape="rect">1\xc2\xa0day\xc2\xa0ago</a>\n                    </li>\n                    <li>\n                      It makes no sense that &quot;no purchase is necessary&quot; in order to make a purchase :-)\n                      <a href="http://instagr.am/p/QKdA-aDvi4/" shape="rect"> instagr.am/p/QKdA-aDvi4/</a>\n                      <a href="http://twitter.com/AndrewEJenkins/statuses/252059088064765952" class="timesince" shape="rect">4\xc2\xa0days\xc2\xa0ago</a>\n                    </li>\n                    <li>\n                      It makes no sense that &quot;no purchase is necessary&quot; in order to make a purchase :-)\n                      <a href="http://instagr.am/p/QKc0J4Dvit/" shape="rect"> instagr.am/p/QKc0J4Dvit/</a>\n                      <a href="http://twitter.com/AndrewEJenkins/statuses/252058670274338816" class="timesince" shape="rect">4\xc2\xa0days\xc2\xa0ago</a>\n                    </li>\n                    <li>\n                      The idea of Saturday morning sleep-in is a wasted idea on small kids. Why sleep away time you could make noise, play up a mess, etc!?\xc3\x82\xc2\xbf\n                      <a href="http://twitter.com/AndrewEJenkins/statuses/252032243197935616" class="timesince" shape="rect">4\xc2\xa0days\xc2\xa0ago</a>\n                    </li>\n                    <li>\n                      So much for separation of church / state.\n                      <a rel="nofollow" href="http://t.co/XUInQaBi" shape="rect">http://t.co/XUInQaBi</a>\n                      <a href="http://twitter.com/AndrewEJenkins/statuses/251808564803411968" class="timesince" shape="rect">5\xc2\xa0days\xc2\xa0ago</a>\n                    </li>\n                  </ul>\n                  <a data-text-color="#333333" data-link-color="#1c9bdc" data-show-count="false" href="http://twitter.com/AndrewEJenkins" class="twitter-follow-button" shape="rect">Follow @AndrewEJenkins</a>\n                </li>\n                <li id="linkcat-2200" class="widget widget_links">\n                  <h3 class="widget-title">Links</h3>\n                  <ul class="xoxo blogroll">\n                    <li>\n                      <a title="Ministry in downtown Birmingham, seeking to love and serve the city." href="http://WelcomeToTheVillage.net" shape="rect">The Village</a>\n                    </li>\n                  </ul>\n                </li>\n                <li id="facebook-likebox-3" class="widget widget_facebook_likebox">\n                  <h3 class="widget-title">\n                    <a href="http://www.facebook.com/pages/The-Village/204195646310635" shape="rect">The Village on FaceBook</a>\n                  </h3>\n                  <iframe \n                  style="border: none; overflow: hidden; width: 150px;  height: 432px; background: #fff" src="http://www.facebook.com/plugins/likebox.php?href=http%3A%2F%2Fwww.facebook.com%2Fpages%2FThe-Village%2F204195646310635&amp;width=150&amp;height=432&amp;colorscheme=light&amp;show_faces=true&amp;stream=false&amp;header=false&amp;force_wall=false" scrolling="no" frameborder="0">\n</iframe>\n                </li>\n              </ul>\n            </div>\n          </div>\n        </div>\n        <div role="contentinfo" id="footer">\n          <div id="colophon">\n            <div role="complementary" id="footer-widget-area">\n              <div id="first" class="widget-area">\n                <ul class="xoxo sidebar-list">\n                  <li id="blog_subscription-4" class="widget widget_blog_subscription">\n                    <h3 class="widget-title">\n                      <label for="subscribe-field">Email Subscription</label>\n                    </h3>\n                    <form accept-charset="utf-8" action="https://subscribe.wordpress.com" id="subscribe-blog-2" method="post" enctype="application/x-www-form-urlencoded">\n                      <p>Enter your email address to subscribe to this blog and receive notifications of new posts by email.</p>\n                      <p>Join 322 other followers</p>\n                      <p>\n                        <input value="" style="width: 95%; padding: 1px 2px" name="email" id="subscribe-field-2" type="text"></input>\n                      </p>\n                      <p>\n                        <input value="subscribe" name="action" type="hidden"></input>\n                        <input value="25871388" name="blog_id" type="hidden"></input>\n                        <input value="http://andrewejenkins.wordpress.com/2012/06/08/the-bible-may-be-the-best-truth-we-are-ignoring/" name="source" type="hidden"></input>\n                        <input value="widget" name="sub-type" type="hidden"></input>\n                        <input value="blog_subscription-4" name="redirect_fragment" type="hidden"></input>\n                        <input value="f4d0b1a483" name="_wpnonce" id="_wpnonce" type="hidden"></input>\n                        <input value="Sign me up!" type="submit"></input>\n                      </p>\n                    </form>\n                  </li>\n                </ul>\n              </div>\n            </div>\n            <div id="site-info">\n              <a rel="home" title="Be The Change" href="http://andrewejenkins.wordpress.com/" shape="rect">Be The Change</a>\n              \xc2\xb7 Grace is always the right response\n            </div>\n            <div id="site-generator">\n              <a rel="generator" href="http://wordpress.com/?ref=footer" shape="rect">Blog at WordPress.com</a>\n              . \xc2\xb7 Theme:\n              <a title="Learn more about this theme" href="http://theme.wordpress.com/themes/pilcrow/" shape="rect">Pilcrow</a>\n              by\n              <a rel="designer" href="http://automattic.com/" shape="rect">Automattic</a>\n              .\n            </div>\n          </div>\n        </div>\n      </div>\n    </div>\n    <script type="text/javascript">\n      var _qevents = _qevents || [], wpcomQuantcastData = {&quot;qacct&quot;:&quot;p-18-mFEk4J448M&quot;,&quot;labels&quot;:&quot;,language.en,type.wpcom,posttag.books-of-the-bible,posttag.can-we-trust-the-bible,posttag.john-lennon,posttag.nature-of-truth,posttag.objectivity-philosophy,posttag.richard-abanes,posttag.ted-turner,posttag.the-bible,posttag.vatican-library,as&quot;};\nfunction wpcomQuantcastPixel( labels, options ) {\n\tvar i, defaults = wpcomQuantcastData, data = { event: \'ajax\' };\n\n\tlabels  = labels  || \'\';\n\toptions = options || {};\n\n\tif ( typeof labels != \'string\' )\n\t\toptions = labels;\n\n\tfor ( i in defaults ) {\n\t\tdata[i] = defaults[i];\n\t}\n\n\tfor ( i in options ) {\n\t\tdata[i] = options[i];\n\t}\n\n\tif ( data.labels ) {\n\t\tdata.labels += \',\' + labels;\n\t} else {\n\t\tdata.labels = labels;\n\t}\n\n\t_qevents.push( data );\n};\n(function() {var elem = document.createElement(\'script\');elem.src = (document.location.protocol == &quot;https:&quot; ? &quot;https://secure&quot; : &quot;http://edge&quot;) + &quot;.quantserve.com/quant.js&quot;;elem.async = true;elem.type = &quot;text/javascript&quot;;var scpt = document.getElementsByTagName(\'script\')[0];scpt.parentNode.insertBefore(elem, scpt);  })();\n_qevents.push( wpcomQuantcastData );\n    </script>\n    <noscript>\n      <div style="display: none;">\n        <img \n        alt="" width="1" height="1" src="//pixel.quantserve.com/pixel/p-18-mFEk4J448M.gif?labels=%2Clanguage.en%2Ctype.wpcom%2Cposttag.books-of-the-bible%2Cposttag.can-we-trust-the-bible%2Cposttag.john-lennon%2Cposttag.nature-of-truth%2Cposttag.objectivity-philosophy%2Cposttag.richard-abanes%2Cposttag.ted-turner%2Cposttag.the-bible%2Cposttag.vatican-library%2Cas">\n</img>\n      </div>\n    </noscript>\n    <script type="text/javascript">\n      /* &lt;![CDATA[ */\n\t(function($){\n\t\t$(document).on( \'ready post-load\', function() {\n\n\t\t\t// Remove the login box when clicking the page\n\t\t\t$( document ).mousedown( function( e ) {\n\t\t\t\tif ( null == $( e.target ).closest( \'#wpl-mustlogin\' ).get( 0 ) ) {\n\t\t\t\t\t$( \'#wpl-mustlogin\' ).remove();\n\t\t\t\t}\n\t\t\t});\n\n\t\t\t// Handle clicking the like button itself\n\t\t\t$(\'.wpl-button &gt; a.like\').click( function(e) {\n\t\t\t\te.preventDefault();\n\n\t\t\t\tvar postid = $(this).parent().attr(\'id\').split(\'like-\')[1];\n\t\t\t\t$.post( \'http://andrewejenkins.wordpress.com/wp-admin/admin-ajax.php\', {\n\t\t\t\t\t\'action\': \'wpl_record_stat\',\n\t\t\t\t\t\'stat_name\': \'loggedout_like_click\'\n\t\t\t\t} );\n\n\t\t\t\tvar tenMins = new Date();\n\t\t\t\ttenMins.setTime( tenMins.getTime() + 600000 );\n\t\t\t\tdocument.cookie = \'wpl_rand=0ee89b7786; expires=\' + tenMins.toGMTString() + \'; domain=wordpress.com; path=/;\';\n\n\t\t\t\t$(this).parent().siblings(\'.wpl-count\').after( \'\\\n\t\t\t\t\t&lt;div id=&quot;wpl-mustlogin&quot;&gt; \\\n\t\t\t\t\t\t&lt;form action=&quot;https://andrewejenkins.wordpress.com/wp-login.php&quot; method=&quot;post&quot;&gt; \\\n\t\t\t\t\t\t\t&lt;p&gt;Just one more step to like this:&lt;/p&gt; \\\n\t\t\t\t\t\t\t&lt;label&gt;&lt;span&gt;Username&lt;/span&gt; &lt;input type=&quot;text&quot; name=&quot;log&quot; id=&quot;user_login&quot; class=&quot;input&quot; value=&quot;&quot; size=&quot;20&quot; tabindex=&quot;80&quot; /&gt;&lt;/label&gt; \\\n\t\t\t\t\t\t\t&lt;label&gt;&lt;span&gt;Password&lt;/span&gt; &lt;input type=&quot;password&quot; name=&quot;pwd&quot; id=&quot;user_pass&quot; class=&quot;input&quot; value=&quot;&quot; size=&quot;20&quot; tabindex=&quot;81&quot; /&gt;&lt;/label&gt; \\\n\t\t\t\t\t\t\t&lt;input type=&quot;submit&quot; name=&quot;wp-submit&quot; id=&quot;wp-submit&quot; class=&quot;button-primary&quot; value=&quot;Log In&quot; tabindex=&quot;82&quot; /&gt; \\\n\t\t\t\t\t\t\t&lt;input type=&quot;hidden&quot; name=&quot;postid&quot; value=&quot;\' + postid + \'&quot; /&gt; \\\n\t\t\t\t\t\t\t&lt;input type=&quot;hidden&quot; name=&quot;redirect_to&quot; value=&quot;http://andrewejenkins.wordpress.com/2012/06/08/the-bible-may-be-the-best-truth-we-are-ignoring?year=2012&amp;#038;monthnum=06&amp;#038;day=08&amp;#038;name=the-bible-may-be-the-best-truth-we-are-ignoring&amp;#038;like=1&quot; /&gt; \\\n\t\t\t\t\t\t\t&lt;input type=&quot;hidden&quot; name=&quot;wpl_rand&quot; value=&quot;0ee89b7786&quot; /&gt; \\\n\t\t\t\t\t\t\t&lt;p&gt;Not a member yet? &lt;a href=&quot;http://wordpress.com/signup/?ref=likebox&quot; id=&quot;wpl-signup-link&quot;&gt;Sign up with WordPress.com&lt;/a&gt;&lt;/p&gt; \\\n\t\t\t\t\t\t&lt;/form&gt; \\\n\t\t\t\t\t&lt;/div&gt; \\\n\t\t\t\t\');\n\n\t\t\t\t$(\'#wpl-mustlogin\').hide().slideDown(\'fast\');\n\t\t\t} );\n\n\t\t\t$(\'#wpl-mustlogin input.input\').live( \'focus\', function() {\n\t\t\t\t$(this).prev().hide();\n\t\t\t}).live( \'blur\', function() {\n\t\t\t\tif ( $(this).val() == \'\' ) {\n\t\t\t\t\t$(this).prev().show();\n\t\t\t\t}\n\t\t\t});\n\n\t\t\t$(\'#wpl-mustlogin input#wp-submit\').live( \'click\', function(e) {\n\t\t\t\te.preventDefault();\n\n\t\t\t\t$.post( \'http://andrewejenkins.wordpress.com/wp-admin/admin-ajax.php\', {\n\t\t\t\t\t\'action\': \'wpl_record_stat\',\n\t\t\t\t\t\'stat_name\': \'loggedout_login_submit\'\n\t\t\t\t}, function() {\n\t\t\t\t\t$(\'#wpl-mustlogin form\').submit();\n\t\t\t\t} );\n\t\t\t});\n\n\t\t\t$(\'#wpl-mustlogin a#wpl-signup-link\').live( \'click\', function(e) {\n\t\t\t\te.preventDefault();\n\n\t\t\t\tvar link = $(this).attr(\'href\');\n\n\t\t\t\t$.post( \'http://andrewejenkins.wordpress.com/wp-admin/admin-ajax.php\', {\n\t\t\t\t\t\'action\': \'wpl_record_stat\',\n\t\t\t\t\t\'stat_name\': \'loggedout_signup_click\'\n\t\t\t\t}, function() {\n\t\t\t\t\tlocation.href = link;\n\t\t\t\t} );\n\t\t\t});\n\t\t})\n\t})(jQuery);\n\t/* ]]&gt; */\n    </script>\n    <script src="http://s.gravatar.com/js/gprofiles.js?ver=201240ab" type="text/javascript"></script>\n    <script type="text/javascript"> /* &lt;![CDATA[ */ var WPGroHo = {&quot;my_hash&quot;:&quot;&quot;}; /* ]]&gt; */ </script>\n    <script src="http://s1.wp.com/wp-content/mu-plugins/gravatar-hovercards/wpgroho.js?m=1318621548g" type="text/javascript"></script>\n    <script>jQuery(document).ready(function($){ Gravatar.profile_cb = function( h, d ) { WPGroHo.syncProfileData( h, d ); }; Gravatar.my_hash = WPGroHo.my_hash; Gravatar.init( \'body\', \'#wp-admin-bar-my-account\' ); });</script>\n    <div style="display:none">\n      <div class="grofile-hash-map-9dfce69af3c7825d8a8a4da3cd2efe10"> </div>\n      <div class="grofile-hash-map-6c936b78d39c414e5a5adb5eaaf048ea"> </div>\n      <div class="grofile-hash-map-0eabb8980b44932130929d66f80edf09"> </div>\n      <div class="grofile-hash-map-948d9a25c440cb05fb70afcb87109ccc"> </div>\n      <div class="grofile-hash-map-2890b46b1e2acbe661a08aa9f6c2c1b9"> </div>\n      <div class="grofile-hash-map-01742660161c2a6b22529756fa89bcce"> </div>\n      <div class="grofile-hash-map-00b0916ab1de304b769272259d8cc267"> </div>\n      <div class="grofile-hash-map-9653b68ba1635bd1a9429e90ac71473c"> </div>\n      <div class="grofile-hash-map-8fef155452f816dc9646e0b08ae9ad62"> </div>\n      <div class="grofile-hash-map-36828e78ec15596fb25b7058a411f2aa"> </div>\n      <div class="grofile-hash-map-a158e892665921da554ed6afaac06d04"> </div>\n      <div class="grofile-hash-map-fb74be8378f66c6a42d0750241dac9e3"> </div>\n      <div class="grofile-hash-map-e52aec4d8429c983be7b7732dee44451"> </div>\n      <div class="grofile-hash-map-90a6ad3ed61214eb5ce448a2b61ae8e8"> </div>\n      <div class="grofile-hash-map-7257a205766b4ad0ffea6554ea3be875"> </div>\n      <div class="grofile-hash-map-4848c3fb0227e3b65983b9d025b254e1"> </div>\n      <div class="grofile-hash-map-f443220f63f3c20ca88a22dadcdb8d1b"> </div>\n      <div class="grofile-hash-map-62bf686769402e00e2bf8bfe5bd9ac8b"> </div>\n      <div class="grofile-hash-map-376813ea9b2ec4350bf3cf156678e6c0"> </div>\n      <div class="grofile-hash-map-bfcc5029cde88cfe9d6ff0881bdc40f3"> </div>\n      <div class="grofile-hash-map-bf5a9b9373d7322fb69599f2561177ae"> </div>\n      <div class="grofile-hash-map-eadb532b7e8a89c0c6703606977566d8"> </div>\n      <div class="grofile-hash-map-41aae72f674963cc8542583012cbd934"> </div>\n      <div class="grofile-hash-map-6909eacd8bd740de803f1dabfac34cf9"> </div>\n      <div class="grofile-hash-map-b07b85286563d85be873d8a1970b0565"> </div>\n      <div class="grofile-hash-map-dd2ed97bc8ede04524edf387540e26da"> </div>\n      <div class="grofile-hash-map-fb35ffbbbf404f2c280745aec1fefc16"> </div>\n      <div class="grofile-hash-map-3426635632082cf99676f427c36e816a"> </div>\n      <div class="grofile-hash-map-0fec486003cc5ce5d6ddde53a50a7c20"> </div>\n    </div>\n    <script type="text/javascript">\n      /* &lt;![CDATA[ */\nvar HighlanderComments = {&quot;loggingInText&quot;:&quot;Logging In\\u2026&quot;,&quot;submittingText&quot;:&quot;Posting Comment\\u2026&quot;,&quot;postCommentText&quot;:&quot;Post Comment&quot;,&quot;connectingToText&quot;:&quot;Connecting to %s&quot;,&quot;commentingAsText&quot;:&quot;%1$s: You are commenting using your %2$s account.&quot;,&quot;logoutText&quot;:&quot;Log Out&quot;,&quot;loginText&quot;:&quot;Log In&quot;,&quot;connectURL&quot;:&quot;http:\\/\\/andrewejenkins.wordpress.com\\/public.api\\/connect\\/?action=request&quot;,&quot;logoutURL&quot;:&quot;http:\\/\\/andrewejenkins.wordpress.com\\/wp-login.php?action=logout&amp;_wpnonce=bc897eac24&quot;,&quot;homeURL&quot;:&quot;http:\\/\\/andrewejenkins.wordpress.com\\/&quot;,&quot;postID&quot;:&quot;2082&quot;,&quot;gravDefault&quot;:&quot;gravatar_default&quot;,&quot;enterACommentError&quot;:&quot;Please enter a comment&quot;,&quot;enterEmailError&quot;:&quot;Please enter your email address here&quot;,&quot;invalidEmailError&quot;:&quot;Invalid email address&quot;,&quot;enterAuthorError&quot;:&quot;Please enter your name here&quot;,&quot;gravatarFromEmail&quot;:&quot;This picture will show whenever you leave a comment. Click to customize it.&quot;,&quot;logInToExternalAccount&quot;:&quot;Log in to use details from one of these accounts.&quot;,&quot;change&quot;:&quot;Change&quot;,&quot;changeAccount&quot;:&quot;Change Account&quot;,&quot;comment_registration&quot;:&quot;&quot;,&quot;userIsLoggedIn&quot;:&quot;&quot;,&quot;isJetpack&quot;:&quot;0&quot;};\n/* ]]&gt; */\n    </script>\n    <script src="http://s0.wp.com/wp-content/mu-plugins/highlander-comments/script.js?m=1342824083g" type="text/javascript"></script>\n    <script type="text/javascript"> WPCOM_sharing_counts = {&quot;http:\\/\\/andrewejenkins.wordpress.com\\/2012\\/06\\/08\\/the-bible-may-be-the-best-truth-we-are-ignoring\\/&quot;:2082} </script>\n    <script src="http://s0.wp.com/wp-content/mu-plugins/post-flair/sharing/sharing.js?m=1345189394g" type="text/javascript"></script>\n    <script charset="utf-8" type="text/javascript"> jQuery(document).ready(function(){ jQuery( \'.share-facebook\' ).click(function(){ window.open( jQuery(this).attr( \'href\' ), \'wpcomfacebook\', \'menubar=1,resizable=1,width=600,height=400\' ); return false; }); }); </script>\n    <script charset="utf-8" type="text/javascript"> jQuery(document).ready(function(){ jQuery( \'.share-twitter\' ).click(function(){ window.open( jQuery(this).attr( \'href\' ), \'wpcomtwitter\', \'menubar=1,resizable=1,width=600,height=350\' ); return false; }); }); </script>\n    <script charset="utf-8" type="text/javascript"> jQuery(document).ready(function(){ jQuery( \'.share-linkedin\' ).click(function(){ window.open( jQuery(this).attr( \'href\' ), \'wpcomlinkedin\', \'menubar=1,resizable=1,width=580,height=450\' ); return false; }); }); </script>\n    <div style="display: none;" id="sharing_email">\n      <form action="" method="post" enctype="application/x-www-form-urlencoded">\n        <label for="target_email">Send to Email Address</label>\n        <input value="" name="target_email" id="target_email" type="text"></input>\n        <label for="source_name">Your Name</label>\n        <input value="" name="source_name" id="source_name" type="text"></input>\n        <label for="source_email">Your Email Address</label>\n        <input value="" name="source_email" id="source_email" type="text"></input>\n        <div id="sharing_recaptcha" class="recaptcha"></div>\n        <input value="6LcYW8MSAAAAADBAuEH9yaPcF7lWh11Iq62ZKtoo" name="recaptcha_public_key" id="recaptcha_public_key" type="hidden"></input>\n        <img height="16" width="16" alt="loading" src="http://s2.wp.com/wp-content/mu-plugins/post-flair/sharing/images/loading.gif?m=1315610318g" style="float: right; display: none" class="loading"></img>\n        <input value="Send Email" class="sharing_send" type="submit"></input>\n        <a href="#cancel" class="sharing_cancel" shape="rect">Cancel</a>\n        <div style="display: none;" class="errors errors-1"> Post was not sent - check your email addresses! </div>\n        <div style="display: none;" class="errors errors-2"> Email check failed, please try again </div>\n        <div style="display: none;" class="errors errors-3"> Sorry, your blog cannot share posts by email. </div>\n      </form>\n    </div>\n    <script charset="utf-8" type="text/javascript"> jQuery(document).ready(function(){ jQuery( \'.share-pinterest\' ).click(function(){ window.open( jQuery(this).attr( \'href\' ), \'wpcompinterest\', \'menubar=1,resizable=1,width=650,height=280\' ); return false; }); }); </script>\n    <script src="http://platform.twitter.com/widgets.js?ver=20111117" type="text/javascript"></script>\n    <script src="http://b.scorecardresearch.com/beacon.js" type="text/javascript"></script>\n    <script type="text/javascript">try{COMSCORE.beacon({c1:2,c2:7518284});}catch(e){}</script>\n    <noscript>\n      <p class="robots-nocontent">\n        <img height="1" width="1" style="display:none" alt="" src="http://b.scorecardresearch.com/p?cj=1c1=2&amp;c2=7518284"></img>\n      </p>\n    </noscript>\n    <script src="http://s1.wp.com/wp-content/js/devicepx.js?m=1349105731g" type="text/javascript"></script>\n    <script type="text/javascript">\n      // &lt;![CDATA[\n(function() {\ntry{\n  if ( window.external &amp;&amp;\'msIsSiteMode\' in window.external) {\n    if (window.external.msIsSiteMode()) {\n      var jl = document.createElement(\'script\');\n      jl.type=\'text/javascript\';\n      jl.async=true;\n      jl.src=\'/wp-content/plugins/ie-sitemode/custom-jumplist.php\';\n      var s = document.getElementsByTagName(\'script\')[0];\n      s.parentNode.insertBefore(jl, s);\n    }\n  }\n}catch(e){}\n})();\n// ]]&gt;\n    </script>\n    <script type="text/javascript" src="http://s.stats.wordpress.com/w.js?21"></script>\n    <script type="text/javascript">\n      st_go({\'blog\':\'25871388\',\'v\':\'wpcom\',\'user_id\':\'0\',\'post\':\'2082\',\'subd\':\'andrewejenkins\'});\nex_go({\'crypt\':\'UE5XaGUuOTlwaD85flAmcm1mcmZsaDhkV11YdWtpP0NsWnVkPS9sL0ViLndld3AlSGN8YmRCSmtFZXBsP1AmZll8alhkcDJ5TUNCdixQQjRFUVA4en5ELVFRcWZPN1RCN05XcTBMXWZXJm5VcFFpYXx3RzZpeS9yT01Hd0VFdGNUakVZfHRiVEQxWFZmWWFJc1hILlN8ZFFqYk5QMDduLkp8TFNdUHJsazRnRXhHLVhfeTNFYTNFTEh0XVV3QmNkW0JmW0hiekgwdjV+WTcvTzNyWUNxWFtkSi00b2IvSGUwVX5rWlJtaXpbNCs0VzhZLzB2VF9PNGxIbWtVXUpQbTI9Rm1NLGg5NzdGczBOQ0ZMSF9mblhKMGk2TElbc3B0QnxHS0VURFFZQT9OanlLLTA1QzNBZ2suRyZ0RCw0Rn4=\'});\naddLoadEvent(function(){linktracker_init(\'25871388\',2082);});\n    </script>\n    <noscript>\n      <img alt="" style="height:0px;width:0px;overflow:hidden" src="http://stats.wordpress.com/b.gif?v=noscript"></img>\n    </noscript>\n  </body>\n</html>'
p11
sbsS'mentions'
p12
(lp13
(iedu.umass.cs.iesl.wikilink.expanded.data.ttypes
Mention
p14
(dp15
S'anchor_text'
p16
S'the nature of Truth'
p17
sS'context'
p18
(iedu.umass.cs.iesl.wikilink.expanded.data.ttypes
Context
p19
(dp20
S'middle'
p21
S'the nature of Truth'
p22
sS'right'
p23
S'. Truth exists outside ourselves, and it helps to have that standard (i.e. like the first umpire) whereby we can understand the world around us.'
p24
sS'left'
p25
S'our own realities on our own rules and terms. This is dangerous territory. For, remember, feelings and instincts and even good intuitions do not change'
p26
sbsS'freebase_id'
p27
S'9202a8c04000641f80000000006796e4'
p28
sS'raw_text_offset'
p29
I19819
sS'wiki_url'
p30
S'http://en.wikipedia.org/wiki/The_Nature_of_Truth'
p31
sba(iedu.umass.cs.iesl.wikilink.expanded.data.ttypes
Mention
p32
(dp33
g16
S'Bible'
p34
sg18
(iedu.umass.cs.iesl.wikilink.expanded.data.ttypes
Context
p35
(dp36
g21
S'Bible'
p37
sg23
S'claims to present truth\xc3\xa2\xe2\x82\xac\xe2\x80\x9c objective truth\xc3\xa2\xe2\x82\xac\xe2\x80\x9c unchanging, uncompromising truth. And, what is strange is that, even in our world that is sliding into the perspective'
p38
sg25
S'suggested he was O.K. The point, though, is that, like him, we need a gauge of truth, a barometer or thermometer\xe2\x80\xa6 Amidst this situation, the'
p39
sbsg27
S'9202a8c04000641f8000000000009607'
p40
sg29
I20731
sg30
S'http://en.wikipedia.org/wiki/Bible'
p41
sba(iedu.umass.cs.iesl.wikilink.expanded.data.ttypes
Mention
p42
(dp43
g16
S'Ted Turner'
p44
sg18
(iedu.umass.cs.iesl.wikilink.expanded.data.ttypes
Context
p45
(dp46
g21
S'Ted Turner'
p47
sg23
S'has released an edition of Scripture: \xc3\xa2\xe2\x82\xac\xcb\x9ca gilt-edged, 17-pound, $395 version of the Holy Bible [NRSV]\xe2\x80\xa6 Printed in Italy on six- colored presses and sparkling'
p48
sg25
S'surprisingly, Bible printing and distribution has become a lucrative industry, with a growing number of publishers and private entrepreneurs entering the business. Even media magnate'
p49
sbsg27
S'9202a8c04000641f800000000003be2c'
p50
sg29
I21709
sg30
S'http://en.wikipedia.org/wiki/Ted_Turner'
p51
sba(iedu.umass.cs.iesl.wikilink.expanded.data.ttypes
Mention
p52
(dp53
g16
S'World Series'
p54
sg18
(iedu.umass.cs.iesl.wikilink.expanded.data.ttypes
Context
p55
(dp56
g21
S'World Series'
p57
sg23
S'. People claim Jesus is the greatest Teacher to have ever lived, but who can actually quote\xc3\xa2\xe2\x82\xac\xe2\x80\x9c or even misquote\xc3\xa2\xe2\x82\xac\xe2\x80\x9c anything that Jesus actually said?'
p58
sg25
S'anything from it. People cannot name four or five books of the Bible, but they could give you four or five names from this year\xc3\xa2\xe2\x82\xac\xe2\x84\xa2s'
p59
sbsg27
S'9202a8c04000641f800000000006c2a3'
p60
sg29
I22787
sg30
S'http://en.wikipedia.org/wiki/World_Series'
p61
sba(iedu.umass.cs.iesl.wikilink.expanded.data.ttypes
Mention
p62
(dp63
g16
S'John the Baptist'
p64
sg18
(iedu.umass.cs.iesl.wikilink.expanded.data.ttypes
Context
p65
(dp66
g21
S'John the Baptist'
p67
sg23
S'? What about that of John Lennon? You get the point\xe2\x80\xa6 About these ads Share this: Facebook Twitter LinkedIn Email Print Pinterest Like this: Like'
p68
sg25
S'you give me the names of the twelve disciples? I bet you can give me those of the Seven Dwarfs\xe2\x80\xa6 What\xc3\xa2\xe2\x82\xac\xe2\x84\xa2s the greatest achievement of'
p69
sbsg27
S'9202a8c04000641f8000000000020e7c'
p70
sg29
I23287
sg30
S'http://en.wikipedia.org/wiki/John_the_Baptist'
p71
sbasS'doc_id'
p72
I24816
sS'rare_words'
p73
(lp74
(iedu.umass.cs.iesl.wikilink.expanded.data.ttypes
RareWord
p75
(dp76
S'word'
p77
S'distribution'
p78
sS'offset'
p79
I21440
sba(iedu.umass.cs.iesl.wikilink.expanded.data.ttypes
RareWord
p80
(dp81
g77
S'territory'
p82
sg79
I19594
sba(iedu.umass.cs.iesl.wikilink.expanded.data.ttypes
RareWord
p83
(dp84
g77
S'Seven'
p85
sg79
I23079
sba(iedu.umass.cs.iesl.wikilink.expanded.data.ttypes
RareWord
p86
(dp87
g77
S'But'
p88
sg79
I22085
sba(iedu.umass.cs.iesl.wikilink.expanded.data.ttypes
RareWord
p89
(dp90
g77
S'ignoring'
p91
sg79
I17670
sba(iedu.umass.cs.iesl.wikilink.expanded.data.ttypes
RareWord
p92
(dp93
g77
S'keenly'
p94
sg79
I20113
sba(iedu.umass.cs.iesl.wikilink.expanded.data.ttypes
RareWord
p95
(dp96
g77
S'nothing'
p97
sg79
I18709
sba(iedu.umass.cs.iesl.wikilink.expanded.data.ttypes
RareWord
p98
(dp99
g77
S'around'
p100
sg79
I19976
sba(iedu.umass.cs.iesl.wikilink.expanded.data.ttypes
RareWord
p101
(dp102
g77
S'looked'
p103
sg79
I20057
sba(iedu.umass.cs.iesl.wikilink.expanded.data.ttypes
RareWord
p104
(dp105
g77
S'lessons'
p106
sg79
I20035
sbasb.