(iedu.umass.cs.iesl.wikilink.expanded.data.ttypes
WikiLinkItem
p0
(dp1
S'url'
p2
S'http://24ways.org/authors/ianlloyd'
p3
sS'content'
p4
(iedu.umass.cs.iesl.wikilink.expanded.data.ttypes
PageContentItem
p5
(dp6
S'articleText'
p7
NsS'raw'
p8
NsS'fullText'
p9
NsS'dom'
p10
S'<html lang="en">\n  <head>\n    <meta charset="utf-8"></meta>\n    <title>24 ways: Ian Lloyd</title>\n    <link href="/css/2011.css" rel="stylesheet"></link>\n    <link href="http://feeds.feedburner.com/24ways" title="rss" type="application/rss+xml" rel="alternate"></link>\n    <meta content="width=device-width, target-densitydpi=160dpi, initial-scale=1.0" name="viewport"></meta>\n  </head>\n  <body class="author">\n    <p id="jump">\n      <a href="#content" shape="rect">Jump to content</a>\n    </p>\n    <div id="year">\n      <h3>Year</h3>\n      <ul>\n        <li class="pre pre1">1998</li>\n        <li class="pre pre2">1999</li>\n        <li class="pre pre3">2000</li>\n        <li class="pre pre4">2001</li>\n        <li class="pre pre5">2002</li>\n        <li class="pre pre6">2003</li>\n        <li class="pre pre7">2004</li>\n        <li>\n          <a href="/2005" shape="rect">2005</a>\n        </li>\n        <li>\n          <a href="/2006" shape="rect">2006</a>\n        </li>\n        <li>\n          <a href="/2007" shape="rect">2007</a>\n        </li>\n        <li>\n          <a href="/2008" shape="rect">2008</a>\n        </li>\n        <li>\n          <a href="/2009" shape="rect">2009</a>\n        </li>\n        <li>\n          <a href="/2010" shape="rect">2010</a>\n        </li>\n        <li>\n          <a href="/2011" shape="rect">2011</a>\n        </li>\n        <li>2012</li>\n        <li>2013</li>\n        <li>2014</li>\n        <li>2015</li>\n        <li>2016</li>\n        <li>2017</li>\n        <li>2018</li>\n        <li>2019</li>\n        <li>2020</li>\n        <li>2021</li>\n      </ul>\n    </div>\n    <div id="day">\n      <h3>Day</h3>\n      <ul>\n        <li>24</li>\n        <li>23</li>\n        <li>22</li>\n        <li>21</li>\n        <li>20</li>\n        <li>19</li>\n        <li>18</li>\n        <li>17</li>\n        <li>16</li>\n        <li>15</li>\n        <li>14</li>\n        <li>13</li>\n        <li>12</li>\n        <li>11</li>\n        <li>10</li>\n        <li>09</li>\n        <li>08</li>\n        <li>07</li>\n        <li>06</li>\n        <li>05</li>\n        <li>04</li>\n        <li>03</li>\n        <li>02</li>\n        <li>01</li>\n      </ul>\n    </div>\n    <div id="wrap">\n      <h1>\n        <a href="/" shape="rect">\n          24 Ways\n          <em>to impress your friends</em>\n        </a>\n      </h1>\n      <ul id="navigation">\n        <li id="nav-home">\n          <a href="/" shape="rect">Home</a>\n        </li>\n        <li id="nav-archives">\n          <a href="/2010" shape="rect">Archives</a>\n        </li>\n        <li id="nav-authors">\n          <a href="/authors" shape="rect">Authors</a>\n        </li>\n        <li id="nav-rss">\n          <a href="http://feeds.feedburner.com/24ways" shape="rect">RSS</a>\n        </li>\n        <li id="nav-twitter">\n          <a href="http://twitter.com/24ways" shape="rect">Twitter</a>\n        </li>\n        <li id="search">\n          <form action="/search" method="get" enctype="application/x-www-form-urlencoded">\n            <div>\n              <input value="Search\xe2\x80\xa6" name="q" class="text switcheroo" type="text"></input>\n              <input value="Go" class="submit" type="submit"></input>\n              <input value="search" name="s" type="hidden"></input>\n            </div>\n          </form>\n        </li>\n      </ul>\n      <div id="content" class="vcard">\n        <p id="allauthors">\n          <a href="/authors" shape="rect">\xe2\x86\x90 See all authors</a>\n        </p>\n        <h2>\n          <a href="" shape="rect">Ian Lloyd</a>\n        </h2>\n        <p id="authorpicture">\n          <img alt="Ian Lloyd" height="280" width="280" src="http://cloud.24ways.org/authors/ianlloyd280.jpg" class="photo"></img>\n        </p>\n        <div id="aboutauthor">\n          <p>\n            <strong class="fn">Ian Lloyd</strong>\n            founded\n            <a title="Accessify Web site" href="http://www.accessify.com" class="url" shape="rect">Accessify.com</a>\n            , a web accessibility site, back in 2002 and has been a\n            <a rel="me" href="http://www.webstandards.org/about/members/lloydi/" class="url" shape="rect">member of the Web Standards Project</a>\n            since 2003, where he is part of the Accessibility Task Force. He has written or co-authored a number of books on the topic of standards-based web design/development, most recently co-authoring on\n            <a href="http://www.amazon.com/exec/obidos/ASIN/159059732X/httpbeginncom-20/104-0301049-0956745" shape="rect">Pro CSS</a>\n            for Apress. He lives in Swindon, UK, a place best known for its \'\n            <a title="The Magic Roundabout on Wikipedia" href="http://en.wikipedia.org/wiki/Magic_Roundabout_%28Swindon%29" shape="rect">Magic Roundabout</a>\n            \' and Doctor Who\'s Billie Piper. (It\'s not all bad, though.)\n          </p>\n        </div>\n        <div id="authorarticles">\n          <h3>Articles by Ian Lloyd</h3>\n          <ul>\n            <li>\n              <h4>\n                <strong>\n                  13\n                  <em>12/2006</em>\n                </strong>\n                <a href="/2006/revealing-relationships-can-be-good-form" shape="rect">Revealing Relationships Can Be Good Form</a>\n              </h4>\n              <p>\n                <a href="http://accessify.com/" shape="rect">Ian Lloyd</a>\n                labels up and ships out a tip for improving the usability of form labels. Whilst checking the labels on the gifts under your tree, why not take some time out to check the labels on your forms and see where it might be appropriate to add some extra touches.\n              </p>\n            </li>\n            <li>\n              <h4>\n                <strong>\n                  3\n                  <em>12/2005</em>\n                </strong>\n                <a href="/2005/improving-form-accessibility-with-dom-scripting" shape="rect">Improving Form Accessibility with DOM Scripting</a>\n              </h4>\n              <p>\n                <a href="http://accessify.com/" shape="rect">Ian Lloyd</a>\n                looks at how\n                <span class="caps">DOM</span>\n                Scripting can help out with an uncomfortable accessibility issue. Form field labels can be tricky to implement in some cases, but with a little ingenuity Ian demonstrates how a balance can be struck.\n              </p>\n            </li>\n          </ul>\n        </div>\n      </div>\n      <ul id="footer">\n        <li>\n          <strong>24 ways</strong>\n          is an\n          <a href="http://edgeofmyseat.com/" shape="rect">edgeofmyseat.com</a>\n          production.\n        </li>\n        <li>\n          Edited by\n          <a href="http://allinthehead.com/" shape="rect">Drew McLellan</a>\n          and\n          <a href="http://suda.co.uk/" shape="rect">Brian Suda</a>\n          .\n        </li>\n        <li>\n          Assisted by\n          <a href="http://maban.co.uk/" shape="rect">Anna Debenham</a>\n          and\n          <a href="http://fullcreammilk.co.uk/" shape="rect">Owen Gregory</a>\n          .\n        </li>\n        <li>\n          Design delivered by\n          <a href="http://madebyelephant.com/" shape="rect">Made by Elephant</a>\n          .\n        </li>\n        <li>\n          Possible only with the help of\n          <a href="/authors" shape="rect">our dazzling authors</a>\n          .\n        </li>\n        <li>\n          Hosting by\n          <a href="http://www.memset.com/" shape="rect">Memset</a>\n          <a href="http://www.memset.com/dedicated-servers/" shape="rect">Dedicated Servers</a>\n        </li>\n        <li>\n          Grab our\n          <a href="http://feeds.feedburner.com/24ways" shape="rect">RSS feed</a>\n          .\n        </li>\n        <li>\n          Follow us on\n          <a href="http://twitter.com/24ways" shape="rect">Twitter</a>\n          ,\n          <a href="http://www.facebook.com/24ways" shape="rect">Facebook</a>\n          or\n          <a href="https://plus.google.com/110576672451915837895" shape="rect">Google+</a>\n          .\n        </li>\n      </ul>\n      <ul id="unnecessary">\n        <li id="top"></li>\n        <li id="right"></li>\n        <li id="bottom"></li>\n        <li id="left"></li>\n      </ul>\n    </div>\n    <script type="text/javascript" src="http://ajax.googleapis.com/ajax/libs/jquery/1.4.4/jquery.min.js"></script>\n    <script type="text/javascript" src="http://cloud.24ways.org/js/all.js"></script>\n    <script type="text/javascript" src="http://stats.24ways.org/mint/?js"></script>\n  </body>\n</html>'
p11
sbsS'mentions'
p12
(lp13
(iedu.umass.cs.iesl.wikilink.expanded.data.ttypes
Mention
p14
(dp15
S'anchor_text'
p16
S'Magic Roundabout'
p17
sS'context'
p18
(iedu.umass.cs.iesl.wikilink.expanded.data.ttypes
Context
p19
(dp20
S'middle'
p21
S'Magic Roundabout'
p22
sS'right'
p23
S"' and Doctor Who's Billie Piper. (It's not all bad, though.) Articles by Ian Lloyd 13 12/2006 Revealing Relationships Can Be Good Form Ian Lloyd"
p24
sS'left'
p25
S"topic of standards-based web design/development, most recently co-authoring on Pro CSS for Apress. He lives in Swindon, UK, a place best known for its '"
p26
sbsS'freebase_id'
p27
S'9202a8c04000641f8000000000398ef2'
p28
sS'raw_text_offset'
p29
I3961
sS'wiki_url'
p30
S'http://en.wikipedia.org/wiki/Magic_Roundabout_(Swindon)'
p31
sbasS'doc_id'
p32
I3058
sS'rare_words'
p33
(lp34
(iedu.umass.cs.iesl.wikilink.expanded.data.ttypes
RareWord
p35
(dp36
S'word'
p37
S'tree'
p38
sS'offset'
p39
I4498
sba(iedu.umass.cs.iesl.wikilink.expanded.data.ttypes
RareWord
p40
(dp41
g37
S'tip'
p42
sg39
I4399
sba(iedu.umass.cs.iesl.wikilink.expanded.data.ttypes
RareWord
p43
(dp44
g37
S'lives'
p45
sg39
I3799
sba(iedu.umass.cs.iesl.wikilink.expanded.data.ttypes
RareWord
p46
(dp47
g37
S'number'
p48
sg39
I3573
sba(iedu.umass.cs.iesl.wikilink.expanded.data.ttypes
RareWord
p49
(dp50
g37
S'improving'
p51
sg39
I4407
sba(iedu.umass.cs.iesl.wikilink.expanded.data.ttypes
RareWord
p52
(dp53
g37
S'Form'
p54
sg39
I4969
sba(iedu.umass.cs.iesl.wikilink.expanded.data.ttypes
RareWord
p55
(dp56
g37
S"It's"
p57
sg39
I4015
sba(iedu.umass.cs.iesl.wikilink.expanded.data.ttypes
RareWord
p58
(dp59
g37
S'but'
p60
sg39
I5029
sba(iedu.umass.cs.iesl.wikilink.expanded.data.ttypes
RareWord
p61
(dp62
g37
S'part'
p63
sg39
I3503
sba(iedu.umass.cs.iesl.wikilink.expanded.data.ttypes
RareWord
p64
(dp65
g37
S'design'
p66
sg39
I3625
sbasb.