(iedu.umass.cs.iesl.wikilink.expanded.data.ttypes
WikiLinkItem
p0
(dp1
S'url'
p2
S'http://blog.tomw.net.au/2010/11/proposed-f-35d-long-range-variant.html'
p3
sS'content'
p4
(iedu.umass.cs.iesl.wikilink.expanded.data.ttypes
PageContentItem
p5
(dp6
S'articleText'
p7
NsS'raw'
p8
NsS'fullText'
p9
NsS'dom'
p10
S'<html lang="en">\n  <head>\n    <meta content="text/html; charset=UTF-8" http-equiv="Content-Type"></meta>\n    <title>Net Traveller: Proposed F-35D Long Range Variant</title>\n    <link type="text/css" href="http://www.tomw.net.au/blog/standard.css" rel="stylesheet"></link>\n    <link type="text/css" media="print" href="http://www.tomw.net.au/blog/print.css" rel="stylesheet"></link>\n    <meta content="rErzLyZicqzWePN_tBlf1nQOeOapP0rDKUsqXAzYVtk" name="google-site-verification"></meta>\n    <style type="text/css">@import url(http://www.blogger.com/static/v1/v-css/navbar/3334278262-classic.css); div.b-mobile {display:none;} </style>\n  </head>\n  <body>\n    <div id="header">\n      <a href="http://www.tomw.net.au/" shape="rect">\n        <img src="http://www.tomw.net.au/admin/tomwtn1b.gif" title="Tom Worthington" alt="Tom Worthington"></img>\n      </a>\n      <h1 id="blog-title">\n        <a href="http://blog.tomw.net.au/" shape="rect">Net Traveller</a>\n      </h1>\n      <p>\n        by\n        <a href="http://www.tomw.net.au/twbrbio.html" rel="author" shape="rect">Tom Worthington</a>\n      </p>\n    </div>\n    <div id="content">\n      <div id="sideBar">\n        <div id="sidebar2">\n          <h2 class="sidebar-title">See</h2>\n          <ul>\n            <li>\n              <a href="http://blog.tomw.net.au/" shape="rect">Latest posting</a>\n            </li>\n            <li>\n              <a href="http://www.tomw.net.au/admin/search.shtml" shape="rect">Search</a>\n            </li>\n            <li>\n              <a href="http://feeds.feedburner.com/NetTraveller" shape="rect">News Feed</a>\n            </li>\n            <li>\n              <a href="http://www.tomw.net.au/" shape="rect">Home</a>\n            </li>\n          </ul>\n          <h2 class="sidebar-title">Posts</h2>\n          <ul id="recently">\n            <li>\n              <a href="http://blog.tomw.net.au/2010/11/nbn-business-case-summary.html" shape="rect">NBN Business Case Summary</a>\n            </li>\n            <li>\n              <a href="http://blog.tomw.net.au/2010/11/open-access-courseware-at-anu.html" shape="rect">Open Access at ANU</a>\n            </li>\n            <li>\n              <a href="http://blog.tomw.net.au/2010/11/australian-public-service-transitioning.html" shape="rect">Australian Public Service Transitioning to Creativ...</a>\n            </li>\n            <li>\n              <a href="http://blog.tomw.net.au/2010/11/electronic-records-management-needed.html" shape="rect">Electronic Records Management Needed for ABC Pool</a>\n            </li>\n            <li>\n              <a href="http://blog.tomw.net.au/2010/11/wordpress-plugin-for-museum-content.html" shape="rect">Wordpress plugin for museum content</a>\n            </li>\n            <li>\n              <a href="http://blog.tomw.net.au/2010/11/sydney-android-rangers.html" shape="rect">Sydney Android Rangers</a>\n            </li>\n            <li>\n              <a href="http://blog.tomw.net.au/2010/11/hansard-in-e-book-format.html" shape="rect">Hansard in e-Book Format</a>\n            </li>\n            <li>\n              <a href="http://blog.tomw.net.au/2010/11/creative-commons-from-parliament-house.html" shape="rect">Creative Commons from Parliament House</a>\n            </li>\n            <li>\n              <a href="http://blog.tomw.net.au/2010/11/femtocells-for-wireless-broadband.html" shape="rect">Femtocells for Wireless Broadband</a>\n            </li>\n            <li>\n              <a href="http://blog.tomw.net.au/2010/11/e-government-for-developing-nations.html" shape="rect">e-Government for Developing Nations</a>\n            </li>\n          </ul>\n          <p id="powered-by">\n            <a href="http://www.blogger.com" shape="rect">\n              <img alt="Powered by Blogger" src="http://buttons.blogger.com/bloggerbutton1.gif"></img>\n            </a>\n          </p>\n        </div>\n      </div>\n      <div id="main">\n        <div id="main2">\n          <h2 class="date-header">Sunday, November 28, 2010</h2>\n          <div class="post">\n            <a id="cc4482500426827003299" shape="rect"></a>\n            <h3 class="post-title"> Proposed F-35D Long Range Variant </h3>\n            <div class="post-body">\n              <div>\n                <div style="clear:both;"></div>\n                <a href="http://www.flickr.com/photos/28428885@N05/5213252636/" shape="rect">\n                  <img border="0" alt="Proposed F-35D Long Range Variant" src="http://farm6.static.flickr.com/5289/5213252636_0b71194168_m.jpg" style="float: right; margin: 0pt 0pt 10px 10px; cursor: pointer; width: 194px; height: 240px;"></img>\n                </a>\n                The Australian Government\n                <a href="http://en.wikipedia.org/wiki/Lockheed_Martin_F-35_Lightning_II_procurement#Australia" shape="rect">selected</a>\n                the\n                <a href="http://en.wikipedia.org/wiki/Lockheed_Martin_F-35_Lightning_II" shape="rect">Lockheed Martin F-35 Lightning II</a>\n                single-seat, single-engine stealth multirole fighter to replace the\n                <a href="http://en.wikipedia.org/wiki/F111#Australia" shape="rect">F-111C</a>\n                and\n                <a href="http://en.wikipedia.org/wiki/F/A-18_Hornet" shape="rect">F/A-18 Hornet</a>\n                . While a capable aircraft, the F-35 does not have the range of the F-111C. This will be made up for, to some extent, by the use of in flight refuelling, but a larger aircraft would be desirable. It would be feasible to produce a twin-seat, twin-engine,  long range derivative of the F-35.\n                <br clear="none"></br>\n                <br clear="none"></br>\n                The F-35 &quot;Joint Strike Fighter&quot; was planned in three variants: F-35A  conventional takeoff and landing (CTOL), F-35B short takeoff and vertical landing (STOVL) and F-35C carrier aircraft. A fourth variant was added in 2010, the F-35I for Israel, derived from the F-35A.\n                <br clear="none"></br>\n                <br clear="none"></br>\n                It would be feasible to add a fifth variant, the F-35D, derived from the F-35C, which has larger wings and tail control surfaces than the F-35A and B. The proposed\n                <span style="font-weight: bold;">F-35D Long Range Variant</span>\n                would differ from the F-35C by having a larger fuselage and wings, twin engines and a crew of two. The range of the F-35D would be three times that of the F-35C with the same weapons payload.\n                <br clear="none"></br>\n                <br clear="none"></br>\n                The F-35D development would be relatively rapid, low cost and low risk, compared to a completely new design.  The F-35D would follow the approach taken with the successful development of the\n                <a href="http://en.wikipedia.org/wiki/Boeing_F/A-18E/F_Super_Hornet" shape="rect">F/A-18E/F Super Hornet</a>\n                from the\n                <a title="F/A-18 Hornet" href="http://en.wikipedia.org/wiki/F/A-18_Hornet" class="mw-redirect" shape="rect">F/A-18C/D Hornet</a>\n                . More commonality with the existing aircraft would be possible than was the case in development of the F/A-18E. The sensors, computers and other electronic components of the F-35 could be used unchanged. Some components of the F-35 would be duplicated for the F-35D, such as the engines and cockpit instruments. Other components would be scaled up, such as the landing gear and the fuselage.\n                <br clear="none"></br>\n                <br clear="none"></br>\n                The Australian air-force requires only 24 long range aircraft to replace the F-111C and development of the F-35D could not be justified for this small production run. However, the US Air Force is investigating options for a\n                <a href="http://en.wikipedia.org/wiki/Next-Generation_Bomber" shape="rect">Next-Generation Bomber</a>\n                . The F-35D would meet the requirements for such a medium bomber. It would have advantages in commonality of training and maintenance with the F-35.\n                <br clear="none"></br>\n                <br clear="none"></br>\n                In 2006 the Australian Department of Defence\n                <a href="http://www.tomw.net.au/technology/it/jsf/index.shtml" shape="rect">invited participation by Australian researchers in the F-35 project</a>\n                . One area for research could be for the Australian government to fund a small study into the feasibility of the F-35D and see if this sparked interest by the US Government.\n                <div style="clear:both; padding-bottom:0.25em"></div>\n                <p class="blogger-labels">\n                  Labels:\n                  <a href="http://blog.tomw.net.au/search/label/Australian%20Defence%20Force" rel="tag" shape="rect">Australian Defence Force</a>\n                  ,\n                  <a href="http://blog.tomw.net.au/search/label/defence" rel="tag" shape="rect">defence</a>\n                  ,\n                  <a href="http://blog.tomw.net.au/search/label/defence%20technology" rel="tag" shape="rect">defence technology</a>\n                  ,\n                  <a href="http://blog.tomw.net.au/search/label/f-35" rel="tag" shape="rect">f-35</a>\n                  ,\n                  <a href="http://blog.tomw.net.au/search/label/F-35D" rel="tag" shape="rect">F-35D</a>\n                  ,\n                  <a href="http://blog.tomw.net.au/search/label/F%2FA-18F%20Super%20Hornet" rel="tag" shape="rect">F/A-18F Super Hornet</a>\n                </p>\n              </div>\n            </div>\n            <p class="post-footer">\n              <em>\n                posted by Tom Worthington at\n                <a title="permanent link" href="http://blog.tomw.net.au/2010/11/proposed-f-35d-long-range-variant.html" shape="rect">10:21 AM</a>\n              </em>\n            </p>\n          </div>\n          <div id="comments2">\n            <h4>2 Comments:</h4>\n            <div class="comments-block">\n              <p id="cc351790197015692912" class="comment-poster">\n                <a id="c351790197015692912" shape="rect"></a>\n                <span style="line-height:16px" class="comment-icon blogger-comment-icon">\n                  <img style="display:inline;" alt="Blogger" src="http://img2.blogblog.com/img/b16-rounded.gif"></img>\n                </span>\n                \xc2\xa0\n                <a rel="nofollow" href="http://www.blogger.com/profile/16050374538817900860" shape="rect">Hugh</a>\n                said...\n              </p>\n              <div class="comment-body">\n                <p>\n                  I seem to remember people asking at the time of the Super Hornet purchase why we didn\'t go for the F-15E, which is a twin seat, twin engine, long range strike aircraft that replaced the F-111 in the USAF. Ah well.\n                  <br clear="none"></br>\n                  <br clear="none"></br>\n                  Not sure about the twin engine. A second seat, stretched fuselage, and extra fuel tanks were all added to the single-engine F-16 fairly easily, but a second engine is a major redesign.\n                </p>\n                <p class="comment-timestamp">\n                  <a title="comment permalink" href="#351790197015692912" shape="rect">December 01, 2010 10:43 AM</a>\n                </p>\n              </div>\n              <p id="cc6959709573818860522" class="comment-poster">\n                <a id="c6959709573818860522" shape="rect"></a>\n                <span style="line-height:16px" class="comment-icon blogger-comment-icon">\n                  <img style="display:inline;" alt="Blogger" src="http://img2.blogblog.com/img/b16-rounded.gif"></img>\n                </span>\n                \xc2\xa0\n                <a rel="nofollow" href="http://www.blogger.com/profile/18437898895608697334" shape="rect">Tom Worthington</a>\n                said...\n              </p>\n              <div class="comment-body">\n                <p>\n                  <a rel="nofollow" href="http://www.wired.com/dangerroom/2010/12/lockheed-cross-breeding-raptors-joint-strike-fighters/" shape="rect">Media reports</a>\n                  indicate that Lockheed is considering adding computers and other electronics from the F-35 to the F-22 Raptor fighter, to keep it up to date.\n                  <br clear="none"></br>\n                  <br clear="none"></br>\n                  But installing electronics in an aircraft can be difficult and expensive. It might be quicker, simpler and cheaper to build a\n                  <a rel="nofollow" href="http://blog.tomw.net.au/2010/11/proposed-f-35d-long-range-variant.html" shape="rect">twin engine version of the F-35</a>\n                  to replace the F-22.\n                  <br clear="none"></br>\n                  <br clear="none"></br>\n                  Many defence projects have failed due to the complexity of software. In contrast building a larger airframe is relatively simple engineering.\n                </p>\n                <p class="comment-timestamp">\n                  <a title="comment permalink" href="#6959709573818860522" shape="rect">December 16, 2010 8:42 AM</a>\n                </p>\n              </div>\n            </div>\n            <p class="comment-timestamp">\n              <a href="http://www.blogger.com/comment.g?blogID=16502818&amp;postID=4482500426827003299" shape="rect">Post a Comment</a>\n            </p>\n          </div>\n        </div>\n      </div>\n    </div>\n    <div class="advertisment">\n      <br clear="none"></br>\n      <script type="text/javascript">\n        &lt;!--\ngoogle_ad_client = &quot;pub-0383037795937695&quot;;\ngoogle_ad_host = &quot;pub-1556223355139109&quot;;\ngoogle_ad_host_channel=&quot;00000&quot;;\ngoogle_alternate_ad_url = \n\n&quot;http://www.tomw.net.au/ads/google_adsense_script.html&quot;;\ngoogle_ad_width = 160;\ngoogle_ad_height = 600;\ngoogle_ad_format = &quot;160x600_as&quot;;\ngoogle_ad_type = &quot;text&quot;;\n//2006-11-28: After Az\ngoogle_ad_channel = &quot;1696327470&quot;;\ngoogle_color_border = &quot;B0B0B0&quot;;\ngoogle_color_bg = &quot;FFFFFF&quot;;\ngoogle_color_link = &quot;000000&quot;;\ngoogle_color_text = &quot;000000&quot;;\ngoogle_color_url = &quot;111EAB&quot;;\n//--&gt;\n      </script>\n      <script src="http://pagead2.googlesyndication.com/pagead/show_ads.js" type="text/javascript"> </script>\n      <script type="text/javascript"> try { var pageTracker = _gat._getTracker(&quot;UA-8891227-1&quot;); pageTracker._trackPageview(); } catch(err) {}</script>\n    </div>\n  </body>\n</html>'
p11
sbsS'mentions'
p12
(lp13
(iedu.umass.cs.iesl.wikilink.expanded.data.ttypes
Mention
p14
(dp15
S'anchor_text'
p16
S'Lockheed Martin F-35 Lightning II'
p17
sS'context'
p18
(iedu.umass.cs.iesl.wikilink.expanded.data.ttypes
Context
p19
(dp20
S'middle'
p21
S'Lockheed Martin F-35 Lightning II'
p22
sS'right'
p23
S'single-seat, single-engine stealth multirole fighter to replace the F-111C and F/A-18 Hornet . While a capable aircraft, the F-35 does not have the range of'
p24
sS'left'
p25
S'from Parliament House Femtocells for Wireless Broadband e-Government for Developing Nations Sunday, November 28, 2010 Proposed F-35D Long Range Variant The Australian Government selected the'
p26
sbsS'freebase_id'
p27
S'9202a8c04000641f8000000000018fbe'
p28
sS'raw_text_offset'
p29
I5270
sS'wiki_url'
p30
S'http://en.wikipedia.org/wiki/Lockheed_Martin_F-35_Lightning_II'
p31
sba(iedu.umass.cs.iesl.wikilink.expanded.data.ttypes
Mention
p32
(dp33
g16
S'F/A-18 Hornet'
p34
sg18
(iedu.umass.cs.iesl.wikilink.expanded.data.ttypes
Context
p35
(dp36
g21
S'F/A-18 Hornet'
p37
sg23
S'. While a capable aircraft, the F-35 does not have the range of the F-111C. This will be made up for, to some extent, by'
p38
sg25
S'Proposed F-35D Long Range Variant The Australian Government selected the Lockheed Martin F-35 Lightning II single-seat, single-engine stealth multirole fighter to replace the F-111C and'
p39
sbsg27
Nsg29
I5498
sg30
S'http://en.wikipedia.org/wiki/F/A-18_Hornet'
p40
sba(iedu.umass.cs.iesl.wikilink.expanded.data.ttypes
Mention
p41
(dp42
g16
S'F/A-18E/F Super Hornet'
p43
sg18
(iedu.umass.cs.iesl.wikilink.expanded.data.ttypes
Context
p44
(dp45
g21
S'F/A-18E/F Super Hornet'
p46
sg23
S'from the F/A-18C/D Hornet . More commonality with the existing aircraft would be possible than was the case in development of the F/A-18E. The sensors,'
p47
sg25
S'rapid, low cost and low risk, compared to a completely new design. The F-35D would follow the approach taken with the successful development of the'
p48
sbsg27
Nsg29
I6789
sg30
S'http://en.wikipedia.org/wiki/Boeing_F/A-18E/F_Super_Hornet'
p49
sba(iedu.umass.cs.iesl.wikilink.expanded.data.ttypes
Mention
p50
(dp51
g16
S'F/A-18C/D Hornet'
p52
sg18
(iedu.umass.cs.iesl.wikilink.expanded.data.ttypes
Context
p53
(dp54
g21
S'F/A-18C/D Hornet'
p55
sg23
S'. More commonality with the existing aircraft would be possible than was the case in development of the F/A-18E. The sensors, computers and other electronic'
p56
sg25
S'risk, compared to a completely new design. The F-35D would follow the approach taken with the successful development of the F/A-18E/F Super Hornet from the'
p57
sbsg27
Nsg29
I6920
sg30
S'http://en.wikipedia.org/wiki/F/A-18_Hornet'
p58
sba(iedu.umass.cs.iesl.wikilink.expanded.data.ttypes
Mention
p59
(dp60
g16
S'Next-Generation Bomber'
p61
sg18
(iedu.umass.cs.iesl.wikilink.expanded.data.ttypes
Context
p62
(dp63
g21
S'Next-Generation Bomber'
p64
sg23
S'. The F-35D would meet the requirements for such a medium bomber. It would have advantages in commonality of training and maintenance with the F-35.'
p65
sg25
S'F-111C and development of the F-35D could not be justified for this small production run. However, the US Air Force is investigating options for a'
p66
sbsg27
S'9202a8c04000641f8000000005e39ec7'
p67
sg29
I7630
sg30
S'http://en.wikipedia.org/wiki/Next-Generation_Bomber'
p68
sbasS'doc_id'
p69
I80064
sS'rare_words'
p70
(lp71
(iedu.umass.cs.iesl.wikilink.expanded.data.ttypes
RareWord
p72
(dp73
S'word'
p74
S'government'
p75
sS'offset'
p76
I8047
sba(iedu.umass.cs.iesl.wikilink.expanded.data.ttypes
RareWord
p77
(dp78
g74
S'complexity'
p79
sg76
I11253
sba(iedu.umass.cs.iesl.wikilink.expanded.data.ttypes
RareWord
p80
(dp81
g74
S'scaled'
p82
sg76
I7279
sba(iedu.umass.cs.iesl.wikilink.expanded.data.ttypes
RareWord
p83
(dp84
g74
S'times'
p85
sg76
I6463
sba(iedu.umass.cs.iesl.wikilink.expanded.data.ttypes
RareWord
p86
(dp87
g74
S'Israel'
p88
sg76
I6054
sba(iedu.umass.cs.iesl.wikilink.expanded.data.ttypes
RareWord
p89
(dp90
g74
S'extent'
p91
sg76
I5625
sba(iedu.umass.cs.iesl.wikilink.expanded.data.ttypes
RareWord
p92
(dp93
g74
S'case'
p94
sg76
I7017
sba(iedu.umass.cs.iesl.wikilink.expanded.data.ttypes
RareWord
p95
(dp96
g74
S'go'
p97
sg76
I9678
sba(iedu.umass.cs.iesl.wikilink.expanded.data.ttypes
RareWord
p98
(dp99
g74
S'But'
p100
sg76
I10918
sba(iedu.umass.cs.iesl.wikilink.expanded.data.ttypes
RareWord
p101
(dp102
g74
S'use'
p103
sg76
I5640
sbasb.