(iedu.umass.cs.iesl.wikilink.expanded.data.ttypes
WikiLinkItem
p0
(dp1
S'url'
p2
S'http://volleyballbetting.org/russia'
p3
sS'content'
p4
(iedu.umass.cs.iesl.wikilink.expanded.data.ttypes
PageContentItem
p5
(dp6
S'articleText'
p7
NsS'raw'
p8
NsS'fullText'
p9
NsS'dom'
p10
S'<html>\n  <body>\xc3\xaf\xc2\xbb\xc2\xbf </body>\n  <html xml:lang="en" lang="en">\n    <head>\n      <meta content="text/html; charset=UTF-8" http-equiv="Content-Type"></meta>\n      <title>Russian Volleyball League - \xc3\x90\xe2\x80\x99\xc3\x90\xc5\xb8\xc3\x90\xc2\xbb\xc3\x90\xc2\xb5\xc3\x90\xc2\xb9\xc3\x90\xc2\xb1\xc3\x90\xc5\xb8\xc3\x90\xc2\xbb\xc3\x91\xc5\x92\xc3\x90\xc5\x93\xc3\x90\xc2\xb0\xc3\x91\xef\xbf\xbd \xc3\x91\xef\xbf\xbd\xc3\x91\xc6\x92\xc3\x90\xc2\xbf\xc3\x90\xc2\xb5\xc3\x91\xe2\x82\xac\xc3\x90\xc2\xbb\xc3\x90\xc5\xbe\xc3\x90\xc2\xb3\xc3\x90\xc2\xb0</title>\n      <meta content="Professional sports punters have known for years Russian Volleyball betting at Pinnacle Sports is quite soft, learn about this league in this article." name="description"></meta>\n      <link media="screen" type="text/css" href="/css/style.css" rel="stylesheet"></link>\n      <link type="image/x-icon" href="/css/favicon.ico" rel="icon"></link>\n      <script type="text/javascript">\n        var _gaq = _gaq || [];\n  _gaq.push([\'_setAccount\', \'UA-26457748-1\']);\n  _gaq.push([\'_trackPageview\']);\n\n  (function() {\n    var ga = document.createElement(\'script\'); ga.type = \'text/javascript\'; ga.async = true;\n    ga.src = (\'https:\' == document.location.protocol ? \'https://ssl\' : \'http://www\') + \'.google-analytics.com/ga.js\';\n    var s = document.getElementsByTagName(\'script\')[0]; s.parentNode.insertBefore(ga, s);\n  })();\n      </script>\n    </head>\n    <body>\n      <div id="page">\n        <div id="header">\n          <div class="head1">\n            <a href="http://volleyballbetting.org/" shape="rect">\n              <img alt="Volley Betting" src="/cms/logo.gif"></img>\n            </a>\n          </div>\n          <div class="head2"></div>\n        </div>\n        <div id="menu">\n          <ul>\n            <li>\n              <a href="http://volleyballbetting.org/" shape="rect">Volleyball Betting</a>\n            </li>\n            <li>\n              <a href="http://volleyballbetting.org/europe" shape="rect">European Volleyball</a>\n            </li>\n            <li>\n              <a href="http://volleyballbetting.org/asia" shape="rect">Asian Volleyball</a>\n            </li>\n            <li>\n              <a href="http://volleyballbetting.org/beach-volleyball" shape="rect">Beach Volleyball</a>\n            </li>\n          </ul>\n        </div>\n        <div id="content">\n          <div class="post">\n            <h1>Bet on Russia Superleague Volleyball (\xc3\x90\xe2\x80\x99\xc3\x90\xc5\xb8\xc3\x90\xc2\xbb\xc3\x90\xc2\xb5\xc3\x90\xc2\xb9\xc3\x90\xc2\xb1\xc3\x90\xc5\xb8\xc3\x90\xc2\xbb\xc3\x91\xc5\x92\xc3\x90\xc5\x93\xc3\x90\xc2\xb0\xc3\x91\xef\xbf\xbd \xc3\x91\xef\xbf\xbd\xc3\x91\xc6\x92\xc3\x90\xc2\xbf\xc3\x90\xc2\xb5\xc3\x91\xe2\x82\xac\xc3\x90\xc2\xbb\xc3\x90\xc5\xbe\xc3\x90\xc2\xb3\xc3\x90\xc2\xb0)</h1>\n            <p>\n              <img alt="Russian Volleyball Superleague" src="/images/russian-volleyball.gif" class="float-right"></img>\n              Founded in the year 1992, the Russian Volleyball Superleague (Russian: \xc3\x90\xe2\x80\x99\xc3\x90\xc5\xb8\xc3\x90\xc2\xbb\xc3\x90\xc2\xb5\xc3\x90\xc2\xb9\xc3\x90\xc2\xb1\xc3\x90\xc5\xb8\xc3\x90\xc2\xbb\xc3\x91\xc5\x92\xc3\x90\xc5\x93\xc3\x90\xc2\xb0\xc3\x91\xef\xbf\xbd \xc3\x91\xef\xbf\xbd\xc3\x91\xc6\x92\xc3\x90\xc2\xbf\xc3\x90\xc2\xb5\xc3\x91\xe2\x82\xac\xc3\x90\xc2\xbb\xc3\x90\xc5\xbe\xc3\x90\xc2\xb3\xc3\x90\xc2\xb0) is considered the successor of the Soviet Top league that was founded in the year 1933. This is one of the most popular league championships for volleyball clubs in Russia, and is also one of the popular volleyball tournaments on sports betting sites. There is a men\xc3\xa2\xe2\x82\xac\xe2\x84\xa2s Superleague and also a women\xc3\xa2\xe2\x82\xac\xe2\x84\xa2s Superleague that has some of the best Russian volleyball clubs competing against one another.\n            </p>\n            <p>\n              <strong>History of Russian Superleague</strong>\n            </p>\n            <p>\n              The Russian Superleague is an annual sporting event for the volleyball clubs from all over Russia. The league has been the most popular club volleyball tournament for almost 20 years now. With the Russian Volleyball Superleague 2009-10 season, the competition has officially completed 19 years. In these 19 years, CSKA Moscow and Belogorie-Dynamo Belgorod had won the championship thrice. Avtomobilist Saint Petersburg, Zenit Kazan and Dynamo Moscow won the cup twice.\n              <img alt="Lokomotiv Belogorie Belgorod" src="/images/russian-volleyball-team.gif" class="float-left"></img>\n              But it was Lokomotiv Belogorie Belgorod that had won the championship four times in a row in the years 2002, 2003, 2004 and 2005. In the last season, which was held in the year 2010, Zenit Kazan had become champions for the second time, while Lokomotiv Belogorie Belgorod was the 1st runners up and Dynamo Moscow the second.\n            </p>\n            <p>The last season of the women\xc3\xa2\xe2\x82\xac\xe2\x84\xa2s Russian volleyball Superleague had 12 clubs participating. Of them, Zarechie-Odintsovo emerged victorious, Dinamo Moscow was second and Dinamo Krasnodar came third.</p>\n            <p>\n              <strong>The Russian Superleague format</strong>\n            </p>\n            <p>\n              The game format of the Russian Superleague is the same for both men and women\xc3\xa2\xe2\x82\xac\xe2\x84\xa2s championships. The tournament has two stages \xc3\xa2\xe2\x82\xac\xe2\x80\x9c the preliminary round and the final round. There are twelve teams each that take part in the men\xc3\xa2\xe2\x82\xac\xe2\x84\xa2s and the women\xc3\xa2\xe2\x82\xac\xe2\x84\xa2s competitions. Each team plays every other team twice in the prelims, also referred to as the regular season, once in a home game and once away. Each team plays a total of 22 games and the top eight teams from the preliminary round move on to the playoffs.\n            </p>\n            <p>\n              The playoffs include the quarterfinals, semifinals, and the final championship round. In the quarterfinals, two teams play each other thrice and the leading teams move into the semi finals. Again, depending on their standings at the end of the quarterfinals, two teams play three matches to decide the finalists. The final is a best of four games and the leading team becomes the champions. A set of four games are played between the losing teams in the semifinals, to determine the 3rd and the 4th places.\n            </p>\n            <p>\n              <strong>Betting on Russian Volleyball</strong>\n            </p>\n            <p>\n              The Russian Superleague can be considered as one of the most popular domestic volleyball championships that you can bet on through the internet. Several online betting sites offer it including Bet365, Ladbrokes, Betsson and Pinnacle. The site you\xc3\xa2\xe2\x82\xac\xe2\x84\xa2ll find the best odds (lowest margins) at is\n              <a target="_blank" href="/visit/pinnaclesports/" shape="rect">www.pinnaclesports.com</a>\n              . Their website is available in English and Russian language and accounts can be funded in Euros or Russian Rubles For more on the decision to use Euro or Rubles read my article on\n              <a href="http://volleyballbetting.org/betting-sites/currencies" shape="rect">betting currencies</a>\n              . The betting site with the most markets is\n              <a target="_blank" href="/visit/bet365/" shape="rect">www.bet365.com</a>\n              . Here you\xc3\xa2\xe2\x82\xac\xe2\x84\xa2ll find number matches streamed live with the ability to wager on unique propositions such as first team to score 5, 10, 15, and 20 in a match, who will score the next point, the exact score of games won in a match, over under for total points scored and much more.\n            </p>\n            <p>\n              <strong>Help us Promote Russian Volleyball</strong>\n            </p>\n            <p>\n              Volleyball is a sport just starting to catch a global appeal for sport wagering. More English content about the top leagues could go a long way in helping promote the sport. Currently the\n              <a target="_blank" href="http://en.wikipedia.org/wiki/Russian_Volleyball_Super_League" shape="rect">Wikipedia Entry: Russian Volleyball Super League</a>\n              does not have much text. If you\xc3\xa2\xe2\x82\xac\xe2\x84\xa2re a fan of this sport and can do research in Russian and then write in English please consider updating this entry. The official website of Russian Volleyball League is can be found in English as well at\n              <a target="_blank" href="http://en.volley.ru/" shape="rect">http://en.volley.ru/</a>\n              , making it possible even Non-Russian readers could help update this entry and create pages about the various teams.\n            </p>\n          </div>\n        </div>\n        <div id="left-bar" class="sidebar">\n          <div id="left-bar-inside">\n            <br clear="none"></br>\n            <p align="center">\n              <a href="http://volleyballbetting.org/betting-sites" shape="rect">Volleyball Betting Sites</a>\n            </p>\n            <p>The majority of online bookmakers take advantage of recreational punters by offering extremely poor odds. To avoid getting suckered in, click the link above and read our guide to volleyball betting sites.</p>\n            <br clear="none"></br>\n            <h3>European Domestic</h3>\n            <div class="czech volley">\n              <a href="http://volleyballbetting.org/czech-republic" shape="rect">Czech Volleyball</a>\n            </div>\n            <div class="finland volley">\n              <a href="http://volleyballbetting.org/finland" shape="rect">Finland SM-liiga</a>\n            </div>\n            <div class="germany volley">\n              <a href="http://volleyballbetting.org/germany" shape="rect">Germany Bundesliga</a>\n            </div>\n            <div class="greece volley">\n              <a href="http://volleyballbetting.org/greece" shape="rect">Greece A1 Volleyball</a>\n            </div>\n            <div class="italy volley">\n              <a href="http://volleyballbetting.org/italy" shape="rect">Italian Serie A1</a>\n            </div>\n            <div class="poland volley">\n              <a href="http://volleyballbetting.org/poland" shape="rect">Poland PlusLiga</a>\n            </div>\n            <div class="russia volley">\n              <a href="http://volleyballbetting.org/russia" shape="rect">Russia Superleague</a>\n            </div>\n            <div class="spain volley">\n              <a href="http://volleyballbetting.org/spain" shape="rect">Spain SuperLiga</a>\n            </div>\n            <div class="sweden volley">\n              <a href="http://volleyballbetting.org/sweden" shape="rect">Sweden Elitserien</a>\n            </div>\n            <div class="turkey volley">\n              <a href="http://volleyballbetting.org/turkey" shape="rect">Turkey Division 1</a>\n            </div>\n            <br clear="none"></br>\n          </div>\n        </div>\n        <div id="footer">\n          <p>\n            Regulatory Bodies:\n            <a href="http://www.fivb.org/" shape="rect">F\xc3\xa9d\xc3\xa9ration Internationale de Volleyball (FIVB)</a>\n            &amp;\n            <a href="http://www.cev.lu/" shape="rect">Conf\xc3\xa9d\xc3\xa9ration Europ\xc3\xa9enne de Volleyball (CEV)</a>\n          </p>\n        </div>\n      </div>\n      <p class="bottom">\xc2\xa9 2010-2012 volleyballbetting.org - All Rights Reserved.</p>\n    </body>\n  </html>\n</html>'
p11
sbsS'mentions'
p12
(lp13
(iedu.umass.cs.iesl.wikilink.expanded.data.ttypes
Mention
p14
(dp15
S'anchor_text'
p16
S'Wikipedia Entry: Russian Volleyball Super League'
p17
sS'context'
p18
(iedu.umass.cs.iesl.wikilink.expanded.data.ttypes
Context
p19
(dp20
S'middle'
p21
S'Wikipedia Entry: Russian Volleyball Super League'
p22
sS'right'
p23
S'does not have much text. If you\xc3\xa2\xe2\x82\xac\xe2\x84\xa2re a fan of this sport and can do research in Russian and then write in English please consider'
p24
sS'left'
p25
S'a global appeal for sport wagering. More English content about the top leagues could go a long way in helping promote the sport. Currently the'
p26
sbsS'freebase_id'
p27
S'9202a8c04000641f8000000006bb517c'
p28
sS'raw_text_offset'
p29
I6305
sS'wiki_url'
p30
S'http://en.wikipedia.org/wiki/Russian_Volleyball_Super_League'
p31
sbasS'doc_id'
p32
I617990
sS'rare_words'
p33
(lp34
(iedu.umass.cs.iesl.wikilink.expanded.data.ttypes
RareWord
p35
(dp36
S'word'
p37
S'places'
p38
sS'offset'
p39
I4876
sba(iedu.umass.cs.iesl.wikilink.expanded.data.ttypes
RareWord
p40
(dp41
g37
S'victorious'
p42
sg39
I3731
sba(iedu.umass.cs.iesl.wikilink.expanded.data.ttypes
RareWord
p43
(dp44
g37
S'go'
p45
sg39
I6160
sba(iedu.umass.cs.iesl.wikilink.expanded.data.ttypes
RareWord
p46
(dp47
g37
S'wagering'
p48
sg39
I6101
sba(iedu.umass.cs.iesl.wikilink.expanded.data.ttypes
RareWord
p49
(dp50
g37
S'first'
p51
sg39
I5792
sba(iedu.umass.cs.iesl.wikilink.expanded.data.ttypes
RareWord
p52
(dp53
g37
S'But'
p54
sg39
I3271
sba(iedu.umass.cs.iesl.wikilink.expanded.data.ttypes
RareWord
p55
(dp56
g37
S'use'
p57
sg39
I5458
sba(iedu.umass.cs.iesl.wikilink.expanded.data.ttypes
RareWord
p58
(dp59
g37
S'accounts'
p60
sg39
I5380
sba(iedu.umass.cs.iesl.wikilink.expanded.data.ttypes
RareWord
p61
(dp62
g37
S'making'
p63
sg39
I6670
sba(iedu.umass.cs.iesl.wikilink.expanded.data.ttypes
RareWord
p64
(dp65
g37
S'set'
p66
sg39
I4770
sbasb.