(iedu.umass.cs.iesl.wikilink.expanded.data.ttypes
WikiLinkItem
p0
(dp1
S'url'
p2
S'http://17-informational-smart-classes.com/'
p3
sS'content'
p4
(iedu.umass.cs.iesl.wikilink.expanded.data.ttypes
PageContentItem
p5
(dp6
S'articleText'
p7
NsS'raw'
p8
NsS'fullText'
p9
NsS'dom'
p10
S'<html>\n  <head>\n    <style>\n      body {\n              font-family: &quot;Lucida Grande&quot;,&quot;Lucida Sans Unicode&quot;,verdana,geneva,sans-serif;\n            background: #282828;      \n        }\n        \n        .h1 {\n            padding-left:10px;\n            font-size: 15;\n            color:  #333333;\n        }\n        \n        .h2 {\n            color: #121212;\n            font-size: 25px;\n            text-decoration: none;\n            padding-top: 30px;\n            border-bottom: 2px solid #EEEEEE;\n            width: 90%;\n        }\n        \n        .h2 a {\n            color: #121212;\n            border-bottom: 1px dotted #CCCCCC;\n        }\n        \n        .h3 {\n            color: #000000;\n            font-size: 15px;\n            line-height: 21px;\n        }\n        \n        .reading {\n            padding: 30px 10px 20px 10px;   \n        }\n        \n        .reading a {\n            color: #3366FF;\n            text-decoration: none;\n            border-bottom: 1px dotted #CCCCCC;\n        }\n        \n        .reading a:hover {\n            color: #0033AA;\n        }\n        \n\n        \n        #wrapper1 {\n            margin-top: -17;\n            left: 50%;\n            margin-left: -360px;\n            position: absolute;\n            border: 10px solid #101010;\n            box-shadow:2px 2px 5px;  \n            background: white;\n            padding: 10px;\n            width:700px;\n            padding-bottom: 30px;\n            border-bottom: 7px solid #CCCCCC}\n        \n        \n        #main-nav {\n            background: white;\n            float: right ;\n            padding: 10px;\n            margin-top: 40px;\n            margin-bottom: 40px;\n            color: #444444;\n            font-size: 12px;\n            border-bottom: 1px dotted #CCCCCC;\n        }\n        \n        #main-nav a {\n            color: #444444;\n            text-decoration: none;\n        }\n        \n        #main-nav a:hover {\n            color: black;\n        }\n        \n        #header {\n            background: white;\n            Height: ;\n            font-size: 40px;\n            padding-top: 30px;\n            padding-bottom: 30px;\n            padding-left: 50px;\n            color: #222222;\n        }\n   \n        #headerimage {\n            background: #3366FF;\n            color: white;\n            text-align: center;\n            height: 100px;\n            border-bottom: 0px;\n        }\n        \n        #container1 {\n            background: white;\n            height: 25px;\n        }\n        \n        #pages {\n            background: white;\n            padding: 5px;\n            float: left;\n            color: #444444;\n            font-size: 12px;\n        }\n        \n        #pages a {\n            color: #444444;\n            text-decoration: none;\n        }\n        \n       #sidebar {  \n            background: white;\n            width: 280px;\n            float: right;\n            margin: -50px 20px 0px;\n            height: px;\n            padding: 6px;\n            font-size: 13px;\n            padding-top: 15px;\n            box-shadow: inset 2px 2px 5px #F5F5F5;\n        }\n\n        \n        .container2 {\n            margin: 10px;\n            margin-top: 6px;\n          \n            color: black;\n            background: #F4F4F4;\n            font-size: 12px;\n            text-align: left;\n            padding: 6px;   \n        }\n        \n        .container2 a{\n            color: #333333;\n        }\n        \n        .container3 {\n            color: #333333;\n            background: #F4F4F4;\n            font-size: 12px;\n            padding: 6px;\n        }\n        \n        #content {\n            background: white;\n            padding-top: 35px;\n            width: 500px;;\n        }\n        \n        #footer {\n            background: #282828;\n            height: 30px;\n            clear: both;\n            text-align: center;\n            font-size: 10px;\n            color: white;\n            margin: 0px;\n            Margin-top: 20px;\n        }\n    </style>\n    <meta content="text/html; charset=UTF-8" http-equiv="Content-type"></meta>\n    <title>A Golf Swing with Power and Accuracy </title>\n    <meta content="en-us" http-equiv="Content-Language"></meta>\n    <meta content="no" http-equiv="imagetoolbar"></meta>\n    <meta content="true" name="MSSmartTagsPreventParsing"></meta>\n    <meta content="Description" name="description"></meta>\n    <meta content="Keywords" name="keywords"></meta>\n    <meta content="Enlighten Designs" name="author"></meta>\n  </head>\n  <body>\n    <div id="wrapper1">\n      <div id="main-nav">\n        <a href="http://d1aea1tg775ybuezvosmy2247o.hop.clickbank.net/?tid=CBT1" id="recommendlink" class="builder" shape="rect">WHAT WE RECOMMEND</a>\n      </div>\n      <div id="main-nav">\n        <a href="#" shape="rect">HOME</a>\n      </div>\n      <div id="header">\n        <span id="headline" class="builder">A Golf Swing with Power and Accuracy </span>\n      </div>\n      <div id="headerimage" class="builder">\n        <p>\n          <strong>\n            <font size="5">A Simple Golf Swing That Provides Power, Accuracy And Consistency,right when you need it.</font>\n          </strong>\n        </p>\n        <br clear="none"></br>\n      </div>\n      <div id="container1">\n        <div id="pages">\n          <a href="http://d1aea1tg775ybuezvosmy2247o.hop.clickbank.net/?tid=CBT1" id="ninjalink1" class="builder" shape="rect">Our Top Recomendations</a>\n        </div>\n        <div id="pages">\n          <a href="http://406905oa3a23dq10rdyaq5fp6r.hop.clickbank.net/?tid=CBT2" id="ninjalink2" class="builder" shape="rect">Learn More</a>\n        </div>\n      </div>\n      <div id="sidebar">\n        <div class="h1">\n          <b>Our Recomendations</b>\n        </div>\n        <div onclick="location=\'http://d1aea1tg775ybuezvosmy2247o.hop.clickbank.net/?tid=CBT1\'" class="container2">\n          <br clear="none"></br>\n          <b>\n            <a href="http://d1aea1tg775ybuezvosmy2247o.hop.clickbank.net/?tid=CBT1" id="title1" class="builder" shape="rect">A Great Golf Swing the Easy Way</a>\n          </b>\n          <div class="container3">\n            Rating: 5 out of  5 stars\n            <br clear="none"></br>\n            <div id="description1" class="builder">Get Your Hands On The \xc3\xa2\xe2\x82\xac\xc5\x93Simple Golf Swing\xc3\xa2\xe2\x82\xac\xef\xbf\xbd Training That Has Helped Thousands Of Golfers Improve Their Game\xc3\xa2\xe2\x82\xac\xe2\x80\x9cFREE!</div>\n          </div>\n        </div>\n        <div onclick="location=\'http://406905oa3a23dq10rdyaq5fp6r.hop.clickbank.net/?tid=CBT2\'" class="container2">\n          <br clear="none"></br>\n          <b>\n            <a href="http://406905oa3a23dq10rdyaq5fp6r.hop.clickbank.net/?tid=CBT2" id="title2" class="builder" shape="rect">How To; Golf Swing Speed Challenge</a>\n          </b>\n          <div class="container3">\n            Rating: 5 out of  5 stars\n            <br clear="none"></br>\n            <div id="description2" class="builder">How A 37 Year Old Working Man (With A Young Family) Added 44.3 Yards To His Drives In Just 56 Days Without Practice\xc3\xa2\xe2\x82\xac\xc5\xa0And How You Can Do It Too\xc3\xa2\xe2\x82\xac\xc5\xa0</div>\n          </div>\n        </div>\n        <div class="h1">\n          <b>Recommended Reading</b>\n        </div>\n        <div class="reading">\n          <a href="http://d1aea1tg775ybuezvosmy2247o.hop.clickbank.net/?tid=CBT1" id="readinglinktitle1" class="builder" shape="rect">How To....The Simple Golf Swing </a>\n          <p>\n            <a href="http://406905oa3a23dq10rdyaq5fp6r.hop.clickbank.net/?tid=CBT2" id="readinglinktitle2" class="builder" shape="rect">A Advanced Solution...Add 44.3 Yards To Your Drives In Just 56 Days Without Practice\xc3\xa2\xe2\x82\xac\xc5\xa0And How You Can Do It Too\xc3\xa2\xe2\x82\xac\xc5\xa0\xc3\xa2\xe2\x82\xac\xef\xbf\xbd.</a>\n          </p>\n          <p>\n            <a href="http://en.wikipedia.org/wiki/Golf" id="readinglinktitle3" class="builder" shape="rect"></a>\n          </p>\n        </div>\n      </div>\n      <div id="content">\n        <div class="h2">\n          <span id="headline1" class="builder">Tip # 1</span>\n        </div>\n        <div class="h3">\n          <div id="content1" class="builder">\n            <div class="Bug6200">\n              <i>\n                <strong>Play the ball as it lies</strong>\n                , play the\n                <a href="http://en.wikipedia.org/wiki/Golf_course" title="Golf course" shape="rect">\n                  <font color="#0066cc">course</font>\n                </a>\n                as you find it, and if you cannot do either, do what is fair. But to do what is fair, you need to know the Rules of Golf.\n              </i>\n            </div>\n            <p>\n              In addition to the rules golf adheres to a\n              <strong> code of conduct,</strong>\n              known as\n              <a href="http://en.wikipedia.org/wiki/Golf_etiquette" title="Golf etiquette" shape="rect">\n                <font color="#0066cc">etiquette</font>\n              </a>\n              , which generally means playing the game with due respect for the\n              <a href="http://en.wikipedia.org/wiki/Golf_course" title="Golf course" shape="rect">\n                <font color="#0066cc">golf course</font>\n              </a>\n              and other players. Etiquette is often seen as being as important to the sport as the rules themselves.\n            </p>\n          </div>\n        </div>\n        <div class="h2">\n          <span id="headline2" class="builder">Tip # 2</span>\n        </div>\n        <div class="h3">\n          <div id="content2" class="builder">\n            Men\'s professional senior\n            <a href="http://en.wikipedia.org/wiki/Golf" title="Golf" shape="rect">\n              <font color="#0066cc">golf</font>\n            </a>\n            is for players aged 50 and above. Golf differs from all other sports in having lucrative competitions for this age group. The leading senior tour is the U.S. based\n            <a href="http://en.wikipedia.org/wiki/Champions_Tour" title="Champions Tour" shape="rect">\n              <font color="#0066cc">Champions Tour</font>\n            </a>\n            , which was established in 1980 (as the Senior PGA Tour). It has established a roster of five major championships. These events are all played over four rounds, whereas other senior tournaments are generally played over three rounds\xc3\xa2\xe2\x82\xac\xe2\x80\x9donly one other current Champions Tour event, the limited-field and season-ending\n            <a href="http://en.wikipedia.org/wiki/Charles_Schwab_Cup_Championship" title="Charles Schwab Cup Championship" shape="rect">\n              <font color="#0066cc">Charles Schwab Cup Championship</font>\n            </a>\n            , is played over four rounds. A golfer\'s performances can be quite variable from one round to the next, so playing an extra round increases the likelihood that the senior majors will be won by leading players.\n          </div>\n        </div>\n        <div class="h2">\n          <span id="headline3" class="builder">Tip # 3</span>\n        </div>\n        <div class="h3">\n          <div id="content3" class="builder">\n            <font face="GillSans" size="1">\n              <font face="GillSans" size="4"></font>\n            </font>\n            <p>\n              <u>Suspension of Play Due to a Dangerous Situation</u>\n            </p>\n            <font face="GillSans-Light" size="1">\n              <font face="GillSans-Light" size="1"></font>\n            </font>\n            <p align="LEFT">\n              <font size="3"></font>\n              \xc3\x82\xc2\xa0\n            </p>\n            <p align="LEFT">\n              <font size="3">As there have been many deaths and injuries from lightning on golf</font>\n            </p>\n            <font size="3"> </font>\n            <p align="LEFT">\n              <font size="3">courses, all clubs and sponsors of golf competitions are urged to take</font>\n            </p>\n            <font size="3"> </font>\n            <p>\n              <font size="3">precautions for the protection of persons against lightning</font>\n            </p>\n          </div>\n        </div>\n        <div class="h2">\n          <a href="http://d1aea1tg775ybuezvosmy2247o.hop.clickbank.net/?tid=CBT1" id="bottomcaption" class="builder" shape="rect">Click Here To Read About The Simple Golf Swing</a>\n        </div>\n      </div>\n      <div id="footer">\n        Template design by\n        <a href="http://www.commissionbreakthrough.com/" shape="rect">Commission Breakthrough</a>\n        <br clear="none"></br>\n        (c)\n        <span id="copyright" class="builder">2012 Awsome Opportunity</span>\n      </div>\n    </div>\n  </body>\n</html>'
p11
sbsS'mentions'
p12
(lp13
(iedu.umass.cs.iesl.wikilink.expanded.data.ttypes
Mention
p14
(dp15
S'anchor_text'
p16
S'course'
p17
sS'context'
p18
(iedu.umass.cs.iesl.wikilink.expanded.data.ttypes
Context
p19
(dp20
S'middle'
p21
S'course'
p22
sS'right'
p23
S'as you find it, and if you cannot do either, do what is fair. But to do what is fair, you need to know the'
p24
sS'left'
p25
S'Drives In Just 56 Days Without Practice\xc3\xa2\xe2\x82\xac\xc5\xa0And How You Can Do It Too\xc3\xa2\xe2\x82\xac\xc5\xa0\xc3\xa2\xe2\x82\xac\xef\xbf\xbd. Tip # 1 Play the ball as it lies , play the'
p26
sbsS'freebase_id'
p27
S'9202a8c04000641f8000000005a8973b'
p28
sS'raw_text_offset'
p29
I8065
sS'wiki_url'
p30
S'http://en.wikipedia.org/wiki/Golf_course'
p31
sba(iedu.umass.cs.iesl.wikilink.expanded.data.ttypes
Mention
p32
(dp33
g16
S'etiquette'
p34
sg18
(iedu.umass.cs.iesl.wikilink.expanded.data.ttypes
Context
p35
(dp36
g21
S'etiquette'
p37
sg23
S', which generally means playing the game with due respect for the golf course and other players. Etiquette is often seen as being as important'
p38
sg25
S'what is fair, you need to know the Rules of Golf. In addition to the rules golf adheres to a code of conduct, known as'
p39
sbsg27
S'9202a8c04000641f8000000000c97e74'
p40
sg29
I8403
sg30
S'http://en.wikipedia.org/wiki/Golf_etiquette'
p41
sba(iedu.umass.cs.iesl.wikilink.expanded.data.ttypes
Mention
p42
(dp43
g16
S'golf course'
p44
sg18
(iedu.umass.cs.iesl.wikilink.expanded.data.ttypes
Context
p45
(dp46
g21
S'golf course'
p47
sg23
S"and other players. Etiquette is often seen as being as important to the sport as the rules themselves. Tip # 2 Men's professional senior golf"
p48
sg25
S'to the rules golf adheres to a code of conduct, known as etiquette , which generally means playing the game with due respect for the'
p49
sbsg27
S'9202a8c04000641f8000000005a8973b'
p50
sg29
I8582
sg30
S'http://en.wikipedia.org/wiki/Golf_course'
p51
sba(iedu.umass.cs.iesl.wikilink.expanded.data.ttypes
Mention
p52
(dp53
g16
S'golf'
p54
sg18
(iedu.umass.cs.iesl.wikilink.expanded.data.ttypes
Context
p55
(dp56
g21
S'golf'
p57
sg23
S'is for players aged 50 and above. Golf differs from all other sports in having lucrative competitions for this age group. The leading senior tour'
p58
sg25
S"course and other players. Etiquette is often seen as being as important to the sport as the rules themselves. Tip # 2 Men's professional senior"
p59
sbsg27
S'9202a8c04000641f8000000000019dfe'
p60
sg29
I9004
sg30
S'http://en.wikipedia.org/wiki/Golf'
p61
sba(iedu.umass.cs.iesl.wikilink.expanded.data.ttypes
Mention
p62
(dp63
g16
S'Champions Tour'
p64
sg18
(iedu.umass.cs.iesl.wikilink.expanded.data.ttypes
Context
p65
(dp66
g21
S'Champions Tour'
p67
sg23
S', which was established in 1980 (as the Senior PGA Tour). It has established a roster of five major championships. These events are all played'
p68
sg25
S'50 and above. Golf differs from all other sports in having lucrative competitions for this age group. The leading senior tour is the U.S. based'
p69
sbsg27
S'9202a8c04000641f8000000000241650'
p70
sg29
I9283
sg30
S'http://en.wikipedia.org/wiki/Champions_Tour'
p71
sba(iedu.umass.cs.iesl.wikilink.expanded.data.ttypes
Mention
p72
(dp73
g16
S'Charles Schwab Cup Championship'
p74
sg18
(iedu.umass.cs.iesl.wikilink.expanded.data.ttypes
Context
p75
(dp76
g21
S'Charles Schwab Cup Championship'
p77
sg23
S", is played over four rounds. A golfer's performances can be quite variable from one round to the next, so playing an extra round increases"
p78
sg25
S'all played over four rounds, whereas other senior tournaments are generally played over three rounds\xc3\xa2\xe2\x82\xac\xe2\x80\x9donly one other current Champions Tour event, the limited-field and season-ending'
p79
sbsg27
S'9202a8c04000641f8000000000735017'
p80
sg29
I9757
sg30
S'http://en.wikipedia.org/wiki/Charles_Schwab_Cup_Championship'
p81
sbasS'doc_id'
p82
I1949
sS'rare_words'
p83
(lp84
(iedu.umass.cs.iesl.wikilink.expanded.data.ttypes
RareWord
p85
(dp86
S'word'
p87
S'Working'
p88
sS'offset'
p89
I6747
sba(iedu.umass.cs.iesl.wikilink.expanded.data.ttypes
RareWord
p90
(dp91
g87
S'adheres'
p92
sg89
I8248
sba(iedu.umass.cs.iesl.wikilink.expanded.data.ttypes
RareWord
p93
(dp94
g87
S'event'
p95
sg89
I9581
sba(iedu.umass.cs.iesl.wikilink.expanded.data.ttypes
RareWord
p96
(dp97
g87
S'ending'
p98
sg89
I9617
sba(iedu.umass.cs.iesl.wikilink.expanded.data.ttypes
RareWord
p99
(dp100
g87
S'Helped'
p101
sg89
I6210
sba(iedu.umass.cs.iesl.wikilink.expanded.data.ttypes
RareWord
p102
(dp103
g87
S'often'
p104
sg89
I8637
sba(iedu.umass.cs.iesl.wikilink.expanded.data.ttypes
RareWord
p105
(dp106
g87
S'Family'
p107
sg89
I6773
sba(iedu.umass.cs.iesl.wikilink.expanded.data.ttypes
RareWord
p108
(dp109
g87
S'Etiquette'
p110
sg89
I8624
sba(iedu.umass.cs.iesl.wikilink.expanded.data.ttypes
RareWord
p111
(dp112
g87
S'so'
p113
sg89
I9903
sba(iedu.umass.cs.iesl.wikilink.expanded.data.ttypes
RareWord
p114
(dp115
g87
S'Provides'
p116
sg89
I5062
sbasb.