(iedu.umass.cs.iesl.wikilink.expanded.data.ttypes
WikiLinkItem
p0
(dp1
S'url'
p2
S'http://adiaryoflovely.blogspot.com/2011/04/pearls-home.html'
p3
sS'content'
p4
(iedu.umass.cs.iesl.wikilink.expanded.data.ttypes
PageContentItem
p5
(dp6
S'articleText'
p7
NsS'raw'
p8
NsS'fullText'
p9
NsS'dom'
p10
S'<html b:version="2" dir="ltr" class="v2">\n  <head>\n    <meta content="IE=EmulateIE7" http-equiv="X-UA-Compatible"></meta>\n    <meta content="width=1100" name="viewport"></meta>\n    <meta content="text/html; charset=UTF-8" http-equiv="Content-Type"></meta>\n    <script type="text/javascript">\n      (function() { var a=window,b=&quot;jstiming&quot;,d=&quot;tick&quot;;var e=function(c){this.t={};this.tick=function(c,p,h){h=void 0!=h?h:(new Date).getTime();this.t[c]=[h,p]};this[d](&quot;start&quot;,null,c)},f=new e;a.jstiming={Timer:e,load:f};if(a.performance&amp;&amp;a.performance.timing){var g=a.performance.timing,j=a[b].load,k=g.navigationStart,l=g.responseStart;0&lt;k&amp;&amp;l&gt;=k&amp;&amp;(j[d](&quot;_wtsrt&quot;,void 0,k),j[d](&quot;wtsrt_&quot;,&quot;_wtsrt&quot;,l),j[d](&quot;tbsd_&quot;,&quot;wtsrt_&quot;))}\ntry{var m=null;a.chrome&amp;&amp;a.chrome.csi&amp;&amp;(m=Math.floor(a.chrome.csi().pageT),j&amp;&amp;0&lt;k&amp;&amp;(j[d](&quot;_tbnd&quot;,void 0,a.chrome.csi().startE),j[d](&quot;tbnd_&quot;,&quot;_tbnd&quot;,k)));null==m&amp;&amp;a.gtbExternal&amp;&amp;(m=a.gtbExternal.pageT());null==m&amp;&amp;a.external&amp;&amp;(m=a.external.pageT,j&amp;&amp;0&lt;k&amp;&amp;(j[d](&quot;_tbnd&quot;,void 0,a.external.startE),j[d](&quot;tbnd_&quot;,&quot;_tbnd&quot;,k)));m&amp;&amp;(a[b].pt=m)}catch(n){};a.tickAboveFold=function(c){var i=0;if(c.offsetParent){do i+=c.offsetTop;while(c=c.offsetParent)}c=i;750&gt;=c&amp;&amp;a[b].load[d](&quot;aft&quot;)};var q=!1;function r(){q||(q=!0,a[b].load[d](&quot;firstScrollTime&quot;))}a.addEventListener?a.addEventListener(&quot;scroll&quot;,r,!1):a.attachEvent(&quot;onscroll&quot;,r);\n })();\n    </script>\n    <meta content="true" name="MSSmartTagsPreventParsing"></meta>\n    <meta content="blogger" name="generator"></meta>\n    <link type="image/x-icon" rel="icon" href="http://adiaryoflovely.blogspot.com/favicon.ico"></link>\n    <link rel="canonical" href="http://adiaryoflovely.blogspot.com/2011/04/pearls-home.html"></link>\n    <link href="http://adiaryoflovely.blogspot.com/feeds/posts/default" title="A Diary of Lovely - Atom" type="application/atom+xml" rel="alternate"></link>\n    <link href="http://adiaryoflovely.blogspot.com/feeds/posts/default?alt=rss" title="A Diary of Lovely - RSS" type="application/rss+xml" rel="alternate"></link>\n    <link href="http://www.blogger.com/feeds/8739671872301330841/posts/default" title="A Diary of Lovely - Atom" type="application/atom+xml" rel="service.post"></link>\n    <link href="http://www.blogger.com/rsd.g?blogID=8739671872301330841" title="RSD" type="application/rsd+xml" rel="EditURI"></link>\n    <link href="http://adiaryoflovely.blogspot.com/feeds/5494635865561241588/comments/default" title="A Diary of Lovely - Atom" type="application/atom+xml" rel="alternate"></link>\n    <title>A Diary of Lovely: Pearl\'s home</title>\n    <link href="//www.blogger.com/static/v1/widgets/4219271310-widget_css_2_bundle.css" rel="stylesheet" type="text/css"></link>\n    <link href="//www.google.com/uds/css/gsearch.css" rel="stylesheet" type="text/css"></link>\n    <link href="//www.blogger.com/dyn-css/authorization.css?targetBlogID=8739671872301330841&amp;zx=1a79c185-6048-447a-9610-970ba081fc1a" rel="stylesheet" type="text/css"></link>\n    <style type="text/css" id="page-skin-1">\n      &lt;!--\n/*\n-----------------------------------------------\nBlogger Template Style\nName:     Simple\nDesigner: Josh Peterson\nURL:      www.noaesthetic.com\n----------------------------------------------- */\n/* Variable definitions\n====================\n&lt;Variable name=&quot;keycolor&quot; description=&quot;Main Color&quot; type=&quot;color&quot; default=&quot;#66bbdd&quot;/&gt;\n&lt;Group description=&quot;Page Text&quot; selector=&quot;body&quot;&gt;\n&lt;Variable name=&quot;body.font&quot; description=&quot;Font&quot; type=&quot;font&quot;\ndefault=&quot;normal normal 12px Arial, Tahoma, Helvetica, FreeSans, sans-serif&quot;/&gt;\n&lt;Variable name=&quot;body.text.color&quot; description=&quot;Text Color&quot; type=&quot;color&quot; default=&quot;#222222&quot;/&gt;\n&lt;/Group&gt;\n&lt;div id=&quot;fb-root&quot;&gt;&lt;/div&gt;\n&lt;script&gt;(function(d, s, id) {\nvar js, fjs = d.getElementsByTagName(s)[0];\nif (d.getElementById(id)) return;\njs = d.createElement(s); js.id = id;\njs.src = &quot;//connect.facebook.net/en_GB/all.js#xfbml=1&quot;;\nfjs.parentNode.insertBefore(js, fjs);\n}(document, \'script\', \'facebook-jssdk\'));&lt;/script&gt;\n&lt;Group description=&quot;Backgrounds&quot; selector=&quot;.body-fauxcolumns-outer&quot;&gt;\n&lt;Variable name=&quot;body.background.color&quot; description=&quot;Outer Background&quot; type=&quot;color&quot; default=&quot;#66bbdd&quot;/&gt;\n&lt;Variable name=&quot;content.background.color&quot; description=&quot;Main Background&quot; type=&quot;color&quot; default=&quot;#ffffff&quot;/&gt;\n&lt;Variable name=&quot;header.background.color&quot; description=&quot;Header Background&quot; type=&quot;color&quot; default=&quot;transparent&quot;/&gt;\n&lt;/Group&gt;\n&lt;Group description=&quot;Links&quot; selector=&quot;.main-outer&quot;&gt;\n&lt;Variable name=&quot;link.color&quot; description=&quot;Link Color&quot; type=&quot;color&quot; default=&quot;#2288bb&quot;/&gt;\n&lt;Variable name=&quot;link.visited.color&quot; description=&quot;Visited Color&quot; type=&quot;color&quot; default=&quot;#888888&quot;/&gt;\n&lt;Variable name=&quot;link.hover.color&quot; description=&quot;Hover Color&quot; type=&quot;color&quot; default=&quot;#33aaff&quot;/&gt;\n&lt;/Group&gt;\n&lt;Group description=&quot;Blog Title&quot; selector=&quot;.header h1&quot;&gt;\n&lt;Variable name=&quot;header.font&quot; description=&quot;Font&quot; type=&quot;font&quot;\ndefault=&quot;normal normal 60px Arial, Tahoma, Helvetica, FreeSans, sans-serif&quot;/&gt;\n&lt;Variable name=&quot;header.text.color&quot; description=&quot;Title Color&quot; type=&quot;color&quot; default=&quot;#3399bb&quot; /&gt;\n&lt;/Group&gt;\n&lt;Group description=&quot;Blog Description&quot; selector=&quot;.header .description&quot;&gt;\n&lt;Variable name=&quot;description.text.color&quot; description=&quot;Description Color&quot; type=&quot;color&quot;\ndefault=&quot;#777777&quot; /&gt;\n&lt;/Group&gt;\n&lt;Group description=&quot;Tabs Text&quot; selector=&quot;.tabs-inner .widget li a&quot;&gt;\n&lt;Variable name=&quot;tabs.font&quot; description=&quot;Font&quot; type=&quot;font&quot;\ndefault=&quot;normal normal 14px Arial, Tahoma, Helvetica, FreeSans, sans-serif&quot;/&gt;\n&lt;Variable name=&quot;tabs.text.color&quot; description=&quot;Text Color&quot; type=&quot;color&quot; default=&quot;#999999&quot;/&gt;\n&lt;Variable name=&quot;tabs.selected.text.color&quot; description=&quot;Selected Color&quot; type=&quot;color&quot; default=&quot;#000000&quot;/&gt;\n&lt;/Group&gt;\n&lt;Group description=&quot;Tabs Background&quot; selector=&quot;.tabs-outer .PageList&quot;&gt;\n&lt;Variable name=&quot;tabs.background.color&quot; description=&quot;Background Color&quot; type=&quot;color&quot; default=&quot;#f5f5f5&quot;/&gt;\n&lt;Variable name=&quot;tabs.selected.background.color&quot; description=&quot;Selected Color&quot; type=&quot;color&quot; default=&quot;#eeeeee&quot;/&gt;\n&lt;/Group&gt;\n&lt;Group description=&quot;Post Title&quot; selector=&quot;h3.post-title, .comments h4&quot;&gt;\n&lt;Variable name=&quot;post.title.font&quot; description=&quot;Font&quot; type=&quot;font&quot;\ndefault=&quot;normal normal 22px Arial, Tahoma, Helvetica, FreeSans, sans-serif&quot;/&gt;\n&lt;/Group&gt;\n&lt;Group description=&quot;Date Header&quot; selector=&quot;.date-header&quot;&gt;\n&lt;Variable name=&quot;date.header.color&quot; description=&quot;Text Color&quot; type=&quot;color&quot;\ndefault=&quot;#666666&quot;/&gt;\n&lt;Variable name=&quot;date.header.background.color&quot; description=&quot;Background Color&quot; type=&quot;color&quot;\ndefault=&quot;transparent&quot;/&gt;\n&lt;/Group&gt;\n&lt;Group description=&quot;Post Footer&quot; selector=&quot;.post-footer&quot;&gt;\n&lt;Variable name=&quot;post.footer.text.color&quot; description=&quot;Text Color&quot; type=&quot;color&quot; default=&quot;#666666&quot;/&gt;\n&lt;Variable name=&quot;post.footer.background.color&quot; description=&quot;Background Color&quot; type=&quot;color&quot;\ndefault=&quot;#f9f9f9&quot;/&gt;\n&lt;Variable name=&quot;post.footer.border.color&quot; description=&quot;Shadow Color&quot; type=&quot;color&quot; default=&quot;#eeeeee&quot;/&gt;\n&lt;/Group&gt;\n&lt;Group description=&quot;Gadgets&quot; selector=&quot;h2&quot;&gt;\n&lt;Variable name=&quot;widget.title.font&quot; description=&quot;Title Font&quot; type=&quot;font&quot;\ndefault=&quot;normal bold 11px Arial, Tahoma, Helvetica, FreeSans, sans-serif&quot;/&gt;\n&lt;Variable name=&quot;widget.title.text.color&quot; description=&quot;Title Color&quot; type=&quot;color&quot; default=&quot;#000000&quot;/&gt;\n&lt;Variable name=&quot;widget.alternate.text.color&quot; description=&quot;Alternate Color&quot; type=&quot;color&quot; default=&quot;#999999&quot;/&gt;\n&lt;/Group&gt;\n&lt;Group description=&quot;Images&quot; selector=&quot;.main-inner&quot;&gt;\n&lt;Variable name=&quot;image.background.color&quot; description=&quot;Background Color&quot; type=&quot;color&quot; default=&quot;transparent&quot;/&gt;\n&lt;Variable name=&quot;image.border.color&quot; description=&quot;Border Color&quot; type=&quot;color&quot; default=&quot;transparent&quot;/&gt;\n&lt;Variable name=&quot;image.text.color&quot; description=&quot;Caption Text Color&quot; type=&quot;color&quot; default=&quot;#666666&quot;/&gt;\n&lt;/Group&gt;\n&lt;Group description=&quot;Accents&quot; selector=&quot;.content-inner&quot;&gt;\n&lt;Variable name=&quot;body.rule.color&quot; description=&quot;Separator Line Color&quot; type=&quot;color&quot; default=&quot;#eeeeee&quot;/&gt;\n&lt;Variable name=&quot;tabs.border.color&quot; description=&quot;Tabs Border Color&quot; type=&quot;color&quot; default=&quot;transparent&quot;/&gt;\n&lt;/Group&gt;\n&lt;Variable name=&quot;body.background&quot; description=&quot;Body Background&quot; type=&quot;background&quot;\ncolor=&quot;#ffffff&quot; default=&quot;$(color) none repeat scroll top left&quot;/&gt;\n&lt;Variable name=&quot;body.background.override&quot; description=&quot;Body Background Override&quot; type=&quot;string&quot; default=&quot;&quot;/&gt;\n&lt;Variable name=&quot;body.background.gradient.cap&quot; description=&quot;Body Gradient Cap&quot; type=&quot;url&quot;\ndefault=&quot;url(http://www.blogblog.com/1kt/simple/gradients_light.png)&quot;/&gt;\n&lt;Variable name=&quot;body.background.gradient.tile&quot; description=&quot;Body Gradient Tile&quot; type=&quot;url&quot;\ndefault=&quot;url(http://www.blogblog.com/1kt/simple/body_gradient_tile_light.png)&quot;/&gt;\n&lt;Variable name=&quot;content.background.color.selector&quot; description=&quot;Content Background Color Selector&quot; type=&quot;string&quot; default=&quot;.content-inner&quot;/&gt;\n&lt;Variable name=&quot;content.padding&quot; description=&quot;Content Padding&quot; type=&quot;length&quot; default=&quot;10px&quot;/&gt;\n&lt;Variable name=&quot;content.padding.horizontal&quot; description=&quot;Content Horizontal Padding&quot; type=&quot;length&quot; default=&quot;10px&quot;/&gt;\n&lt;Variable name=&quot;content.shadow.spread&quot; description=&quot;Content Shadow Spread&quot; type=&quot;length&quot; default=&quot;40px&quot;/&gt;\n&lt;Variable name=&quot;content.shadow.spread.webkit&quot; description=&quot;Content Shadow Spread (WebKit)&quot; type=&quot;length&quot; default=&quot;5px&quot;/&gt;\n&lt;Variable name=&quot;content.shadow.spread.ie&quot; description=&quot;Content Shadow Spread (IE)&quot; type=&quot;length&quot; default=&quot;10px&quot;/&gt;\n&lt;Variable name=&quot;main.border.width&quot; description=&quot;Main Border Width&quot; type=&quot;length&quot; default=&quot;0&quot;/&gt;\n&lt;Variable name=&quot;header.background.gradient&quot; description=&quot;Header Gradient&quot; type=&quot;url&quot; default=&quot;none&quot;/&gt;\n&lt;Variable name=&quot;header.shadow.offset.left&quot; description=&quot;Header Shadow Offset Left&quot; type=&quot;length&quot; default=&quot;-1px&quot;/&gt;\n&lt;Variable name=&quot;header.shadow.offset.top&quot; description=&quot;Header Shadow Offset Top&quot; type=&quot;length&quot; default=&quot;-1px&quot;/&gt;\n&lt;Variable name=&quot;header.shadow.spread&quot; description=&quot;Header Shadow Spread&quot; type=&quot;length&quot; default=&quot;1px&quot;/&gt;\n&lt;Variable name=&quot;header.padding&quot; description=&quot;Header Padding&quot; type=&quot;length&quot; default=&quot;30px&quot;/&gt;\n&lt;Variable name=&quot;header.border.size&quot; description=&quot;Header Border Size&quot; type=&quot;length&quot; default=&quot;1px&quot;/&gt;\n&lt;Variable name=&quot;header.bottom.border.size&quot; description=&quot;Header Bottom Border Size&quot; type=&quot;length&quot; default=&quot;1px&quot;/&gt;\n&lt;Variable name=&quot;header.border.horizontalsize&quot; description=&quot;Header Horizontal Border Size&quot; type=&quot;length&quot; default=&quot;0&quot;/&gt;\n&lt;Variable name=&quot;description.text.size&quot; description=&quot;Description Text Size&quot; type=&quot;string&quot; default=&quot;140%&quot;/&gt;\n&lt;Variable name=&quot;tabs.margin.top&quot; description=&quot;Tabs Margin Top&quot; type=&quot;length&quot; default=&quot;0&quot; /&gt;\n&lt;Variable name=&quot;tabs.margin.side&quot; description=&quot;Tabs Side Margin&quot; type=&quot;length&quot; default=&quot;30px&quot; /&gt;\n&lt;Variable name=&quot;tabs.background.gradient&quot; description=&quot;Tabs Background Gradient&quot; type=&quot;url&quot;\ndefault=&quot;url(http://www.blogblog.com/1kt/simple/gradients_light.png)&quot;/&gt;\n&lt;Variable name=&quot;tabs.border.width&quot; description=&quot;Tabs Border Width&quot; type=&quot;length&quot; default=&quot;1px&quot;/&gt;\n&lt;Variable name=&quot;tabs.bevel.border.width&quot; description=&quot;Tabs Bevel Border Width&quot; type=&quot;length&quot; default=&quot;1px&quot;/&gt;\n&lt;Variable name=&quot;date.header.padding&quot; description=&quot;Date Header Padding&quot; type=&quot;string&quot; default=&quot;inherit&quot;/&gt;\n&lt;Variable name=&quot;date.header.letterspacing&quot; description=&quot;Date Header Letter Spacing&quot; type=&quot;string&quot; default=&quot;inherit&quot;/&gt;\n&lt;Variable name=&quot;date.header.margin&quot; description=&quot;Date Header Margin&quot; type=&quot;string&quot; default=&quot;inherit&quot;/&gt;\n&lt;Variable name=&quot;post.margin.bottom&quot; description=&quot;Post Bottom Margin&quot; type=&quot;length&quot; default=&quot;25px&quot;/&gt;\n&lt;Variable name=&quot;image.border.small.size&quot; description=&quot;Image Border Small Size&quot; type=&quot;length&quot; default=&quot;2px&quot;/&gt;\n&lt;Variable name=&quot;image.border.large.size&quot; description=&quot;Image Border Large Size&quot; type=&quot;length&quot; default=&quot;5px&quot;/&gt;\n&lt;Variable name=&quot;page.width.selector&quot; description=&quot;Page Width Selector&quot; type=&quot;string&quot; default=&quot;.region-inner&quot;/&gt;\n&lt;Variable name=&quot;page.width&quot; description=&quot;Page Width&quot; type=&quot;string&quot; default=&quot;auto&quot;/&gt;\n&lt;Variable name=&quot;main.section.margin&quot; description=&quot;Main Section Margin&quot; type=&quot;length&quot; default=&quot;15px&quot;/&gt;\n&lt;Variable name=&quot;main.padding&quot; description=&quot;Main Padding&quot; type=&quot;length&quot; default=&quot;15px&quot;/&gt;\n&lt;Variable name=&quot;main.padding.top&quot; description=&quot;Main Padding Top&quot; type=&quot;length&quot; default=&quot;30px&quot;/&gt;\n&lt;Variable name=&quot;main.padding.bottom&quot; description=&quot;Main Padding Bottom&quot; type=&quot;length&quot; default=&quot;30px&quot;/&gt;\n&lt;Variable name=&quot;paging.background&quot;\ncolor=&quot;#ffffff&quot;\ndescription=&quot;Background of blog paging area&quot; type=&quot;background&quot;\ndefault=&quot;transparent none no-repeat scroll top center&quot;/&gt;\n&lt;Variable name=&quot;footer.bevel&quot; description=&quot;Bevel border length of footer&quot; type=&quot;length&quot; default=&quot;0&quot;/&gt;\n&lt;Variable name=&quot;mobile.background.overlay&quot; description=&quot;Mobile Background Overlay&quot; type=&quot;string&quot;\ndefault=&quot;transparent none repeat scroll top left&quot;/&gt;\n&lt;Variable name=&quot;mobile.background.size&quot; description=&quot;Mobile Background Size&quot; type=&quot;string&quot; default=&quot;auto&quot;/&gt;\n&lt;Variable name=&quot;mobile.button.color&quot; description=&quot;Mobile Button Color&quot; type=&quot;color&quot; default=&quot;#ffffff&quot; /&gt;\n&lt;Variable name=&quot;startSide&quot; description=&quot;Side where text starts in blog language&quot; type=&quot;automatic&quot; default=&quot;left&quot;/&gt;\n&lt;Variable name=&quot;endSide&quot; description=&quot;Side where text ends in blog language&quot; type=&quot;automatic&quot; default=&quot;right&quot;/&gt;\n*/\n/* Content\n----------------------------------------------- */\nbody {\nfont: normal normal 12px \'Trebuchet MS\', Trebuchet, Verdana, sans-serif;\ncolor: #666666;\nbackground: #ffffff none repeat scroll top left;\npadding: 0 0 0 0;\n}\nhtml body .region-inner {\nmin-width: 0;\nmax-width: 100%;\nwidth: auto;\n}\na:link {\ntext-decoration:none;\ncolor: #191919;\n}\na:visited {\ntext-decoration:none;\ncolor: #b0aaaa;\n}\na:hover {\ntext-decoration:underline;\ncolor: #ff7474;\n}\n.body-fauxcolumn-outer .fauxcolumn-inner {\nbackground: transparent none repeat scroll top left;\n_background-image: none;\n}\n.body-fauxcolumn-outer .cap-top {\nposition: absolute;\nz-index: 1;\nheight: 400px;\nwidth: 100%;\nbackground: #ffffff none repeat scroll top left;\n}\n.body-fauxcolumn-outer .cap-top .cap-left {\nwidth: 100%;\nbackground: transparent none repeat-x scroll top left;\n_background-image: none;\n}\n.content-outer {\n-moz-box-shadow: 0 0 0 rgba(0, 0, 0, .15);\n-webkit-box-shadow: 0 0 0 rgba(0, 0, 0, .15);\n-goog-ms-box-shadow: 0 0 0 #333333;\nbox-shadow: 0 0 0 rgba(0, 0, 0, .15);\nmargin-bottom: 1px;\n}\n.content-inner {\npadding: 10px 40px;\n}\n.content-inner {\nbackground-color: #ffffff;\n}\n/* Header\n----------------------------------------------- */\n.header-outer {\nbackground: transparent none repeat-x scroll 0 -400px;\n_background-image: none;\n}\n.Header h1 {\nfont: normal normal 40px \'Trebuchet MS\', Trebuchet, sans-serif;\ncolor: #333333;\ntext-shadow: 0 0 0 rgba(0, 0, 0, .2);\n}\n.Header h1 a {\ncolor: #333333;\n}\n.Header .description {\nfont-size: 18px;\ncolor: #000000;\n}\n.header-inner .Header .titlewrapper {\npadding: 22px 0;\n}\n.header-inner .Header .descriptionwrapper {\npadding: 0 0;\n}\n/* Tabs\n----------------------------------------------- */\n.tabs-inner .section:first-child {\nborder-top: 0 solid #dddddd;\n}\n.tabs-inner .section:first-child ul {\nmargin-top: -1px;\nborder-top: 1px solid #dddddd;\nborder-left: 1px solid #dddddd;\nborder-right: 1px solid #dddddd;\n}\n.tabs-inner .widget ul {\nbackground: transparent none repeat-x scroll 0 -800px;\n_background-image: none;\nborder-bottom: 1px solid #dddddd;\nmargin-top: 0;\nmargin-left: -30px;\nmargin-right: -30px;\n}\n.tabs-inner .widget li a {\ndisplay: inline-block;\npadding: .6em 1em;\nfont: normal normal 14px \'Courier New\', Courier, FreeMono, monospace;\ncolor: #000000;\nborder-left: 1px solid #ffffff;\nborder-right: 1px solid #dddddd;\n}\n.tabs-inner .widget li:first-child a {\nborder-left: none;\n}\n.tabs-inner .widget li.selected a, .tabs-inner .widget li a:hover {\ncolor: #000000;\nbackground-color: #eeeeee;\ntext-decoration: none;\n}\n/* Columns\n----------------------------------------------- */\n.main-outer {\nborder-top: 0 solid transparent;\n}\n.fauxcolumn-left-outer .fauxcolumn-inner {\nborder-right: 1px solid transparent;\n}\n.fauxcolumn-right-outer .fauxcolumn-inner {\nborder-left: 1px solid transparent;\n}\n/* Headings\n----------------------------------------------- */\nh2 {\nmargin: 0 0 1em 0;\nfont: normal bold 11px \'Trebuchet MS\', Trebuchet, sans-serif;\ncolor: #666666;\ntext-transform: uppercase;\n}\n/* Widgets\n----------------------------------------------- */\n.widget .zippy {\ncolor: #999999;\ntext-shadow: 2px 2px 1px rgba(0, 0, 0, .1);\n}\n.widget .popular-posts ul {\nlist-style: none;\n}\n/* Posts\n----------------------------------------------- */\n.date-header span {\nbackground-color: #ffffff;\ncolor: #000000;\npadding: 0.4em;\nletter-spacing: 3px;\nmargin: inherit;\n}\n.main-inner {\npadding-top: 35px;\npadding-bottom: 65px;\n}\n.main-inner .column-center-inner {\npadding: 0 0;\n}\n.main-inner .column-center-inner .section {\nmargin: 0 1em;\n}\n.post {\nmargin: 0 0 45px 0;\n}\nh3.post-title, .comments h4 {\nfont: normal normal 22px \'Courier New\', Courier, FreeMono, monospace;\nmargin: .75em 0 0;\n}\n.post-body {\nfont-size: 110%;\nline-height: 1.4;\nposition: relative;\n}\n.post-body img, .post-body .tr-caption-container, .Profile img, .Image img,\n.BlogList .item-thumbnail img {\npadding: 2px;\nbackground: transparent;\nborder: 1px solid transparent;\n}\n.post-body img, .post-body .tr-caption-container {\npadding: 5px;\n}\n.post-body .tr-caption-container {\ncolor: transparent;\n}\n.post-body .tr-caption-container img {\npadding: 0;\nbackground: transparent;\nborder: none;\n-moz-box-shadow: 0 0 0 rgba(0, 0, 0, .1);\n-webkit-box-shadow: 0 0 0 rgba(0, 0, 0, .1);\nbox-shadow: 0 0 0 rgba(0, 0, 0, .1);\n}\n.post-header {\nmargin: 0 0 1.5em;\nline-height: 1.6;\nfont-size: 90%;\n}\n.post-footer {\nmargin: 20px -2px 0;\npadding: 5px 10px;\ncolor: #666666;\nbackground-color: #eeeeee;\nborder-bottom: 1px solid #eeeeee;\nline-height: 1.6;\nfont-size: 90%;\n}\n#comments .comment-author {\npadding-top: 1.5em;\nborder-top: 1px solid transparent;\nbackground-position: 0 1.5em;\n}\n#comments .comment-author:first-child {\npadding-top: 0;\nborder-top: none;\n}\n.avatar-image-container {\nmargin: .2em 0 0;\n}\n#comments .avatar-image-container img {\nborder: 1px solid transparent;\n}\n/* Accents\n---------------------------------------------- */\n.section-columns td.columns-cell {\nborder-left: 1px solid transparent;\n}\n.blog-pager {\nbackground: transparent url(http://www.blogblog.com/1kt/simple/paging_dot.png) repeat-x scroll top center;\n}\n.blog-pager-older-link, .home-link,\n.blog-pager-newer-link {\nbackground-color: #ffffff;\npadding: 5px;\n}\n.footer-outer {\nborder-top: 1px dashed #bbbbbb;\n}\n/* Mobile\n----------------------------------------------- */\nbody.mobile  {\nbackground-size: auto;\n}\n.mobile .body-fauxcolumn-outer {\nbackground: transparent none repeat scroll top left;\n}\n.mobile .body-fauxcolumn-outer .cap-top {\nbackground-size: 100% auto;\n}\n.mobile .content-outer {\n-webkit-box-shadow: 0 0 3px rgba(0, 0, 0, .15);\nbox-shadow: 0 0 3px rgba(0, 0, 0, .15);\npadding: 0 0;\n}\nbody.mobile .AdSense {\nmargin: 0 -0;\n}\n.mobile .tabs-inner .widget ul {\nmargin-left: 0;\nmargin-right: 0;\n}\n.mobile .post {\nmargin: 0;\n}\n.mobile .main-inner .column-center-inner .section {\nmargin: 0;\n}\n.mobile .date-header span {\npadding: 0.1em 10px;\nmargin: 0 -10px;\n}\n.mobile h3.post-title {\nmargin: 0;\n}\n.mobile .blog-pager {\nbackground: transparent none no-repeat scroll top center;\n}\n.mobile .footer-outer {\nborder-top: none;\n}\n.mobile .main-inner, .mobile .footer-inner {\nbackground-color: #ffffff;\n}\n.mobile-index-contents {\ncolor: #666666;\n}\n.mobile-link-button {\nbackground-color: #191919;\n}\n.mobile-link-button a:link, .mobile-link-button a:visited {\ncolor: #ffffff;\n}\n.mobile .tabs-inner .section:first-child {\nborder-top: none;\n}\n.mobile .tabs-inner .PageList .widget-content {\nbackground-color: #eeeeee;\ncolor: #000000;\nborder-top: 1px solid #dddddd;\nborder-bottom: 1px solid #dddddd;\n}\n.mobile .tabs-inner .PageList .widget-content .pagelist-arrow {\nborder-left: 1px solid #dddddd;\n}\n#header-inner img {margin: 0 auto !important;}\n#header-inner {text-align:center !important;} /*include this line if you are using Template Designer*/.content-outer\n{\n-moz-box-shadow: 0 0 0px rgba(0, 0, 0, .15);\n-webkit-box-shadow: 0 0 0px rgba(0, 0, 0, .15);\n-goog-ms-box-shadow: 0 0 00px #333333;\nbox-shadow: 0 0 0px rgba(0, 0, 0, .15);\n}\n--&gt;\n    </style>\n    <style type="text/css" id="template-skin-1">\n      &lt;!--\nbody {\nmin-width: 1230px;\n}\n.content-outer, .content-fauxcolumn-outer, .region-inner {\nmin-width: 1230px;\nmax-width: 1230px;\n_width: 1230px;\n}\n.main-inner .columns {\npadding-left: 0px;\npadding-right: 340px;\n}\n.main-inner .fauxcolumn-center-outer {\nleft: 0px;\nright: 340px;\n/* IE6 does not respect left and right together */\n_width: expression(this.parentNode.offsetWidth -\nparseInt(&quot;0px&quot;) -\nparseInt(&quot;340px&quot;) + \'px\');\n}\n.main-inner .fauxcolumn-left-outer {\nwidth: 0px;\n}\n.main-inner .fauxcolumn-right-outer {\nwidth: 340px;\n}\n.main-inner .column-left-outer {\nwidth: 0px;\nright: 100%;\nmargin-left: -0px;\n}\n.main-inner .column-right-outer {\nwidth: 340px;\nmargin-right: -340px;\n}\n#layout {\nmin-width: 0;\n}\n#layout .content-outer {\nmin-width: 0;\nwidth: 800px;\n}\n#layout .region-inner {\nmin-width: 0;\nwidth: auto;\n}\n--&gt;\n    </style>\n    <script type="text/javascript">\n      var _gaq = _gaq || [];\n  _gaq.push([\'_setAccount\', \'UA-11711764-1\']);\n  _gaq.push([\'_trackPageview\']);\n\n  (function() {\n    var ga = document.createElement(\'script\'); ga.type = \'text/javascript\'; ga.async = true;\n    ga.src = (\'https:\' == document.location.protocol ? \'https://ssl\' : \'http://www\') + \'.google-analytics.com/ga.js\';\n    var s = document.getElementsByTagName(\'script\')[0]; s.parentNode.insertBefore(ga, s);\n  })();\n    </script>\n    <script type="text/javascript">\n      var a=navigator,b=&quot;userAgent&quot;,c=&quot;indexOf&quot;,f=&quot;&amp;m=1&quot;,g=&quot;(^|&amp;)m=&quot;,h=&quot;?&quot;,i=&quot;?m=1&quot;;function j(){var d=window.location.href,e=d.split(h);switch(e.length){case 1:return d+i;case 2:return 0&lt;=e[1].search(g)?null:d+f;default:return null}}if(-1!=a[b][c](&quot;Mobile&quot;)&amp;&amp;-1!=a[b][c](&quot;WebKit&quot;)&amp;&amp;-1==a[b][c](&quot;iPad&quot;)||-1!=a[b][c](&quot;Opera Mini&quot;)||-1!=a[b][c](&quot;IEMobile&quot;)){var k=j();k&amp;&amp;window.location.replace(k)};\n    </script>\n    <script type="text/javascript"> if (window.jstiming) window.jstiming.load.tick(\'headEnd\'); </script>\n  </head>\n  <body class="loading">\n    <div id="navbar" class="navbar section">\n      <div id="Navbar1" class="widget Navbar">\n        <script type="text/javascript"> function setAttributeOnload(object, attribute, val) { if(window.addEventListener) { window.addEventListener(\'load\', function(){ object[attribute] = val; }, false); } else { window.attachEvent(\'onload\', function(){ object[attribute] = val; }); } } </script>\n        <div id="navbar-iframe-container"></div>\n        <script src="https://apis.google.com/js/plusone.js" type="text/javascript"></script>\n        <script type="text/javascript">\n          gapi.load(&quot;iframes-styles-bubble&quot;, function() {\n          if (window.iframes &amp;&amp; iframes.open) {\n            iframes.open(\n                \'//www.blogger.com/navbar.g?targetBlogID\\758739671872301330841\\46blogName\\75A+Diary+of+Lovely\\46publishMode\\75PUBLISH_MODE_BLOGSPOT\\46navbarType\\75LIGHT\\46layoutType\\75LAYOUTS\\46searchRoot\\75http://adiaryoflovely.blogspot.com/search\\46blogLocale\\75en_GB\\46v\\0752\\46homepageUrl\\75http://adiaryoflovely.blogspot.com/\\46targetPostID\\0755494635865561241588\\46blogPostOrPageUrl\\75http://adiaryoflovely.blogspot.com/2011/04/pearls-home.html\\46vt\\0754153028000485128186\',\n                {\n                  container: &quot;navbar-iframe-container&quot;,\n                  id: &quot;navbar-iframe&quot;\n                },\n                {\n                });\n          }\n        });\n        </script>\n        <script type="text/javascript">\n          (function() {\nvar script = document.createElement(\'script\');\nscript.type = \'text/javascript\';\nscript.src = \'//pagead2.googlesyndication.com/pagead/js/google_top_exp.js\';\nvar head = document.getElementsByTagName(\'head\')[0];\nif (head) {\nhead.appendChild(script);\n}})();\n        </script>\n      </div>\n    </div>\n    <div class="body-fauxcolumns">\n      <div class="fauxcolumn-outer body-fauxcolumn-outer">\n        <div class="cap-top">\n          <div class="cap-left"></div>\n          <div class="cap-right"></div>\n        </div>\n        <div class="fauxborder-left">\n          <div class="fauxborder-right"></div>\n          <div class="fauxcolumn-inner"> </div>\n        </div>\n        <div class="cap-bottom">\n          <div class="cap-left"></div>\n          <div class="cap-right"></div>\n        </div>\n      </div>\n    </div>\n    <div class="content">\n      <div class="content-fauxcolumns">\n        <div class="fauxcolumn-outer content-fauxcolumn-outer">\n          <div class="cap-top">\n            <div class="cap-left"></div>\n            <div class="cap-right"></div>\n          </div>\n          <div class="fauxborder-left">\n            <div class="fauxborder-right"></div>\n            <div class="fauxcolumn-inner"> </div>\n          </div>\n          <div class="cap-bottom">\n            <div class="cap-left"></div>\n            <div class="cap-right"></div>\n          </div>\n        </div>\n      </div>\n      <div class="content-outer">\n        <div class="content-cap-top cap-top">\n          <div class="cap-left"></div>\n          <div class="cap-right"></div>\n        </div>\n        <div class="fauxborder-left content-fauxborder-left">\n          <div class="fauxborder-right content-fauxborder-right"></div>\n          <div class="content-inner">\n            <header>\n              <div class="header-outer">\n                <div class="header-cap-top cap-top">\n                  <div class="cap-left"></div>\n                  <div class="cap-right"></div>\n                </div>\n                <div class="fauxborder-left header-fauxborder-left">\n                  <div class="fauxborder-right header-fauxborder-right"></div>\n                  <div class="region-inner header-inner">\n                    <div id="header" class="header section">\n                      <div id="Header1" class="widget Header">\n                        <div id="header-inner">\n                          <a style="display: block" href="http://adiaryoflovely.blogspot.com/" shape="rect">\n                            <img width="1050px; " style="display: block" src="http://4.bp.blogspot.com/_-m3vOZLPvp4/S3G4Ruz6tNI/AAAAAAAAEVI/LV39rHxx2bU/S1600-R/diary+lovely+header+copy.jpg" height="300px; " alt="A Diary of Lovely" id="Header1_headerimg"></img>\n                          </a>\n                        </div>\n                      </div>\n                    </div>\n                  </div>\n                </div>\n                <div class="header-cap-bottom cap-bottom">\n                  <div class="cap-left"></div>\n                  <div class="cap-right"></div>\n                </div>\n              </div>\n            </header>\n            <div class="tabs-outer">\n              <div class="tabs-cap-top cap-top">\n                <div class="cap-left"></div>\n                <div class="cap-right"></div>\n              </div>\n              <div class="fauxborder-left tabs-fauxborder-left">\n                <div class="fauxborder-right tabs-fauxborder-right"></div>\n                <div class="region-inner tabs-inner">\n                  <div id="crosscol" class="tabs section"></div>\n                  <div id="crosscol-overflow" class="tabs section"></div>\n                </div>\n              </div>\n              <div class="tabs-cap-bottom cap-bottom">\n                <div class="cap-left"></div>\n                <div class="cap-right"></div>\n              </div>\n            </div>\n            <div class="main-outer">\n              <div class="main-cap-top cap-top">\n                <div class="cap-left"></div>\n                <div class="cap-right"></div>\n              </div>\n              <div class="fauxborder-left main-fauxborder-left">\n                <div class="fauxborder-right main-fauxborder-right"></div>\n                <div class="region-inner main-inner">\n                  <div class="columns fauxcolumns">\n                    <div class="fauxcolumn-outer fauxcolumn-center-outer">\n                      <div class="cap-top">\n                        <div class="cap-left"></div>\n                        <div class="cap-right"></div>\n                      </div>\n                      <div class="fauxborder-left">\n                        <div class="fauxborder-right"></div>\n                        <div class="fauxcolumn-inner"> </div>\n                      </div>\n                      <div class="cap-bottom">\n                        <div class="cap-left"></div>\n                        <div class="cap-right"></div>\n                      </div>\n                    </div>\n                    <div class="fauxcolumn-outer fauxcolumn-left-outer">\n                      <div class="cap-top">\n                        <div class="cap-left"></div>\n                        <div class="cap-right"></div>\n                      </div>\n                      <div class="fauxborder-left">\n                        <div class="fauxborder-right"></div>\n                        <div class="fauxcolumn-inner"> </div>\n                      </div>\n                      <div class="cap-bottom">\n                        <div class="cap-left"></div>\n                        <div class="cap-right"></div>\n                      </div>\n                    </div>\n                    <div class="fauxcolumn-outer fauxcolumn-right-outer">\n                      <div class="cap-top">\n                        <div class="cap-left"></div>\n                        <div class="cap-right"></div>\n                      </div>\n                      <div class="fauxborder-left">\n                        <div class="fauxborder-right"></div>\n                        <div class="fauxcolumn-inner"> </div>\n                      </div>\n                      <div class="cap-bottom">\n                        <div class="cap-left"></div>\n                        <div class="cap-right"></div>\n                      </div>\n                    </div>\n                    <div class="columns-inner">\n                      <div class="column-center-outer">\n                        <div class="column-center-inner">\n                          <div id="main" class="main section">\n                            <div id="Blog1" class="widget Blog">\n                              <div class="blog-posts hfeed">\n                                <div class="date-outer">\n                                  <h2 class="date-header">\n                                    <span>Friday, 22 April 2011</span>\n                                  </h2>\n                                  <div class="date-posts">\n                                    <div class="post-outer">\n                                      <div class="post hentry">\n                                        <a name="5494635865561241588" shape="rect"></a>\n                                        <h3 class="post-title entry-title"> Pearl\'s home </h3>\n                                        <div class="post-header">\n                                          <div class="post-header-line-1"></div>\n                                        </div>\n                                        <div id="post-body-5494635865561241588" class="post-body entry-content">\n                                          <div trbidi="on" style="text-align: left;" dir="ltr">\n                                            <div style="text-align: center;">\n                                              <span style="font-family: \'Trebuchet MS\', sans-serif;" class="Apple-style-span">\n                                                <span style="font-family: Times;" class="Apple-style-span">\n                                                  <span style="font-size: small;" class="Apple-style-span">\n                                                    <span style="font-family: \'Trebuchet MS\', sans-serif;" class="Apple-style-span">This is the home of Pearl Lowe. For those of you who don\'t know\xc2\xa0</span>\n                                                  </span>\n                                                  <span style="font-size: small;" class="Apple-style-span">\n                                                    <span style="font-family: \'Trebuchet MS\', sans-serif;" class="Apple-style-span">\n                                                      <a href="http://en.wikipedia.org/wiki/Pearl_Lowe" shape="rect">Pearl Lowe</a>\n                                                      ,\n                                                    </span>\n                                                  </span>\n                                                  <span style="font-size: small;" class="Apple-style-span">\n                                                    <span style="font-family: \'Trebuchet MS\', sans-serif;" class="Apple-style-span">\xc2\xa0she is a British songwriter turned designer. After leaving the wild life in London she now lives with all her family in Somerset, close to Bath, in an ever charming cottage. I saw her house in the latest\xc2\xa0</span>\n                                                  </span>\n                                                  <a href="http://www.graziadaily.co.uk/" shape="rect">\n                                                    <span style="font-size: small;" class="Apple-style-span">\n                                                      <span style="font-family: \'Trebuchet MS\', sans-serif;" class="Apple-style-span">Grazia</span>\n                                                    </span>\n                                                  </a>\n                                                  <span style="font-size: small;" class="Apple-style-span">\n                                                    <span style="font-family: \'Trebuchet MS\', sans-serif;" class="Apple-style-span">\n                                                      \xc2\xa0issue and had to share. i looked around the internet but couldn\'t find any pictures so here they are straight from the magazine! It\'s incredibly beautiful, full of rustic and vintage details and quirky bits that make this an unforgettable home.\n                                                    </span>\n                                                  </span>\n                                                </span>\n                                              </span>\n                                              <br clear="none"></br>\n                                              <span style="font-family: \'Trebuchet MS\', sans-serif;" class="Apple-style-span">\n                                                <span style="font-size: xx-small;" class="Apple-style-span">**</span>\n                                              </span>\n                                              <br clear="none"></br>\n                                              <span style="font-family: \'Trebuchet MS\', sans-serif;" class="Apple-style-span">\n                                                <img src="http://i990.photobucket.com/albums/af28/helenadrz/P1030337.jpg"></img>\n                                              </span>\n                                              <br clear="none"></br>\n                                              <span style="font-family: \'Trebuchet MS\', sans-serif;" class="Apple-style-span">\n                                                <img src="http://i990.photobucket.com/albums/af28/helenadrz/P1030338.jpg"></img>\n                                              </span>\n                                              <br clear="none"></br>\n                                              <span style="font-family: \'Trebuchet MS\', sans-serif;" class="Apple-style-span">\n                                                <img src="http://i990.photobucket.com/albums/af28/helenadrz/P1030339.jpg"></img>\n                                              </span>\n                                              <br clear="none"></br>\n                                              <span style="font-family: \'Trebuchet MS\', sans-serif;" class="Apple-style-span">\n                                                <img src="http://i990.photobucket.com/albums/af28/helenadrz/P1030341.jpg"></img>\n                                              </span>\n                                              <br clear="none"></br>\n                                              <span style="font-family: \'Trebuchet MS\', sans-serif;" class="Apple-style-span">\n                                                <img style="cursor: move;" src="http://i990.photobucket.com/albums/af28/helenadrz/P1030340.jpg"></img>\n                                              </span>\n                                              <br clear="none"></br>\n                                              <span style="font-family: \'Trebuchet MS\', sans-serif;" class="Apple-style-span">\n                                                <img src="http://i990.photobucket.com/albums/af28/helenadrz/P1030342.jpg"></img>\n                                              </span>\n                                            </div>\n                                          </div>\n                                          <div style="clear: both;"></div>\n                                        </div>\n                                        <div class="post-footer">\n                                          <div class="post-footer-line post-footer-line-1">\n                                            <span class="post-author vcard">\n                                              Posted by\n                                              <span class="fn">Helena - A Diary of Lovely</span>\n                                            </span>\n                                            <span class="post-timestamp">\n                                              at\n                                              <a title="permanent link" rel="bookmark" href="http://adiaryoflovely.blogspot.com/2011/04/pearls-home.html" class="timestamp-link" shape="rect">\n                                                <abbr title="2011-04-22T00:00:00+01:00" class="published">00:00</abbr>\n                                              </a>\n                                            </span>\n                                            <span class="post-comment-link"> </span>\n                                            <span class="post-icons">\n                                              <span class="item-action">\n                                                <a title="Email Post" href="http://www.blogger.com/email-post.g?blogID=8739671872301330841&amp;postID=5494635865561241588" shape="rect">\n                                                  <img width="18" src="http://img1.blogblog.com/img/icon18_email.gif" height="13" alt="" class="icon-action"></img>\n                                                </a>\n                                              </span>\n                                              <span class="item-control blog-admin pid-1300793992">\n                                                <a title="Edit Post" href="http://www.blogger.com/post-edit.g?blogID=8739671872301330841&amp;postID=5494635865561241588&amp;from=pencil" shape="rect">\n                                                  <img width="18" src="http://img2.blogblog.com/img/icon18_edit_allbkg.gif" height="18" alt="" class="icon-action"></img>\n                                                </a>\n                                              </span>\n                                            </span>\n                                            <div class="post-share-buttons goog-inline-block">\n                                              <a title="Email This" target="_blank" href="http://www.blogger.com/share-post.g?blogID=8739671872301330841&amp;postID=5494635865561241588&amp;target=email" class="goog-inline-block share-button sb-email" shape="rect">\n                                                <span class="share-button-link-text">Email This</span>\n                                              </a>\n                                              <a \n                                              title="BlogThis!" target="_blank" onclick="window.open(this.href, &quot;_blank&quot;, &quot;height=270,width=475&quot;); return false;" href="http://www.blogger.com/share-post.g?blogID=8739671872301330841&amp;postID=5494635865561241588&amp;target=blog" class="goog-inline-block share-button sb-blog" shape="rect">\n                                                <span class="share-button-link-text">BlogThis!</span>\n</a>\n                                              <a title="Share to Twitter" target="_blank" href="http://www.blogger.com/share-post.g?blogID=8739671872301330841&amp;postID=5494635865561241588&amp;target=twitter" class="goog-inline-block share-button sb-twitter" shape="rect">\n                                                <span class="share-button-link-text">Share to Twitter</span>\n                                              </a>\n                                              <a \n                                              title="Share to Facebook" target="_blank" onclick="window.open(this.href, &quot;_blank&quot;, &quot;height=430,width=640&quot;); return false;" href="http://www.blogger.com/share-post.g?blogID=8739671872301330841&amp;postID=5494635865561241588&amp;target=facebook" class="goog-inline-block share-button sb-facebook" shape="rect">\n                                                <span class="share-button-link-text">Share to Facebook</span>\n</a>\n                                              <div class="goog-inline-block dummy-container">\n                                                <g:plusone annotation="inline" width="300" size="medium" href="http://adiaryoflovely.blogspot.com/2011/04/pearls-home.html" source="blogger:blog:plusone"></g:plusone>\n                                              </div>\n                                            </div>\n                                          </div>\n                                          <div class="post-footer-line post-footer-line-2">\n                                            <span class="post-labels">\n                                              Labels:\n                                              <a rel="tag" href="http://adiaryoflovely.blogspot.com/search/label/interiors" shape="rect">interiors</a>\n                                              ,\n                                              <a rel="tag" href="http://adiaryoflovely.blogspot.com/search/label/magazines" shape="rect">magazines</a>\n                                            </span>\n                                          </div>\n                                          <div class="post-footer-line post-footer-line-3">\n                                            <span class="post-location"> </span>\n                                          </div>\n                                        </div>\n                                      </div>\n                                      <div id="comments" class="comments">\n                                        <a name="comments" shape="rect"></a>\n                                        <h4>11 comments:</h4>\n                                        <div class="comments-content">\n                                          <script type="text/javascript" src="//www.blogblog.com/dynamicviews/4224c15c4e7c9321/js/comments.js" async="async"></script>\n                                          <script type="text/javascript">\n                                            (function() {\n      var items = [{\'id\': \'8388536744477713918\', \'body\': \'You always find the prettiest things!\', \'timestamp\': \'1303435475060\', \'permalink\': \'http://adiaryoflovely.blogspot.com/2011/04/pearls-home.html?showComment\\0751303435475060#c8388536744477713918\', \'author\': {\'name\': \'Krysten @ After \\46#39;I Do\\46#39;\', \'avatarUrl\': \'http://1.bp.blogspot.com/-4V_KhU2P-LE/TWrnP5yVflI/AAAAAAAABkU/NW2R9AtTVuU/s45/krysten-loveillustrated.jpg\', \'profileUrl\': \'http://www.blogger.com/profile/07290616156300143483\'}, \'displayTime\': \'22 April 2011 02:24\', \'deleteclass\': \'item-control blog-admin pid-1950911395\'}, {\'id\': \'2132887122510535820\', \'body\': \'i am in love with this home!\\74br /\\76and that claw-foot bathtub in the last picture...to die for!\\74br /\\76\\74br /\\76just found your blog and am loving it!\\74br /\\76new follower. \\74br /\\76\\74br /\\76xo\\74br /\\76ben-and-alex.blogspot.com\', \'timestamp\': \'1303444137782\', \'permalink\': \'http://adiaryoflovely.blogspot.com/2011/04/pearls-home.html?showComment\\0751303444137782#c2132887122510535820\', \'author\': {\'name\': \'ben+alex\', \'avatarUrl\': \'http://2.bp.blogspot.com/_D877yxPzSEI/TTDmCB0fFOI/AAAAAAAAAF8/4LP7fjoAw1o/S45/A%2525252BB%25252B029.jpg\', \'profileUrl\': \'http://www.blogger.com/profile/11680937568605255584\'}, \'displayTime\': \'22 April 2011 04:48\', \'deleteclass\': \'item-control blog-admin pid-1784264476\'}, {\'id\': \'8450153030412671704\', \'body\': \'Gorgeous home. I love the tub in her bedroom - it\\46#39;s so romantic! \\74br /\\76Have you on my blogroll - hope you\\46#39;ll stop by soon! :)\\74br /\\76www.SproutThroughConcrete.com\', \'timestamp\': \'1303447604183\', \'permalink\': \'http://adiaryoflovely.blogspot.com/2011/04/pearls-home.html?showComment\\0751303447604183#c8450153030412671704\', \'author\': {\'name\': \'Emily Marie\', \'avatarUrl\': \'http://1.bp.blogspot.com/-U6ITOSSPRmM/TYbIUGIk2KI/AAAAAAAAAvc/Ny9WKncDPaI/s45/Picture%25252B057.jpg\', \'profileUrl\': \'http://www.blogger.com/profile/06448030133304232807\'}, \'displayTime\': \'22 April 2011 05:46\', \'deleteclass\': \'item-control blog-admin pid-1584082738\'}, {\'id\': \'4990850449198186081\', \'body\': \'What a lovely home, thanks for sharing these pics!! :)\', \'timestamp\': \'1303452710366\', \'permalink\': \'http://adiaryoflovely.blogspot.com/2011/04/pearls-home.html?showComment\\0751303452710366#c4990850449198186081\', \'author\': {\'name\': \'Christine @ Fash n Chips\', \'avatarUrl\': \'http://img1.blogblog.com/img/blank.gif\', \'profileUrl\': \'http://fash-n-chips.blogspot.com\'}, \'displayTime\': \'22 April 2011 07:11\', \'deleteclass\': \'item-control blog-admin pid-2074267013\'}, {\'id\': \'2170834256389973714\', \'body\': \'that bedroom with the tub is dreamy. She has amazing taste.\', \'timestamp\': \'1303464421862\', \'permalink\': \'http://adiaryoflovely.blogspot.com/2011/04/pearls-home.html?showComment\\0751303464421862#c2170834256389973714\', \'author\': {\'name\': \'beingdena\', \'avatarUrl\': \'http://img1.blogblog.com/img/openid16-rounded.gif\', \'profileUrl\': \'http://beingdena.wordpress.com/\'}, \'displayTime\': \'22 April 2011 10:27\', \'deleteclass\': \'item-control blog-admin pid-1468714250\'}, {\'id\': \'450683507242962035\', \'body\': \'Beautiful!  I love the tub in the bedroom...what a dream that is!\\74br /\\76\\74br /\\76XO,\\74br /\\76Jane\', \'timestamp\': \'1303464515447\', \'permalink\': \'http://adiaryoflovely.blogspot.com/2011/04/pearls-home.html?showComment\\0751303464515447#c450683507242962035\', \'author\': {\'name\': \'Blondie\\46#39;s Journal\', \'avatarUrl\': \'http://1.bp.blogspot.com/_MLCGzy5370A/TOdVWas6YlI/AAAAAAAADRs/Tl9EH6VMZNY/S45/015.JPG\', \'profileUrl\': \'http://www.blogger.com/profile/12988377413260331618\'}, \'displayTime\': \'22 April 2011 10:28\', \'deleteclass\': \'item-control blog-admin pid-1145788942\'}, {\'id\': \'7472979691137765701\', \'body\': \'I instantly think of warmth and comfort!\\74br /\\76\\74br /\\76Have a lovely weekend dear!\\74br /\\76\\74br /\\76xoxo,\\74br /\\76\\74a href\\75\\42http://chicncheapliving.blogspot.com/\\42 rel\\75\\42nofollow\\42\\76Chic \\46#39;n Cheap Living\\74/a\\076\', \'timestamp\': \'1303467729128\', \'permalink\': \'http://adiaryoflovely.blogspot.com/2011/04/pearls-home.html?showComment\\0751303467729128#c7472979691137765701\', \'author\': {\'name\': \'Chic \\46#39;n Cheap Living\', \'avatarUrl\': \'http://1.bp.blogspot.com/_Q94cFd48EBg/S-1fjVYgtxI/AAAAAAAACek/89_xn43lUPM/S45/rollip%2B1.jpg\', \'profileUrl\': \'http://www.blogger.com/profile/17630812969476483227\'}, \'displayTime\': \'22 April 2011 11:22\', \'deleteclass\': \'item-control blog-admin pid-1554813947\'}, {\'id\': \'3732937654180163095\', \'body\': \'Loving her home!  She\\46#39;s Daisy Lowe\\46#39;s mom, right?  I first heard of her back with the whole Gavin Rossdale paternity thing.  But I don\\46#39;t get to see very much of her.  Thanks so much for sharing, sweetie.  Going to check her out some more :)\\74br /\\76\\74br /\\76Happy Easter weekend, love! xoxo\', \'timestamp\': \'1303480166822\', \'permalink\': \'http://adiaryoflovely.blogspot.com/2011/04/pearls-home.html?showComment\\0751303480166822#c3732937654180163095\', \'author\': {\'name\': \'THE ALTERNATIVE WIFE\', \'avatarUrl\': \'http://4.bp.blogspot.com/_LkJKaLxr6Qc/S9jQpQo8t3I/AAAAAAAAE1Q/1P9rzih3g9Y/S45/P6261163.JPG\', \'profileUrl\': \'http://www.blogger.com/profile/07593507545118567343\'}, \'displayTime\': \'22 April 2011 14:49\', \'deleteclass\': \'item-control blog-admin pid-1695738654\'}, {\'id\': \'792157754202351857\', \'body\': \'gorgeous home!! thank you for sharing! \\74br /\\76\\74br /\\76have a fabulous Easter weekend!!\\74br /\\76\\74br /\\76xx\', \'timestamp\': \'1303524240097\', \'permalink\': \'http://adiaryoflovely.blogspot.com/2011/04/pearls-home.html?showComment\\0751303524240097#c792157754202351857\', \'author\': {\'name\': \'dCc\', \'avatarUrl\': \'http://3.bp.blogspot.com/_fSsA-pRVY8w/TSQIH8gxB7I/AAAAAAAAB2U/WbciMVf6fTU/S45/caitlin%25252Bphoto%25252B3.jpg\', \'profileUrl\': \'http://www.blogger.com/profile/07999570844947791662\'}, \'displayTime\': \'23 April 2011 03:04\', \'deleteclass\': \'item-control blog-admin pid-1449197935\'}, {\'id\': \'1903169130889564051\', \'body\': \'Oh my goodness, how gorgeous is that last shot... it looks like a super-chic boutique hotel room. Having a clawfoot bath tub in your bedroom is the height of luxury! Lucky girl :)\\74br /\\76~el\', \'timestamp\': \'1303768735269\', \'permalink\': \'http://adiaryoflovely.blogspot.com/2011/04/pearls-home.html?showComment\\0751303768735269#c1903169130889564051\', \'author\': {\'name\': \'el {what you fancy}\', \'avatarUrl\': \'http://img1.blogblog.com/img/blank.gif\', \'profileUrl\': \'http://www.whatyoufancy.co.uk\'}, \'displayTime\': \'25 April 2011 22:58\', \'deleteclass\': \'item-control blog-admin pid-1083997367\'}, {\'id\': \'8376957581477970870\', \'body\': \'so beautiful pictures I really like see it how the people enjoy the life\', \'timestamp\': \'1324677123623\', \'permalink\': \'http://adiaryoflovely.blogspot.com/2011/04/pearls-home.html?showComment\\0751324677123623#c8376957581477970870\', \'author\': {\'name\': \'Buy Viagra\', \'avatarUrl\': \'http://img1.blogblog.com/img/blank.gif\', \'profileUrl\': \'http://www.silverpharmacy.com\'}, \'displayTime\': \'23 December 2011 21:52\', \'deleteclass\': \'item-control blog-admin pid-979649575\'}];\n      var msgs = {\'loadMore\': \'Load more...\', \'loading\': \'Loading...\', \'loaded\': \'No more.\', \'addComment\': \'Add comment\', \'reply\': \'Reply\', \'delete\': \'Delete\'};\n      var config = {\'blogId\': \'8739671872301330841\', \'postId\': \'5494635865561241588\', \'feed\': \'http://adiaryoflovely.blogspot.com/feeds/5494635865561241588/comments/default\', \'authorName\': \'Helena - A Diary of Lovely\', \'authorUrl\': \'http://www.blogger.com/profile/01665400359026944585\', \'baseUri\': \'http://www.blogger.com\', \'maxThreadDepth\': 2};\n\n// &lt;![CDATA[\n      var cursor = null;\n      if (items &amp;&amp; items.length &gt; 0) {\n        cursor = parseInt(items[items.length - 1].timestamp) + 1;\n      }\n\n      var bodyFromEntry = function(entry) {\n        if (entry.gd$extendedProperty) {\n          for (var k in entry.gd$extendedProperty) {\n            if (entry.gd$extendedProperty[k].name == \'blogger.contentRemoved\') {\n              return \'&lt;span class=&quot;deleted-comment&quot;&gt;\' + entry.content.$t + \'&lt;/span&gt;\';\n            }\n          }\n        }\n        return entry.content.$t;\n      }\n\n      var parse = function(data) {\n        cursor = null;\n        var comments = [];\n        if (data &amp;&amp; data.feed &amp;&amp; data.feed.entry) {\n          for (var i = 0, entry; entry = data.feed.entry[i]; i++) {\n            var comment = {};\n            // comment ID, parsed out of the original id format\n            var id = /blog-(\\d+).post-(\\d+)/.exec(entry.id.$t);\n            comment.id = id ? id[2] : null;\n            comment.body = bodyFromEntry(entry);\n            comment.timestamp = Date.parse(entry.published.$t) + \'\';\n            if (entry.author &amp;&amp; entry.author.constructor === Array) {\n              var auth = entry.author[0];\n              if (auth) {\n                comment.author = {\n                  name: (auth.name ? auth.name.$t : undefined),\n                  profileUrl: (auth.uri ? auth.uri.$t : undefined),\n                  avatarUrl: (auth.gd$image ? auth.gd$image.src : undefined)\n                };\n              }\n            }\n            if (entry.link) {\n              if (entry.link[2]) {\n                comment.link = comment.permalink = entry.link[2].href;\n              }\n              if (entry.link[3]) {\n                var pid = /.*comments\\/default\\/(\\d+)\\?.*/.exec(entry.link[3].href);\n                if (pid &amp;&amp; pid[1]) {\n                  comment.parentId = pid[1];\n                }\n              }\n            }\n            comment.deleteclass = \'item-control blog-admin\';\n            if (entry.gd$extendedProperty) {\n              for (var k in entry.gd$extendedProperty) {\n                if (entry.gd$extendedProperty[k].name == \'blogger.itemClass\') {\n                  comment.deleteclass += \' \' + entry.gd$extendedProperty[k].value;\n                } else if (entry.gd$extendedProperty[k].name == \'blogger.displayTime\') {\n                  comment.displayTime = entry.gd$extendedProperty[k].value;\n                }\n              }\n            }\n            comments.push(comment);\n          }\n        }\n        return comments;\n      };\n\n      var paginator = function(callback) {\n        if (hasMore()) {\n          var url = config.feed + \'?alt=json&amp;v=2&amp;orderby=published&amp;reverse=false&amp;max-results=50\';\n          if (cursor) {\n            url += \'&amp;published-min=\' + new Date(cursor).toISOString();\n          }\n          window.bloggercomments = function(data) {\n            var parsed = parse(data);\n            cursor = parsed.length &lt; 50 ? null\n                : parseInt(parsed[parsed.length - 1].timestamp) + 1\n            callback(parsed);\n            window.bloggercomments = null;\n          }\n          url += \'&amp;callback=bloggercomments\';\n          var script = document.createElement(\'script\');\n          script.type = \'text/javascript\';\n          script.src = url;\n          document.getElementsByTagName(\'head\')[0].appendChild(script);\n        }\n      };\n      var hasMore = function() {\n        return !!cursor;\n      };\n      var getMeta = function(key, comment) {\n        if (\'iswriter\' == key) {\n          var matches = !!comment.author\n              &amp;&amp; comment.author.name == config.authorName\n              &amp;&amp; comment.author.profileUrl == config.authorUrl;\n          return matches ? \'true\' : \'\';\n        } else if (\'deletelink\' == key) {\n          return config.baseUri + \'/delete-comment.g?blogID=\'\n               + config.blogId + \'&amp;postID=\' + comment.id;\n        } else if (\'deleteclass\' == key) {\n          return comment.deleteclass;\n        }\n        return \'\';\n      };\n\n      var replybox = null;\n      var replyUrlParts = null;\n      var replyParent = undefined;\n\n      var onReply = function(commentId, domId) {\n        if (replybox == null) {\n          // lazily cache replybox, and adjust to suit this style:\n          replybox = document.getElementById(\'comment-editor\');\n          if (replybox != null) {\n            replybox.height = \'250px\';\n            replybox.style.display = \'block\';\n            replyUrlParts = replybox.src.split(\'#\');\n          }\n        }\n        if (replybox &amp;&amp; (commentId !== replyParent)) {\n          document.getElementById(domId).insertBefore(replybox, null);\n          replybox.src = replyUrlParts[0]\n              + (commentId ? \'&amp;parentID=\' + commentId : \'\')\n              + \'#\' + replyUrlParts[1];\n          replyParent = commentId;\n        }\n      };\n\n      var hash = (window.location.hash || \'#\').substring(1);\n      var startThread, targetComment;\n      if (/^comment-form_/.test(hash)) {\n        startThread = hash.substring(\'comment-form_\'.length);\n      } else if (/^c[0-9]+$/.test(hash)) {\n        targetComment = hash.substring(1);\n      }\n\n      // Configure commenting API:\n      var configJso = {\n        \'maxDepth\': config.maxThreadDepth\n      };\n      var provider = {\n        \'id\': config.postId,\n        \'data\': items,\n        \'loadNext\': paginator,\n        \'hasMore\': hasMore,\n        \'getMeta\': getMeta,\n        \'onReply\': onReply,\n        \'rendered\': true,\n        \'initComment\': targetComment,\n        \'initReplyThread\': startThread,\n        \'config\': configJso,\n        \'messages\': msgs\n      };\n\n      var render = function() {\n        if (window.goog &amp;&amp; window.goog.comments) {\n          var holder = document.getElementById(\'comment-holder\');\n          window.goog.comments.render(holder, provider);\n        }\n      };\n\n      // render now, or queue to render when library loads:\n      if (window.goog &amp;&amp; window.goog.comments) {\n        render();\n      } else {\n        window.goog = window.goog || {};\n        window.goog.comments = window.goog.comments || {};\n        window.goog.comments.loadQueue = window.goog.comments.loadQueue || [];\n        window.goog.comments.loadQueue.push(render);\n      }\n    })();\n// ]]&gt;\n                                          </script>\n                                          <div id="comment-holder">\n                                            <div kind="c" id="bc_0_12C">\n                                              <div id="bc_0_12CT">\n                                                <div u="0" t="0" kind="r" id="bc_0_11T" class="comment-thread">\n                                                  <ol id="bc_0_11TB">\n                                                    <li kind="b" id="bc_0_0B" class="comment">\n                                                      <div class="avatar-image-container">\n                                                        <img src="http://1.bp.blogspot.com/-4V_KhU2P-LE/TWrnP5yVflI/AAAAAAAABkU/NW2R9AtTVuU/s45/krysten-loveillustrated.jpg"></img>\n                                                      </div>\n                                                      <div id="c8388536744477713918" class="comment-block">\n                                                        <div kind="m" id="bc_0_0M" class="comment-header">\n                                                          <cite class="user">\n                                                            <a href="http://www.blogger.com/profile/07290616156300143483" rel="nofollow" shape="rect">Krysten @ After &amp;#39;I Do&amp;#39;</a>\n                                                          </cite>\n                                                          <span class="icon user"></span>\n                                                          <span class="datetime secondary-text">\n                                                            <a href="http://adiaryoflovely.blogspot.com/2011/04/pearls-home.html?showComment=1303435475060#c8388536744477713918" rel="nofollow" shape="rect">22 April 2011 02:24</a>\n                                                          </span>\n                                                        </div>\n                                                        <p id="bc_0_0MC" class="comment-content">You always find the prettiest things!</p>\n                                                        <span kind="m" id="bc_0_0MN" class="comment-actions secondary-text">\n                                                          <a o="r" target="_self" href="javascript:;" kind="i" shape="rect">Reply</a>\n                                                          <span class="item-control blog-admin pid-1950911395">\n                                                            <a href="http://www.blogger.com/delete-comment.g?blogID=8739671872301330841&amp;postID=8388536744477713918" target="_self" o="d" shape="rect">Delete</a>\n                                                          </span>\n                                                        </span>\n                                                      </div>\n                                                      <div id="bc_0_0BR" class="comment-replies"></div>\n                                                      <div id="bc_0_0B_box" class="comment-replybox-single"></div>\n                                                    </li>\n                                                    <li kind="b" id="bc_0_1B" class="comment">\n                                                      <div class="avatar-image-container">\n                                                        <img src="http://2.bp.blogspot.com/_D877yxPzSEI/TTDmCB0fFOI/AAAAAAAAAF8/4LP7fjoAw1o/S45/A%2525252BB%25252B029.jpg"></img>\n                                                      </div>\n                                                      <div id="c2132887122510535820" class="comment-block">\n                                                        <div kind="m" id="bc_0_1M" class="comment-header">\n                                                          <cite class="user">\n                                                            <a href="http://www.blogger.com/profile/11680937568605255584" rel="nofollow" shape="rect">ben+alex</a>\n                                                          </cite>\n                                                          <span class="icon user"></span>\n                                                          <span class="datetime secondary-text">\n                                                            <a href="http://adiaryoflovely.blogspot.com/2011/04/pearls-home.html?showComment=1303444137782#c2132887122510535820" rel="nofollow" shape="rect">22 April 2011 04:48</a>\n                                                          </span>\n                                                        </div>\n                                                        <p id="bc_0_1MC" class="comment-content">\n                                                          i am in love with this home!\n                                                          <br clear="none"></br>\n                                                          and that claw-foot bathtub in the last picture...to die for!\n                                                          <br clear="none"></br>\n                                                          <br clear="none"></br>\n                                                          just found your blog and am loving it!\n                                                          <br clear="none"></br>\n                                                          new follower.\n                                                          <br clear="none"></br>\n                                                          <br clear="none"></br>\n                                                          xo\n                                                          <br clear="none"></br>\n                                                          ben-and-alex.blogspot.com\n                                                        </p>\n                                                        <span kind="m" id="bc_0_1MN" class="comment-actions secondary-text">\n                                                          <a o="r" target="_self" href="javascript:;" kind="i" shape="rect">Reply</a>\n                                                          <span class="item-control blog-admin pid-1784264476">\n                                                            <a href="http://www.blogger.com/delete-comment.g?blogID=8739671872301330841&amp;postID=2132887122510535820" target="_self" o="d" shape="rect">Delete</a>\n                                                          </span>\n                                                        </span>\n                                                      </div>\n                                                      <div id="bc_0_1BR" class="comment-replies"></div>\n                                                      <div id="bc_0_1B_box" class="comment-replybox-single"></div>\n                                                    </li>\n                                                    <li kind="b" id="bc_0_2B" class="comment">\n                                                      <div class="avatar-image-container">\n                                                        <img src="http://1.bp.blogspot.com/-U6ITOSSPRmM/TYbIUGIk2KI/AAAAAAAAAvc/Ny9WKncDPaI/s45/Picture%25252B057.jpg"></img>\n                                                      </div>\n                                                      <div id="c8450153030412671704" class="comment-block">\n                                                        <div kind="m" id="bc_0_2M" class="comment-header">\n                                                          <cite class="user">\n                                                            <a href="http://www.blogger.com/profile/06448030133304232807" rel="nofollow" shape="rect">Emily Marie</a>\n                                                          </cite>\n                                                          <span class="icon user"></span>\n                                                          <span class="datetime secondary-text">\n                                                            <a href="http://adiaryoflovely.blogspot.com/2011/04/pearls-home.html?showComment=1303447604183#c8450153030412671704" rel="nofollow" shape="rect">22 April 2011 05:46</a>\n                                                          </span>\n                                                        </div>\n                                                        <p id="bc_0_2MC" class="comment-content">\n                                                          Gorgeous home. I love the tub in her bedroom - it\'s so romantic!\n                                                          <br clear="none"></br>\n                                                          Have you on my blogroll - hope you\'ll stop by soon! :)\n                                                          <br clear="none"></br>\n                                                          www.SproutThroughConcrete.com\n                                                        </p>\n                                                        <span kind="m" id="bc_0_2MN" class="comment-actions secondary-text">\n                                                          <a o="r" target="_self" href="javascript:;" kind="i" shape="rect">Reply</a>\n                                                          <span class="item-control blog-admin pid-1584082738">\n                                                            <a href="http://www.blogger.com/delete-comment.g?blogID=8739671872301330841&amp;postID=8450153030412671704" target="_self" o="d" shape="rect">Delete</a>\n                                                          </span>\n                                                        </span>\n                                                      </div>\n                                                      <div id="bc_0_2BR" class="comment-replies"></div>\n                                                      <div id="bc_0_2B_box" class="comment-replybox-single"></div>\n                                                    </li>\n                                                    <li kind="b" id="bc_0_3B" class="comment">\n                                                      <div class="avatar-image-container">\n                                                        <img src="http://img1.blogblog.com/img/anon36.png"></img>\n                                                      </div>\n                                                      <div id="c4990850449198186081" class="comment-block">\n                                                        <div kind="m" id="bc_0_3M" class="comment-header">\n                                                          <cite class="user">\n                                                            <a href="http://fash-n-chips.blogspot.com" rel="nofollow" shape="rect">Christine @ Fash n Chips</a>\n                                                          </cite>\n                                                          <span class="icon user"></span>\n                                                          <span class="datetime secondary-text">\n                                                            <a href="http://adiaryoflovely.blogspot.com/2011/04/pearls-home.html?showComment=1303452710366#c4990850449198186081" rel="nofollow" shape="rect">22 April 2011 07:11</a>\n                                                          </span>\n                                                        </div>\n                                                        <p id="bc_0_3MC" class="comment-content">What a lovely home, thanks for sharing these pics!! :)</p>\n                                                        <span kind="m" id="bc_0_3MN" class="comment-actions secondary-text">\n                                                          <a o="r" target="_self" href="javascript:;" kind="i" shape="rect">Reply</a>\n                                                          <span class="item-control blog-admin pid-2074267013">\n                                                            <a href="http://www.blogger.com/delete-comment.g?blogID=8739671872301330841&amp;postID=4990850449198186081" target="_self" o="d" shape="rect">Delete</a>\n                                                          </span>\n                                                        </span>\n                                                      </div>\n                                                      <div id="bc_0_3BR" class="comment-replies"></div>\n                                                      <div id="bc_0_3B_box" class="comment-replybox-single"></div>\n                                                    </li>\n                                                    <li kind="b" id="bc_0_4B" class="comment">\n                                                      <div class="avatar-image-container">\n                                                        <img src="http://img1.blogblog.com/img/openid36-rounded.png"></img>\n                                                      </div>\n                                                      <div id="c2170834256389973714" class="comment-block">\n                                                        <div kind="m" id="bc_0_4M" class="comment-header">\n                                                          <cite class="user">\n                                                            <a href="http://beingdena.wordpress.com/" rel="nofollow" shape="rect">beingdena</a>\n                                                          </cite>\n                                                          <span class="icon user"></span>\n                                                          <span class="datetime secondary-text">\n                                                            <a href="http://adiaryoflovely.blogspot.com/2011/04/pearls-home.html?showComment=1303464421862#c2170834256389973714" rel="nofollow" shape="rect">22 April 2011 10:27</a>\n                                                          </span>\n                                                        </div>\n                                                        <p id="bc_0_4MC" class="comment-content">that bedroom with the tub is dreamy. She has amazing taste.</p>\n                                                        <span kind="m" id="bc_0_4MN" class="comment-actions secondary-text">\n                                                          <a o="r" target="_self" href="javascript:;" kind="i" shape="rect">Reply</a>\n                                                          <span class="item-control blog-admin pid-1468714250">\n                                                            <a href="http://www.blogger.com/delete-comment.g?blogID=8739671872301330841&amp;postID=2170834256389973714" target="_self" o="d" shape="rect">Delete</a>\n                                                          </span>\n                                                        </span>\n                                                      </div>\n                                                      <div id="bc_0_4BR" class="comment-replies"></div>\n                                                      <div id="bc_0_4B_box" class="comment-replybox-single"></div>\n                                                    </li>\n                                                    <li kind="b" id="bc_0_5B" class="comment">\n                                                      <div class="avatar-image-container">\n                                                        <img src="http://1.bp.blogspot.com/_MLCGzy5370A/TOdVWas6YlI/AAAAAAAADRs/Tl9EH6VMZNY/S45/015.JPG"></img>\n                                                      </div>\n                                                      <div id="c450683507242962035" class="comment-block">\n                                                        <div kind="m" id="bc_0_5M" class="comment-header">\n                                                          <cite class="user">\n                                                            <a href="http://www.blogger.com/profile/12988377413260331618" rel="nofollow" shape="rect">Blondie&amp;#39;s Journal</a>\n                                                          </cite>\n                                                          <span class="icon user"></span>\n                                                          <span class="datetime secondary-text">\n                                                            <a href="http://adiaryoflovely.blogspot.com/2011/04/pearls-home.html?showComment=1303464515447#c450683507242962035" rel="nofollow" shape="rect">22 April 2011 10:28</a>\n                                                          </span>\n                                                        </div>\n                                                        <p id="bc_0_5MC" class="comment-content">\n                                                          Beautiful!  I love the tub in the bedroom...what a dream that is!\n                                                          <br clear="none"></br>\n                                                          <br clear="none"></br>\n                                                          XO,\n                                                          <br clear="none"></br>\n                                                          Jane\n                                                        </p>\n                                                        <span kind="m" id="bc_0_5MN" class="comment-actions secondary-text">\n                                                          <a o="r" target="_self" href="javascript:;" kind="i" shape="rect">Reply</a>\n                                                          <span class="item-control blog-admin pid-1145788942">\n                                                            <a href="http://www.blogger.com/delete-comment.g?blogID=8739671872301330841&amp;postID=450683507242962035" target="_self" o="d" shape="rect">Delete</a>\n                                                          </span>\n                                                        </span>\n                                                      </div>\n                                                      <div id="bc_0_5BR" class="comment-replies"></div>\n                                                      <div id="bc_0_5B_box" class="comment-replybox-single"></div>\n                                                    </li>\n                                                    <li kind="b" id="bc_0_6B" class="comment">\n                                                      <div class="avatar-image-container">\n                                                        <img src="http://1.bp.blogspot.com/_Q94cFd48EBg/S-1fjVYgtxI/AAAAAAAACek/89_xn43lUPM/S45/rollip%2B1.jpg"></img>\n                                                      </div>\n                                                      <div id="c7472979691137765701" class="comment-block">\n                                                        <div kind="m" id="bc_0_6M" class="comment-header">\n                                                          <cite class="user">\n                                                            <a href="http://www.blogger.com/profile/17630812969476483227" rel="nofollow" shape="rect">Chic &amp;#39;n Cheap Living</a>\n                                                          </cite>\n                                                          <span class="icon user"></span>\n                                                          <span class="datetime secondary-text">\n                                                            <a href="http://adiaryoflovely.blogspot.com/2011/04/pearls-home.html?showComment=1303467729128#c7472979691137765701" rel="nofollow" shape="rect">22 April 2011 11:22</a>\n                                                          </span>\n                                                        </div>\n                                                        <p id="bc_0_6MC" class="comment-content">\n                                                          I instantly think of warmth and comfort!\n                                                          <br clear="none"></br>\n                                                          <br clear="none"></br>\n                                                          Have a lovely weekend dear!\n                                                          <br clear="none"></br>\n                                                          <br clear="none"></br>\n                                                          xoxo,\n                                                          <br clear="none"></br>\n                                                          <a rel="nofollow" href="http://chicncheapliving.blogspot.com/" shape="rect">Chic \'n Cheap Living</a>\n                                                        </p>\n                                                        <span kind="m" id="bc_0_6MN" class="comment-actions secondary-text">\n                                                          <a o="r" target="_self" href="javascript:;" kind="i" shape="rect">Reply</a>\n                                                          <span class="item-control blog-admin pid-1554813947">\n                                                            <a href="http://www.blogger.com/delete-comment.g?blogID=8739671872301330841&amp;postID=7472979691137765701" target="_self" o="d" shape="rect">Delete</a>\n                                                          </span>\n                                                        </span>\n                                                      </div>\n                                                      <div id="bc_0_6BR" class="comment-replies"></div>\n                                                      <div id="bc_0_6B_box" class="comment-replybox-single"></div>\n                                                    </li>\n                                                    <li kind="b" id="bc_0_7B" class="comment">\n                                                      <div class="avatar-image-container">\n                                                        <img src="http://4.bp.blogspot.com/_LkJKaLxr6Qc/S9jQpQo8t3I/AAAAAAAAE1Q/1P9rzih3g9Y/S45/P6261163.JPG"></img>\n                                                      </div>\n                                                      <div id="c3732937654180163095" class="comment-block">\n                                                        <div kind="m" id="bc_0_7M" class="comment-header">\n                                                          <cite class="user">\n                                                            <a href="http://www.blogger.com/profile/07593507545118567343" rel="nofollow" shape="rect">THE ALTERNATIVE WIFE</a>\n                                                          </cite>\n                                                          <span class="icon user"></span>\n                                                          <span class="datetime secondary-text">\n                                                            <a href="http://adiaryoflovely.blogspot.com/2011/04/pearls-home.html?showComment=1303480166822#c3732937654180163095" rel="nofollow" shape="rect">22 April 2011 14:49</a>\n                                                          </span>\n                                                        </div>\n                                                        <p id="bc_0_7MC" class="comment-content">\n                                                          Loving her home!  She\'s Daisy Lowe\'s mom, right?  I first heard of her back with the whole Gavin Rossdale paternity thing.  But I don\'t get to see very much of her.  Thanks so much for sharing, sweetie.  Going to check her out some more :)\n                                                          <br clear="none"></br>\n                                                          <br clear="none"></br>\n                                                          Happy Easter weekend, love! xoxo\n                                                        </p>\n                                                        <span kind="m" id="bc_0_7MN" class="comment-actions secondary-text">\n                                                          <a o="r" target="_self" href="javascript:;" kind="i" shape="rect">Reply</a>\n                                                          <span class="item-control blog-admin pid-1695738654">\n                                                            <a href="http://www.blogger.com/delete-comment.g?blogID=8739671872301330841&amp;postID=3732937654180163095" target="_self" o="d" shape="rect">Delete</a>\n                                                          </span>\n                                                        </span>\n                                                      </div>\n                                                      <div id="bc_0_7BR" class="comment-replies"></div>\n                                                      <div id="bc_0_7B_box" class="comment-replybox-single"></div>\n                                                    </li>\n                                                    <li kind="b" id="bc_0_8B" class="comment">\n                                                      <div class="avatar-image-container">\n                                                        <img src="http://3.bp.blogspot.com/_fSsA-pRVY8w/TSQIH8gxB7I/AAAAAAAAB2U/WbciMVf6fTU/S45/caitlin%25252Bphoto%25252B3.jpg"></img>\n                                                      </div>\n                                                      <div id="c792157754202351857" class="comment-block">\n                                                        <div kind="m" id="bc_0_8M" class="comment-header">\n                                                          <cite class="user">\n                                                            <a href="http://www.blogger.com/profile/07999570844947791662" rel="nofollow" shape="rect">dCc</a>\n                                                          </cite>\n                                                          <span class="icon user"></span>\n                                                          <span class="datetime secondary-text">\n                                                            <a href="http://adiaryoflovely.blogspot.com/2011/04/pearls-home.html?showComment=1303524240097#c792157754202351857" rel="nofollow" shape="rect">23 April 2011 03:04</a>\n                                                          </span>\n                                                        </div>\n                                                        <p id="bc_0_8MC" class="comment-content">\n                                                          gorgeous home!! thank you for sharing!\n                                                          <br clear="none"></br>\n                                                          <br clear="none"></br>\n                                                          have a fabulous Easter weekend!!\n                                                          <br clear="none"></br>\n                                                          <br clear="none"></br>\n                                                          xx\n                                                        </p>\n                                                        <span kind="m" id="bc_0_8MN" class="comment-actions secondary-text">\n                                                          <a o="r" target="_self" href="javascript:;" kind="i" shape="rect">Reply</a>\n                                                          <span class="item-control blog-admin pid-1449197935">\n                                                            <a href="http://www.blogger.com/delete-comment.g?blogID=8739671872301330841&amp;postID=792157754202351857" target="_self" o="d" shape="rect">Delete</a>\n                                                          </span>\n                                                        </span>\n                                                      </div>\n                                                      <div id="bc_0_8BR" class="comment-replies"></div>\n                                                      <div id="bc_0_8B_box" class="comment-replybox-single"></div>\n                                                    </li>\n                                                    <li kind="b" id="bc_0_9B" class="comment">\n                                                      <div class="avatar-image-container">\n                                                        <img src="http://img1.blogblog.com/img/anon36.png"></img>\n                                                      </div>\n                                                      <div id="c1903169130889564051" class="comment-block">\n                                                        <div kind="m" id="bc_0_9M" class="comment-header">\n                                                          <cite class="user">\n                                                            <a href="http://www.whatyoufancy.co.uk" rel="nofollow" shape="rect">el {what you fancy}</a>\n                                                          </cite>\n                                                          <span class="icon user"></span>\n                                                          <span class="datetime secondary-text">\n                                                            <a href="http://adiaryoflovely.blogspot.com/2011/04/pearls-home.html?showComment=1303768735269#c1903169130889564051" rel="nofollow" shape="rect">25 April 2011 22:58</a>\n                                                          </span>\n                                                        </div>\n                                                        <p id="bc_0_9MC" class="comment-content">\n                                                          Oh my goodness, how gorgeous is that last shot... it looks like a super-chic boutique hotel room. Having a clawfoot bath tub in your bedroom is the height of luxury! Lucky girl :)\n                                                          <br clear="none"></br>\n                                                          ~el\n                                                        </p>\n                                                        <span kind="m" id="bc_0_9MN" class="comment-actions secondary-text">\n                                                          <a o="r" target="_self" href="javascript:;" kind="i" shape="rect">Reply</a>\n                                                          <span class="item-control blog-admin pid-1083997367">\n                                                            <a href="http://www.blogger.com/delete-comment.g?blogID=8739671872301330841&amp;postID=1903169130889564051" target="_self" o="d" shape="rect">Delete</a>\n                                                          </span>\n                                                        </span>\n                                                      </div>\n                                                      <div id="bc_0_9BR" class="comment-replies"></div>\n                                                      <div id="bc_0_9B_box" class="comment-replybox-single"></div>\n                                                    </li>\n                                                    <li kind="b" id="bc_0_10B" class="comment">\n                                                      <div class="avatar-image-container">\n                                                        <img src="http://img1.blogblog.com/img/anon36.png"></img>\n                                                      </div>\n                                                      <div id="c8376957581477970870" class="comment-block">\n                                                        <div kind="m" id="bc_0_10M" class="comment-header">\n                                                          <cite class="user">\n                                                            <a href="http://www.silverpharmacy.com" rel="nofollow" shape="rect">Buy Viagra</a>\n                                                          </cite>\n                                                          <span class="icon user"></span>\n                                                          <span class="datetime secondary-text">\n                                                            <a href="http://adiaryoflovely.blogspot.com/2011/04/pearls-home.html?showComment=1324677123623#c8376957581477970870" rel="nofollow" shape="rect">23 December 2011 21:52</a>\n                                                          </span>\n                                                        </div>\n                                                        <p id="bc_0_10MC" class="comment-content">so beautiful pictures I really like see it how the people enjoy the life</p>\n                                                        <span kind="m" id="bc_0_10MN" class="comment-actions secondary-text">\n                                                          <a o="r" target="_self" href="javascript:;" kind="i" shape="rect">Reply</a>\n                                                          <span class="item-control blog-admin pid-979649575">\n                                                            <a href="http://www.blogger.com/delete-comment.g?blogID=8739671872301330841&amp;postID=8376957581477970870" target="_self" o="d" shape="rect">Delete</a>\n                                                          </span>\n                                                        </span>\n                                                      </div>\n                                                      <div id="bc_0_10BR" class="comment-replies"></div>\n                                                      <div id="bc_0_10B_box" class="comment-replybox-single"></div>\n                                                    </li>\n                                                  </ol>\n                                                  <div kind="ci" id="bc_0_11I" class="continue">\n                                                    <a target="_self" href="javascript:;" shape="rect">Add comment</a>\n                                                  </div>\n                                                  <div id="bc_0_11T_box" class="comment-replybox-thread"></div>\n                                                  <div kind="rb" id="bc_0_11L" class="loadmore loaded">\n                                                    <a target="_self" href="javascript:;" shape="rect">Load more...</a>\n                                                  </div>\n                                                </div>\n                                              </div>\n                                            </div>\n                                          </div>\n                                        </div>\n                                        <p class="comment-footer"> </p>\n                                        <div class="comment-form">\n                                          <a name="comment-form" shape="rect"></a>\n                                          <p>Thanks for your comments! I love comments and they make me so happy! Thanks for coming over, hope to see you again soon!</p>\n                                          <a href="http://www.blogger.com/comment-iframe.g?blogID=8739671872301330841&amp;postID=5494635865561241588" id="comment-editor-src" shape="rect"></a>\n                                          <iframe width="100%" src="" name="comment-editor" height="410" allowtransparency="true" id="comment-editor" class="blogger-iframe-colorize blogger-comment-from-post" scrolling="auto" frameborder="0"></iframe>\n                                          <script src="//www.blogger.com/static/v1/jsbin/4030612614-comment_from_post_iframe.js" type="text/javascript"></script>\n                                          <script type="text/javascript"> BLOG_CMT_createIframe(\'http://www.blogger.com/rpc_relay.html\', \'16844967930614627514\'); </script>\n                                        </div>\n                                        <div id="backlinks-container">\n                                          <div id="Blog1_backlinks-container">\n                                            <a name="links" shape="rect"></a>\n                                            <h4> </h4>\n                                            <p class="comment-footer">\n                                              <a target="_blank" href="" id="Blog1_backlinks-create-link" class="comment-link" shape="rect"> </a>\n                                            </p>\n                                          </div>\n                                        </div>\n                                      </div>\n                                    </div>\n                                  </div>\n                                </div>\n                              </div>\n                              <div id="blog-pager" class="blog-pager">\n                                <span id="blog-pager-newer-link">\n                                  <a title="Newer Post" href="http://adiaryoflovely.blogspot.com/2011/04/weekly-links-happy-easter.html" id="Blog1_blog-pager-newer-link" class="blog-pager-newer-link" shape="rect">Newer Post</a>\n                                </span>\n                                <span id="blog-pager-older-link">\n                                  <a title="Older Post" href="http://adiaryoflovely.blogspot.com/2011/04/new-sheridan-hotel-branding.html" id="Blog1_blog-pager-older-link" class="blog-pager-older-link" shape="rect">Older Post</a>\n                                </span>\n                                <a href="http://adiaryoflovely.blogspot.com/" class="home-link" shape="rect">Home</a>\n                              </div>\n                              <div class="clear"></div>\n                              <div class="post-feeds">\n                                <div class="feed-links">\n                                  Subscribe to:\n                                  <a type="application/atom+xml" target="_blank" href="http://adiaryoflovely.blogspot.com/feeds/5494635865561241588/comments/default" class="feed-link" shape="rect">Post Comments (Atom)</a>\n                                </div>\n                              </div>\n                              <script type="text/javascript">\n                                window.___gcfg = {\'lang\': \'en_GB\'};window.___gapisync = false;(function() {var po = document.createElement(\'script\');po.type = \'text/javascript\';po.async = true;po.src = \'https://apis.google.com/js/plusone.js\';var s = document.body.getElementsByTagName(\'script\')[0];s.parentNode.insertBefore(po, s);})();\n                              </script>\n                            </div>\n                            <div id="HTML5" class="widget HTML">\n                              <script> var linkwithin_site_id = 107416; </script>\n                              <script src="http://www.linkwithin.com/widget.js"></script>\n                              <a href="http://www.linkwithin.com/" shape="rect">\n                                <img style="border: 0" alt="Related Posts Plugin for WordPress, Blogger..." src="http://www.linkwithin.com/pixel.png"></img>\n                              </a>\n                            </div>\n                          </div>\n                        </div>\n                      </div>\n                      <div class="column-left-outer">\n                        <div class="column-left-inner">\n                          <aside> </aside>\n                        </div>\n                      </div>\n                      <div class="column-right-outer">\n                        <div class="column-right-inner">\n                          <aside>\n                            <div id="sidebar-right-1" class="sidebar section">\n                              <div id="HTML3" class="widget HTML">\n                                <div class="widget-content">\n                                  <blockquote></blockquote>\n                                  <center>\n                                    <center>\n                                      <blockquote></blockquote>\n                                      <center>\n                                        <a type="application/rss+xml" title="subscribe to my feed" rel="alternate" href="http://feeds.feedburner.com/blogspot/zkri" shape="rect">\n                                          <img width="50" border="0" src="http://i154.photobucket.com/albums/s272/carriesue425/diary%20of%20a%20lovely/rss-basic-webtreatsetc.png" alt="RSS Feed"></img>\n                                        </a>\n                                        <a target="_blank" href="http://twitter.com/adiaryoflovely" shape="rect">\n                                          <img width="50" border="0" src="http://i990.photobucket.com/albums/af28/helenadrz/twitter-bird2-webtreatsetc.png"></img>\n                                        </a>\n                                        <a target="_blank" href="http://www.facebook.com/pages/A-Diary-of-Lovely/106987426000761" shape="rect">\n                                          <img width="50" border="0" alt="Adiaryoflovely" src="http://i990.photobucket.com/albums/af28/helenadrz/facebook-logo-webtreatsetc.png"></img>\n                                        </a>\n                                        <a title="email me" href="mailto:helenadelrioz@gmail.com" shape="rect">\n                                          <img width="50" border="0" src="http://i154.photobucket.com/albums/s272/carriesue425/diary%20of%20a%20lovely/gmail-webtreatsetc.png" alt="Contact Me"></img>\n                                        </a>\n                                      </center>\n                                      <center>\n                                        <p>\n                                          <a href="http://www.bloglovin.com/en/blog/1426894/a-diary-of-lovely" title="a diary of lovely on bloglovin" shape="rect"></a>\n                                          <a href="http://www.bloglovin.com/en/blog/1426894/a-diary-of-lovely" title="a diary of lovely on bloglovin" shape="rect">\n                                            <img alt="Follow A Diary of Lovely" src="http://www.bloglovin.com/widget/bilder/en/lank.gif"></img>\n                                          </a>\n                                        </p>\n                                        <p>\n                                          <a href="http://pinterest.com/adiaryoflovely/" shape="rect">\n                                            <img alt="Follow Me on Pinterest" height="26" width="156" src="http://passets-cdn.pinterest.com/images/follow-on-pinterest-button.png"></img>\n                                          </a>\n                                        </p>\n                                        <p>\n                                          <span style="  ;font-family:Helvetica;font-size:medium;" class="Apple-style-span">\n                                            <a href="http://followgram.me/adiaryoflovely" shape="rect">\n                                              <img alt="Instagram" src="http://i990.photobucket.com/albums/af28/helenadrz/Mine/Unknown.png" title="Follow mw on Instagram"></img>\n                                            </a>\n                                          </span>\n                                        </p>\n                                        <p></p>\n                                        <p> </p>\n                                        <p></p>\n                                        <p>\n                                          <a href="http://www.bloglovin.com/en/blog/1426894/a-diary-of-lovely" title="a diary of lovely on bloglovin" shape="rect"></a>\n                                        </p>\n                                        <p></p>\n                                        <div style="font-family: Helvetica; font-size: medium; ">\n                                          <div>\n                                            <div>\n                                              <div>\n                                                <a href="http://adiaryoflovely.blogspot.com/p/hi-im-helena-and-this-is-diary-of.html" shape="rect">\n                                                  <img src="http://i990.photobucket.com/albums/af28/helenadrz/Mine/aboutb-1.jpg"></img>\n                                                </a>\n                                              </div>\n                                            </div>\n                                            <div>\n                                              <center>\n                                                <a href="http://theeverygirl.com/feature/helena-del-rios-london-flat-tour/" shape="rect">\n                                                  <img src="http://i990.photobucket.com/albums/af28/helenadrz/Mine/myhome.jpg"></img>\n                                                </a>\n                                              </center>\n                                              <center>\n                                                <a href="http://currentlyobsessed.me/profile/A+Diary+of+Lovely" shape="rect">\n                                                  <img src="http://i990.photobucket.com/albums/af28/helenadrz/Mine/shoppingb-1.jpg"></img>\n                                                </a>\n                                              </center>\n                                            </div>\n                                            <div>\n                                              <div>\n                                                <a href="http://adiaryoflovely.blogspot.com/p/sponsors.html" shape="rect">\n                                                  <img src="http://i990.photobucket.com/albums/af28/helenadrz/Mine/sponsorsb-1.jpg"></img>\n                                                </a>\n                                              </div>\n                                            </div>\n                                          </div>\n                                        </div>\n                                      </center>\n                                      <a href="http://adiaryoflovely.blogspot.com/search/label/outfit%20post" shape="rect">\n                                        <img src="http://i990.photobucket.com/albums/af28/helenadrz/Mine/outfitsb-1.jpg"></img>\n                                      </a>\n                                    </center>\n                                    <center>\n                                      <span style=" ;font-family:Helvetica;font-size:medium;" class="Apple-style-span"></span>\n                                    </center>\n                                    <span style="font-family:Helvetica;" class="Apple-style-span">\n                                      <span style=" ;font-size:medium;" class="Apple-style-span">\n                                        <a href="http://adiaryoflovely.blogspot.com/search/label/wedding" shape="rect">\n                                          <img src="http://i990.photobucket.com/albums/af28/helenadrz/Mine/weddingsb-1.jpg"></img>\n                                        </a>\n                                      </span>\n                                    </span>\n                                    <center>\n                                      <span style="  ;font-family:Helvetica;font-size:medium;" class="Apple-style-span">\n                                        <a href="http://adiaryoflovely.blogspot.com/search/label/ideal%20closet" shape="rect">\n                                          <img src="http://i990.photobucket.com/albums/af28/helenadrz/Mine/idealclosetb-1.jpg"></img>\n                                        </a>\n                                      </span>\n                                    </center>\n                                    <center>\n                                      <span style="  color: rgb(2, 0, 0); font-family:Helvetica;font-size:medium;" class="Apple-style-span">\n                                        <a href="http://adiaryoflovely.blogspot.com/search/label/eatsleep" shape="rect">\n                                          <img src="http://i990.photobucket.com/albums/af28/helenadrz/Mine/eat-1.jpg"></img>\n                                        </a>\n                                      </span>\n                                    </center>\n                                    <center>\n                                      <span style="font-family:Helvetica;" class="Apple-style-span">\n                                        <span style=" ;font-size:medium;" class="Apple-style-span">\n                                          <a href="http://adiaryoflovely.blogspot.com/search/label/my%20stuff" shape="rect">\n                                            <img src="http://i990.photobucket.com/albums/af28/helenadrz/Mine/mystuffb.jpg"></img>\n                                          </a>\n                                        </span>\n                                      </span>\n                                    </center>\n                                    <span style="font-family:Helvetica;" class="Apple-style-span"></span>\n                                    <center>\n                                      <a href="http://adiaryoflovely.blogspot.com/p/blogs-i-love_19.html" shape="rect">\n                                        <img src="http://i990.photobucket.com/albums/af28/helenadrz/Mine/blogroll-3.jpg"></img>\n                                      </a>\n                                    </center>\n                                    <center>\n                                      <span style=" ;font-family:Helvetica;font-size:medium;" class="Apple-style-span"></span>\n                                    </center>\n                                    <center>\n                                      <span style=" ;font-family:Helvetica;font-size:medium;" class="Apple-style-span"></span>\n                                    </center>\n                                    <a p="" com="" shape="rect"></a>\n                                    <p></p>\n                                    <p></p>\n                                    <div>\n                                      <a href="http://www.addthis.com/bookmark.php?v=250&amp;pub=helenadelrioz" class="addthis_button" shape="rect">\n                                        <img height="16" width="125" style="border-width: 0px;" src="http://s7.addthis.com/static/btn/v2/lg-share-en.gif" alt="Bookmark and Share"></img>\n                                      </a>\n                                    </div>\n                                    <div>\n                                      <a href="http://followgram.me/adiaryoflovely" shape="rect"></a>\n                                      <div style="font-family: Helvetica; font-size: medium; "></div>\n                                    </div>\n                                  </center>\n                                  <span style="font-family:Helvetica;" class="Apple-style-span"></span>\n                                  <div>\n                                    <div>\n                                      <p></p>\n                                    </div>\n                                  </div>\n                                  <div>\n                                    <div>\n                                      <p></p>\n                                    </div>\n                                  </div>\n                                </div>\n                                <div class="clear"></div>\n                                <span class="widget-item-control">\n                                  <span class="item-control blog-admin">\n                                    <a \n                                    title="Edit" target="configHTML3" onclick="return _WidgetManager._PopupConfig(document.getElementById(&quot;HTML3&quot;));" href="//www.blogger.com/rearrange?blogID=8739671872301330841&amp;widgetType=HTML&amp;widgetId=HTML3&amp;action=editWidget&amp;sectionId=sidebar-right-1" class="quickedit" shape="rect">\n                                      <img width="18" src="http://img1.blogblog.com/img/icon18_wrench_allbkg.png" height="18" alt=""></img>\n</a>\n                                  </span>\n                                </span>\n                                <div class="clear"></div>\n                              </div>\n                              <div id="HTML6" class="widget HTML">\n                                <h2 class="title">Weekly faves</h2>\n                                <div class="widget-content">\n                                  <div style="width: 270px; height: 120px; margin: 0px auto; background:white;">\n                                    <iframe src="http://currentlyobsessed.me/api/v1/get_widget?wid=29&amp;blog=A%2BDiary%2Bof%2BLovely&amp;product_ids=272909995,273646020,270296129,275862513&amp;rows=1&amp;cols=2&amp;brand=0&amp;price=0&amp;hover=0" width="270px" height="120px" scrolling="no" frameborder="0"></iframe>\n                                  </div>\n                                </div>\n                                <div class="clear"></div>\n                                <span class="widget-item-control">\n                                  <span class="item-control blog-admin">\n                                    <a \n                                    title="Edit" target="configHTML6" onclick="return _WidgetManager._PopupConfig(document.getElementById(&quot;HTML6&quot;));" href="//www.blogger.com/rearrange?blogID=8739671872301330841&amp;widgetType=HTML&amp;widgetId=HTML6&amp;action=editWidget&amp;sectionId=sidebar-right-1" class="quickedit" shape="rect">\n                                      <img width="18" src="http://img1.blogblog.com/img/icon18_wrench_allbkg.png" height="18" alt=""></img>\n</a>\n                                  </span>\n                                </span>\n                                <div class="clear"></div>\n                              </div>\n                              <div id="Followers1" class="widget Followers">\n                                <h2 class="title">Lovely People</h2>\n                                <div class="widget-content">\n                                  <div id="Followers1-wrapper">\n                                    <div style="margin-right:2px;">\n                                      <script type="text/javascript"> if (!window.google || !google.friendconnect) { document.write(\'&lt;script type=&quot;text/javascript&quot;\' + \'src=&quot;http://www.google.com/friendconnect/script/friendconnect.js&quot;&gt;\' + \'&lt;/scr\'+\'ipt&gt;\'); } </script>\n                                      <script type="text/javascript">\n                                        if (!window.registeredBloggerCallbacks) {\n        window.registeredBloggerCallbacks = true;\n\n        \n\n        \n        gadgets.rpc.register(\'requestReload\', function() {\n          document.location.reload();\n        });\n\n        \n        gadgets.rpc.register(\'requestSignOut\', function(siteId) {\n          \n          google.friendconnect.container.openSocialSiteId = siteId;\n          google.friendconnect.requestSignOut();\n        });\n      }\n                                      </script>\n                                      <script type="text/javascript">\n                                        function registerGetBlogUrls() {\n      gadgets.rpc.register(\'getBlogUrls\', function() {\n        var holder = {};\n        \n          \n            \n            \n              holder.currentPost = &quot;http://www.blogger.com/feeds/8739671872301330841/posts/default/5494635865561241588&quot;;\n            \n            \n            \n              holder.currentComments = &quot;http://www.blogger.com/feeds/8739671872301330841/5494635865561241588/comments/default&quot;;\n            \n            holder.currentPostUrl = &quot;&quot;;\n            holder.currentPostId = 5494635865561241588\n          \n          \n          \n            holder.postFeed = &quot;http://www.blogger.com/feeds/8739671872301330841/posts/default&quot;;\n          \n          \n          \n            holder.commentFeed = &quot;http://www.blogger.com/feeds/8739671872301330841/comments/default&quot;;\n          \n          holder.currentBlogUrl = &quot;http://adiaryoflovely.blogspot.com/&quot;;\n          holder.currentBlogId = &quot;8739671872301330841&quot;;\n        \n        return holder;\n      });\n    }\n                                      </script>\n                                      <script type="text/javascript">\n                                        if (!window.registeredCommonBloggerCallbacks) {\n    window.registeredCommonBloggerCallbacks = true;\n\n    gadgets.rpc.register(\'resize_iframe\', function(height) {\n      var el = document.getElementById(this[\'f\']);\n      if (el) {\n        el.style.height = height + \'px\';\n      }\n    });\n\n    \n    gadgets.rpc.register(\'set_pref\', function() {});\n\n    registerGetBlogUrls();\n  }\n                                      </script>\n                                      <div style="width: 100%; " id="div-11jb624amc65l"></div>\n                                      <script type="text/javascript">\n                                        var skin = {};\n    skin[\'FACE_SIZE\'] = \'32\';\n    skin[\'HEIGHT\'] = &quot;260&quot;;\n    skin[\'TITLE\'] = &quot;Lovely People&quot;;\n    skin[\'BORDER_COLOR\'] = &quot;transparent&quot;;\n    skin[\'ENDCAP_BG_COLOR\'] = &quot;transparent&quot;;\n    skin[\'ENDCAP_TEXT_COLOR\'] = &quot;#666666&quot;;\n    skin[\'ENDCAP_LINK_COLOR\'] = &quot;#191919&quot;;\n    skin[\'ALTERNATE_BG_COLOR\'] = &quot;transparent&quot;;\n    \n    skin[\'CONTENT_BG_COLOR\'] = &quot;transparent&quot;;\n    skin[\'CONTENT_LINK_COLOR\'] = &quot;#191919&quot;;\n    skin[\'CONTENT_TEXT_COLOR\'] = &quot;#666666&quot;;\n    skin[\'CONTENT_SECONDARY_LINK_COLOR\'] = &quot;#191919&quot;;\n    skin[\'CONTENT_SECONDARY_TEXT_COLOR\'] = &quot;#999999&quot;;\n    skin[\'CONTENT_HEADLINE_COLOR\'] = &quot;#666666&quot;;\n    skin[\'FONT_FACE\'] = &quot;normal normal 12px \\x27Trebuchet MS\\x27, Trebuchet, Verdana, sans-serif&quot;;\n    google.friendconnect.container.setParentUrl(&quot;/&quot;);\n    google.friendconnect.container[&quot;renderMembersGadget&quot;](\n    {id: &quot;div-11jb624amc65l&quot;,\n     height: 260,\n     \n     \n     \n     site: &quot;16844967930614627514&quot;,\n     \n     locale: \'en_GB\' },\n     skin);\n                                      </script>\n                                    </div>\n                                  </div>\n                                  <div class="clear"></div>\n                                  <span class="widget-item-control">\n                                    <span class="item-control blog-admin">\n                                      <a \n                                      title="Edit" target="configFollowers1" onclick="return _WidgetManager._PopupConfig(document.getElementById(&quot;Followers1&quot;));" href="//www.blogger.com/rearrange?blogID=8739671872301330841&amp;widgetType=Followers&amp;widgetId=Followers1&amp;action=editWidget&amp;sectionId=sidebar-right-1" class="quickedit" shape="rect">\n                                        <img width="18" src="http://img1.blogblog.com/img/icon18_wrench_allbkg.png" height="18" alt=""></img>\n</a>\n                                    </span>\n                                  </span>\n                                  <div class="clear"></div>\n                                </div>\n                              </div>\n                              <div id="HTML2" class="widget HTML">\n                                <h2 class="title">Daily Life @adiaryoflovely</h2>\n                                <div class="widget-content">\n                                  <center>\n                                    <iframe style="border:none; overflow:hidden; width:250px; height: 375px" allowtransparency="true" src="http://snapwidget.com/in/?u=YWRpYXJ5b2Zsb3ZlbHl8aW58MTIwfDJ8M3x8bm98NXxub25l" scrolling="no" frameborder="0"></iframe>\n                                  </center>\n                                </div>\n                                <div class="clear"></div>\n                                <span class="widget-item-control">\n                                  <span class="item-control blog-admin">\n                                    <a \n                                    title="Edit" target="configHTML2" onclick="return _WidgetManager._PopupConfig(document.getElementById(&quot;HTML2&quot;));" href="//www.blogger.com/rearrange?blogID=8739671872301330841&amp;widgetType=HTML&amp;widgetId=HTML2&amp;action=editWidget&amp;sectionId=sidebar-right-1" class="quickedit" shape="rect">\n                                      <img width="18" src="http://img1.blogblog.com/img/icon18_wrench_allbkg.png" height="18" alt=""></img>\n</a>\n                                  </span>\n                                </span>\n                                <div class="clear"></div>\n                              </div>\n                              <div id="HTML1" class="widget HTML">\n                                <h2 class="title">Shopping...</h2>\n                                <div class="widget-content">\n                                  <center>\n                                    <div style="font-family: Georgia, serif; font-size: 100%; font-style: normal; font-variant: normal; font-weight: normal; line-height: normal; font-family:Georgia, serif;font-size:100%;">\n                                      <a style="font-size: 100%; text-align: left; " href="http://www.sunglasses-shop.co.uk/ray-ban.aspx" shape="rect">\n                                        <img width="300" src="http://www.sunglasses-shop.co.uk/FileRepository/Images/SunglassesPhotos/banners/2012/uk/Ray-Ban/ray-ban-300x75.jpg" height="75" alt="Ray-Ban Sunglasses at Sunglasses Shop"></img>\n                                      </a>\n                                    </div>\n                                    <div style="  font-style: normal; font-variant: normal; font-weight: normal; line-height: normal; font-family:Georgia, serif;font-size:100%;">\n                                      <span style="color:#0000EE;" class="Apple-style-span">\n                                        <u>\n                                          <span style="color:#000000;" class="Apple-style-span"> </span>\n                                        </u>\n                                      </span>\n                                    </div>\n                                    <div>\n                                      <span style="color:#0000EE;" class="Apple-style-span">\n                                        <a target="_blank" href="http://rstyle.me/ad/guuabywe" shape="rect">\n                                          <img src="http://ad.linksynergy.com/fs-bin/show?id=QFGLnEolOWg&amp;bids=265287.10000089&amp;type=4"></img>\n                                        </a>\n                                      </span>\n                                    </div>\n                                    <div>\n                                      <span style="color:#0000EE;" class="Apple-style-span"> </span>\n                                    </div>\n                                    <div>\n                                      <span style="color:#0000EE;" class="Apple-style-span">\n                                        <a target="_blank" href="http://rstyle.me/ad/ce29bywe" shape="rect">\n                                          <img src="http://ad.linksynergy.com/fs-bin/show?id=QFGLnEolOWg&amp;bids=247754.10000098&amp;type=4"></img>\n                                        </a>\n                                      </span>\n                                    </div>\n                                    <div>\n                                      <span style="color:#0000EE;" class="Apple-style-span"> </span>\n                                    </div>\n                                    <div>\n                                      <span style="color:#0000EE;" class="Apple-style-span">\n                                        <a target="_blank" href="http://rstyle.me/ad/psx3bywe" shape="rect">\n                                          <img src="http://www.pjtra.com/b/4-81014-73861-63607?website=157930"></img>\n                                        </a>\n                                      </span>\n                                    </div>\n                                    <div> </div>\n                                    <div>\n                                      <a target="_blank" href="http://rstyle.me/ad/hfp7bywe" shape="rect">\n                                        <img src="http://ad.linksynergy.com/fs-bin/show?id=QFGLnEolOWg&amp;bids=254156.10000657&amp;type=4"></img>\n                                      </a>\n                                    </div>\n                                  </center>\n                                </div>\n                                <div class="clear"></div>\n                                <span class="widget-item-control">\n                                  <span class="item-control blog-admin">\n                                    <a \n                                    title="Edit" target="configHTML1" onclick="return _WidgetManager._PopupConfig(document.getElementById(&quot;HTML1&quot;));" href="//www.blogger.com/rearrange?blogID=8739671872301330841&amp;widgetType=HTML&amp;widgetId=HTML1&amp;action=editWidget&amp;sectionId=sidebar-right-1" class="quickedit" shape="rect">\n                                      <img width="18" src="http://img1.blogblog.com/img/icon18_wrench_allbkg.png" height="18" alt=""></img>\n</a>\n                                  </span>\n                                </span>\n                                <div class="clear"></div>\n                              </div>\n                              <div id="FollowByEmail1" class="widget FollowByEmail">\n                                <h2 class="title">Subscribe by Email</h2>\n                                <div class="widget-content">\n                                  <div class="follow-by-email-inner">\n                                    <form \n                                    target="popupwindow" onsubmit="window.open(&quot;http://feedburner.google.com/fb/a/mailverify?uri=blogspot/zkri&quot;, &quot;popupwindow&quot;, &quot;scrollbars=yes,width=550,height=520&quot;); return true" action="http://feedburner.google.com/fb/a/mailverify" method="post" enctype="application/x-www-form-urlencoded">\n                                      <table width="100%">\n                                        <tr>\n                                          <td rowspan="1" colspan="1">\n                                            <input placeholder="Email address..." name="email" class="follow-by-email-address" type="text"></input>\n                                          </td>\n                                          <td width="64px" rowspan="1" colspan="1">\n                                            <input value="Submit" class="follow-by-email-submit" type="submit"></input>\n                                          </td>\n                                        </tr>\n                                      </table>\n                                      <input value="blogspot/zkri" name="uri" type="hidden"></input>\n                                      <input value="en_US" name="loc" type="hidden"></input>\n</form>\n                                  </div>\n                                </div>\n                                <span class="item-control blog-admin"> </span>\n                                <div class="clear"></div>\n                                <span class="widget-item-control">\n                                  <span class="item-control blog-admin">\n                                    <a \n                                    title="Edit" target="configFollowByEmail1" onclick="return _WidgetManager._PopupConfig(document.getElementById(&quot;FollowByEmail1&quot;));" href="//www.blogger.com/rearrange?blogID=8739671872301330841&amp;widgetType=FollowByEmail&amp;widgetId=FollowByEmail1&amp;action=editWidget&amp;sectionId=sidebar-right-1" class="quickedit" shape="rect">\n                                      <img width="18" src="http://img1.blogblog.com/img/icon18_wrench_allbkg.png" height="18" alt=""></img>\n</a>\n                                  </span>\n                                </span>\n                                <div class="clear"></div>\n                              </div>\n                              <div id="CustomSearch1" class="widget CustomSearch">\n                                <h2 class="title">Search</h2>\n                                <div class="widget-content">\n                                  <div id="CustomSearch1_form">\n                                    <span class="cse-status">Loading...</span>\n                                  </div>\n                                </div>\n                                <style type="text/css">\n                                  #uds-searchControl .gs-result .gs-title,\n      #uds-searchControl .gs-result .gs-title *,\n      #uds-searchControl .gsc-results .gsc-trailing-more-results,\n      #uds-searchControl .gsc-results .gsc-trailing-more-results * {\n        color:#191919;\n      }\n\n      #uds-searchControl .gs-result .gs-title a:visited,\n      #uds-searchControl .gs-result .gs-title a:visited * {\n        color:#b0aaaa;\n      }\n\n      #uds-searchControl .gs-relativePublishedDate,\n      #uds-searchControl .gs-publishedDate {\n        color: #000000;\n      }\n\n      #uds-searchControl .gs-result a.gs-visibleUrl,\n      #uds-searchControl .gs-result .gs-visibleUrl {\n        color: #191919;\n      }\n\n      #uds-searchControl .gsc-results {\n        border-color: #dddddd;\n        background-color: #ffffff;\n      }\n\n      #uds-searchControl .gsc-tabhActive {\n        border-color: #dddddd;\n        border-top-color: #dddddd;\n        background-color: #ffffff;\n        color: #666666;\n      }\n\n      #uds-searchControl .gsc-tabhInactive {\n        border-color: #dddddd;\n        background-color: transparent;\n        color: #191919;\n      }\n\n      #uds-searchClearResults {\n        border-color: #dddddd;\n      }\n\n      #uds-searchClearResults:hover {\n        border-color: #dddddd;\n      }\n\n      #uds-searchControl .gsc-cursor-page {\n        color: #191919;\n      }\n\n      #uds-searchControl .gsc-cursor-current-page {\n        color: #666666;\n      }\n                                </style>\n                                <div class="clear"></div>\n                                <span class="widget-item-control">\n                                  <span class="item-control blog-admin">\n                                    <a \n                                    title="Edit" target="configCustomSearch1" onclick="return _WidgetManager._PopupConfig(document.getElementById(&quot;CustomSearch1&quot;));" href="//www.blogger.com/rearrange?blogID=8739671872301330841&amp;widgetType=CustomSearch&amp;widgetId=CustomSearch1&amp;action=editWidget&amp;sectionId=sidebar-right-1" class="quickedit" shape="rect">\n                                      <img width="18" src="http://img1.blogblog.com/img/icon18_wrench_allbkg.png" height="18" alt=""></img>\n</a>\n                                  </span>\n                                </span>\n                                <div class="clear"></div>\n                              </div>\n                              <div id="BlogArchive1" class="widget BlogArchive">\n                                <h2>Archive</h2>\n                                <div class="widget-content">\n                                  <div id="ArchiveList">\n                                    <div id="BlogArchive1_ArchiveList">\n                                      <select id="BlogArchive1_ArchiveMenu">\n                                        <option value="">Archive</option>\n                                        <option value="http://adiaryoflovely.blogspot.com/2012_10_01_archive.html">October (2)</option>\n                                        <option value="http://adiaryoflovely.blogspot.com/2012_09_01_archive.html">September (20)</option>\n                                        <option value="http://adiaryoflovely.blogspot.com/2012_08_01_archive.html">August (22)</option>\n                                        <option value="http://adiaryoflovely.blogspot.com/2012_07_01_archive.html">July (20)</option>\n                                        <option value="http://adiaryoflovely.blogspot.com/2012_06_01_archive.html">June (21)</option>\n                                        <option value="http://adiaryoflovely.blogspot.com/2012_05_01_archive.html">May (23)</option>\n                                        <option value="http://adiaryoflovely.blogspot.com/2012_04_01_archive.html">April (20)</option>\n                                        <option value="http://adiaryoflovely.blogspot.com/2012_03_01_archive.html">March (22)</option>\n                                        <option value="http://adiaryoflovely.blogspot.com/2012_02_01_archive.html">February (21)</option>\n                                        <option value="http://adiaryoflovely.blogspot.com/2012_01_01_archive.html">January (23)</option>\n                                        <option value="http://adiaryoflovely.blogspot.com/2011_12_01_archive.html">December (25)</option>\n                                        <option value="http://adiaryoflovely.blogspot.com/2011_11_01_archive.html">November (26)</option>\n                                        <option value="http://adiaryoflovely.blogspot.com/2011_10_01_archive.html">October (26)</option>\n                                        <option value="http://adiaryoflovely.blogspot.com/2011_09_01_archive.html">September (26)</option>\n                                        <option value="http://adiaryoflovely.blogspot.com/2011_08_01_archive.html">August (24)</option>\n                                        <option value="http://adiaryoflovely.blogspot.com/2011_07_01_archive.html">July (27)</option>\n                                        <option value="http://adiaryoflovely.blogspot.com/2011_06_01_archive.html">June (29)</option>\n                                        <option value="http://adiaryoflovely.blogspot.com/2011_05_01_archive.html">May (27)</option>\n                                        <option value="http://adiaryoflovely.blogspot.com/2011_04_01_archive.html">April (29)</option>\n                                        <option value="http://adiaryoflovely.blogspot.com/2011_03_01_archive.html">March (31)</option>\n                                        <option value="http://adiaryoflovely.blogspot.com/2011_02_01_archive.html">February (37)</option>\n                                        <option value="http://adiaryoflovely.blogspot.com/2011_01_01_archive.html">January (27)</option>\n                                        <option value="http://adiaryoflovely.blogspot.com/2010_12_01_archive.html">December (39)</option>\n                                        <option value="http://adiaryoflovely.blogspot.com/2010_11_01_archive.html">November (34)</option>\n                                        <option value="http://adiaryoflovely.blogspot.com/2010_10_01_archive.html">October (40)</option>\n                                        <option value="http://adiaryoflovely.blogspot.com/2010_09_01_archive.html">September (36)</option>\n                                        <option value="http://adiaryoflovely.blogspot.com/2010_08_01_archive.html">August (40)</option>\n                                        <option value="http://adiaryoflovely.blogspot.com/2010_07_01_archive.html">July (47)</option>\n                                        <option value="http://adiaryoflovely.blogspot.com/2010_06_01_archive.html">June (51)</option>\n                                        <option value="http://adiaryoflovely.blogspot.com/2010_05_01_archive.html">May (53)</option>\n                                        <option value="http://adiaryoflovely.blogspot.com/2010_04_01_archive.html">April (48)</option>\n                                        <option value="http://adiaryoflovely.blogspot.com/2010_03_01_archive.html">March (55)</option>\n                                        <option value="http://adiaryoflovely.blogspot.com/2010_02_01_archive.html">February (43)</option>\n                                        <option value="http://adiaryoflovely.blogspot.com/2010_01_01_archive.html">January (45)</option>\n                                        <option value="http://adiaryoflovely.blogspot.com/2009_12_01_archive.html">December (65)</option>\n                                        <option value="http://adiaryoflovely.blogspot.com/2009_11_01_archive.html">November (8)</option>\n                                        <option value="http://adiaryoflovely.blogspot.com/2009_10_01_archive.html">October (2)</option>\n                                        <option value="http://adiaryoflovely.blogspot.com/2009_09_01_archive.html">September (7)</option>\n                                        <option value="http://adiaryoflovely.blogspot.com/2009_08_01_archive.html">August (4)</option>\n                                      </select>\n                                    </div>\n                                  </div>\n                                  <div class="clear"></div>\n                                  <span class="widget-item-control">\n                                    <span class="item-control blog-admin">\n                                      <a \n                                      title="Edit" target="configBlogArchive1" onclick="return _WidgetManager._PopupConfig(document.getElementById(&quot;BlogArchive1&quot;));" href="//www.blogger.com/rearrange?blogID=8739671872301330841&amp;widgetType=BlogArchive&amp;widgetId=BlogArchive1&amp;action=editWidget&amp;sectionId=sidebar-right-1" class="quickedit" shape="rect">\n                                        <img width="18" src="http://img1.blogblog.com/img/icon18_wrench_allbkg.png" height="18" alt=""></img>\n</a>\n                                    </span>\n                                  </span>\n                                  <div class="clear"></div>\n                                </div>\n                              </div>\n                              <div id="Subscribe1" class="widget Subscribe">\n                                <div style="white-space:nowrap">\n                                  <h2 class="title">Subscribe To</h2>\n                                  <div class="widget-content">\n                                    <div class="subscribe-wrapper subscribe-type-POST">\n                                      <div style="display:none;" id="SW_READER_LIST_Subscribe1POST" class="subscribe expanded subscribe-type-POST">\n                                        <div class="top">\n                                          <span onclick="return(_SW_toggleReaderList(event, &quot;Subscribe1POST&quot;));" class="inner">\n                                            <img src="http://img2.blogblog.com/img/widgets/arrow_dropdown.gif" class="subscribe-dropdown-arrow"></img>\n                                            <img src="http://img1.blogblog.com/img/icon_feed12.png" border="0" alt="" class="feed-icon" align="absmiddle"></img>\n                                            Posts\n                                          </span>\n                                          <div class="feed-reader-links">\n                                            <a target="_blank" href="http://www.google.com/ig/add?source=bstp&amp;feedurl=http%3A%2F%2Fadiaryoflovely.blogspot.com%2Ffeeds%2Fposts%2Fdefault" class="feed-reader-link" shape="rect">\n                                              <img src="http://img1.blogblog.com/img/widgets/subscribe-google.png"></img>\n                                            </a>\n                                            <a target="_blank" href="http://www.netvibes.com/subscribe.php?url=http%3A%2F%2Fadiaryoflovely.blogspot.com%2Ffeeds%2Fposts%2Fdefault" class="feed-reader-link" shape="rect">\n                                              <img src="http://img1.blogblog.com/img/widgets/subscribe-netvibes.png"></img>\n                                            </a>\n                                            <a target="_blank" href="http://www.newsgator.com/ngs/subscriber/subext.aspx?url=http%3A%2F%2Fadiaryoflovely.blogspot.com%2Ffeeds%2Fposts%2Fdefault" class="feed-reader-link" shape="rect">\n                                              <img src="http://img1.blogblog.com/img/widgets/subscribe-newsgator.png"></img>\n                                            </a>\n                                            <a target="_blank" href="http://add.my.yahoo.com/content?url=http%3A%2F%2Fadiaryoflovely.blogspot.com%2Ffeeds%2Fposts%2Fdefault" class="feed-reader-link" shape="rect">\n                                              <img src="http://img1.blogblog.com/img/widgets/subscribe-yahoo.png"></img>\n                                            </a>\n                                            <a target="_blank" href="http://adiaryoflovely.blogspot.com/feeds/posts/default" class="feed-reader-link" shape="rect">\n                                              <img src="http://img1.blogblog.com/img/icon_feed12.png" class="feed-icon" align="absmiddle"></img>\n                                              Atom\n                                            </a>\n                                          </div>\n                                        </div>\n                                        <div class="bottom"></div>\n                                      </div>\n                                      <div onclick="return(_SW_toggleReaderList(event, &quot;Subscribe1POST&quot;));" id="SW_READER_LIST_CLOSED_Subscribe1POST" class="subscribe">\n                                        <div class="top">\n                                          <span class="inner">\n                                            <img src="http://img2.blogblog.com/img/widgets/arrow_dropdown.gif" class="subscribe-dropdown-arrow"></img>\n                                            <span onclick="return(_SW_toggleReaderList(event, &quot;Subscribe1POST&quot;));">\n                                              <img src="http://img1.blogblog.com/img/icon_feed12.png" border="0" alt="" class="feed-icon" align="absmiddle"></img>\n                                              Posts\n                                            </span>\n                                          </span>\n                                        </div>\n                                        <div class="bottom"></div>\n                                      </div>\n                                    </div>\n                                    <div class="subscribe-wrapper subscribe-type-PER_POST">\n                                      <div style="display:none;" id="SW_READER_LIST_Subscribe1PER_POST" class="subscribe expanded subscribe-type-PER_POST">\n                                        <div class="top">\n                                          <span onclick="return(_SW_toggleReaderList(event, &quot;Subscribe1PER_POST&quot;));" class="inner">\n                                            <img src="http://img2.blogblog.com/img/widgets/arrow_dropdown.gif" class="subscribe-dropdown-arrow"></img>\n                                            <img src="http://img1.blogblog.com/img/icon_feed12.png" border="0" alt="" class="feed-icon" align="absmiddle"></img>\n                                            Comments\n                                          </span>\n                                          <div class="feed-reader-links">\n                                            <a target="_blank" href="http://www.google.com/ig/add?source=bstp&amp;feedurl=http%3A%2F%2Fadiaryoflovely.blogspot.com%2Ffeeds%2F5494635865561241588%2Fcomments%2Fdefault" class="feed-reader-link" shape="rect">\n                                              <img src="http://img1.blogblog.com/img/widgets/subscribe-google.png"></img>\n                                            </a>\n                                            <a target="_blank" href="http://www.netvibes.com/subscribe.php?url=http%3A%2F%2Fadiaryoflovely.blogspot.com%2Ffeeds%2F5494635865561241588%2Fcomments%2Fdefault" class="feed-reader-link" shape="rect">\n                                              <img src="http://img1.blogblog.com/img/widgets/subscribe-netvibes.png"></img>\n                                            </a>\n                                            <a target="_blank" href="http://www.newsgator.com/ngs/subscriber/subext.aspx?url=http%3A%2F%2Fadiaryoflovely.blogspot.com%2Ffeeds%2F5494635865561241588%2Fcomments%2Fdefault" class="feed-reader-link" shape="rect">\n                                              <img src="http://img1.blogblog.com/img/widgets/subscribe-newsgator.png"></img>\n                                            </a>\n                                            <a target="_blank" href="http://add.my.yahoo.com/content?url=http%3A%2F%2Fadiaryoflovely.blogspot.com%2Ffeeds%2F5494635865561241588%2Fcomments%2Fdefault" class="feed-reader-link" shape="rect">\n                                              <img src="http://img1.blogblog.com/img/widgets/subscribe-yahoo.png"></img>\n                                            </a>\n                                            <a target="_blank" href="http://adiaryoflovely.blogspot.com/feeds/5494635865561241588/comments/default" class="feed-reader-link" shape="rect">\n                                              <img src="http://img1.blogblog.com/img/icon_feed12.png" class="feed-icon" align="absmiddle"></img>\n                                              Atom\n                                            </a>\n                                          </div>\n                                        </div>\n                                        <div class="bottom"></div>\n                                      </div>\n                                      <div onclick="return(_SW_toggleReaderList(event, &quot;Subscribe1PER_POST&quot;));" id="SW_READER_LIST_CLOSED_Subscribe1PER_POST" class="subscribe">\n                                        <div class="top">\n                                          <span class="inner">\n                                            <img src="http://img2.blogblog.com/img/widgets/arrow_dropdown.gif" class="subscribe-dropdown-arrow"></img>\n                                            <span onclick="return(_SW_toggleReaderList(event, &quot;Subscribe1PER_POST&quot;));">\n                                              <img src="http://img1.blogblog.com/img/icon_feed12.png" border="0" alt="" class="feed-icon" align="absmiddle"></img>\n                                              Comments\n                                            </span>\n                                          </span>\n                                        </div>\n                                        <div class="bottom"></div>\n                                      </div>\n                                    </div>\n                                    <div style="clear:both"></div>\n                                  </div>\n                                </div>\n                                <div class="clear"></div>\n                                <span class="widget-item-control">\n                                  <span class="item-control blog-admin">\n                                    <a \n                                    title="Edit" target="configSubscribe1" onclick="return _WidgetManager._PopupConfig(document.getElementById(&quot;Subscribe1&quot;));" href="//www.blogger.com/rearrange?blogID=8739671872301330841&amp;widgetType=Subscribe&amp;widgetId=Subscribe1&amp;action=editWidget&amp;sectionId=sidebar-right-1" class="quickedit" shape="rect">\n                                      <img width="18" src="http://img1.blogblog.com/img/icon18_wrench_allbkg.png" height="18" alt=""></img>\n</a>\n                                  </span>\n                                </span>\n                                <div class="clear"></div>\n                              </div>\n                            </div>\n                          </aside>\n                        </div>\n                      </div>\n                    </div>\n                    <div style="clear: both"></div>\n                  </div>\n                </div>\n              </div>\n              <div class="main-cap-bottom cap-bottom">\n                <div class="cap-left"></div>\n                <div class="cap-right"></div>\n              </div>\n            </div>\n            <footer>\n              <div class="footer-outer">\n                <div class="footer-cap-top cap-top">\n                  <div class="cap-left"></div>\n                  <div class="cap-right"></div>\n                </div>\n                <div class="fauxborder-left footer-fauxborder-left">\n                  <div class="fauxborder-right footer-fauxborder-right"></div>\n                  <div class="region-inner footer-inner">\n                    <div id="footer-1" class="foot section">\n                      <div id="Text1" class="widget Text">\n                        <div class="widget-content">\n                          <span style="color: rgb(51, 51, 51);   letter-spacing: 1px; line-height: 20px; font-family:\'Century Gothic\';font-size:13px;" class="Apple-style-span">\n                            \xc2\xa9 2009 - 2011 A Diary of Lovely - Header by\n                            <a href="http://www.sweetfaeriedesigns.com/" shape="rect">Sweet Faerie Designs</a>\n                            - Using a\n                            <a href="http://www.svenskttenn.se/" shape="rect">Josef Frank Pattern</a>\n                            <br clear="none"></br>\n                          </span>\n                          <a title="MyFreeCopyright.com Registered &amp; Protected" href="http://www.myfreecopyright.com/registered_mcn/W31Y6-34FLN-KCWXS" shape="rect">\n                            <img border="0" height="38px" width="145px" title="MyFreeCopyright.com Registered &amp; Protected" alt="MyFreeCopyright.com Registered &amp; Protected" src="http://storage.myfreecopyright.com/mfc_protected.png"></img>\n                          </a>\n                          <br clear="none"></br>\n                          <a href="http://creativecommons.org/licenses/by-nc/2.0/uk/" rel="license" shape="rect">\n                            <img src="http://i.creativecommons.org/l/by-nc/2.0/uk/80x15.png" style="border-width:0" alt="Creative Commons Licence"></img>\n                            <span style="color: rgb(0, 0, 0); -webkit-text-decorations-in-effect: none; " class="Apple-style-span"></span>\n                          </a>\n                          <a target="_blank" title="Display Pagerank" href="http://www.prchecker.info/" shape="rect">\n                            <img style="border:0;" alt="Display Pagerank" src="http://pr.prchecker.info/getpr.php?codex=aHR0cDovL2FkaWFyeW9mbG92ZWx5LmJsb2dzcG90LmNvbS8=&amp;tag=3"></img>\n                          </a>\n                          <br clear="none"></br>\n                          This work is licensed under a\n                          <a href="http://creativecommons.org/licenses/by-nc/2.0/uk/" rel="license" shape="rect">Creative Commons Attribution-NonCommercial 2.0 UK: England &amp; Wales License</a>\n                          .\n                          <div>\n                            <div>\n                              <a target="_blank" title="Free PageRank Checker" href="http://www.prchecker.info/" shape="rect"></a>\n                            </div>\n                            <a target="_blank" title="Free PageRank Checker" href="http://www.prchecker.info/" shape="rect"></a>\n                            <div>\n                              <br clear="none"></br>\n                            </div>\n                          </div>\n                        </div>\n                        <div class="clear"></div>\n                        <span class="widget-item-control">\n                          <span class="item-control blog-admin">\n                            <a \n                            title="Edit" target="configText1" onclick="return _WidgetManager._PopupConfig(document.getElementById(&quot;Text1&quot;));" href="//www.blogger.com/rearrange?blogID=8739671872301330841&amp;widgetType=Text&amp;widgetId=Text1&amp;action=editWidget&amp;sectionId=footer-1" class="quickedit" shape="rect">\n                              <img width="18" src="http://img1.blogblog.com/img/icon18_wrench_allbkg.png" height="18" alt=""></img>\n</a>\n                          </span>\n                        </span>\n                        <div class="clear"></div>\n                      </div>\n                    </div>\n                    <div id="footer-3" class="foot section">\n                      <div id="Attribution1" class="widget Attribution">\n                        <div style="text-align: center;" class="widget-content">\n                          Powered by\n                          <a target="_blank" href="http://www.blogger.com" shape="rect">Blogger</a>\n                          .\n                        </div>\n                        <div class="clear"></div>\n                        <span class="widget-item-control">\n                          <span class="item-control blog-admin">\n                            <a \n                            title="Edit" target="configAttribution1" onclick="return _WidgetManager._PopupConfig(document.getElementById(&quot;Attribution1&quot;));" href="//www.blogger.com/rearrange?blogID=8739671872301330841&amp;widgetType=Attribution&amp;widgetId=Attribution1&amp;action=editWidget&amp;sectionId=footer-3" class="quickedit" shape="rect">\n                              <img width="18" src="http://img1.blogblog.com/img/icon18_wrench_allbkg.png" height="18" alt=""></img>\n</a>\n                          </span>\n                        </span>\n                        <div class="clear"></div>\n                      </div>\n                    </div>\n                  </div>\n                </div>\n                <div class="footer-cap-bottom cap-bottom">\n                  <div class="cap-left"></div>\n                  <div class="cap-right"></div>\n                </div>\n              </div>\n            </footer>\n          </div>\n        </div>\n        <div class="content-cap-bottom cap-bottom">\n          <div class="cap-left"></div>\n          <div class="cap-right"></div>\n        </div>\n      </div>\n    </div>\n    <script type="text/javascript"> window.setTimeout(function() { document.body.className = document.body.className.replace(\'loading\', \'\'); }, 10); </script>\n    <script type="text/javascript" src="http://sm8.sitemeter.com/js/counter.js?site=sm8adiary"> </script>\n    <script type="text/javascript"> if (window.jstiming) window.jstiming.load.tick(\'widgetJsBefore\'); </script>\n    <script src="//www.blogger.com/static/v1/widgets/1040267425-widgets.js" type="text/javascript"></script>\n    <script src="//www.google.com/jsapi" type="text/javascript"></script>\n    <script type="text/javascript">\n      if (typeof(BLOG_attachCsiOnload) != \'undefined\' &amp;&amp; BLOG_attachCsiOnload != null) { window[\'blogger_templates_experiment_id\'] = &quot;templatesV2&quot;;window[\'blogger_blog_id\'] = \'8739671872301330841\';BLOG_attachCsiOnload(\'item_\'); }_WidgetManager._Init(\'//www.blogger.com/rearrange?blogID\\x3d8739671872301330841\',\'//adiaryoflovely.blogspot.com/2011/04/pearls-home.html\',\'8739671872301330841\');\n_WidgetManager._SetDataContext([{\'name\': \'blog\', \'data\': {\'blogId\': \'8739671872301330841\', \'bloggerUrl\': \'http://www.blogger.com\', \'title\': \'A Diary of Lovely\', \'pageType\': \'item\', \'url\': \'http://adiaryoflovely.blogspot.com/2011/04/pearls-home.html\', \'canonicalUrl\': \'http://adiaryoflovely.blogspot.com/2011/04/pearls-home.html\', \'canonicalHomepageUrl\': \'http://adiaryoflovely.blogspot.com/\', \'homepageUrl\': \'http://adiaryoflovely.blogspot.com/\', \'blogspotFaviconUrl\': \'http://adiaryoflovely.blogspot.com/favicon.ico\', \'enabledCommentProfileImages\': true, \'adultContent\': false, \'disableAdSenseWidget\': false, \'analyticsAccountNumber\': \'\', \'searchLabel\': \'\', \'searchQuery\': \'\', \'pageName\': \'Pearl\\47s home\', \'pageTitle\': \'A Diary of Lovely: Pearl\\47s home\', \'encoding\': \'UTF-8\', \'locale\': \'en-GB\', \'isPrivate\': false, \'isMobile\': false, \'isMobileRequest\': false, \'mobileClass\': \'\', \'isPrivateBlog\': false, \'languageDirection\': \'ltr\', \'feedLinks\': \'\\74link rel\\75\\42alternate\\42 type\\75\\42application/atom+xml\\42 title\\75\\42A Diary of Lovely - Atom\\42 href\\75\\42http://adiaryoflovely.blogspot.com/feeds/posts/default\\42 /\\76\\n\\74link rel\\75\\42alternate\\42 type\\75\\42application/rss+xml\\42 title\\75\\42A Diary of Lovely - RSS\\42 href\\75\\42http://adiaryoflovely.blogspot.com/feeds/posts/default?alt\\75rss\\42 /\\76\\n\\74link rel\\75\\42service.post\\42 type\\75\\42application/atom+xml\\42 title\\75\\42A Diary of Lovely - Atom\\42 href\\75\\42http://www.blogger.com/feeds/8739671872301330841/posts/default\\42 /\\76\\n\\74link rel\\75\\42EditURI\\42 type\\75\\42application/rsd+xml\\42 title\\75\\42RSD\\42 href\\75\\42http://www.blogger.com/rsd.g?blogID\\758739671872301330841\\42 /\\76\\n\\74link rel\\75\\42alternate\\42 type\\75\\42application/atom+xml\\42 title\\75\\42A Diary of Lovely - Atom\\42 href\\75\\42http://adiaryoflovely.blogspot.com/feeds/5494635865561241588/comments/default\\42 /\\76\\n\', \'meTag\': \'\', \'openIdOpTag\': \'\', \'imageSrcTag\': \'\', \'latencyHeadScript\': \'\\74script type\\75\\42text/javascript\\42\\76(function() { var a\\75window,b\\75\\42jstiming\\42,d\\75\\42tick\\42;var e\\75function(c){this.t\\75{};this.tick\\75function(c,p,h){h\\75void 0!\\75h?h:(new Date).getTime();this.t[c]\\75[h,p]};this[d](\\42start\\42,null,c)},f\\75new e;a.jstiming\\75{Timer:e,load:f};if(a.performance\\46\\46a.performance.timing){var g\\75a.performance.timing,j\\75a[b].load,k\\75g.navigationStart,l\\75g.responseStart;0\\74k\\46\\46l\\76\\75k\\46\\46(j[d](\\42_wtsrt\\42,void 0,k),j[d](\\42wtsrt_\\42,\\42_wtsrt\\42,l),j[d](\\42tbsd_\\42,\\42wtsrt_\\42))}\\ntry{var m\\75null;a.chrome\\46\\46a.chrome.csi\\46\\46(m\\75Math.floor(a.chrome.csi().pageT),j\\46\\0460\\74k\\46\\46(j[d](\\42_tbnd\\42,void 0,a.chrome.csi().startE),j[d](\\42tbnd_\\42,\\42_tbnd\\42,k)));null\\75\\75m\\46\\46a.gtbExternal\\46\\46(m\\75a.gtbExternal.pageT());null\\75\\75m\\46\\46a.external\\46\\46(m\\75a.external.pageT,j\\46\\0460\\74k\\46\\46(j[d](\\42_tbnd\\42,void 0,a.external.startE),j[d](\\42tbnd_\\42,\\42_tbnd\\42,k)));m\\46\\46(a[b].pt\\75m)}catch(n){};a.tickAboveFold\\75function(c){var i\\0750;if(c.offsetParent){do i+\\75c.offsetTop;while(c\\75c.offsetParent)}c\\75i;750\\76\\75c\\46\\46a[b].load[d](\\42aft\\42)};var q\\75!1;function r(){q||(q\\75!0,a[b].load[d](\\42firstScrollTime\\42))}a.addEventListener?a.addEventListener(\\42scroll\\42,r,!1):a.attachEvent(\\42onscroll\\42,r);\\n })();\\74/script\\076\', \'mobileHeadScript\': \'\', \'ieCssRetrofitLinks\': \'\\74!--[if IE]\\76\\74script type\\75\\42text/javascript\\42 src\\75\\42//www.blogger.com/static/v1/jsbin/3651483553-ieretrofit.js\\42\\76\\74/script\\76\\n\\74![endif]--\\076\', \'view\': \'\', \'dynamicViewsCommentsSrc\': \'//www.blogblog.com/dynamicviews/4224c15c4e7c9321/js/comments.js\', \'dynamicViewsScriptSrc\': \'//www.blogblog.com/dynamicviews/04452fcc9c8aa994\'}}, {\'name\': \'skin\', \'data\': {\'vars\': {\'content_padding\': \'10px\', \'paging_background\': \'transparent url(http://www.blogblog.com/1kt/simple/paging_dot.png) repeat-x scroll top center\', \'image_border_small_size\': \'2px\', \'body_background_gradient_cap\': \'none\', \'tabs_selected_background_color\': \'#eeeeee\', \'body_rule_color\': \'transparent\', \'header_shadow_spread\': \'0\', \'header_shadow_offset_left\': \'0\', \'header_padding\': \'0\', \'link_visited_color\': \'#b0aaaa\', \'mobile_background_size\': \'auto\', \'post_title_font\': \'normal normal 22px \\47Courier New\\47, Courier, FreeMono, monospace\', \'tabs_text_color\': \'#000000\', \'date_header_margin\': \'inherit\', \'header_background_gradient\': \'none\', \'content_shadow_spread_webkit\': \'0\', \'header_bottom_border_size\': \'0\', \'header_shadow_offset_top\': \'0\', \'mobile_button_color\': \'#ffffff\', \'widget_title_font\': \'normal bold 11px \\47Trebuchet MS\\47, Trebuchet, sans-serif\', \'main_section_margin\': \'1em\', \'keycolor\': \'#ffffff\', \'content_shadow_spread\': \'0\', \'image_background_color\': \'transparent\', \'header_font\': \'normal normal 40px \\47Trebuchet MS\\47, Trebuchet, sans-serif\', \'header_background_color\': \'transparent\', \'main_border_width\': \'0\', \'main_padding\': \'0\', \'tabs_border_color\': \'#dddddd\', \'image_text_color\': \'transparent\', \'description_text_size\': \'18px\', \'post_footer_background_color\': \'#eeeeee\', \'body_background_gradient_tile\': \'none\', \'page_width\': \'auto\', \'tabs_background_gradient\': \'none\', \'mobile_background_overlay\': \'transparent none repeat scroll top left\', \'main_padding_bottom\': \'65px\', \'tabs_background_color\': \'transparent\', \'image_border_large_size\': \'5px\', \'post_margin_bottom\': \'45px\', \'body_background_override\': \'\', \'tabs_margin_side\': \'30px\', \'link_hover_color\': \'#ff7474\', \'description_text_color\': \'#000000\', \'body_text_color\': \'#666666\', \'content_padding_horizontal\': \'40px\', \'endSide\': \'right\', \'page_width_selector\': \'.region-inner\', \'date_header_padding\': \'0.4em\', \'post_footer_text_color\': \'#666666\', \'startSide\': \'left\', \'date_header_color\': \'#000000\', \'tabs_font\': \'normal normal 14px \\47Courier New\\47, Courier, FreeMono, monospace\', \'post_footer_border_color\': \'#eeeeee\', \'body_font\': \'normal normal 12px \\47Trebuchet MS\\47, Trebuchet, Verdana, sans-serif\', \'footer_bevel\': \'1px\', \'tabs_bevel_border_width\': \'1px\', \'date_header_background_color\': \'#ffffff\', \'content_shadow_spread_ie\': \'0\', \'widget_title_text_color\': \'#666666\', \'header_border_horizontalsize\': \'1px\', \'image_border_color\': \'transparent\', \'tabs_border_width\': \'1px\', \'content_background_color\': \'#ffffff\', \'link_color\': \'#191919\', \'header_text_color\': \'#333333\', \'date_header_letterspacing\': \'3px\', \'tabs_margin_top\': \'0\', \'main_padding_top\': \'35px\', \'header_border_size\': \'1px\', \'tabs_selected_text_color\': \'#000000\', \'content_background_color_selector\': \'.content-inner\', \'body_background_color\': \'#ffffff\', \'widget_alternate_text_color\': \'#999999\'}, \'override\': \'\'}}, {\'name\': \'view\', \'data\': {\'classic\': {\'name\': \'classic\', \'url\': \'/?view\\75classic\'}, \'flipcard\': {\'name\': \'flipcard\', \'url\': \'/?view\\75flipcard\'}, \'magazine\': {\'name\': \'magazine\', \'url\': \'/?view\\75magazine\'}, \'mosaic\': {\'name\': \'mosaic\', \'url\': \'/?view\\75mosaic\'}, \'sidebar\': {\'name\': \'sidebar\', \'url\': \'/?view\\75sidebar\'}, \'snapshot\': {\'name\': \'snapshot\', \'url\': \'/?view\\75snapshot\'}, \'timeslide\': {\'name\': \'timeslide\', \'url\': \'/?view\\75timeslide\'}}}]);\n_WidgetManager._RegisterWidget(\'_HTMLView\', new _WidgetInfo(\'HTML3\', \'sidebar-right-1\', null, document.getElementById(\'HTML3\'), {}, \'displayModeFull\'));\n_WidgetManager._RegisterWidget(\'_HTMLView\', new _WidgetInfo(\'HTML6\', \'sidebar-right-1\', null, document.getElementById(\'HTML6\'), {}, \'displayModeFull\'));\n_WidgetManager._RegisterWidget(\'_FollowersView\', new _WidgetInfo(\'Followers1\', \'sidebar-right-1\', null, document.getElementById(\'Followers1\'), {\'title\': \'Lovely People\', \'codeSnippet\': \'\\74script type\\75\\42text/javascript\\42\\76\\n        if (!window.google || !google.friendconnect) {\\n          document.write(\\47\\74script type\\75\\42text/javascript\\42\\47 +\\n              \\47src\\75\\42http://www.google.com/friendconnect/script/friendconnect.js\\42\\76\\47 +\\n              \\47\\74/scr\\47 + \\47ipt\\76\\47);\\n        }\\n      \\74/script\\76\\n\\74script type\\75\\42text/javascript\\42\\76\\n      if (!window.registeredBloggerCallbacks) {\\n        window.registeredBloggerCallbacks \\75 true;\\n\\n        \\n\\n        \\n        gadgets.rpc.register(\\47requestReload\\47, function() {\\n          document.location.reload();\\n        });\\n\\n        \\n        gadgets.rpc.register(\\47requestSignOut\\47, function(siteId) {\\n          \\n          google.friendconnect.container.openSocialSiteId \\75 siteId;\\n          google.friendconnect.requestSignOut();\\n        });\\n      }\\n    \\74/script\\76\\n\\74script type\\75\\42text/javascript\\42\\76\\n    \\n    function registerGetBlogUrls() {\\n      gadgets.rpc.register(\\47getBlogUrls\\47, function() {\\n        var holder \\75 {};\\n        \\n          \\n            \\n            \\n              holder.currentPost \\75 \\42http://www.blogger.com/feeds/8739671872301330841/posts/default/5494635865561241588\\42;\\n            \\n            \\n            \\n              holder.currentComments \\75 \\42http://www.blogger.com/feeds/8739671872301330841/5494635865561241588/comments/default\\42;\\n            \\n            holder.currentPostUrl \\75 \\42\\42;\\n            holder.currentPostId \\75 5494635865561241588\\n          \\n          \\n          \\n            holder.postFeed \\75 \\42http://www.blogger.com/feeds/8739671872301330841/posts/default\\42;\\n          \\n          \\n          \\n            holder.commentFeed \\75 \\42http://www.blogger.com/feeds/8739671872301330841/comments/default\\42;\\n          \\n          holder.currentBlogUrl \\75 \\42http://adiaryoflovely.blogspot.com/\\42;\\n          holder.currentBlogId \\75 \\428739671872301330841\\42;\\n        \\n        return holder;\\n      });\\n    }\\n  \\74/script\\76\\n\\74script type\\75\\42text/javascript\\42\\76\\n  if (!window.registeredCommonBloggerCallbacks) {\\n    window.registeredCommonBloggerCallbacks \\75 true;\\n\\n    gadgets.rpc.register(\\47resize_iframe\\47, function(height) {\\n      var el \\75 document.getElementById(this[\\47f\\47]);\\n      if (el) {\\n        el.style.height \\75 height + \\47px\\47;\\n      }\\n    });\\n\\n    \\n    gadgets.rpc.register(\\47set_pref\\47, function() {});\\n\\n    registerGetBlogUrls();\\n  }\\n  \\74/script\\76\\n\\74div id\\75\\42div-qap710tr50q8\\42 style\\75\\42width: 100%; \\42\\76\\74/div\\76\\n\\74script type\\75\\42text/javascript\\42\\76\\n    var skin \\75 {};\\n    skin[\\47FACE_SIZE\\47] \\75 \\04732\\47;\\n    skin[\\47HEIGHT\\47] \\75 \\042260\\42;\\n    skin[\\47TITLE\\47] \\75 \\42Lovely People\\42;\\n    skin[\\47BORDER_COLOR\\47] \\75 \\42transparent\\42;\\n    skin[\\47ENDCAP_BG_COLOR\\47] \\75 \\42transparent\\42;\\n    skin[\\47ENDCAP_TEXT_COLOR\\47] \\75 \\42#666666\\42;\\n    skin[\\47ENDCAP_LINK_COLOR\\47] \\75 \\42#191919\\42;\\n    skin[\\47ALTERNATE_BG_COLOR\\47] \\75 \\42transparent\\42;\\n    \\n    skin[\\47CONTENT_BG_COLOR\\47] \\75 \\42transparent\\42;\\n    skin[\\47CONTENT_LINK_COLOR\\47] \\75 \\42#191919\\42;\\n    skin[\\47CONTENT_TEXT_COLOR\\47] \\75 \\42#666666\\42;\\n    skin[\\47CONTENT_SECONDARY_LINK_COLOR\\47] \\75 \\42#191919\\42;\\n    skin[\\47CONTENT_SECONDARY_TEXT_COLOR\\47] \\75 \\42#999999\\42;\\n    skin[\\47CONTENT_HEADLINE_COLOR\\47] \\75 \\42#666666\\42;\\n    skin[\\47FONT_FACE\\47] \\75 \\42normal normal 12px \\\\x27Trebuchet MS\\\\x27, Trebuchet, Verdana, sans-serif\\42;\\n    google.friendconnect.container.setParentUrl(\\42/\\42);\\n    google.friendconnect.container[\\42renderMembersGadget\\42](\\n    {id: \\42div-qap710tr50q8\\42,\\n     height: 260,\\n     \\n     \\n     \\n     site: \\04216844967930614627514\\42,\\n     \\n     locale: \\47en_GB\\47 },\\n     skin);\\n  \\74/script\\076\'}, \'displayModeFull\'));\n_WidgetManager._RegisterWidget(\'_HTMLView\', new _WidgetInfo(\'HTML2\', \'sidebar-right-1\', null, document.getElementById(\'HTML2\'), {}, \'displayModeFull\'));\n_WidgetManager._RegisterWidget(\'_HTMLView\', new _WidgetInfo(\'HTML1\', \'sidebar-right-1\', null, document.getElementById(\'HTML1\'), {}, \'displayModeFull\'));\n_WidgetManager._RegisterWidget(\'_FollowByEmailView\', new _WidgetInfo(\'FollowByEmail1\', \'sidebar-right-1\', null, document.getElementById(\'FollowByEmail1\'), {}, \'displayModeFull\'));\n_WidgetManager._RegisterWidget(\'_CustomSearchView\', new _WidgetInfo(\'CustomSearch1\', \'sidebar-right-1\', null, document.getElementById(\'CustomSearch1\'), {\'title\': \'Search\', \'includeBlog\': true, \'includePostLinks\': false, \'includeWeb\': false, \'linkLists\': [], \'blogUrl\': \'http://adiaryoflovely.blogspot.com/\', \'loadingMsg\': \'Loading...\', \'thisBlogMsg\': \'This Blog\', \'linkedFromHereMsg\': \'Linked From Here\', \'theWebMsg\': \'The Web\', \'backgroundColor\': \'#ffffff\', \'textColor\': \'#666666\', \'dateColor\': \'#000000\', \'linkColor\': \'#191919\', \'urlColor\': \'#191919\', \'visitedLinkColor\': \'#b0aaaa\', \'borderColor\': \'#dddddd\', \'activeBorderColor\': \'#dddddd\'}, \'displayModeFull\'));\n_WidgetManager._RegisterWidget(\'_BlogArchiveView\', new _WidgetInfo(\'BlogArchive1\', \'sidebar-right-1\', null, document.getElementById(\'BlogArchive1\'), {\'languageDirection\': \'ltr\'}, \'displayModeFull\'));\n_WidgetManager._RegisterWidget(\'_SubscribeView\', new _WidgetInfo(\'Subscribe1\', \'sidebar-right-1\', null, document.getElementById(\'Subscribe1\'), {}, \'displayModeFull\'));\n_WidgetManager._RegisterWidget(\'_AttributionView\', new _WidgetInfo(\'Attribution1\', \'footer-3\', null, document.getElementById(\'Attribution1\'), {\'attribution\': \'Powered by \\74a href\\75\\47http://www.blogger.com\\47 target\\75\\47_blank\\47\\76Blogger\\74/a\\76.\'}, \'displayModeFull\'));\n_WidgetManager._RegisterWidget(\'_TextView\', new _WidgetInfo(\'Text1\', \'footer-1\', null, document.getElementById(\'Text1\'), {}, \'displayModeFull\'));\n_WidgetManager._RegisterWidget(\'_HeaderView\', new _WidgetInfo(\'Header1\', \'header\', null, document.getElementById(\'Header1\'), {}, \'displayModeFull\'));\n_WidgetManager._RegisterWidget(\'_NavbarView\', new _WidgetInfo(\'Navbar1\', \'navbar\', null, document.getElementById(\'Navbar1\'), {}, \'displayModeFull\'));\n_WidgetManager._RegisterWidget(\'_BlogView\', new _WidgetInfo(\'Blog1\', \'main\', null, document.getElementById(\'Blog1\'), {\'cmtInteractionsEnabled\': false, \'showBacklinks\': true, \'postId\': \'5494635865561241588\', \'lightboxEnabled\': true, \'lightboxModuleUrl\': \'//www.blogger.com/static/v1/jsbin/3811339452-lbx_en-GB.js\', \'lightboxCssUrl\': \'//www.blogger.com/static/v1/v-css/228702327-lightbox_bundle.css\'}, \'displayModeFull\'));\n_WidgetManager._RegisterWidget(\'_HTMLView\', new _WidgetInfo(\'HTML5\', \'main\', null, document.getElementById(\'HTML5\'), {}, \'displayModeFull\'));\n_WidgetManager._RegisterWidget(\'_PageListView\', new _WidgetInfo(\'PageList1\', \'null\', null, document.getElementById(\'PageList1\'), {\'title\': \'Pages\', \'links\': [{\'href\': \'http://adiaryoflovely.blogspot.com/\', \'title\': \'Home\', \'isCurrentPage\': false}, {\'href\': \'http://adiaryoflovely.blogspot.com/p/blogs-i-love_19.html\', \'title\': \'Blogs I Read\', \'isCurrentPage\': false}, {\'href\': \'http://adiaryoflovely.blogspot.com/p/contact-me.html\', \'title\': \'Contact me\', \'isCurrentPage\': false}, {\'href\': \'http://adiaryoflovely.blogspot.com/p/sponsors.html\', \'title\': \'Advertise your Business at A Diary of Lovely\', \'isCurrentPage\': false}, {\'href\': \'http://adiaryoflovely.blogspot.com/p/blogroll.html\', \'title\': \'Blogroll\', \'isCurrentPage\': false}, {\'href\': \'http://adiaryoflovely.blogspot.com/p/thank-you.html\', \'title\': \'Thank You!\', \'isCurrentPage\': false}, {\'href\': \'http://adiaryoflovely.blogspot.com/p/wedding-inspiration.html\', \'title\': \'Weddings: where to go?\', \'isCurrentPage\': false}, {\'href\': \'http://adiaryoflovely.blogspot.com/p/what-makes-me-happy.html\', \'title\': \'What makes me happy\', \'isCurrentPage\': false}, {\'href\': \'http://adiaryoflovely.blogspot.com/p/hi-im-helena-and-this-is-diary-of.html\', \'title\': \'Hello!\', \'isCurrentPage\': false}, {\'href\': \'http://adiaryoflovely.blogspot.com/p/guest-posts.html\', \'title\': \'Guest Posts\', \'isCurrentPage\': false}], \'mobile\': false}, \'displayModeFull\'));\n    </script>\n  </body>\n</html>'
p11
sbsS'mentions'
p12
(lp13
(iedu.umass.cs.iesl.wikilink.expanded.data.ttypes
Mention
p14
(dp15
S'anchor_text'
p16
S'Pearl Lowe'
p17
sS'context'
p18
(iedu.umass.cs.iesl.wikilink.expanded.data.ttypes
Context
p19
(dp20
S'middle'
p21
S'Pearl Lowe'
p22
sS'right'
p23
S', \xc2\xa0she is a British songwriter turned designer. After leaving the wild life in London she now lives with all her family in Somerset, close'
p24
sS'left'
p25
S"Diary of Lovely: Pearl's home Friday, 22 April 2011 Pearl's home This is the home of Pearl Lowe. For those of you who don't know\xc2\xa0"
p26
sbsS'freebase_id'
p27
S'9202a8c04000641f8000000003b1389b'
p28
sS'raw_text_offset'
p29
I29066
sS'wiki_url'
p30
S'http://en.wikipedia.org/wiki/Pearl_Lowe'
p31
sbasS'doc_id'
p32
I11820
sS'rare_words'
p33
(lp34
(iedu.umass.cs.iesl.wikilink.expanded.data.ttypes
RareWord
p35
(dp36
S'word'
p37
S'London'
p38
sS'offset'
p39
I29314
sba(iedu.umass.cs.iesl.wikilink.expanded.data.ttypes
RareWord
p40
(dp41
g37
S'quirky'
p42
sg39
I30000
sba(iedu.umass.cs.iesl.wikilink.expanded.data.ttypes
RareWord
p43
(dp44
g37
S'full'
p45
sg39
I29961
sba(iedu.umass.cs.iesl.wikilink.expanded.data.ttypes
RareWord
p46
(dp47
g37
S'unforgettable'
p48
sg39
I30030
sba(iedu.umass.cs.iesl.wikilink.expanded.data.ttypes
RareWord
p49
(dp50
g37
S'know'
p51
sg39
I28855
sba(iedu.umass.cs.iesl.wikilink.expanded.data.ttypes
RareWord
p52
(dp53
g37
S'magazine'
p54
sg39
I29924
sba(iedu.umass.cs.iesl.wikilink.expanded.data.ttypes
RareWord
p55
(dp56
g37
S'turned'
p57
sg39
I29266
sba(iedu.umass.cs.iesl.wikilink.expanded.data.ttypes
RareWord
p58
(dp59
g37
S'house'
p60
sg39
I29422
sba(iedu.umass.cs.iesl.wikilink.expanded.data.ttypes
RareWord
p61
(dp62
g37
S'family'
p63
sg39
I29348
sba(iedu.umass.cs.iesl.wikilink.expanded.data.ttypes
RareWord
p64
(dp65
g37
S'but'
p66
sg39
I29858
sbasb.