(iedu.umass.cs.iesl.wikilink.expanded.data.ttypes
WikiLinkItem
p0
(dp1
S'url'
p2
S'http://andrewlainton.wordpress.com/2012/05/09/pickles-said-rebranding-was-a-waste-of-money-so-what-does-dclg-do/'
p3
sS'content'
p4
(iedu.umass.cs.iesl.wikilink.expanded.data.ttypes
PageContentItem
p5
(dp6
S'articleText'
p7
NsS'raw'
p8
NsS'fullText'
p9
NsS'dom'
p10
S'<html lang="en" dir="ltr">\n  <head>\n    <meta charset="UTF-8"></meta>\n    <title>Pickles said rebranding was a waste of money \xe2\x80\x93 So what does DCLG do? \xc2\xab Decisions, Decisions, Decisions</title>\n    <link href="http://gmpg.org/xfn/11" rel="profile"></link>\n    <link href="http://s2.wp.com/wp-content/themes/pub/mystique/style.css?m=1339795534g" media="all" type="text/css" rel="stylesheet"></link>\n    <link href="http://andrewlainton.wordpress.com/xmlrpc.php" rel="pingback"></link>\n    <meta content="B2t34kg6q1_Z9UPofxe6SAkUA1h0FGZxSdDR-qGtARo" name="google-site-verification"></meta>\n    <link href="http://andrewlainton.wordpress.com/feed/" title="Decisions, Decisions, Decisions \xc2\xbb Feed" type="application/rss+xml" rel="alternate"></link>\n    <link href="http://andrewlainton.wordpress.com/comments/feed/" title="Decisions, Decisions, Decisions \xc2\xbb Comments Feed" type="application/rss+xml" rel="alternate"></link>\n    <link href="http://andrewlainton.wordpress.com/2012/05/09/pickles-said-rebranding-was-a-waste-of-money-so-what-does-dclg-do/feed/" title="Decisions, Decisions, Decisions \xc2\xbb Pickles said rebranding was a waste of money \xe2\x80\x93 So what does DCLG\xc2\xa0do? Comments Feed" type="application/rss+xml" rel="alternate">\n    </link>\n    <script type="text/javascript"> /* &lt;![CDATA[ */ function addLoadEvent(func){var oldonload=window.onload;if(typeof window.onload!=\'function\'){window.onload=func;}else{window.onload=function(){oldonload();func();}}} /* ]]&gt; */ </script>\n    <link \n    media="all" type="text/css" href="http://s1.wp.com/_static/??/wp-content/blog-plugins/loggedout-follow/widget.css,/wp-content/mu-plugins/post-flair/style.css,/wp-content/themes/pub/mystique/colors/color-green.css,/wp-content/mu-plugins/post-flair/sharing/sharing.css,/wp-content/themes/h4/global.css,/wp-content/mu-plugins/widgets/css/widget-grid-and-list.css?m=1349103886j" rel="stylesheet" id="all-css-0">\n</link>\n    <link media="print" type="text/css" href="http://s0.wp.com/wp-content/mu-plugins/global-print/global-print.css?m=1335386953g" rel="stylesheet" id="print-css-0"></link>\n    <script type="text/javascript"> /* &lt;![CDATA[ */ var LoggedOutFollow = {&quot;invalid_email&quot;:&quot;Your subscription did not succeed, please try again with a valid email address.&quot;}; /* ]]&gt; */ </script>\n    <script src="http://s0.wp.com/_static/??/wp-includes/js/jquery/jquery.js,/wp-content/blog-plugins/loggedout-follow/widget.js,/wp-content/themes/pub/mystique/js/functions.js,/wp-includes/js/comment-reply.js,/wp-content/mu-plugins/widgets/js/widget-bump-view.js?m=1342269540j" type="text/javascript">\n    </script>\n    <link media="all" type="text/css" href="http://s1.wp.com/wp-content/mu-plugins/highlander-comments/style.css?m=1343991657g" rel="stylesheet" id="all-css-0"></link>\n    <link href="http://andrewlainton.wordpress.com/xmlrpc.php?rsd" title="RSD" type="application/rsd+xml" rel="EditURI"></link>\n    <link href="http://andrewlainton.wordpress.com/wp-includes/wlwmanifest.xml" type="application/wlwmanifest+xml" rel="wlwmanifest"></link>\n    <link href="http://andrewlainton.wordpress.com/2012/05/09/a-readers-guide-to-unwins-town-planning-in-practice-part-5-boundaries-and-approaches/" title="A Readers Guide to Unwin\xc3\xa2\xe2\x82\xac\xe2\x84\xa2s Town Planning in Practice \xc3\xa2\xe2\x82\xac\xe2\x80\x9c Part 5 \xc3\xa2\xe2\x82\xac\xe2\x80\x9c Boundaries and\xc2\xa0Approaches" rel="prev"></link>\n    <link href="http://andrewlainton.wordpress.com/2012/05/10/does-inflation-erode-debt-not-necessarily/" title="Does Inflation erode Debt? \xe2\x80\x93 Not\xc2\xa0necessarily" rel="next"></link>\n    <meta content="WordPress.com" name="generator"></meta>\n    <link href="http://andrewlainton.wordpress.com/2012/05/09/pickles-said-rebranding-was-a-waste-of-money-so-what-does-dclg-do/" rel="canonical"></link>\n    <link href="http://wp.me/pNECF-3rD" rel="shortlink"></link>\n    <link href="http://public-api.wordpress.com/oembed/1.0/?format=json&amp;url=http%3A%2F%2Fandrewlainton.wordpress.com%2F2012%2F05%2F09%2Fpickles-said-rebranding-was-a-waste-of-money-so-what-does-dclg-do%2F&amp;for=wpcom-auto-discovery" type="application/json+oembed" rel="alternate"></link>\n    <link href="http://public-api.wordpress.com/oembed/1.0/?format=xml&amp;url=http%3A%2F%2Fandrewlainton.wordpress.com%2F2012%2F05%2F09%2Fpickles-said-rebranding-was-a-waste-of-money-so-what-does-dclg-do%2F&amp;for=wpcom-auto-discovery" type="application/xml+oembed" rel="alternate"></link>\n    <meta content="article" property="og:type"></meta>\n    <meta content="Pickles said rebranding was a waste of money \xe2\x80\x93 So what does DCLG\xc2\xa0do?" property="og:title"></meta>\n    <meta content="http://andrewlainton.wordpress.com/2012/05/09/pickles-said-rebranding-was-a-waste-of-money-so-what-does-dclg-do/" property="og:url"></meta>\n    <meta content="Pickles via his Spad was always keen to highlight wastes of spending by the DCLG such as the 30 odd\xc3\x82\xc2\xa0thousand\xc3\x82\xc2\xa0pounds on designing its horrible turquoise logo. \xc3\x82\xc2\xa0So it will be with some\xc3\x82\xc2\xa0embarrassment\xc3\x82\xc2\xa0..." property="og:description"></meta>\n    <meta content="Decisions, Decisions, Decisions" property="og:site_name"></meta>\n    <meta content="https://andrewlainton.files.wordpress.com/2012/05/gov.jpg?w=200" property="og:image"></meta>\n    <meta content="https://andrewlainton.files.wordpress.com/2012/05/gov.jpg" name="twitter:image"></meta>\n    <meta content="photo" name="twitter:card"></meta>\n    <meta content="14155028" name="twitter:creator:id"></meta>\n    <meta content="249643311490" property="fb:app_id"></meta>\n    <link sizes="16x16" href="http://1.gravatar.com/blavatar/d085c17f7fcd546461c196c156e8e020?s=16" type="image/x-icon" rel="shortcut icon"></link>\n    <link sizes="16x16" href="http://1.gravatar.com/blavatar/d085c17f7fcd546461c196c156e8e020?s=16" type="image/x-icon" rel="icon"></link>\n    <link href="http://0.gravatar.com/blavatar/830d37660baf448a17dd078ed7a1570e?s=114" rel="apple-touch-icon-precomposed"></link>\n    <link href="http://andrewlainton.wordpress.com/?openidserver=1" rel="openid.server"></link>\n    <link href="http://andrewlainton.wordpress.com/" rel="openid.delegate"></link>\n    <link title="Decisions, Decisions, Decisions" href="http://andrewlainton.wordpress.com/osd.xml" type="application/opensearchdescription+xml" rel="search"></link>\n    <link title="WordPress.com" href="http://wordpress.com/opensearch.xml" type="application/opensearchdescription+xml" rel="search"></link>\n    <style>\n      /* &lt;![CDATA[ */\n\t\t/* Block: reblog */\n\t\t\n\t\t.reblog-from img                   { margin: 0 10px 0 0; vertical-align: middle; padding: 0; border: 0; }\n\t\t.reblogger-note img.avatar         { float: left; padding: 0; border: 0; }\n\t\t.reblogger-note-content            { margin: 0 0 20px; }\n\t\t.reblog-post .wpcom-enhanced-excerpt-content { border-left: 3px solid #eee; padding-left: 15px; }\n\t\t.reblog-post ul.thumb-list         { display: block; list-style: none; margin: 2px 0; padding: 0; clear: both; }\n\t\t.reblog-post ul.thumb-list li      { display: inline; margin: 0; padding: 0 1px; border: 0; }\n\t\t.reblog-post ul.thumb-list li a    { margin: 0; padding: 0; border: 0; }\n\t\t.reblog-post ul.thumb-list li img  { margin: 0; padding: 0; border: 0; }\n\t\t\n\t\t.reblog-post .wpcom-enhanced-excerpt { clear: both; }\n\t\t\n\t\t.reblog-post .wpcom-enhanced-excerpt address,\n\t\t.reblog-post .wpcom-enhanced-excerpt li,\n\t\t.reblog-post .wpcom-enhanced-excerpt h1,\n\t\t.reblog-post .wpcom-enhanced-excerpt h2,\n\t\t.reblog-post .wpcom-enhanced-excerpt h3,\n\t\t.reblog-post .wpcom-enhanced-excerpt h4,\n\t\t.reblog-post .wpcom-enhanced-excerpt h5,\n\t\t.reblog-post .wpcom-enhanced-excerpt h6,\n\t\t.reblog-post .wpcom-enhanced-excerpt p { font-size: 100% !important; }\n\t\t\n\t\t.reblog-post .wpcom-enhanced-excerpt blockquote,\n\t\t.reblog-post .wpcom-enhanced-excerpt pre,\n\t\t.reblog-post .wpcom-enhanced-excerpt code,\n\t\t.reblog-post .wpcom-enhanced-excerpt q { font-size: 98% !important; }\n\t\t\n\n\t\t/* ]]&gt; */\n    </style>\n    <style type="text/css"> #page { background: none; } #branding { margin-top: 1em; padding: 52px 0 0; } #branding #logo { border-width: 0; margin: 0 0 0 .3em; } </style>\n    <meta content="Decisions, Decisions, Decisions" name="application-name"></meta>\n    <meta content="width=device-width;height=device-height" name="msapplication-window"></meta>\n    <meta content="A blog about better decisions, better urban planning and better economics" name="msapplication-tooltip"></meta>\n    <meta content="name=Subscribe;action-uri=http://andrewlainton.wordpress.com/feed/;icon-uri=http://1.gravatar.com/blavatar/d085c17f7fcd546461c196c156e8e020?s=16" name="msapplication-task"></meta>\n    <meta content="name=Sign up for a free blog;action-uri=http://wordpress.com/signup/;icon-uri=http://s2.wp.com/i/favicon.ico" name="msapplication-task"></meta>\n    <meta content="name=WordPress.com Support;action-uri=http://support.wordpress.com/;icon-uri=http://s2.wp.com/i/favicon.ico" name="msapplication-task"></meta>\n    <meta content="name=WordPress.com Forums;action-uri=http://forums.wordpress.com/;icon-uri=http://s2.wp.com/i/favicon.ico" name="msapplication-task"></meta>\n    <meta content="Pickles said rebranding was a waste of money \xe2\x80\x93 So what does DCLG\xc2\xa0do? | Decisions, Decisions, Decisions on WordPress.com" name="title"></meta>\n    <meta \n    content="Pickles via his Spad was always keen to highlight wastes of spending by the DCLG such as the 30 odd\xc3\x82\xc2\xa0thousand\xc3\x82\xc2\xa0pounds on designing its horrible turquoise logo. \xc3\x82\xc2\xa0So it will be with some\xc3\x82\xc2\xa0embarrassment\xc3\x82\xc2\xa0for him to learn that DCLG now has a new logo and branding via the cabinet office? \xc3\x82\xc2\xa0One wonders how much it\xc3\x82\xc2\xa0costs. \xc3\x82\xc2\xa0Actually it\xe2\x80\xa6" name="description">\n</meta>\n    <style media="screen" type="text/css">\n      .widget_author_grid ul { overflow: hidden; }\n.widget_author_grid ul li { background: none !important; clear: none !important; float: left !important; margin: 0 -5px -3px 0 !important; padding: 0 8px 6px 0 !important; border: none !important; list-style: none !important; }\n.widget_author_grid ul li a { background: none !important; margin: 0 !important; padding: 0 !important; border: 0 !important; }\n.widget_author_grid .avatar { vertical-align: middle; }\n    </style>\n    <style type="text/css">\n      #branding {\n\t\t\tbackground: url(http://andrewlainton.files.wordpress.com/2011/06/cropped-digital_abstract_01.jpg);\n\t\t\twidth: 940px;\n\t\t\theight: 148px; /* 200 - 52 for top padding */\n\t\t}\n\t\t#page {\n\t\t\tbackground: none;\n\t\t}\n\t\t\t#logo a,\n\t\t#site-description {\n\t\t\tbackground: none !important;\n\t\t\tborder: 0 !important;\n\t\t\tcolor: #ffffff !important;\n\t\t}\n    </style>\n    <style type="text/css" id="custom-background-css"> body.custom-background { background-color: #f8faeb; } </style>\n    <script src="http://partner.googleadservices.com/gampad/google_service.js" type="text/javascript"> </script>\n    <script type="text/javascript"> GS_googleAddAdSenseService(&quot;ca-pub-3443918307802676&quot;); GS_googleEnableAllServices(); </script>\n    <script type="text/javascript"> GA_googleAddSlot(&quot;ca-pub-3443918307802676&quot;, &quot;wpcom_below_post_adsafe&quot;); </script>\n    <script type="text/javascript"> GA_googleFetchAds(); </script>\n    <script type="text/javascript"> window.google_analytics_uacct = &quot;UA-52447-2&quot;; </script>\n    <script type="text/javascript">\n      var _gaq = _gaq || [];\n\t_gaq.push([\'_setAccount\', \'UA-52447-2\']);\n\t_gaq.push([\'_setDomainName\', \'wordpress.com\']);\n\t_gaq.push([\'_initData\']);\n\t_gaq.push([\'_trackPageview\']);\n\n\t(function() {\n\t\tvar ga = document.createElement(\'script\'); ga.type = \'text/javascript\'; ga.async = true;\n\t\tga.src = (\'https:\' == document.location.protocol ? \'https://ssl\' : \'http://www\') + \'.google-analytics.com/ga.js\';\n\t\t(document.getElementsByTagName(\'head\')[0] || document.getElementsByTagName(\'body\')[0]).appendChild(ga);\n\t})();\n    </script>\n  </head>\n  <body class="single single-post postid-13245 single-format-standard custom-background content-sidebar highlander-enabled highlander-light">\n    <div id="page">\n      <div id="container">\n        <ul class="skip">\n          <li>\n            <a href="#access" shape="rect">Skip to navigation</a>\n          </li>\n          <li>\n            <a href="#main" shape="rect">Skip to main content</a>\n          </li>\n          <li>\n            <a href="#sidebar" shape="rect">Skip to primary sidebar</a>\n          </li>\n          <li>\n            <a href="#sidebar2" shape="rect">Skip to secondary sidebar</a>\n          </li>\n          <li>\n            <a href="#footer" shape="rect">Skip to footer</a>\n          </li>\n        </ul>\n        <div id="header">\n          <div id="branding" class="clear-block">\n            <h3 id="logo">\n              <span>\n                <a rel="home" title="Decisions, Decisions, Decisions" href="http://andrewlainton.wordpress.com/" shape="rect">Decisions, Decisions, Decisions</a>\n              </span>\n            </h3>\n            <div id="site-description">A blog about better decisions, better urban planning and better economics</div>\n          </div>\n          <div role="navigation" id="access" class="clear-block">\n            <div class="menu">\n              <ul>\n                <li>\n                  <a title="Home" href="http://andrewlainton.wordpress.com/" shape="rect">Home</a>\n                </li>\n                <li class="page_item page-item-5">\n                  <a href="http://andrewlainton.wordpress.com/about/" shape="rect">About</a>\n                </li>\n                <li class="page_item page-item-6352">\n                  <a href="http://andrewlainton.wordpress.com/the-campaign-against-sprawl/" shape="rect">The Campaign Against\xc2\xa0Sprawl</a>\n                </li>\n                <li class="page_item page-item-6787">\n                  <a href="http://andrewlainton.wordpress.com/the-national-planning-policy-framework/" shape="rect">The National Planning Policy\xc2\xa0Framework</a>\n                </li>\n              </ul>\n            </div>\n            <div class="social-icons">\n              <a href="http://www.youtube.com/user/fedupguy2004?feature=mhee" class="youtube" shape="rect">You Tube</a>\n              <a href="http://www.flickr.com/photos/63229446@N05/" class="flickr" shape="rect">Flickr</a>\n              <a href="https://twitter.com/#!/AndrewLainton" class="twitter" shape="rect">Twitter</a>\n              <a href="http://www.facebook.com/profile.php?id=546705152" class="facebook" shape="rect">Facebook</a>\n              <a href="http://andrewlainton.wordpress.com/feed/" class="rss" shape="rect">RSS Feed</a>\n            </div>\n          </div>\n        </div>\n        <div id="main">\n          <div id="content-container">\n            <div id="content">\n              <div class="post-navigation nav-above">\n                <div class="nav-previous">\n                  <a rel="prev" href="http://andrewlainton.wordpress.com/2012/05/09/a-readers-guide-to-unwins-town-planning-in-practice-part-5-boundaries-and-approaches/" shape="rect">\xe2\x86\x90 A Readers Guide to Unwin\xc3\xa2\xe2\x82\xac\xe2\x84\xa2s Town Planning in Practice \xc3\xa2\xe2\x82\xac\xe2\x80\x9c Part 5 \xc3\xa2\xe2\x82\xac\xe2\x80\x9c Boundaries and\xc2\xa0Approaches</a>\n                </div>\n                <div class="nav-next">\n                  <a rel="next" href="http://andrewlainton.wordpress.com/2012/05/10/does-inflation-erode-debt-not-necessarily/" shape="rect">Does Inflation erode Debt? \xe2\x80\x93 Not\xc2\xa0necessarily \xe2\x86\x92</a>\n                </div>\n              </div>\n              <div class="post-13245 post type-post status-publish format-standard hentry category-design post-wrapper clear-block">\n                <h1 class="single-title">Pickles said rebranding was a waste of money \xe2\x80\x93 So what does DCLG\xc2\xa0do?</h1>\n                <div class="post-date">\n                  <p class="day">\n                    <a title="Permanent Link to Pickles said rebranding was a waste of money \xe2\x80\x93 So what does DCLG\xc2\xa0do?" rel="bookmark" href="http://andrewlainton.wordpress.com/2012/05/09/pickles-said-rebranding-was-a-waste-of-money-so-what-does-dclg-do/" shape="rect">May 9</a>\n                  </p>\n                </div>\n                <div class="post-info clear-block">\n                  <p class="author alignleft">\n                    Posted by\n                    <a rel="author" title="Posts by andrew lainton" href="http://andrewlainton.wordpress.com/author/andrewlainton/" shape="rect">andrew lainton</a>\n                  </p>\n                </div>\n                <div class="entry clear-block">\n                  <p>\n                    Pickles via his Spad was always keen to highlight wastes of spending by the DCLG such as the 30 odd\xc3\x82\xc2\xa0thousand\xc3\x82\xc2\xa0pounds on designing its horrible turquoise logo. \xc3\x82\xc2\xa0So it will be with some\xc3\x82\xc2\xa0embarrassment\xc3\x82\xc2\xa0for him to learn that\n                    <a target="_blank" href="http://www.guardian.co.uk/public-leaders-network/2012/may/09/whitehall-departments-new-digital-logos?CMP=twt_gu" shape="rect">DCLG now has a new logo</a>\n                    and branding via the cabinet office? \xc3\x82\xc2\xa0One wonders how much it\xc3\x82\xc2\xa0costs. \xc3\x82\xc2\xa0Actually it is rather good, and certainly Adobe Creative Suite inspired. \xc3\x82\xc2\xa0Out with Pantone 3282, and in with Pantone 287, a colour\xc3\x82\xc2\xa0very similar to\n                    <a target="_blank" href="http://en.wikipedia.org/wiki/Tyrian_purple" shape="rect">Imperial Purple</a>\n                    , as it was the colour of the incredibly expensive sashes word by roman\xc3\x82\xc2\xa0emperors reproduced\xc3\x82\xc2\xa0at great expense from the\xc3\x82\xc2\xa0gastropod\xc3\x82\xc2\xa0\n                    <em>\n                      <a href="http://en.wikipedia.org/wiki/Bolinus_brandaris" title="Bolinus brandaris" shape="rect">Bolinus brandaris</a>\n                    </em>\n                    \xc3\x82\xc2\xa0the process hto make it having been recently\n                    <a target="_blank" href="http://www.imperial-purple.com/" shape="rect">rediscovere</a>\n                    d\xc3\x82\xc2\xa0as it was lost after the second crusades sack of Byzantium.\n                  </p>\n                  <blockquote>\n                    <p>\xc3\x82\xc2\xa0\xe2\x80\x9dtwelve thousand snails of\xc3\x82\xc2\xa0yield no more than 1.4 g of pure dye, enough to colour only the trim of a single garment.\xe2\x80\x9d</p>\n                  </blockquote>\n                  <p>\n                    Cleopatra was so\xc3\x82\xc2\xa0ostentatious\xc3\x82\xc2\xa0she even dyed her sails imperial purple, at a probable cost of a whole fleet. \xc3\x82\xc2\xa0 Rather\xc3\x82\xc2\xa0disappointingly\xc3\x82\xc2\xa0it has been discovered\n                    <a target="_blank" href="http://news.bbc.co.uk/1/hi/sci/tech/3103354.stm" shape="rect"> you can\xc3\x82\xc2\xa0obtain\xc3\x82\xc2\xa0the same colour through cockles bought at\xc3\x82\xc2\xa0Tescos</a>\n                    .\n                  </p>\n                  <p>\n                    <a href="https://andrewlainton.files.wordpress.com/2012/05/gov.jpg" shape="rect">\n                      <img height="406" width="604" alt="" src="https://andrewlainton.files.wordpress.com/2012/05/gov.jpg?w=604&amp;h=406" title="gov" class="size-full wp-image-13246 alignnone"></img>\n                    </a>\n                  </p>\n                  <p>So now uncle Eric can done his departmentally branded costume ahead of this weekends reshuffle (sadly\xc3\x82\xc2\xa0the budgets on the carry on films did not run to getting the colour quite right).</p>\n                  <p>\n                    <img height="276" width="460" alt="" src="http://andrewlainton.files.wordpress.com/2012/05/kenneth-williams-in-carry-001.jpg?w=460&amp;h=276" title="w" class="alignnone"></img>\n                  </p>\n                  <div style="position: relative; width:300px; text-align: center; padding: 0; background: #; margin: 10px auto; overflow: hidden;" class="wpadvert">\n                    <a rel="nofollow" href="http://en.wordpress.com/about-these-ads/" style="position: absolute; text-align: left; display: block; font: 9px/1 sans-serif; text-decoration: underline;" shape="rect">About these ads</a>\n                    <script type="text/javascript">\n                      GA_googleAddAttr(&quot;AdOpt&quot;, &quot;1&quot;);\nGA_googleAddAttr(&quot;Origin&quot;, &quot;other&quot;);\nGA_googleAddAttr(&quot;theme_bg&quot;, &quot;ffffff&quot;); \nGA_googleAddAttr(&quot;theme_border&quot;, &quot;bcb7b4&quot;); \nGA_googleAddAttr(&quot;theme_text&quot;, &quot;4e4e4e&quot;); \nGA_googleAddAttr(&quot;theme_link&quot;, &quot;0071bb&quot;); \nGA_googleAddAttr(&quot;theme_url&quot;, &quot;b9de20&quot;); \nGA_googleAddAttr(&quot;LangId&quot;, &quot;1&quot;);\nGA_googleAddAttr(&quot;Domain&quot;, &quot;andrewlainton.wordpress.com&quot;);\nGA_googleAddAttr(&quot;AdSafe&quot;, &quot;1&quot;);\nGA_googleAddAttr(&quot;Autotag&quot;, &quot;food&quot;);\nGA_googleAddAttr(&quot;Tag&quot;, &quot;design&quot;);\n\nGA_googleFillSlot(&quot;wpcom_below_post_adsafe&quot;);\n                    </script>\n                  </div>\n                  <style type="text/css"> div.wpadvert&gt;div { margin-top: 1em; } </style>\n                  <script type="text/javascript"> jQuery( window ).load( function() { if ( jQuery(&quot;.wpadvert script[src*=\'shareth.ru\']&quot;).length &gt; 0 ) { jQuery( \'.wpadvert\' ).css( \'width\', \'400px\' ); } } ); </script>\n                  <div id="jp-post-flair" class="sharedaddy sd-like-enabled sd-sharing-enabled">\n                    <div class="sharedaddy sd-sharing-enabled">\n                      <div class="robots-nocontent sd-block sd-social sd-social-icon-text sd-sharing">\n                        <h3 class="sd-title">Share</h3>\n                        <div class="sd-content">\n                          <ul>\n                            <li class="share-print">\n                              <a title="Click to print" target="_blank" href="http://andrewlainton.wordpress.com/2012/05/09/pickles-said-rebranding-was-a-waste-of-money-so-what-does-dclg-do/#print" rel="nofollow" class="share-print sd-button share-icon" shape="rect">\n                                <span>Print</span>\n                              </a>\n                            </li>\n                            <li class="share-twitter">\n                              <a title="Click to share on Twitter" target="_blank" href="http://andrewlainton.wordpress.com/2012/05/09/pickles-said-rebranding-was-a-waste-of-money-so-what-does-dclg-do/?share=twitter" rel="nofollow" id="sharing-twitter-13245" class="share-twitter sd-button share-icon" shape="rect">\n                                <span>Twitter</span>\n                              </a>\n                            </li>\n                            <li class="share-facebook">\n                              <a title="Share on Facebook" target="_blank" href="http://andrewlainton.wordpress.com/2012/05/09/pickles-said-rebranding-was-a-waste-of-money-so-what-does-dclg-do/?share=facebook" rel="nofollow" id="sharing-facebook-13245" class="share-facebook sd-button share-icon" shape="rect">\n                                <span>Facebook</span>\n                              </a>\n                            </li>\n                            <li>\n                              <a href="#" class="sharing-anchor sd-button share-more" shape="rect">\n                                <span>More</span>\n                              </a>\n                            </li>\n                            <li class="share-end"></li>\n                          </ul>\n                          <div class="sharing-hidden">\n                            <div style="display: none;" class="inner">\n                              <ul>\n                                <li class="share-email">\n                                  <a title="Click to email this to a friend" target="_blank" href="http://andrewlainton.wordpress.com/2012/05/09/pickles-said-rebranding-was-a-waste-of-money-so-what-does-dclg-do/?share=email" rel="nofollow" class="share-email sd-button share-icon" shape="rect">\n                                    <span>Email</span>\n                                  </a>\n                                </li>\n                                <li class="share-linkedin">\n                                  <a title="Click to share on LinkedIn" target="_blank" href="http://andrewlainton.wordpress.com/2012/05/09/pickles-said-rebranding-was-a-waste-of-money-so-what-does-dclg-do/?share=linkedin" rel="nofollow" id="sharing-linkedin-13245" class="share-linkedin sd-button share-icon" shape="rect">\n                                    <span>LinkedIn</span>\n                                  </a>\n                                </li>\n                                <li class="share-end"></li>\n                                <li class="share-reddit">\n                                  <a title="Click to share on Reddit" target="_blank" href="http://andrewlainton.wordpress.com/2012/05/09/pickles-said-rebranding-was-a-waste-of-money-so-what-does-dclg-do/?share=reddit" rel="nofollow" class="share-reddit sd-button share-icon" shape="rect">\n                                    <span>Reddit</span>\n                                  </a>\n                                </li>\n                                <li class="share-google-plus-1">\n                                  <div class="googleplus1_button">\n                                    <div data-href="http://andrewlainton.wordpress.com/2012/05/09/pickles-said-rebranding-was-a-waste-of-money-so-what-does-dclg-do/" data-callback="sharing_plusone" data-size="medium" class="g-plusone"></div>\n                                  </div>\n                                </li>\n                                <li class="share-end"></li>\n                                <li class="share-stumbleupon">\n                                  <a title="Click to share on StumbleUpon" target="_blank" href="http://andrewlainton.wordpress.com/2012/05/09/pickles-said-rebranding-was-a-waste-of-money-so-what-does-dclg-do/?share=stumbleupon" rel="nofollow" class="share-stumbleupon sd-button share-icon" shape="rect">\n                                    <span>StumbleUpon</span>\n                                  </a>\n                                </li>\n                                <li class="share-digg">\n                                  <a title="Click to Digg this post" target="_blank" href="http://andrewlainton.wordpress.com/2012/05/09/pickles-said-rebranding-was-a-waste-of-money-so-what-does-dclg-do/?share=digg" rel="nofollow" class="share-digg sd-button share-icon" shape="rect">\n                                    <span>Digg</span>\n                                  </a>\n                                </li>\n                                <li class="share-end"></li>\n                                <li class="share-end"></li>\n                              </ul>\n                            </div>\n                          </div>\n                          <div class="sharing-clear"></div>\n                        </div>\n                      </div>\n                    </div>\n                    <div class="wpl-likebox sd-block sd-like">\n                      <h3 class="sd-title">Like this:</h3>\n                      <div class="sd-content">\n                        <div id="like-13245" class="wpl-button">\n                          <a rel="nofollow" title="I like this." href="http://andrewlainton.wordpress.com/2012/05/09/pickles-said-rebranding-was-a-waste-of-money-so-what-does-dclg-do/?like=1&amp;_wpnonce=c9a121d596" class="like needs-login sd-button" shape="rect">\n                            <span>Like</span>\n                          </a>\n                        </div>\n                        <div class="wpl-count sd-like-count">\n                          <span class="wpl-count-number">2</span>\n                          bloggers like this.\n                        </div>\n                        <ul class="wpl-avatars sd-like-gravatars">\n                          <li>\n                            <a rel="nofollow" title="Sadie Smith" href="http://gravatar.com/sadieraesmith" class="wpl-liker" shape="rect">\n                              <img height="30" width="30" alt="Sadie Smith" src="http://0.gravatar.com/avatar/930b09b5a56c28298008994d5b41d6a5?s=30&amp;d=identicon&amp;r=G" class="avatar avatar-30"></img>\n                            </a>\n                          </li>\n                          <li>\n                            <a rel="nofollow" title="hovercraftdoggy" href="http://gravatar.com/hovercraftdoggy" class="wpl-liker" shape="rect">\n                              <img height="30" width="30" alt="hovercraftdoggy" src="http://0.gravatar.com/avatar/6be4bd084aa8a94ddde0881693a25d66?s=30&amp;d=identicon&amp;r=G" class="avatar avatar-30"></img>\n                            </a>\n                          </li>\n                        </ul>\n                      </div>\n                    </div>\n                  </div>\n                </div>\n                <div id="author-info-box">\n                  <div id="author-avatar">\n                    <img width="60" height="60" src="http://2.gravatar.com/avatar/5144f9cf55bf559e5b12cf7c687c2d57?s=60&amp;d=identicon&amp;r=G" alt="" class="avatar avatar-60"></img>\n                  </div>\n                  <div id="author-description">\n                    <h2 id="author-info-title">About andrew lainton</h2>\n                    Uk Consultant\n                  </div>\n                  <div id="author-link">\n                    <a href="http://andrewlainton.wordpress.com/author/andrewlainton/" shape="rect">\n                      View all posts by andrew lainton\n                      <span class="meta-nav">\xc2\xbb</span>\n                    </a>\n                  </div>\n                </div>\n              </div>\n              <div class="post-utility">\n                <p class="details">\n                  Posted on May 9, 2012, in\n                  <a rel="category tag" title="View all posts in Design" href="http://andrewlainton.wordpress.com/category/design/" shape="rect">Design</a>\n                  . Bookmark the\n                  <a rel="bookmark" title="Permalink to Pickles said rebranding was a waste of money \xe2\x80\x93 So what does DCLG\xc2\xa0do?" href="http://andrewlainton.wordpress.com/2012/05/09/pickles-said-rebranding-was-a-waste-of-money-so-what-does-dclg-do/" shape="rect">permalink</a>\n                  .\n                  <a title="Comment on Pickles said rebranding was a waste of money \xe2\x80\x93 So what does DCLG\xc2\xa0do?" href="http://andrewlainton.wordpress.com/2012/05/09/pickles-said-rebranding-was-a-waste-of-money-so-what-does-dclg-do/#respond" shape="rect">Leave a Comment</a>\n                  .\n                </p>\n              </div>\n              <div class="post-navigation nav-below">\n                <div class="nav-previous">\n                  <a rel="prev" href="http://andrewlainton.wordpress.com/2012/05/09/a-readers-guide-to-unwins-town-planning-in-practice-part-5-boundaries-and-approaches/" shape="rect">\xe2\x86\x90 A Readers Guide to Unwin\xc3\xa2\xe2\x82\xac\xe2\x84\xa2s Town Planning in Practice \xc3\xa2\xe2\x82\xac\xe2\x80\x9c Part 5 \xc3\xa2\xe2\x82\xac\xe2\x80\x9c Boundaries and\xc2\xa0Approaches</a>\n                </div>\n                <div class="nav-next">\n                  <a rel="next" href="http://andrewlainton.wordpress.com/2012/05/10/does-inflation-erode-debt-not-necessarily/" shape="rect">Does Inflation erode Debt? \xe2\x80\x93 Not\xc2\xa0necessarily \xe2\x86\x92</a>\n                </div>\n              </div>\n              <div id="post-extra-content" class="clear-block">\n                <div id="secondary-tabs">\n                  <ul class="comment-tabs">\n                    <li class="leave-a-comment">\n                      <h3 class="comment-tab-title">\n                        <a title="Leave a reply" href="#respond" shape="rect"> Leave a Comment</a>\n                      </h3>\n                    </li>\n                    <li>\n                      <h3 class="comment-tab-title">\n                        <a href="#comments" shape="rect">Comments (0)</a>\n                      </h3>\n                    </li>\n                  </ul>\n                </div>\n                <div id="respond">\n                  <h3 id="reply-title">\n                    Leave a Reply\n                    <small>\n                      <a style="display:none;" href="/2012/05/09/pickles-said-rebranding-was-a-waste-of-money-so-what-does-dclg-do/#respond" rel="nofollow" id="cancel-comment-reply-link" shape="rect">Cancel reply</a>\n                    </small>\n                  </h3>\n                  <form action="http://andrewlainton.wordpress.com/wp-comments-post.php" id="commentform" method="post" enctype="application/x-www-form-urlencoded">\n                    <input value="guest" name="hc_post_as" id="hc_post_as" type="hidden"></input>\n                    <div class="comment-form-field comment-textarea">\n                      <label for="comment">Enter your comment here...</label>\n                      <div id="comment-form-comment">\n                        <textarea name="comment" id="comment"></textarea>\n                      </div>\n                    </div>\n                    <div id="comment-form-identity">\n                      <div id="comment-form-nascar">\n                        <p>Fill in your details below or click an icon to log in:</p>\n                        <ul>\n                          <li style="display:none;" class="selected">\n                            <a title="Guest" href="#comment-form-guest" id="postas-guest" shape="rect">\n                              <span></span>\n                            </a>\n                          </li>\n                          <li>\n                            <a title="WordPress.com" href="#comment-form-load-service:WordPress.com" id="postas-wordpress" shape="rect">\n                              <span></span>\n                            </a>\n                          </li>\n                          <li>\n                            <a title="Twitter" href="#comment-form-load-service:Twitter" id="postas-twitter" shape="rect">\n                              <span></span>\n                            </a>\n                          </li>\n                          <li>\n                            <a title="Facebook" href="#comment-form-load-service:Facebook" id="postas-facebook" shape="rect">\n                              <span></span>\n                            </a>\n                          </li>\n                        </ul>\n                      </div>\n                      <div id="comment-form-guest" class="comment-form-service selected">\n                        <div class="comment-form-padder">\n                          <div class="comment-form-avatar">\n                            <a target="_blank" href="https://gravatar.com/site/signup/" shape="rect">\n                              <img width="25" alt="Gravatar" src="http://1.gravatar.com/avatar/ad516503a11cd5ca435acc9bb6523536?s=25&amp;d=identicon&amp;forcedefault=y&amp;r=G" class="no-grav"></img>\n                            </a>\n                          </div>\n                          <div class="comment-form-fields">\n                            <div class="comment-form-field comment-form-email">\n                              <label for="email">\n                                Email\n                                <span class="required">(required)</span>\n                                <span class="nopublish">(Address never made public)</span>\n                              </label>\n                              <div class="comment-form-input">\n                                <input value="" name="email" id="email" type="email"></input>\n                              </div>\n                            </div>\n                            <div class="comment-form-field comment-form-author">\n                              <label for="author">\n                                Name\n                                <span class="required">(required)</span>\n                              </label>\n                              <div class="comment-form-input">\n                                <input value="" name="author" id="author" type="text"></input>\n                              </div>\n                            </div>\n                            <div class="comment-form-field comment-form-url">\n                              <label for="url">Website</label>\n                              <div class="comment-form-input">\n                                <input value="" name="url" id="url" type="text"></input>\n                              </div>\n                            </div>\n                          </div>\n                        </div>\n                      </div>\n                      <div id="comment-form-wordpress" class="comment-form-service">\n                        <div class="comment-form-padder">\n                          <div class="comment-form-avatar">\n                            <img width="25" alt="WordPress.com Logo" src="http://s2.wp.com/wp-content/mu-plugins/highlander-comments/images/wplogo.png?m=1289230950g" class="no-grav"></img>\n                          </div>\n                          <div class="comment-form-fields">\n                            <input value="" name="wp_avatar" id="wordpress-avatar" class="comment-meta-wordpress" type="hidden"></input>\n                            <input value="" name="wp_user_id" id="wordpress-user_id" class="comment-meta-wordpress" type="hidden"></input>\n                            <input value="" name="wp_access_token" id="wordpress-access_token" class="comment-meta-wordpress" type="hidden"></input>\n                            <p class="comment-form-posting-as pa-wordpress">\n                              <strong></strong>\n                              You are commenting using your WordPress.com account.\n                              <span class="comment-form-log-out">\n                                (\xc2\xa0\n                                <a href="javascript:HighlanderComments.doExternalLogout( \'wordpress\' );" shape="rect">Log\xc2\xa0Out</a>\n                                \xc2\xa0/\xc2\xa0\n                                <a onclick="javascript:HighlanderComments.switchAccount();return false;" href="#" shape="rect">Change</a>\n                                \xc2\xa0)\n                              </span>\n                            </p>\n                          </div>\n                        </div>\n                      </div>\n                      <div id="comment-form-twitter" class="comment-form-service">\n                        <div class="comment-form-padder">\n                          <div class="comment-form-avatar">\n                            <img width="25" alt="Twitter picture" src="http://1.gravatar.com/avatar/ad516503a11cd5ca435acc9bb6523536?s=25&amp;d=identicon&amp;forcedefault=y&amp;r=G" class="no-grav"></img>\n                          </div>\n                          <div class="comment-form-fields">\n                            <input value="" name="twitter_avatar" id="twitter-avatar" class="comment-meta-twitter" type="hidden"></input>\n                            <input value="" name="twitter_user_id" id="twitter-user_id" class="comment-meta-twitter" type="hidden"></input>\n                            <input value="" name="twitter_access_token" id="twitter-access_token" class="comment-meta-twitter" type="hidden"></input>\n                            <p class="comment-form-posting-as pa-twitter">\n                              <strong></strong>\n                              You are commenting using your Twitter account.\n                              <span class="comment-form-log-out">\n                                (\xc2\xa0\n                                <a href="javascript:HighlanderComments.doExternalLogout( \'twitter\' );" shape="rect">Log\xc2\xa0Out</a>\n                                \xc2\xa0/\xc2\xa0\n                                <a onclick="javascript:HighlanderComments.switchAccount();return false;" href="#" shape="rect">Change</a>\n                                \xc2\xa0)\n                              </span>\n                            </p>\n                          </div>\n                        </div>\n                      </div>\n                      <div id="comment-form-facebook" class="comment-form-service">\n                        <div class="comment-form-padder">\n                          <div class="comment-form-avatar">\n                            <img width="25" alt="Facebook photo" src="http://1.gravatar.com/avatar/ad516503a11cd5ca435acc9bb6523536?s=25&amp;d=identicon&amp;forcedefault=y&amp;r=G" class="no-grav"></img>\n                          </div>\n                          <div class="comment-form-fields">\n                            <input value="" name="fb_avatar" id="facebook-avatar" class="comment-meta-facebook" type="hidden"></input>\n                            <input value="" name="fb_user_id" id="facebook-user_id" class="comment-meta-facebook" type="hidden"></input>\n                            <input value="" name="fb_access_token" id="facebook-access_token" class="comment-meta-facebook" type="hidden"></input>\n                            <p class="comment-form-posting-as pa-facebook">\n                              <strong></strong>\n                              You are commenting using your Facebook account.\n                              <span class="comment-form-log-out">\n                                (\xc2\xa0\n                                <a href="javascript:HighlanderComments.doExternalLogout( \'facebook\' );" shape="rect">Log\xc2\xa0Out</a>\n                                \xc2\xa0/\xc2\xa0\n                                <a onclick="javascript:HighlanderComments.switchAccount();return false;" href="#" shape="rect">Change</a>\n                                \xc2\xa0)\n                              </span>\n                            </p>\n                          </div>\n                        </div>\n                      </div>\n                      <div id="comment-form-load-service" class="comment-form-service">\n                        <div class="comment-form-posting-as-cancel">\n                          <a href="javascript:HighlanderComments.cancelExternalWindow();" shape="rect">Cancel</a>\n                        </div>\n                        <p>Connecting to %s</p>\n                      </div>\n                    </div>\n                    <script type="text/javascript">\n                      jQuery(document).ready(function(){\n\tvar input = document.createElement( \'input\' ),\n\t    comment = jQuery( \'#comment\' );\n\n\tif ( \'placeholder\' in input ) {\n\t\tcomment.attr( \'placeholder\', jQuery( \'.comment-textarea label\' ).remove().text() );\n\t}\n\n\t// Expando Mode: start small, then auto-resize on first click + text length\n\tjQuery( \'#comment-form-identity\' ).hide();\n\tjQuery( \'#comment-form-subscribe\' ).hide();\n\tjQuery( \'#commentform .form-submit\' ).hide();\n\n\tcomment.css( { \'height\':\'10px\' } ).one( \'focus\', function() {\n\t\tvar timer = setInterval( HighlanderComments.resizeCallback, 10 )\n\t\tjQuery( this ).animate( { \'height\': HighlanderComments.initialHeight } ).delay( 100 ).queue( function(n) { clearInterval( timer ); HighlanderComments.resizeCallback(); n(); } );\n\t\tjQuery( \'#comment-form-identity\' ).slideDown();\n\t\tjQuery( \'#comment-form-subscribe\' ).slideDown();\n\t\tjQuery( \'#commentform .form-submit\' ).slideDown();\n\t});\n});\n                    </script>\n                    <div id="comment-form-subscribe">\n                      <p class="comment-subscription-form">\n                        <input style="width: auto;" value="subscribe" name="subscribe" id="subscribe" type="checkbox" tabindex="6"></input>\n                        <label id="subscribe-label" class="subscribe-label" for="subscribe">Notify me of follow-up comments via email.</label>\n                      </p>\n                      <p class="post-subscription-form">\n                        <input style="width: auto;" value="subscribe" name="subscribe_blog" id="subscribe_blog" type="checkbox" tabindex="7"></input>\n                        <label id="subscribe-blog-label" class="subscribe-label" for="subscribe_blog">Notify me of new posts via email.</label>\n                      </p>\n                    </div>\n                    <p class="form-submit">\n                      <input value="Post Comment" name="submit" id="comment-submit" type="submit"></input>\n                      <input value="13245" name="comment_post_ID" id="comment_post_ID" type="hidden"></input>\n                      <input value="0" name="comment_parent" id="comment_parent" type="hidden"></input>\n                    </p>\n                    <input value="1349305138" name="genseq" type="hidden"></input>\n                    <p style="display: none;">\n                      <input value="0c5a78fedb" name="akismet_comment_nonce" id="akismet_comment_nonce" type="hidden"></input>\n                    </p>\n                    <script src="http://s2.wp.com/wp-content/mu-plugins/akismet-2.5/form.js?m=1308783962g" type="text/javascript"></script>\n                    <p style="display: none;">\n                      <input value="44" name="ak_js" id="ak_js" type="hidden"></input>\n                    </p>\n                  </form>\n                </div>\n                <div style="clear: both"></div>\n              </div>\n            </div>\n          </div>\n          <div role="complementary" id="sidebar" class="widget-area">\n            <ul class="xoxo">\n              <li id="search-3" class="widget widget_search">\n                <form action="http://andrewlainton.wordpress.com/" id="searchform" method="get" enctype="application/x-www-form-urlencoded">\n                  <div id="searchfield">\n                    <label class="screen-reader-text" for="s">Search for:</label>\n                    <input name="s" id="s" class="searchtext" type="text"></input>\n                    <input value="Go" class="searchbutton" type="submit"></input>\n                  </div>\n                </form>\n              </li>\n              <li id="nav_menu-3" class="widget widget_nav_menu">\n                <h3 class="widget-title">\n                  <span>Series</span>\n                </h3>\n                <div class="menu-series-container">\n                  <ul id="menu-series" class="menu">\n                    <li id="menu-item-1461" class="menu-item menu-item-type-taxonomy menu-item-object-category menu-item-1461">\n                      <a href="http://andrewlainton.wordpress.com/category/urban-planning/national-planning-policy-framework/" shape="rect">National Planning Policy Framework</a>\n                    </li>\n                    <li id="menu-item-1462" class="menu-item menu-item-type-taxonomy menu-item-object-category menu-item-1462">\n                      <a href="http://andrewlainton.wordpress.com/category/political-economy/capitalisms-last-frontier/" shape="rect">Capitalisms Last Frontier</a>\n                    </li>\n                    <li id="menu-item-1464" class="menu-item menu-item-type-taxonomy menu-item-object-category menu-item-1464">\n                      <a href="http://andrewlainton.wordpress.com/category/decision-theory-for-planners/" shape="rect">Decision Theory for Planners</a>\n                    </li>\n                  </ul>\n                </div>\n              </li>\n              <li id="categories-4" class="widget widget_categories">\n                <h3 class="widget-title">\n                  <span>Categories</span>\n                </h3>\n                <select name="cat" id="cat" class="postform">\n                  <option value="-1">Select Category</option>\n                  <option value="34920159" class="level-0">Agriculture\xc2\xa0\xc2\xa0(6)</option>\n                  <option value="43783" class="level-0">anarchism\xc2\xa0\xc2\xa0(14)</option>\n                  <option value="2290" class="level-0">architecture\xc2\xa0\xc2\xa0(120)</option>\n                  <option value="179" class="level-0">Business\xc2\xa0\xc2\xa0(3)</option>\n                  <option value="59047179" class="level-0">Decision Theory for Planners\xc2\xa0\xc2\xa0(22)</option>\n                  <option value="34971982" class="level-0">Demography\xc2\xa0\xc2\xa0(4)</option>\n                  <option value="148" class="level-0">Design\xc2\xa0\xc2\xa0(20)</option>\n                  <option value="1212" class="level-0">Energy\xc2\xa0\xc2\xa0(43)</option>\n                  <option value="37903" class="level-0">GIS\xc2\xa0\xc2\xa0(14)</option>\n                  <option value="53202" class="level-0">Heritage\xc2\xa0\xc2\xa0(38)</option>\n                  <option value="299" class="level-0">Housing\xc2\xa0\xc2\xa0(155)</option>\n                  <option value="197739" class="level-1">\xc2\xa0\xc2\xa0\xc2\xa0Affordable Housing\xc2\xa0\xc2\xa0(22)</option>\n                  <option value="35" class="level-0">Humour\xc2\xa0\xc2\xa0(72)</option>\n                  <option value="17489" class="level-0">International Affairs\xc2\xa0\xc2\xa0(116)</option>\n                  <option value="20846" class="level-0">political economy\xc2\xa0\xc2\xa0(253)</option>\n                  <option value="58841619" class="level-1">\xc2\xa0\xc2\xa0\xc2\xa0Capitalisms Last Frontier\xc2\xa0\xc2\xa0(25)</option>\n                  <option value="118751" class="level-1">\xc2\xa0\xc2\xa0\xc2\xa0Housing Economics\xc2\xa0\xc2\xa0(19)</option>\n                  <option value="398" class="level-0">politics\xc2\xa0\xc2\xa0(119)</option>\n                  <option value="19956" class="level-0">Property\xc2\xa0\xc2\xa0(22)</option>\n                  <option value="112657" class="level-0">public services\xc2\xa0\xc2\xa0(52)</option>\n                  <option value="61583" class="level-0">Sustainable Development\xc2\xa0\xc2\xa0(94)</option>\n                  <option value="6" class="level-0">Technology\xc2\xa0\xc2\xa0(15)</option>\n                  <option value="1175170" class="level-0">Transport Planning\xc2\xa0\xc2\xa0(67)</option>\n                  <option value="1" class="level-0">Uncategorized\xc2\xa0\xc2\xa0(5)</option>\n                  <option value="34945190" class="level-0">Urban Design\xc2\xa0\xc2\xa0(15)</option>\n                  <option value="8525" class="level-0">urban planning\xc2\xa0\xc2\xa0(2285)</option>\n                  <option value="57722838" class="level-1">\xc2\xa0\xc2\xa0\xc2\xa0National Planning Policy Framework\xc2\xa0\xc2\xa0(1433)</option>\n                  <option value="58629171" class="level-1">\xc2\xa0\xc2\xa0\xc2\xa0planning applications of the rich and famous\xc2\xa0\xc2\xa0(20)</option>\n                  <option value="85162094" class="level-1">\xc2\xa0\xc2\xa0\xc2\xa0Planoraks\xc2\xa0\xc2\xa0(2)</option>\n                  <option value="90927565" class="level-1">\xc2\xa0\xc2\xa0\xc2\xa0Smart Growth\xc2\xa0\xc2\xa0(2)</option>\n                </select>\n                <script type="text/javascript">\n                  /* &lt;![CDATA[ */\n\tvar dropdown = document.getElementById(&quot;cat&quot;);\n\tfunction onCatChange() {\n\t\tif ( dropdown.options[dropdown.selectedIndex].value &gt; 0 ) {\n\t\t\tlocation.href = &quot;http://andrewlainton.wordpress.com/?cat=&quot;+dropdown.options[dropdown.selectedIndex].value;\n\t\t}\n\t}\n\tdropdown.onchange = onCatChange;\n/* ]]&gt; */\n                </script>\n              </li>\n              <li id="recent-posts-2" class="widget widget_recent_entries">\n                <h3 class="widget-title">\n                  <span>Recent Posts</span>\n                </h3>\n                <ul>\n                  <li>\n                    <a title="CALA Saga ends \xe2\x80\x93 Barton Farm finally Granted Consent\xc2\xa0#NPPF" href="https://andrewlainton.wordpress.com/2012/10/03/cala-saga-ends-barton-farm-finally-granted-consent-nppf/" shape="rect">CALA Saga ends \xe2\x80\x93 Barton Farm finally Granted Consent\xc2\xa0#NPPF</a>\n                  </li>\n                  <li>\n                    <a title="West Coast Mainline \xe2\x80\x93 Does the DfT not know how to apply a Discount\xc2\xa0Rate?" href="https://andrewlainton.wordpress.com/2012/10/03/west-coast-mainline-does-the-dft-not-know-how-to-apply-a-discount-rate/" shape="rect">\n                      West Coast Mainline \xe2\x80\x93 Does the DfT not know how to apply a Discount\xc2\xa0Rate?\n                    </a>\n                  </li>\n                  <li>\n                    <a title="Insurance as Conditional Debt Creation \xe2\x80\x93\xc2\xa0Modelled" href="https://andrewlainton.wordpress.com/2012/10/02/insurance-as-conditional-debt-creation-modelled-2/" shape="rect">Insurance as Conditional Debt Creation \xe2\x80\x93\xc2\xa0Modelled</a>\n                  </li>\n                  <li>\n                    <a title="Lib Dems back Motion Opposing Monster Extensions\xc2\xa0Plan" href="https://andrewlainton.wordpress.com/2012/09/29/lib-dems-back-motion-opposing-monster-extensions-plan/" shape="rect">Lib Dems back Motion Opposing Monster Extensions\xc2\xa0Plan</a>\n                  </li>\n                  <li>\n                    <a title="Lib Dems may block Monster Extensions \xe2\x80\x93\xc2\xa0Telegraph" href="https://andrewlainton.wordpress.com/2012/09/26/lib-dems-may-block-monster-extensions-telegraph/" shape="rect">Lib Dems may block Monster Extensions \xe2\x80\x93\xc2\xa0Telegraph</a>\n                  </li>\n                  <li>\n                    <a title="The Lib Dem Conference Emergency Motion opposing Monster\xc2\xa0Extensions" href="https://andrewlainton.wordpress.com/2012/09/25/the-lib-dem-conference-emergency-motion-opposing-monster-extension/" shape="rect">The Lib Dem Conference Emergency Motion opposing Monster\xc2\xa0Extensions</a>\n                  </li>\n                  <li>\n                    <a title="New Coalition Planning Minister Opposes Monster\xc2\xa0Extensions" href="https://andrewlainton.wordpress.com/2012/09/25/new-colaition-planning-minister-opposes-monster-extensions/" shape="rect">New Coalition Planning Minister Opposes Monster\xc2\xa0Extensions</a>\n                  </li>\n                  <li>\n                    <a title="The Real Cost of Waiting and Debt \xc3\xa2\xe2\x82\xac\xe2\x80\x9c Interest in Cost of Production Theories of\xc2\xa0Value" href="https://andrewlainton.wordpress.com/2012/09/25/the-real-cost-of-waiting-and-debt-interest-in-cost-of-production-theories-of-value/" shape="rect">\n                      The Real Cost of Waiting and Debt \xc3\xa2\xe2\x82\xac\xe2\x80\x9c Interest in Cost of Production Theories of\xc2\xa0Value\n                    </a>\n                  </li>\n                  <li>\n                    <a title="Daily Mail -\xe2\x80\x99ministers have little understanding of the lives of families residing in suburban streets\xc2\xa0\xe2\x80\x98" href="https://andrewlainton.wordpress.com/2012/09/24/daily-mail-ministers-have-little-understanding-of-the-lives-of-families-residing-in-suburban-streets/" shape="rect">\n                      Daily Mail -\xe2\x80\x99ministers have little understanding of the lives of families residing in suburban streets\xc2\xa0\xe2\x80\x98\n                    </a>\n                  </li>\n                  <li>\n                    <a title="Sue Councils that Block Monster Extensions \xe2\x80\x93\xc2\xa0Pickles" href="https://andrewlainton.wordpress.com/2012/09/24/sue-councils-that-block-monster-extensions-pickles/" shape="rect">Sue Councils that Block Monster Extensions \xe2\x80\x93\xc2\xa0Pickles</a>\n                  </li>\n                  <li>\n                    <a title="Kings Cross Central -Limits on mentally ill, homeless, unemployed and families with children\xc2\xa0set" href="https://andrewlainton.wordpress.com/2012/09/24/kings-cross-central-limits-on-mentally-ill-homelss-unemployed-and-families-with-children-set/" shape="rect">\n                      Kings Cross Central -Limits on mentally ill, homeless, unemployed and families with children\xc2\xa0set\n                    </a>\n                  </li>\n                  <li>\n                    <a title="Alexander \xe2\x80\x93 Osborne a Blue Roadblock to Green\xc2\xa0Growth" href="https://andrewlainton.wordpress.com/2012/09/22/alexander-osborne-a-blue-roadblock-to-green-growth/" shape="rect">Alexander \xe2\x80\x93 Osborne a Blue Roadblock to Green\xc2\xa0Growth</a>\n                  </li>\n                  <li>\n                    <a title="Richard Vize Guardian \xe2\x80\x93 Planning Changes will pitch conservatives against its traditional\xc2\xa0vote" href="https://andrewlainton.wordpress.com/2012/09/21/richard-vize-guardian-planning-changes-will-pitch-conservatives-against-its-traditional-vote/" shape="rect">\n                      Richard Vize Guardian \xe2\x80\x93 Planning Changes will pitch conservatives against its traditional\xc2\xa0vote\n                    </a>\n                  </li>\n                  <li>\n                    <a title="RIBA Poll \xe2\x80\x93 Government Monster Extensions Reforms Needs Rethink\xc2\xa0AJ" href="https://andrewlainton.wordpress.com/2012/09/21/riba-poll-government-monster-extensions-reforms-needs-rethink-aj/" shape="rect">RIBA Poll \xe2\x80\x93 Government Monster Extensions Reforms Needs Rethink\xc2\xa0AJ</a>\n                  </li>\n                  <li>\n                    <a title="Maps\xc2\xa0Misery" href="https://andrewlainton.wordpress.com/2012/09/21/maps-misery/" shape="rect">Maps\xc2\xa0Misery</a>\n                  </li>\n                  <li>\n                    <a title="Rebellion Over Monster Extensions \xe2\x80\x93\xc2\xa0Mail" href="https://andrewlainton.wordpress.com/2012/09/21/rebellion-over-monster-extensions-mail/" shape="rect">Rebellion Over Monster Extensions \xe2\x80\x93\xc2\xa0Mail</a>\n                  </li>\n                  <li>\n                    <a title="A Standard Reason for \xe2\x80\x98Positive and Proactive\xe2\x80\x99\xc2\xa0#NPPF" href="https://andrewlainton.wordpress.com/2012/09/20/a-standard-reason-for-positive-and-proactive-nppf/" shape="rect">A Standard Reason for \xe2\x80\x98Positive and Proactive\xe2\x80\x99\xc2\xa0#NPPF</a>\n                  </li>\n                  <li>\n                    <a title="Bath \xe2\x80\x93 100k and Two Years Down the Plughole\xc2\xa0#NPPF" href="https://andrewlainton.wordpress.com/2012/09/19/bath-100k-and-two-years-down-the-plughole-nppf/" shape="rect">Bath \xe2\x80\x93 100k and Two Years Down the Plughole\xc2\xa0#NPPF</a>\n                  </li>\n                  <li>\n                    <a title="Nick Boles Green Belt only \xe2\x80\x98Safe for Now\xe2\x80\x99 \xe2\x80\x93 Telegraph\xc2\xa0#NPPF" href="https://andrewlainton.wordpress.com/2012/09/18/nick-boles-grenn-belt-only-safe-for-now-telegraph-nppf/" shape="rect">Nick Boles Green Belt only \xe2\x80\x98Safe for Now\xe2\x80\x99 \xe2\x80\x93 Telegraph\xc2\xa0#NPPF</a>\n                  </li>\n                  <li>\n                    <a title="Hiliary Benn in FT \xe2\x80\x93 Planning reforms a Blow to\xc2\xa0Democracy" href="https://andrewlainton.wordpress.com/2012/09/17/hiliary-benn-in-ft-planning-reforms-a-blow-to-democracy/" shape="rect">Hiliary Benn in FT \xe2\x80\x93 Planning reforms a Blow to\xc2\xa0Democracy</a>\n                  </li>\n                </ul>\n              </li>\n              <li id="top-posts-2" class="widget widget_top-posts">\n                <h3 class="widget-title">\n                  <span>Top Posts &amp; Pages</span>\n                </h3>\n                <ul>\n                  <li>\n                    <a data-bump-view="tp" href="http://andrewlainton.wordpress.com/2012/10/03/cala-saga-ends-barton-farm-finally-granted-consent-nppf/" class="bump-view" shape="rect">CALA Saga ends - Barton Farm finally Granted Consent #NPPF</a>\n                  </li>\n                  <li>\n                    <a data-bump-view="tp" href="http://andrewlainton.wordpress.com/2012/10/03/west-coast-mainline-does-the-dft-not-know-how-to-apply-a-discount-rate/" class="bump-view" shape="rect">West Coast Mainline - Does the DfT not know how to apply a Discount Rate?</a>\n                  </li>\n                  <li>\n                    <a data-bump-view="tp" href="http://andrewlainton.wordpress.com/2011/09/02/is-dclg-sitting-on-the-barton-farm-appeal-decision-because-of-nppf-controversy/" class="bump-view" shape="rect">Is DCLG sitting on the Barton Farm appeal decision because of #NPPF controversy?</a>\n                  </li>\n                  <li>\n                    <a data-bump-view="tp" href="http://andrewlainton.wordpress.com/2011/09/29/cala-homes-site-in-winchester-approved-by-pickles-nppf-but-legal-challenges-almost-certain/" class="bump-view" shape="rect">Cala Homes Site in Winchester Approved by Pickles #NPPF but legal challenges almost certain</a>\n                  </li>\n                  <li>\n                    <a data-bump-view="tp" href="http://andrewlainton.wordpress.com/2012/09/20/a-standard-reason-for-positive-and-proactive-nppf/" class="bump-view" shape="rect">A Standard Reason for \'Positive and Proactive\' #NPPF</a>\n                  </li>\n                  <li>\n                    <a data-bump-view="tp" href="http://andrewlainton.wordpress.com/2011/07/11/floorspace-area-ratio-making-it-work-better/" class="bump-view" shape="rect">Floorspace Area Ratio - Making it Work Better</a>\n                  </li>\n                  <li>\n                    <a data-bump-view="tp" href="http://andrewlainton.wordpress.com/2012/10/02/insurance-as-conditional-debt-creation-modelled-2/" class="bump-view" shape="rect">Insurance as Conditional Debt Creation - Modelled</a>\n                  </li>\n                  <li>\n                    <a data-bump-view="tp" href="http://andrewlainton.wordpress.com/2011/06/02/the-magic-of-money-hjalmar-schacht-and-how-to-defeat-hyperinflation/" class="bump-view" shape="rect">The Magic of Money - Hjalmar Schacht and how to defeat hyperinflation.</a>\n                  </li>\n                  <li>\n                    <a data-bump-view="tp" href="http://andrewlainton.wordpress.com/2012/07/22/correctly-modelling-reserves-cost-of-funding-and-collateral-in-monetary-circuit-theory/" class="bump-view" shape="rect">Correctly Modelling Reserves, Cost of Funding and Collateral in Monetary Circuit Theory</a>\n                  </li>\n                  <li>\n                    <a data-bump-view="tp" href="http://andrewlainton.wordpress.com/the-national-planning-policy-framework/" class="bump-view" shape="rect">The National Planning Policy Framework</a>\n                  </li>\n                </ul>\n              </li>\n              <li id="tag_cloud" class="widget widget_tag_cloud">\n                <h3 class="widget-title">\n                  <span>Category Cloud</span>\n                </h3>\n                <div style="overflow: hidden">\n                  <a title="Affordable Housing (22)" style="font-size: 101.53307052124%; padding: 1px; margin: 1px;" href="https://andrewlainton.wordpress.com/category/housing/affordable-housing/" shape="rect">Affordable Housing</a>\n                  <a title="Agriculture (6)" style="font-size: 100.30661410425%; padding: 1px; margin: 1px;" href="https://andrewlainton.wordpress.com/category/agriculture-2/" shape="rect">Agriculture</a>\n                  <a title="anarchism (14)" style="font-size: 100.91984231275%; padding: 1px; margin: 1px;" href="https://andrewlainton.wordpress.com/category/anarchism/" shape="rect">anarchism</a>\n                  <a title="architecture (120)" style="font-size: 109.04511607534%; padding: 1px; margin: 1px;" href="https://andrewlainton.wordpress.com/category/architecture/" shape="rect">architecture</a>\n                  <a title="Business (3)" style="font-size: 100.07665352606%; padding: 1px; margin: 1px;" href="https://andrewlainton.wordpress.com/category/business/" shape="rect">Business</a>\n                  <a title="Capitalisms Last Frontier (25)" style="font-size: 101.76303109943%; padding: 1px; margin: 1px;" href="https://andrewlainton.wordpress.com/category/political-economy/capitalisms-last-frontier/" shape="rect">Capitalisms Last Frontier</a>\n                  <a title="Decision Theory for Planners (22)" style="font-size: 101.53307052124%; padding: 1px; margin: 1px;" href="https://andrewlainton.wordpress.com/category/decision-theory-for-planners/" shape="rect">Decision Theory for Planners</a>\n                  <a title="Demography (4)" style="font-size: 100.15330705212%; padding: 1px; margin: 1px;" href="https://andrewlainton.wordpress.com/category/demography-2/" shape="rect">Demography</a>\n                  <a title="Design (20)" style="font-size: 101.37976346912%; padding: 1px; margin: 1px;" href="https://andrewlainton.wordpress.com/category/design/" shape="rect">Design</a>\n                  <a title="Energy (43)" style="font-size: 103.14279456855%; padding: 1px; margin: 1px;" href="https://andrewlainton.wordpress.com/category/energy/" shape="rect">Energy</a>\n                  <a title="GIS (14)" style="font-size: 100.91984231275%; padding: 1px; margin: 1px;" href="https://andrewlainton.wordpress.com/category/gis/" shape="rect">GIS</a>\n                  <a title="Heritage (38)" style="font-size: 102.75952693824%; padding: 1px; margin: 1px;" href="https://andrewlainton.wordpress.com/category/heritage/" shape="rect">Heritage</a>\n                  <a title="Housing (154)" style="font-size: 111.65133596145%; padding: 1px; margin: 1px;" href="https://andrewlainton.wordpress.com/category/housing/" shape="rect">Housing</a>\n                  <a title="Housing Economics (19)" style="font-size: 101.30310994306%; padding: 1px; margin: 1px;" href="https://andrewlainton.wordpress.com/category/political-economy/housing-economics/" shape="rect">Housing Economics</a>\n                  <a title="Humour (72)" style="font-size: 105.36574682435%; padding: 1px; margin: 1px;" href="https://andrewlainton.wordpress.com/category/humour/" shape="rect">Humour</a>\n                  <a title="International Affairs (116)" style="font-size: 108.73850197109%; padding: 1px; margin: 1px;" href="https://andrewlainton.wordpress.com/category/international-affairs/" shape="rect">International Affairs</a>\n                  <a title="National Planning Policy Framework (1433)" style="font-size: 209.69119579501%; padding: 1px; margin: 1px;" href="https://andrewlainton.wordpress.com/category/urban-planning/national-planning-policy-framework/" shape="rect">National Planning Policy Framework</a>\n                  <a title="planning applications of the rich and famous (20)" style="font-size: 101.37976346912%; padding: 1px; margin: 1px;" href="https://andrewlainton.wordpress.com/category/urban-planning/planning-applications-of-the-rich-and-famous/" shape="rect">planning applications of the rich and famous</a>\n                  <a title="Planoraks (2)" style="font-size: 100%; padding: 1px; margin: 1px;" href="https://andrewlainton.wordpress.com/category/urban-planning/planoraks/" shape="rect">Planoraks</a>\n                  <a title="political economy (251)" style="font-size: 119.08672798949%; padding: 1px; margin: 1px;" href="https://andrewlainton.wordpress.com/category/political-economy/" shape="rect">political economy</a>\n                  <a title="politics (119)" style="font-size: 108.96846254928%; padding: 1px; margin: 1px;" href="https://andrewlainton.wordpress.com/category/politics/" shape="rect">politics</a>\n                  <a title="Property (22)" style="font-size: 101.53307052124%; padding: 1px; margin: 1px;" href="https://andrewlainton.wordpress.com/category/property/" shape="rect">Property</a>\n                  <a title="public services (52)" style="font-size: 103.83267630311%; padding: 1px; margin: 1px;" href="https://andrewlainton.wordpress.com/category/public-services/" shape="rect">public services</a>\n                  <a title="Smart Growth (2)" style="font-size: 100%; padding: 1px; margin: 1px;" href="https://andrewlainton.wordpress.com/category/urban-planning/smart-growth-urban-planning/" shape="rect">Smart Growth</a>\n                  <a title="Sustainable Development (94)" style="font-size: 107.05212439772%; padding: 1px; margin: 1px;" href="https://andrewlainton.wordpress.com/category/sustainable-development/" shape="rect">Sustainable Development</a>\n                  <a title="Technology (15)" style="font-size: 100.99649583881%; padding: 1px; margin: 1px;" href="https://andrewlainton.wordpress.com/category/technology/" shape="rect">Technology</a>\n                  <a title="Transport Planning (67)" style="font-size: 104.98247919404%; padding: 1px; margin: 1px;" href="https://andrewlainton.wordpress.com/category/transport-planning/" shape="rect">Transport Planning</a>\n                  <a title="Uncategorized (5)" style="font-size: 100.22996057819%; padding: 1px; margin: 1px;" href="https://andrewlainton.wordpress.com/category/uncategorized/" shape="rect">Uncategorized</a>\n                  <a title="Urban Design (15)" style="font-size: 100.99649583881%; padding: 1px; margin: 1px;" href="https://andrewlainton.wordpress.com/category/urban-design-2/" shape="rect">Urban Design</a>\n                  <a title="urban planning (2285)" style="font-size: 275%; padding: 1px; margin: 1px;" href="https://andrewlainton.wordpress.com/category/urban-planning/" shape="rect">urban planning</a>\n                </div>\n              </li>\n              <li id="linkcat-1356" class="widget widget_links">\n                <h3 class="widget-title">\n                  <span>Blogroll</span>\n                </h3>\n                <ul class="xoxo blogroll">\n                  <li>\n                    <a href="http://www.taxresearch.org.uk/Blog/" shape="rect">Andrew Murphy \xe2\x80\x93 Tax Research UK</a>\n                  </li>\n                  <li>\n                    <a href="http://www.blogmistress.com" shape="rect">Blogmistress</a>\n                  </li>\n                  <li>\n                    <a href="http://www.housepricecrash.co.uk/" shape="rect">House Price Crash</a>\n                  </li>\n                  <li>\n                    <a href="http://wordpress.com/" shape="rect">WordPress.com</a>\n                  </li>\n                  <li>\n                    <a href="http://wordpress.org/" shape="rect">WordPress.org</a>\n                  </li>\n                </ul>\n              </li>\n              <li id="linkcat-4599" class="widget widget_links">\n                <h3 class="widget-title">\n                  <span>Planning</span>\n                </h3>\n                <ul class="xoxo blogroll">\n                  <li>\n                    <a href="http://urbanregen.wordpress.com/" shape="rect">Adam Roake urban regeneration</a>\n                  </li>\n                  <li>\n                    <a href="http://chinaurbandevelopmentblog.wordpress.com/" shape="rect">China Urban Development Blog</a>\n                  </li>\n                  <li>\n                    <a href="http://thedavidbrockblog.com/" shape="rect">David Brock</a>\n                  </li>\n                  <li>\n                    <a href="http://digitalurbanis.ms/" shape="rect">Digital Urbanism</a>\n                  </li>\n                  <li>\n                    <a href="http://www.jonestheplanner.co.uk/" shape="rect">Jones the Planner</a>\n                  </li>\n                  <li>\n                    <a target="_blank" href="http://kirkwells.blogspot.com/" shape="rect">Kirkwalls Planning Blog</a>\n                  </li>\n                  <li>\n                    <a href="http://localism.sjberwin.com/" shape="rect">L is for Localism</a>\n                  </li>\n                  <li>\n                    <a href="http://www.localism-agenda.com/" shape="rect">Localism Agenda</a>\n                  </li>\n                  <li>\n                    <a href="http://planninglawblog.blogspot.com/" shape="rect">Martin Goodall\'s Planning law Blogspot</a>\n                  </li>\n                  <li>\n                    <a href="http://ntplanning.wordpress.com/" shape="rect">National Trust Planning Blog</a>\n                  </li>\n                  <li>\n                    <a target="_blank" href="http://oldurbanist.blogspot.com/" shape="rect">Old Urbanist</a>\n                  </li>\n                  <li>\n                    <a href="http://www.pas.gov.uk/pas/forum/discussions.do" shape="rect">PAS</a>\n                  </li>\n                  <li>\n                    <a href="http://www.plan-it-law.com/" shape="rect">Plan-it law</a>\n                  </li>\n                  <li>\n                    <a href="http://www.bdb-law.co.uk/blogs/anguswalker" shape="rect">Planning Act 2008 Blog</a>\n                  </li>\n                  <li>\n                    <a href="http://planningblog.wordpress.com/" shape="rect">Planning Blog</a>\n                  </li>\n                  <li>\n                    <a href="http://paper.li/PlanningPost/1307737895" shape="rect">Planning Daily</a>\n                  </li>\n                  <li>\n                    <a href="http://planningrulesblog.blogspot.com/" shape="rect">Planning Rules</a>\n                  </li>\n                  <li>\n                    <a href="http://www.stephenmorganplanning.com/" shape="rect">Stephen Morgans Blog Landmark Chambers</a>\n                  </li>\n                  <li>\n                    <a href="http://urbanplanningblog.com/" shape="rect">Urban Planning Blog</a>\n                  </li>\n                </ul>\n              </li>\n              <li id="linkcat-39745309" class="widget widget_links">\n                <h3 class="widget-title">\n                  <span>Political Economy</span>\n                </h3>\n                <ul class="xoxo blogroll">\n                  <li>\n                    <a href="http://delong.typepad.com/" shape="rect">Brad De Long</a>\n                  </li>\n                  <li>\n                    <a href="http://www.creditwritedowns.com/" shape="rect">Credit Writedowns</a>\n                  </li>\n                  <li>\n                    <a href="http://factsandotherstubbornthings.blogspot.com/" shape="rect">Daniel Kuehn</a>\n                  </li>\n                  <li>\n                    <a href="http://anticap.wordpress.com/" shape="rect">David Ruccio</a>\n                  </li>\n                  <li>\n                    <a href="http://ecologicalheadstand.blogspot.com/" shape="rect">Ecological Headstand</a>\n                  </li>\n                  <li>\n                    <a href="http://www.interfluidity.com/" shape="rect">Interfluidity \xe2\x80\x93 Steve Waldman</a>\n                  </li>\n                  <li>\n                    <a href="http://socialdemocracy21stcentury.blogspot.com/" shape="rect">Lord Keynes</a>\n                  </li>\n                  <li>\n                    <a href="http://macromarketmusings.blogspot.com/" shape="rect">Macro and Other Market Musings</a>\n                  </li>\n                  <li>\n                    <a href="http://marginalrevolution.blogs.com/marginalrevolution/" shape="rect">Marginal Revolution</a>\n                  </li>\n                  <li>\n                    <a href="http://mattrognlie.com/" shape="rect">Matt Rognlie</a>\n                  </li>\n                  <li>\n                    <a href="http://michaelperelman.wordpress.com/" shape="rect">Micheal Perelman</a>\n                  </li>\n                  <li>\n                    <a href="http://www.nakedcapitalism.com/" shape="rect">Naked Capitalism</a>\n                  </li>\n                  <li>\n                    <a href="http://krugman.blogs.nytimes.com/" shape="rect">Paul Krugman</a>\n                  </li>\n                  <li>\n                    <a target="_blank" href="http://pragcap.com/" shape="rect">Pragmatic Capitalism</a>\n                  </li>\n                  <li>\n                    <a href="http://rwer.wordpress.com/" shape="rect">Real World Economics</a>\n                  </li>\n                  <li>\n                    <a href="http://www.renegadeeconomist.com/" shape="rect">Renegade Economist</a>\n                  </li>\n                  <li>\n                    <a href="http://robertvienneau.blogspot.com/" shape="rect">robert vienneau</a>\n                  </li>\n                  <li>\n                    <a href="http://newmonetarism.blogspot.com/" shape="rect">Stephen Williamson</a>\n                  </li>\n                  <li>\n                    <a href="http://www.debtdeflation.com/blogs/" shape="rect">Steve Keen Debtwatch</a>\n                  </li>\n                  <li>\n                    <a href="http://www.themoneyillusion.com/" shape="rect">The Money Illusion</a>\n                  </li>\n                  <li>\n                    <a href="http://triplecrisis.com/" shape="rect">Triple Crisis</a>\n                  </li>\n                  <li>\n                    <a href="http://windyanabasis.wordpress.com" shape="rect">Windyanabasis</a>\n                  </li>\n                  <li>\n                    <a href="http://worthwhile.typepad.com/worthwhile_canadian_initi/" shape="rect">Worthwhile \xe2\x80\x93 Nick Rowe</a>\n                  </li>\n                  <li>\n                    <a href="http://yanisvaroufakis.eu/" shape="rect">Yanis Varoufakis</a>\n                  </li>\n                </ul>\n              </li>\n              <li id="linkcat-89420506" class="widget widget_links">\n                <h3 class="widget-title">\n                  <span>Top 15 Urban Planning Website Tips</span>\n                </h3>\n                <ul class="xoxo blogroll">\n                  <li>\n                    <a target="_blank" href="http://citycomfortsblog.typepad.com/cities/" shape="rect">City Comforts</a>\n                  </li>\n                  <li>\n                    <a target="_blank" href="http://www.copenhagenize.com/" shape="rect">Copenhaganize</a>\n                  </li>\n                  <li>\n                    <a target="_blank" href="http://www.ecocompactcity.org/" shape="rect">Eco-Compact City Network</a>\n                  </li>\n                  <li>\n                    <a target="_blank" href="http://emergenturbanism.com/" shape="rect">Emergent Urbanism</a>\n                  </li>\n                  <li>\n                    <a target="_blank" href="http://www.jonestheplanner.co.uk/" shape="rect">Jones the Planner</a>\n                  </li>\n                  <li>\n                    <a target="_blank" href="http://oldurbanist.blogspot.co.uk/" shape="rect">Old Urbanist</a>\n                  </li>\n                  <li>\n                    <a target="_blank" href="http://persquaremile.com/" shape="rect">Per Square Mile</a>\n                  </li>\n                  <li>\n                    <a target="_blank" href="http://www.thepolisblog.org/" shape="rect">Polis</a>\n                  </li>\n                  <li>\n                    <a target="_blank" href="http://www.reinventingparking.org/" shape="rect">Reinventing Parking</a>\n                  </li>\n                  <li>\n                    <a target="_blank" href="http://www.smallstreets.org/" shape="rect">Small Streets</a>\n                  </li>\n                  <li>\n                    <a target="_blank" href="http://streetswiki.wikispaces.com/" shape="rect">Streetswiki</a>\n                  </li>\n                  <li>\n                    <a target="_blank" href="http://www.upc.gov.ae/?lang=en-US" shape="rect">The Urban Planning Council of Abu Dhabi</a>\n                  </li>\n                  <li>\n                    <a target="_blank" href="http://www.urbanism.org/" shape="rect">Urbanism.org</a>\n                  </li>\n                  <li>\n                    <a target="_blank" href="http://www.vtpi.org/" shape="rect">Victoria Transport Policy Institute</a>\n                  </li>\n                  <li>\n                    <a target="_blank" href="http://yourdevelopment.org/factsheet/all/cat/articlehdens_1" shape="rect">Your Development</a>\n                  </li>\n                </ul>\n              </li>\n              <li id="blog_subscription-2" class="widget widget_blog_subscription">\n                <h3 class="widget-title">\n                  <span>\n                    <label for="subscribe-field">Follow Blog via Email</label>\n                  </span>\n                </h3>\n                <form accept-charset="utf-8" action="https://subscribe.wordpress.com" id="subscribe-blog" method="post" enctype="application/x-www-form-urlencoded">\n                  <p>Enter your email address to follow this blog and receive notifications of new posts by email.</p>\n                  <p>Join 985 other followers</p>\n                  <p>\n                    <input value="" style="width: 95%; padding: 1px 2px" name="email" id="subscribe-field" type="text"></input>\n                  </p>\n                  <p>\n                    <input value="subscribe" name="action" type="hidden"></input>\n                    <input value="11834229" name="blog_id" type="hidden"></input>\n                    <input value="http://andrewlainton.wordpress.com/2012/05/09/pickles-said-rebranding-was-a-waste-of-money-so-what-does-dclg-do/" name="source" type="hidden"></input>\n                    <input value="widget" name="sub-type" type="hidden"></input>\n                    <input value="blog_subscription-2" name="redirect_fragment" type="hidden"></input>\n                    <input value="9e4f1d104c" name="_wpnonce" id="_wpnonce" type="hidden"></input>\n                    <input value="Follow" type="submit"></input>\n                  </p>\n                </form>\n              </li>\n              <li id="archives-4" class="widget widget_archive">\n                <h3 class="widget-title">\n                  <span>Archives</span>\n                </h3>\n                <ul>\n                  <li>\n                    <a title="October 2012" href="http://andrewlainton.wordpress.com/2012/10/" shape="rect">October 2012</a>\n                  </li>\n                  <li>\n                    <a title="September 2012" href="http://andrewlainton.wordpress.com/2012/09/" shape="rect">September 2012</a>\n                  </li>\n                  <li>\n                    <a title="August 2012" href="http://andrewlainton.wordpress.com/2012/08/" shape="rect">August 2012</a>\n                  </li>\n                  <li>\n                    <a title="July 2012" href="http://andrewlainton.wordpress.com/2012/07/" shape="rect">July 2012</a>\n                  </li>\n                  <li>\n                    <a title="June 2012" href="http://andrewlainton.wordpress.com/2012/06/" shape="rect">June 2012</a>\n                  </li>\n                  <li>\n                    <a title="May 2012" href="http://andrewlainton.wordpress.com/2012/05/" shape="rect">May 2012</a>\n                  </li>\n                  <li>\n                    <a title="April 2012" href="http://andrewlainton.wordpress.com/2012/04/" shape="rect">April 2012</a>\n                  </li>\n                  <li>\n                    <a title="March 2012" href="http://andrewlainton.wordpress.com/2012/03/" shape="rect">March 2012</a>\n                  </li>\n                  <li>\n                    <a title="February 2012" href="http://andrewlainton.wordpress.com/2012/02/" shape="rect">February 2012</a>\n                  </li>\n                  <li>\n                    <a title="January 2012" href="http://andrewlainton.wordpress.com/2012/01/" shape="rect">January 2012</a>\n                  </li>\n                  <li>\n                    <a title="December 2011" href="http://andrewlainton.wordpress.com/2011/12/" shape="rect">December 2011</a>\n                  </li>\n                  <li>\n                    <a title="November 2011" href="http://andrewlainton.wordpress.com/2011/11/" shape="rect">November 2011</a>\n                  </li>\n                  <li>\n                    <a title="October 2011" href="http://andrewlainton.wordpress.com/2011/10/" shape="rect">October 2011</a>\n                  </li>\n                  <li>\n                    <a title="September 2011" href="http://andrewlainton.wordpress.com/2011/09/" shape="rect">September 2011</a>\n                  </li>\n                  <li>\n                    <a title="August 2011" href="http://andrewlainton.wordpress.com/2011/08/" shape="rect">August 2011</a>\n                  </li>\n                  <li>\n                    <a title="July 2011" href="http://andrewlainton.wordpress.com/2011/07/" shape="rect">July 2011</a>\n                  </li>\n                  <li>\n                    <a title="June 2011" href="http://andrewlainton.wordpress.com/2011/06/" shape="rect">June 2011</a>\n                  </li>\n                  <li>\n                    <a title="May 2011" href="http://andrewlainton.wordpress.com/2011/05/" shape="rect">May 2011</a>\n                  </li>\n                </ul>\n              </li>\n              <li id="calendar-2" class="widget widget_calendar">\n                <h3 class="widget-title">\n                  <span>Daily Posts</span>\n                </h3>\n                <div id="calendar_wrap">\n                  <table id="wp-calendar">\n                    <caption>May 2012</caption>\n                    <thead>\n                      <tr>\n                        <th title="Monday" scope="col" rowspan="1" colspan="1">M</th>\n                        <th title="Tuesday" scope="col" rowspan="1" colspan="1">T</th>\n                        <th title="Wednesday" scope="col" rowspan="1" colspan="1">W</th>\n                        <th title="Thursday" scope="col" rowspan="1" colspan="1">T</th>\n                        <th title="Friday" scope="col" rowspan="1" colspan="1">F</th>\n                        <th title="Saturday" scope="col" rowspan="1" colspan="1">S</th>\n                        <th title="Sunday" scope="col" rowspan="1" colspan="1">S</th>\n                      </tr>\n                    </thead>\n                    <tfoot>\n                      <tr>\n                        <td id="prev" rowspan="1" colspan="3">\n                          <a title="View posts for April 2012" href="http://andrewlainton.wordpress.com/2012/04/" shape="rect">\xc2\xab Apr</a>\n                        </td>\n                        <td class="pad" rowspan="1" colspan="1">\xc2\xa0</td>\n                        <td id="next" rowspan="1" colspan="3">\n                          <a title="View posts for June 2012" href="http://andrewlainton.wordpress.com/2012/06/" shape="rect">Jun \xc2\xbb</a>\n                        </td>\n                      </tr>\n                    </tfoot>\n                    <tbody>\n                      <tr>\n                        <td class="pad" rowspan="1" colspan="1">\xc2\xa0</td>\n                        <td rowspan="1" colspan="1">\n                          <a \n                          title="A New Ministerial Policy on Appeal Recovery/Call-in? #NPPF\xc2\xa0#Planorak, Pickles thinks he can Press #NPPF on Scotland, Wales and Northern\xc2\xa0Ireland, Its so much less Bureaucratic Without Regional Assemblies \xe2\x80\x93 A Diagram\xc2\xa0#NPPF, A Wind Map of England\xc2\xa0#NPPF, DCLG refuse FOI request on #NPPF Helpline \xe2\x80\x93 Clarity could be reduced by\xc2\xa0Clarification, Cameron\xe2\x80\x99s Laughable Following of Phillip Stephen\xe2\x80\x99s Script on Heathrow \xe2\x80\x98Shake\xc2\xa0Down\xe2\x80\x99" href="http://andrewlainton.wordpress.com/2012/05/01/" shape="rect">\n                            1\n</a>\n                        </td>\n                        <td rowspan="1" colspan="1">\n                          <a \n                          title="Developing a New Legal and Financial Model for New Garden Cities/Suburbs #NPPF Part\xc2\xa02, Laing\xe2\x80\x99s Chairman Refused Planning Permission &amp; CA Consent on own Home \xe2\x80\x93 Awful Scheme #NPPF\xc2\xa0quoted, Borgen 2 \xe2\x80\x93 The Planner Visiting from\xc2\xa0London, York Core Strategy CS Suspended Six Months (first post #NPPF EIP) and Notes of Preexam Meeting\xc2\xa0Published, Hagues\xc2\xa0Vaguery, #NPPF Version with Bookmarks Panel, Hyperlinks and\xc2\xa0Index, London Sprawling \xe2\x80\x93 Why it makes no Sense to Build out to the M25 #NPPF\xc2\xa0#urbanplanning, The Confusion over Neighbourhood Plan\xc2\xa0Referendums, Irish National Trust Names and Shames Worst Irish Councils for Planning\xc2\xa0#urbanplanning" href="http://andrewlainton.wordpress.com/2012/05/02/" shape="rect">\n                            2\n</a>\n                        </td>\n                        <td rowspan="1" colspan="1">\n                          <a \n                          title="Laing\xe2\x80\x99s Bosses House Demolition Plan hits National Press \xe2\x80\x98 But \xe2\x80\x98Virtually\xc2\xa0Identical\xe2\x80\x99!, Any Areas left Still Relying on Town or County\xc2\xa0Maps?, Why Credit Doesn\xe2\x80\x99t Rise Forever? \xe2\x80\x93 The Limits of the Physical\xc2\xa0Economy, Cameron and The DCLG Gang\xe2\x80\x99s Blatant Attempt to Thwart Independent Election Regulation and Destroy a Fine Public\xc2\xa0Servant, Lines on\xc2\xa0Maps, Why Number 10 is failing in One Simple\xc2\xa0Diagram, From Pedshed to PubShed \xe2\x80\x93 your 5 minute stumbling distance to good\xc2\xa0beer, Sorry Ken Why I didn\xe2\x80\x99t vote for you\xc2\xa0Today, Greg Clark\xe2\x80\x99s Letter to MPs goes beyond #NPPF on Sustainable\xc2\xa0Development, No Water Bill till 2015, watch out as your Local Plan could be JRd on EU Water\xc2\xa0Law" href="http://andrewlainton.wordpress.com/2012/05/03/" shape="rect">\n                            3\n</a>\n                        </td>\n                        <td rowspan="1" colspan="1">\n                          <a \n                          title="Will No Votes on Elected Mayors Sink Greg Clark\xe2\x80\x99s Promotion as Locals Vote Against Localist\xc2\xa0Mayors?, Cornwall Vote to Approve New Settlement Next to Llangarth Park and Ride\xc2\xa0Truro, Why Failing to Build Enough Homes Could Lose Conservatives an Election (and Labour\xc2\xa0too)" href="http://andrewlainton.wordpress.com/2012/05/04/" shape="rect">\n                            4\n</a>\n                        </td>\n                        <td rowspan="1" colspan="1">\n                          <a \n                          title="A Fair Nomination for Carbuncle Cup \xe2\x80\x93 Victoria Hall\xc2\xa0Wembley?, Why Debt and Debt Deflation Matters in One\xc2\xa0Para, A Readers Guide to Unwin\xe2\x80\x99s Town Planning in Practice \xe2\x80\x93 Part 1 \xe2\x80\x93 Town Planning as an\xc2\xa0Art, Man who Presided over Biggest Housing Bubble in Western World could be Next BoE Governor \xe2\x80\x93\xc2\xa0WTF!" href="http://andrewlainton.wordpress.com/2012/05/05/" shape="rect">\n                            5\n</a>\n                        </td>\n                        <td rowspan="1" colspan="1">\n                          <a \n                          title="Rowan Moore \xe2\x80\x93 Liverpool Waters \xe2\x80\x98 if ever a project demanded a public inquiry it is\xc2\xa0this\xe2\x80\x99, So what would happen if Pickles Refused to Call in Liverpool Waters?\xc2\xa0#NPPF, A Readers Guide to Unwin\xc3\xa2\xe2\x82\xac\xe2\x84\xa2s Town Planning in Practice \xc3\xa2\xe2\x82\xac\xe2\x80\x9c Part 2 \xe2\x80\x93 the Individuality of\xc2\xa0Towns" href="http://andrewlainton.wordpress.com/2012/05/06/" shape="rect">\n                            6\n</a>\n                        </td>\n                      </tr>\n                      <tr>\n                        <td rowspan="1" colspan="1">\n                          <a \n                          title="DCLG Select Publishes report on new housing finance and\xc2\xa0supply, DECC Report on Economic Benefits of\xc2\xa0Windfarms, Civic Exchange \xe2\x80\x93 \xe2\x80\x98Big Society\xe2\x80\x99 project derailed by cuts and\xc2\xa0distrust, A Readers Guide to Unwin\xc3\xa2\xe2\x82\xac\xe2\x84\xa2s Town Planning in Practice \xc3\xa2\xe2\x82\xac\xe2\x80\x9c Part 3 \xc3\xa2\xe2\x82\xac\xe2\x80\x9c Formal and Informal\xc2\xa0Beauty, Canals of New\xc2\xa0York" href="http://andrewlainton.wordpress.com/2012/05/07/" shape="rect">\n                            7\n</a>\n                        </td>\n                        <td rowspan="1" colspan="1">\n                          <a \n                          title="Eliot Noyes\xe2\x80\x99 last UK petrol Station\xc2\xa0Listed, A Readers Guide to Unwin\xc3\xa2\xe2\x82\xac\xe2\x84\xa2s Town Planning in Practice \xc3\xa2\xe2\x82\xac\xe2\x80\x9c Part 4 \xc3\xa2\xe2\x82\xac\xe2\x80\x9c The City\xc2\xa0Survey, Has Greg Clarke got his A21\xc2\xa0Dualling?, Danish Architects propose Hastag inspired \xe2\x80\x98Cross # Towers\xe2\x80\x99 in\xc2\xa0Seoul, Trying to Rebrand Austerity \xe2\x80\x93 A Tactic that will last 5\xc2\xa0minutes" href="http://andrewlainton.wordpress.com/2012/05/08/" shape="rect">\n                            8\n</a>\n                        </td>\n                        <td rowspan="1" colspan="1">\n                          <a \n                          title="Smart Growth and Economic Recovery \xe2\x80\x93 Simon\xc2\xa0Jenkins, Blow to High Street and Essex as Clinton\xe2\x80\x99s looks set for\xc2\xa0Administration, England\xe2\x80\x99s Windiest and Least Windy LPAs\xc2\xa0#NPPF, A Readers Guide to Unwin\xc3\xa2\xe2\x82\xac\xe2\x84\xa2s Town Planning in Practice \xc3\xa2\xe2\x82\xac\xe2\x80\x9c Part 5 \xc3\xa2\xe2\x82\xac\xe2\x80\x9c Boundaries and\xc2\xa0Approaches, Pickles said rebranding was a waste of money \xe2\x80\x93 So what does DCLG\xc2\xa0do?" href="http://andrewlainton.wordpress.com/2012/05/09/" shape="rect">\n                            9\n</a>\n                        </td>\n                        <td rowspan="1" colspan="1">\n                          <a \n                          title="Does Inflation erode Debt? \xe2\x80\x93 Not\xc2\xa0necessarily, Guardian on Cuts to Planning\xc2\xa0Staff, So who will stay and who will go at DCLG in Weekend\xc2\xa0Reshuffle?, Welsh Government Consults on Content of Sustainable Development\xc2\xa0Bill, Wales Miles Ahead of England Again \xe2\x80\x93 This Time on Transport Planning\xc2\xa0#NPPF, A Readers Guide to Unwin\xc3\xa2\xe2\x82\xac\xe2\x84\xa2s Town Planning in Practice \xc3\xa2\xe2\x82\xac\xe2\x80\x9c Part 6 \xe2\x80\x93 Centres and Enclosed\xc2\xa0Spaces, Watchout Planners Even Chimps can\xc2\xa0Plan" href="http://andrewlainton.wordpress.com/2012/05/10/" shape="rect">\n                            10\n</a>\n                        </td>\n                        <td rowspan="1" colspan="1">\n                          <a \n                          title="\xe2\x80\x98London Whale\xe2\x80\x99 and other bad banking deals increase risk of Credit Crunch later in\xc2\xa02012, Beware the Policy Exchange Bringing Biodiversity Offsetting Gifts\xc2\xa0#NPPF, Construction in 3.7% year on year fall in Q1 \xe2\x80\x93 Will Economists Now Believe we are in Double\xc2\xa0Dip?, A Readers Guide to Unwin\xc3\xa2\xe2\x82\xac\xe2\x84\xa2s Town Planning in Practice \xc3\xa2\xe2\x82\xac\xe2\x80\x9c Part 7- Roads, Treatment and\xc2\xa0Planting, GOD admits planning reform was failure \xe2\x80\x93 alongside poll tax and financial crisis\xc2\xa0#NPPF, Uks Largest Estate Agent Slam Shapps as Being More Interested in Headlines Than\xc2\xa0Housing" href="http://andrewlainton.wordpress.com/2012/05/11/" shape="rect">\n                            11\n</a>\n                        </td>\n                        <td rowspan="1" colspan="1">\n                          <a title="A Readers Guide to Unwin\xc3\xa2\xe2\x82\xac\xe2\x84\xa2s Town Planning in Practice \xc3\xa2\xe2\x82\xac\xe2\x80\x9c Part 8 \xe2\x80\x93 Site Planning &amp; Residential\xc2\xa0Roads" href="http://andrewlainton.wordpress.com/2012/05/12/" shape="rect">12</a>\n                        </td>\n                        <td rowspan="1" colspan="1">13</td>\n                      </tr>\n                      <tr>\n                        <td rowspan="1" colspan="1">\n                          <a title="No Weekend\xc2\xa0Reshuffle, The first Charter Cities look set to be built \xe2\x80\x93 Can High Growth Cities be created at\xc2\xa0will?, A Readers Guide to Unwin\xc3\xa2\xe2\x82\xac\xe2\x84\xa2s Town Planning in Practice \xc3\xa2\xe2\x82\xac\xe2\x80\x9c Part 9 \xc3\xa2\xe2\x82\xac\xe2\x80\x9c Plots and the Placing of\xc2\xa0Buildings" href="http://andrewlainton.wordpress.com/2012/05/14/" shape="rect">\n                            14\n                          </a>\n                        </td>\n                        <td rowspan="1" colspan="1">\n                          <a title="First Major Heritage #NPPF appeal \xe2\x80\x93 But makes Viability not Heritage\xc2\xa0Precedent, My #NPPF Design for London\xc2\xa0Presentation" href="http://andrewlainton.wordpress.com/2012/05/15/" shape="rect">15</a>\n                        </td>\n                        <td rowspan="1" colspan="1">\n                          <a \n                          title="\xe2\x80\x98Bungalow Bob\xe2\x80\x99 Kerslake undermined by 10 Downing\xc2\xa0Street, The Future of Neighbourhood Planning Funding \xe2\x80\x93 Some DCLG\xc2\xa0Clues, How could the Dawlish Neighbourhood Plan Pass Examination?\xc2\xa0#NPPF, Ian Watmore Resigns to spend more time on \xe2\x80\x98spousal duties\xe2\x80\x99:  More Public Services White Paper Fall\xc2\xa0Out?, New RIBA Report on Hobbit\xc2\xa0Homes, Teresa May Attempts to Tamper with Scene of PR Crime \xe2\x80\x93 and Falls into Perfect Police\xc2\xa0Trap, So it Turns Out the Dawlish Neighbourhood Plan isn\xe2\x80\x99t a Lawful Neighbourhood Plan After All\xc2\xa0#NPPF" href="http://andrewlainton.wordpress.com/2012/05/16/" shape="rect">\n                            16\n</a>\n                        </td>\n                        <td rowspan="1" colspan="1">\n                          <a \n                          title="York \xe2\x80\x93 Recommendation what Recommendation?\xc2\xa0#NPPF, Housebuilding Starts fall 11% in Q1 compared to Q4\xc2\xa02011, Debt is Bad, Debt is Good \xe2\x80\x93 Has Cameron signalled a Plan A+ re infrastructure\xc2\xa0spending?, TCPA Launches \xe2\x80\x98Creating Garden Cities and Suburbs Today\xe2\x80\x99 report\xc2\xa0#NPPF, A Readers Guide to Unwin\xc3\xa2\xe2\x82\xac\xe2\x84\xa2s Town Planning in Practice \xc3\xa2\xe2\x82\xac\xe2\x80\x9c Part 10 \xe2\x80\x93 Buildings \xe2\x80\x93 How the Variety of Each Must be Dominated by the Harmony of the\xc2\xa0Whole" href="http://andrewlainton.wordpress.com/2012/05/17/" shape="rect">\n                            17\n</a>\n                        </td>\n                        <td rowspan="1" colspan="1">18</td>\n                        <td rowspan="1" colspan="1">19</td>\n                        <td rowspan="1" colspan="1">\n                          <a title="Fracking\xc2\xa0Backtracking, A Readers Guide to Unwin\xc3\xa2\xe2\x82\xac\xe2\x84\xa2s Town Planning in Practice \xc3\xa2\xe2\x82\xac\xe2\x80\x9c Part 11 \xe2\x80\x93\xc2\xa0Cooperation" href="http://andrewlainton.wordpress.com/2012/05/20/" shape="rect">20</a>\n                        </td>\n                      </tr>\n                      <tr>\n                        <td rowspan="1" colspan="1">\n                          <a \n                          title="Hilton Briefed Against Cameron \xe2\x80\x93 So the \xe2\x80\x98little Hungarian fascist\xe2\x80\x99 wont be back\xc2\xa0then, Deregulation agenda stalls green economy plan says Environmental Audit\xc2\xa0Committee, NFU \xe2\x80\x93 Food and Drink Now Britains 4th Largest Export\xc2\xa0Sector, A Readers Guide to Unwin\xc3\xa2\xe2\x82\xac\xe2\x84\xa2s Town Planning in Practice \xc3\xa2\xe2\x82\xac\xe2\x80\x9c Part 12 \xc3\xa2\xe2\x82\xac\xe2\x80\x9c Building Bye\xc2\xa0Laws" href="http://andrewlainton.wordpress.com/2012/05/21/" shape="rect">\n                            21\n</a>\n                        </td>\n                        <td rowspan="1" colspan="1">\n                          <a title="Cambridge Local Plan \xe2\x80\x93 May have to develop up to 12,300 Homes in the Green Belt\xc2\xa0#NPPF, Griff Rhys Jones \xe2\x80\x98The Government Panicked\xe2\x80\x99 over\xc2\xa0#NPPF, Starting Government Targets from\xc2\xa0Scratch" href="http://andrewlainton.wordpress.com/2012/05/22/" shape="rect">22</a>\n                        </td>\n                        <td rowspan="1" colspan="1">\n                          <a \n                          title="China Heads Towards Hard Landing as Property Prices and Bank Lending Crash \xe2\x80\x93 Great Depression\xc2\xa02?, Has DCLG stopped Calling in Applications to Avoid Making Decisions on the #NPPF\xc2\xa0?, A Message to Voters from the Irish Austerity\xc2\xa0Referendum, Shottery Case at Stratford DC Looks Likely to be first \xe2\x80\x98Degree of Consistency\xe2\x80\x99 Test for SoS on\xc2\xa0#NPPF" href="http://andrewlainton.wordpress.com/2012/05/23/" shape="rect">\n                            23\n</a>\n                        </td>\n                        <td rowspan="1" colspan="1">\n                          <a \n                          title="For Athens Surely Some Things are a Higher Priority than Urban\xc2\xa0Planning?, Our Blog Post Sparks Row over Realism over Stratford DCs Local Plan\xc2\xa0#NPPF, Is your Roof Insured against Climate Change? -\xe2\x80\x99Diurnal Drift\xe2\x80\x99 causes Roof Collapse for Will Self and\xc2\xa0Neighbours, Test Case Lowland Post #NPPF Windfarms\xc2\xa0Permitted" href="http://andrewlainton.wordpress.com/2012/05/24/" shape="rect">\n                            24\n</a>\n                        </td>\n                        <td rowspan="1" colspan="1">\n                          <a \n                          title="Grant Shapps Admits Defeat on Housebuilding\xc2\xa0Numbers, Volume Housebuilders no longer want to build in\xc2\xa0Volume, \xe2\x80\x98Gummer Rule\xe2\x80\x99 House falls down on \xe2\x80\x98Innovative\xc2\xa0construction\xe2\x80\x99, Richard Benyon\xe2\x80\x99s New Press Release on the\xc2\xa0Cull, A Shotgun Solution to Our Housing Crisis #ukhousing\xc2\xa0#NPPF, Design Council Cabe launches Design Wayfinder on the #NPPF and Design\xc2\xa0Guidance" href="http://andrewlainton.wordpress.com/2012/05/25/" shape="rect">\n                            25\n</a>\n                        </td>\n                        <td rowspan="1" colspan="1">\n                          <a title="First Major Retail Appeal Post #NPPF in Saffron Walden \xe2\x80\x93 Class Based Impact\xc2\xa0Assessment" href="http://andrewlainton.wordpress.com/2012/05/26/" shape="rect">26</a>\n                        </td>\n                        <td rowspan="1" colspan="1">27</td>\n                      </tr>\n                      <tr>\n                        <td rowspan="1" colspan="1">\n                          <a \n                          title="Massive Hong Kong Land Reclamation Plan Condemned as Unnecessary \xe2\x80\x93\xc2\xa0Guardian, What are we looking at?  The Selective Release of Architectural\xc2\xa0Imagery, Why the Shepherd Bush Market DPD\xc2\xa0quashed?, Teignbridge Reduce Housing Targets by 32% since 2010  #NPPF \xe2\x80\x93 The Laughable Results when Cllrs do\xc2\xa0Forecasts, Death in Fake Venice \xe2\x80\x93 How a Critical Design Fault may have led to death of 19 (13\xc2\xa0children), Graeme Bell \xe2\x80\x93 Turn Heathrow into a Garden\xc2\xa0City" href="http://andrewlainton.wordpress.com/2012/05/28/" shape="rect">\n                            28\n</a>\n                        </td>\n                        <td rowspan="1" colspan="1">\n                          <a \n                          title="Coryton Refinery Closure Creates South East\xe2\x80\x99s Largest Regeneration\xc2\xa0Site, Pasty Tax, Skips Tax or Doritos\xc2\xa0Tax, Can you spot Income Inequality from\xc2\xa0Space?, FT- Danny Alexander Considers \xe2\x80\x98Social Housing Bonds\xe2\x80\x99 Credit Easing\xc2\xa0Plan, York Core Strategy to be Withdrawn Following Out of Town Retail Approval\xc2\xa0#NPPF, Would or Could South Oxfordshire ignore an Inspectors Decision if CS found unsound?\xc2\xa0#NPPF, IEA \xe2\x80\x93 Lack of Regulation hindering Growth of Fracking \xe2\x80\x93 Now apply same arguments to Planning\xc2\xa0#NPPF, Lord Best \xe2\x80\x93 Build 100,000 Extra Care Homes a Year to pull Britain out of Recession\xc2\xa0#UKhousing" href="http://andrewlainton.wordpress.com/2012/05/29/" shape="rect">\n                            29\n</a>\n                        </td>\n                        <td rowspan="1" colspan="1">\n                          <a \n                          title="Judge Windfarm Decision \xe2\x80\x93 Renewable Targets do not Automatically Negate Landscape Issues\xc2\xa0#NPPF, East Herts Cllr \xe2\x80\x98Government\xe2\x80\x99s Planning Policy is a shambles\xe2\x80\x99\xc2\xa0#NPPF, CIL and #NPPF could hamper new Housing \xe2\x80\x93 Knight\xc2\xa0Frank, 3 Million Young Adults Living With Parents \xe2\x80\x93 and how to Missapply that in Housing Forecasts\xc2\xa0#NPPF, Bank Lending is Profit Constrained not Equity (Capital) Constrained \xe2\x80\x93 A Small but Important MMT\xc2\xa0Error, What a waste of \xc3\x82\xc2\xa317 million for community planning\xc2\xa0orders, NT Launch Campaign Against Brandy Island\xc2\xa0Marina" href="http://andrewlainton.wordpress.com/2012/05/30/" shape="rect">\n                            30\n</a>\n                        </td>\n                        <td rowspan="1" colspan="1">\n                          <a \n                          title="Euro Break Up could Halve Prime Central London House Prices \xe2\x80\x93 Fathom\xc2\xa0Consulting, Skip Tax will result in increase in Flytipping \xe2\x80\x93 Skips Protests could Block Central\xc2\xa0London, Westminster Introduce Transferable Development Rights Affordable Housing\xc2\xa0Model, James Lang LaSalle \xe2\x80\x93 72% of Land Buyers say #NPPF will make no difference in ease of aquiring housing\xc2\xa0sites, Buy a Georgian\xc2\xa0Crescent, DCLG 2012-2015 Business Plan \xe2\x80\x93 New Garden City Programme Included, \xe2\x80\x98Streamline Planning Applications\xe2\x80\x99\xc2\xa0addition, Geothermal Power Could replace need for 9 Nuclear Power\xc2\xa0Stations, DCLG Self Assessment \xe2\x80\x93 Lack of \xe2\x80\x98Passion Pace and\xc2\xa0Drive\xe2\x80\x99" href="http://andrewlainton.wordpress.com/2012/05/31/" shape="rect">\n                            31\n</a>\n                        </td>\n                        <td class="pad" rowspan="1" colspan="3">\xc2\xa0</td>\n                      </tr>\n                    </tbody>\n                  </table>\n                </div>\n              </li>\n              <li id="twitter-3" class="widget widget_twitter">\n                <h3 class="widget-title">\n                  <span>\n                    <a href="http://twitter.com/andrewlainton" shape="rect">Twitter</a>\n                  </span>\n                </h3>\n                <ul class="tweets">\n                  <li>\n                    @\n                    <a href="http://twitter.com/profstevekeen" shape="rect">profstevekeen</a>\n                    Ambrose-Prichard great on Fallacy of Expansionary Fiscal Contraction \'synchronised policy suicide\'\n                    <a href="http://bit.ly/Pvz4QM" shape="rect"> bit.ly/Pvz4QM</a>\n                    <a href="http://twitter.com/andrewlainton/statuses/253486297358946304" class="timesince" shape="rect">9\xc2\xa0hours\xc2\xa0ago</a>\n                  </li>\n                  <li>\n                    CALA Saga ends - Barton Farm finally Granted Consent\n                    <a href="http://twitter.com/search?q=%23NPPF" shape="rect">#NPPF</a>\n                    <a href="http://wp.me/pNECF-3ML" shape="rect"> wp.me/pNECF-3ML</a>\n                    <a href="http://twitter.com/andrewlainton/statuses/253448348806307841" class="timesince" shape="rect">12\xc2\xa0hours\xc2\xa0ago</a>\n                  </li>\n                  <li>\n                    West Coast Mainline - Does the DfT not know how to apply a Discount Rate?\n                    <a href="http://wp.me/pNECF-3MI" shape="rect"> wp.me/pNECF-3MI</a>\n                    <a href="http://twitter.com/andrewlainton/statuses/253412305017131008" class="timesince" shape="rect">14\xc2\xa0hours\xc2\xa0ago</a>\n                  </li>\n                  <li>\n                    @\n                    <a href="http://twitter.com/deficitowl" shape="rect">deficitowl</a>\n                    Woops you confused Robert and Paul  Samuelson\n                    <a href="http://twitter.com/andrewlainton/statuses/253166612931297280" class="timesince" shape="rect">1\xc2\xa0day\xc2\xa0ago</a>\n                  </li>\n                  <li>\n                    @\n                    <a href="http://twitter.com/AnnPettifor" shape="rect">AnnPettifor</a>\n                    New Post - Insurance as Conditional Debt Creation - Modelled\n                    <a href="http://bit.ly/U6FEoF" shape="rect"> bit.ly/U6FEoF</a>\n                    &gt;why should be in rentier FIRE sector\n                    <a href="http://twitter.com/andrewlainton/statuses/253140299440861185" class="timesince" shape="rect">1\xc2\xa0day\xc2\xa0ago</a>\n                  </li>\n                </ul>\n                <a data-text-color="#4e4e4e" data-link-color="#0071bb" data-show-count="false" href="http://twitter.com/andrewlainton" class="twitter-follow-button" shape="rect">Follow @andrewlainton</a>\n              </li>\n              <li id="author_grid" class="widget widget_author_grid">\n                <h3 class="widget-title">\n                  <span>Contributors</span>\n                </h3>\n                <ul>\n                  <li>\n                    <a href="http://andrewlainton.wordpress.com/author/andrewlainton/" shape="rect">\n                      <img width="32" height="32" src="http://2.gravatar.com/avatar/5144f9cf55bf559e5b12cf7c687c2d57?s=32&amp;d=identicon&amp;r=G" alt="" class="avatar avatar-32"></img>\n                    </a>\n                  </li>\n                </ul>\n              </li>\n            </ul>\n          </div>\n        </div>\n        <div role="contentinfo" id="footer">\n          <div id="copyright">\n            <p>\n              <a rel="generator" href="http://wordpress.com/?ref=footer" shape="rect">Blog at WordPress.com</a>\n              .\n\t\t\t\t\t\tTheme:\n              <a title="Learn more about this theme" href="http://theme.wordpress.com/themes/mystique/" shape="rect">Mystique</a>\n              by\n              <a rel="designer" href="http://digitalnature.eu/" shape="rect">digitalnature</a>\n              .\n            </p>\n          </div>\n        </div>\n      </div>\n    </div>\n    <script type="text/javascript">\n      var _qevents = _qevents || [], wpcomQuantcastData = {&quot;qacct&quot;:&quot;p-18-mFEk4J448M&quot;,&quot;labels&quot;:&quot;,language.en,type.wpcom,as&quot;};\nfunction wpcomQuantcastPixel( labels, options ) {\n\tvar i, defaults = wpcomQuantcastData, data = { event: \'ajax\' };\n\n\tlabels  = labels  || \'\';\n\toptions = options || {};\n\n\tif ( typeof labels != \'string\' )\n\t\toptions = labels;\n\n\tfor ( i in defaults ) {\n\t\tdata[i] = defaults[i];\n\t}\n\n\tfor ( i in options ) {\n\t\tdata[i] = options[i];\n\t}\n\n\tif ( data.labels ) {\n\t\tdata.labels += \',\' + labels;\n\t} else {\n\t\tdata.labels = labels;\n\t}\n\n\t_qevents.push( data );\n};\n(function() {var elem = document.createElement(\'script\');elem.src = (document.location.protocol == &quot;https:&quot; ? &quot;https://secure&quot; : &quot;http://edge&quot;) + &quot;.quantserve.com/quant.js&quot;;elem.async = true;elem.type = &quot;text/javascript&quot;;var scpt = document.getElementsByTagName(\'script\')[0];scpt.parentNode.insertBefore(elem, scpt);  })();\n_qevents.push( wpcomQuantcastData );\n    </script>\n    <noscript>\n      <div style="display: none;">\n        <img alt="" width="1" height="1" src="//pixel.quantserve.com/pixel/p-18-mFEk4J448M.gif?labels=%2Clanguage.en%2Ctype.wpcom%2Cas"></img>\n      </div>\n    </noscript>\n    <script type="text/javascript">\n      /* &lt;![CDATA[ */\n\t(function($){\n\t\t$(document).on( \'ready post-load\', function() {\n\n\t\t\t// Remove the login box when clicking the page\n\t\t\t$( document ).mousedown( function( e ) {\n\t\t\t\tif ( null == $( e.target ).closest( \'#wpl-mustlogin\' ).get( 0 ) ) {\n\t\t\t\t\t$( \'#wpl-mustlogin\' ).remove();\n\t\t\t\t}\n\t\t\t});\n\n\t\t\t// Handle clicking the like button itself\n\t\t\t$(\'.wpl-button &gt; a.like\').click( function(e) {\n\t\t\t\te.preventDefault();\n\n\t\t\t\tvar postid = $(this).parent().attr(\'id\').split(\'like-\')[1];\n\t\t\t\t$.post( \'http://andrewlainton.wordpress.com/wp-admin/admin-ajax.php\', {\n\t\t\t\t\t\'action\': \'wpl_record_stat\',\n\t\t\t\t\t\'stat_name\': \'loggedout_like_click\'\n\t\t\t\t} );\n\n\t\t\t\tvar tenMins = new Date();\n\t\t\t\ttenMins.setTime( tenMins.getTime() + 600000 );\n\t\t\t\tdocument.cookie = \'wpl_rand=c67ae2b5b5; expires=\' + tenMins.toGMTString() + \'; domain=wordpress.com; path=/;\';\n\n\t\t\t\t$(this).parent().siblings(\'.wpl-count\').after( \'\\\n\t\t\t\t\t&lt;div id=&quot;wpl-mustlogin&quot;&gt; \\\n\t\t\t\t\t\t&lt;form action=&quot;https://andrewlainton.wordpress.com/wp-login.php&quot; method=&quot;post&quot;&gt; \\\n\t\t\t\t\t\t\t&lt;p&gt;Just one more step to like this:&lt;/p&gt; \\\n\t\t\t\t\t\t\t&lt;label&gt;&lt;span&gt;Username&lt;/span&gt; &lt;input type=&quot;text&quot; name=&quot;log&quot; id=&quot;user_login&quot; class=&quot;input&quot; value=&quot;&quot; size=&quot;20&quot; tabindex=&quot;80&quot; /&gt;&lt;/label&gt; \\\n\t\t\t\t\t\t\t&lt;label&gt;&lt;span&gt;Password&lt;/span&gt; &lt;input type=&quot;password&quot; name=&quot;pwd&quot; id=&quot;user_pass&quot; class=&quot;input&quot; value=&quot;&quot; size=&quot;20&quot; tabindex=&quot;81&quot; /&gt;&lt;/label&gt; \\\n\t\t\t\t\t\t\t&lt;input type=&quot;submit&quot; name=&quot;wp-submit&quot; id=&quot;wp-submit&quot; class=&quot;button-primary&quot; value=&quot;Log In&quot; tabindex=&quot;82&quot; /&gt; \\\n\t\t\t\t\t\t\t&lt;input type=&quot;hidden&quot; name=&quot;postid&quot; value=&quot;\' + postid + \'&quot; /&gt; \\\n\t\t\t\t\t\t\t&lt;input type=&quot;hidden&quot; name=&quot;redirect_to&quot; value=&quot;http://andrewlainton.wordpress.com/2012/05/09/pickles-said-rebranding-was-a-waste-of-money-so-what-does-dclg-do?year=2012&amp;#038;monthnum=05&amp;#038;day=09&amp;#038;name=pickles-said-rebranding-was-a-waste-of-money-so-what-does-dclg-do&amp;#038;like=1&quot; /&gt; \\\n\t\t\t\t\t\t\t&lt;input type=&quot;hidden&quot; name=&quot;wpl_rand&quot; value=&quot;c67ae2b5b5&quot; /&gt; \\\n\t\t\t\t\t\t\t&lt;p&gt;Not a member yet? &lt;a href=&quot;http://wordpress.com/signup/?ref=likebox&quot; id=&quot;wpl-signup-link&quot;&gt;Sign up with WordPress.com&lt;/a&gt;&lt;/p&gt; \\\n\t\t\t\t\t\t&lt;/form&gt; \\\n\t\t\t\t\t&lt;/div&gt; \\\n\t\t\t\t\');\n\n\t\t\t\t$(\'#wpl-mustlogin\').hide().slideDown(\'fast\');\n\t\t\t} );\n\n\t\t\t$(\'#wpl-mustlogin input.input\').live( \'focus\', function() {\n\t\t\t\t$(this).prev().hide();\n\t\t\t}).live( \'blur\', function() {\n\t\t\t\tif ( $(this).val() == \'\' ) {\n\t\t\t\t\t$(this).prev().show();\n\t\t\t\t}\n\t\t\t});\n\n\t\t\t$(\'#wpl-mustlogin input#wp-submit\').live( \'click\', function(e) {\n\t\t\t\te.preventDefault();\n\n\t\t\t\t$.post( \'http://andrewlainton.wordpress.com/wp-admin/admin-ajax.php\', {\n\t\t\t\t\t\'action\': \'wpl_record_stat\',\n\t\t\t\t\t\'stat_name\': \'loggedout_login_submit\'\n\t\t\t\t}, function() {\n\t\t\t\t\t$(\'#wpl-mustlogin form\').submit();\n\t\t\t\t} );\n\t\t\t});\n\n\t\t\t$(\'#wpl-mustlogin a#wpl-signup-link\').live( \'click\', function(e) {\n\t\t\t\te.preventDefault();\n\n\t\t\t\tvar link = $(this).attr(\'href\');\n\n\t\t\t\t$.post( \'http://andrewlainton.wordpress.com/wp-admin/admin-ajax.php\', {\n\t\t\t\t\t\'action\': \'wpl_record_stat\',\n\t\t\t\t\t\'stat_name\': \'loggedout_signup_click\'\n\t\t\t\t}, function() {\n\t\t\t\t\tlocation.href = link;\n\t\t\t\t} );\n\t\t\t});\n\t\t})\n\t})(jQuery);\n\t/* ]]&gt; */\n    </script>\n    <script src="http://s.gravatar.com/js/gprofiles.js?ver=201240ab" type="text/javascript"></script>\n    <script type="text/javascript"> /* &lt;![CDATA[ */ var WPGroHo = {&quot;my_hash&quot;:&quot;&quot;}; /* ]]&gt; */ </script>\n    <script src="http://s1.wp.com/wp-content/mu-plugins/gravatar-hovercards/wpgroho.js?m=1318621548g" type="text/javascript"></script>\n    <script>jQuery(document).ready(function($){ Gravatar.profile_cb = function( h, d ) { WPGroHo.syncProfileData( h, d ); }; Gravatar.my_hash = WPGroHo.my_hash; Gravatar.init( \'body\', \'#wp-admin-bar-my-account\' ); });</script>\n    <div style="display:none">\n      <div class="grofile-hash-map-5144f9cf55bf559e5b12cf7c687c2d57"> </div>\n    </div>\n    <script type="text/javascript">\n      /* &lt;![CDATA[ */\nvar HighlanderComments = {&quot;loggingInText&quot;:&quot;Logging In\\u2026&quot;,&quot;submittingText&quot;:&quot;Posting Comment\\u2026&quot;,&quot;postCommentText&quot;:&quot;Post Comment&quot;,&quot;connectingToText&quot;:&quot;Connecting to %s&quot;,&quot;commentingAsText&quot;:&quot;%1$s: You are commenting using your %2$s account.&quot;,&quot;logoutText&quot;:&quot;Log Out&quot;,&quot;loginText&quot;:&quot;Log In&quot;,&quot;connectURL&quot;:&quot;http:\\/\\/andrewlainton.wordpress.com\\/public.api\\/connect\\/?action=request&quot;,&quot;logoutURL&quot;:&quot;http:\\/\\/andrewlainton.wordpress.com\\/wp-login.php?action=logout&amp;_wpnonce=bc897eac24&quot;,&quot;homeURL&quot;:&quot;http:\\/\\/andrewlainton.wordpress.com\\/&quot;,&quot;postID&quot;:&quot;13245&quot;,&quot;gravDefault&quot;:&quot;identicon&quot;,&quot;enterACommentError&quot;:&quot;Please enter a comment&quot;,&quot;enterEmailError&quot;:&quot;Please enter your email address here&quot;,&quot;invalidEmailError&quot;:&quot;Invalid email address&quot;,&quot;enterAuthorError&quot;:&quot;Please enter your name here&quot;,&quot;gravatarFromEmail&quot;:&quot;This picture will show whenever you leave a comment. Click to customize it.&quot;,&quot;logInToExternalAccount&quot;:&quot;Log in to use details from one of these accounts.&quot;,&quot;change&quot;:&quot;Change&quot;,&quot;changeAccount&quot;:&quot;Change Account&quot;,&quot;comment_registration&quot;:&quot;&quot;,&quot;userIsLoggedIn&quot;:&quot;&quot;,&quot;isJetpack&quot;:&quot;0&quot;};\n/* ]]&gt; */\n    </script>\n    <script src="http://s0.wp.com/wp-content/mu-plugins/highlander-comments/script.js?m=1342824083g" type="text/javascript"></script>\n    <div id="bit" class="loggedout-follow-normal">\n      <a href="javascript:void(0)" class="bsub" shape="rect">\n        <span id="bsub-text">Follow</span>\n      </a>\n      <div id="bitsubscribe">\n        <h3>\n          <label for="loggedout-follow-field">Follow \xe2\x80\x9cDecisions, Decisions, Decisions\xe2\x80\x9d</label>\n        </h3>\n        <form accept-charset="utf-8" action="https://subscribe.wordpress.com" id="loggedout-follow" method="post" enctype="application/x-www-form-urlencoded">\n          <p>Get every new post delivered to your Inbox.</p>\n          <p style="display: none;" id="loggedout-follow-error"></p>\n          <p class="bit-follow-count">Join 985 other followers</p>\n          <p>\n            <input \n            onblur="this.value=(this.value==&quot;&quot;) ? &quot;Enter email address&quot; : this.value;" onfocus="this.value=(this.value==&quot;Enter your email address&quot;) ? &quot;&quot; : this.value;" value="Enter your email address" style="width: 95%; padding: 1px 2px" name="email" id="loggedout-follow-field" type="email">\n</input>\n          </p>\n          <input value="subscribe" name="action" type="hidden"></input>\n          <input value="11834229" name="blog_id" type="hidden"></input>\n          <input value="http://andrewlainton.wordpress.com/2012/05/09/pickles-said-rebranding-was-a-waste-of-money-so-what-does-dclg-do/" name="source" type="hidden"></input>\n          <input value="loggedout-follow" name="sub-type" type="hidden"></input>\n          <input value="9e4f1d104c" name="_wpnonce" id="_wpnonce" type="hidden"></input>\n          <input value="/2012/05/09/pickles-said-rebranding-was-a-waste-of-money-so-what-does-dclg-do/" name="_wp_http_referer" type="hidden"></input>\n          <p id="bsub-subscribe-button">\n            <input value="Sign me up" type="submit"></input>\n          </p>\n        </form>\n        <div id="bsub-credit">\n          <a href="http://wordpress.com/signup/?ref=lof" shape="rect">Powered by WordPress.com</a>\n        </div>\n      </div>\n    </div>\n    <script type="text/javascript"> WPCOM_sharing_counts = {&quot;http:\\/\\/andrewlainton.wordpress.com\\/2012\\/05\\/09\\/pickles-said-rebranding-was-a-waste-of-money-so-what-does-dclg-do\\/&quot;:13245} </script>\n    <script src="http://s0.wp.com/wp-content/mu-plugins/post-flair/sharing/sharing.js?m=1345189394g" type="text/javascript"></script>\n    <script charset="utf-8" type="text/javascript"> jQuery(document).ready(function(){ jQuery( \'.share-twitter\' ).click(function(){ window.open( jQuery(this).attr( \'href\' ), \'wpcomtwitter\', \'menubar=1,resizable=1,width=600,height=350\' ); return false; }); }); </script>\n    <script charset="utf-8" type="text/javascript"> jQuery(document).ready(function(){ jQuery( \'.share-facebook\' ).click(function(){ window.open( jQuery(this).attr( \'href\' ), \'wpcomfacebook\', \'menubar=1,resizable=1,width=600,height=400\' ); return false; }); }); </script>\n    <div style="display: none;" id="sharing_email">\n      <form action="" method="post" enctype="application/x-www-form-urlencoded">\n        <label for="target_email">Send to Email Address</label>\n        <input value="" name="target_email" id="target_email" type="text"></input>\n        <label for="source_name">Your Name</label>\n        <input value="" name="source_name" id="source_name" type="text"></input>\n        <label for="source_email">Your Email Address</label>\n        <input value="" name="source_email" id="source_email" type="text"></input>\n        <div id="sharing_recaptcha" class="recaptcha"></div>\n        <input value="6LcYW8MSAAAAADBAuEH9yaPcF7lWh11Iq62ZKtoo" name="recaptcha_public_key" id="recaptcha_public_key" type="hidden"></input>\n        <img height="16" width="16" alt="loading" src="http://s2.wp.com/wp-content/mu-plugins/post-flair/sharing/images/loading.gif?m=1315610318g" style="float: right; display: none" class="loading"></img>\n        <input value="Send Email" class="sharing_send" type="submit"></input>\n        <a href="#cancel" class="sharing_cancel" shape="rect">Cancel</a>\n        <div style="display: none;" class="errors errors-1"> Post was not sent - check your email addresses! </div>\n        <div style="display: none;" class="errors errors-2"> Email check failed, please try again </div>\n        <div style="display: none;" class="errors errors-3"> Sorry, your blog cannot share posts by email. </div>\n      </form>\n    </div>\n    <script charset="utf-8" type="text/javascript"> jQuery(document).ready(function(){ jQuery( \'.share-linkedin\' ).click(function(){ window.open( jQuery(this).attr( \'href\' ), \'wpcomlinkedin\', \'menubar=1,resizable=1,width=580,height=450\' ); return false; }); }); </script>\n    <script charset="utf-8" type="text/javascript"> function sharing_plusone( obj ) { jQuery.ajax( { url: \'http://andrewlainton.wordpress.com/2012/05/09/pickles-said-rebranding-was-a-waste-of-money-so-what-does-dclg-do/?share=google-plus-1\', type: \'POST\', data: obj } ); } </script>\n    <script src="http://apis.google.com/js/plusone.js" type="text/javascript"></script>\n    <script src="http://platform.twitter.com/widgets.js?ver=20111117" type="text/javascript"></script>\n    <script src="http://b.scorecardresearch.com/beacon.js" type="text/javascript"></script>\n    <script type="text/javascript">try{COMSCORE.beacon({c1:2,c2:7518284});}catch(e){}</script>\n    <noscript>\n      <p class="robots-nocontent">\n        <img height="1" width="1" style="display:none" alt="" src="http://b.scorecardresearch.com/p?cj=1c1=2&amp;c2=7518284"></img>\n      </p>\n    </noscript>\n    <script src="http://s1.wp.com/wp-content/js/devicepx.js?m=1349105731g" type="text/javascript"></script>\n    <script type="text/javascript">\n      // &lt;![CDATA[\n(function() {\ntry{\n  if ( window.external &amp;&amp;\'msIsSiteMode\' in window.external) {\n    if (window.external.msIsSiteMode()) {\n      var jl = document.createElement(\'script\');\n      jl.type=\'text/javascript\';\n      jl.async=true;\n      jl.src=\'/wp-content/plugins/ie-sitemode/custom-jumplist.php\';\n      var s = document.getElementsByTagName(\'script\')[0];\n      s.parentNode.insertBefore(jl, s);\n    }\n  }\n}catch(e){}\n})();\n// ]]&gt;\n    </script>\n    <script type="text/javascript" src="http://s.stats.wordpress.com/w.js?21"></script>\n    <script type="text/javascript">\n      st_go({\'blog\':\'11834229\',\'v\':\'wpcom\',\'user_id\':\'0\',\'post\':\'13245\',\'subd\':\'andrewlainton\'});\nex_go({\'crypt\':\'UE5XaGUuOTlwaD85flAmcm1mcmZsaDhkV11YdWFnNncxc1tjZG9XVXhRVz1bVXJlWWRQcV1nMDRBQ2QzQVc0VTFGbzZzdSwsYTRnNUVUdWxMei9GRlBBK3wuPXF5VXNkd2dUVU5adWdYNkZkY2k1UEVNZ184MG1zTnRpcnkxc3dUeEIuVFIxUDJiYncxS0d0SFhUc2kmWVUxQ1hERz9BMzVKVHprbmEvajR4K2R2XUJ0U2ZPZTdZaS5NdGFmZmpNY1pPUFhDeV9EQ3o1MFU3b0NhP2hmPUN8ZXVOSGFHb2xkdjRvQUVac094UHZRVnBVfFFdKzNjWWtBcFUlOT0rLmVTODR3P1d5SWRsOSsySlowV25oOTFhRDhJSDlPLXNzZk9VXVUzUnolbTRZcEVtZklZSlZMZW1yJU0m\'});\naddLoadEvent(function(){linktracker_init(\'11834229\',13245);});\n    </script>\n    <noscript>\n      <img alt="" style="height:0px;width:0px;overflow:hidden" src="http://stats.wordpress.com/b.gif?v=noscript"></img>\n    </noscript>\n  </body>\n</html>'
p11
sbsS'mentions'
p12
(lp13
(iedu.umass.cs.iesl.wikilink.expanded.data.ttypes
Mention
p14
(dp15
S'anchor_text'
p16
S'Imperial Purple'
p17
sS'context'
p18
(iedu.umass.cs.iesl.wikilink.expanded.data.ttypes
Context
p19
(dp20
S'middle'
p21
S'Imperial Purple'
p22
sS'right'
p23
S', as it was the colour of the incredibly expensive sashes word by roman\xc3\x82\xc2\xa0emperors reproduced\xc3\x82\xc2\xa0at great expense from the\xc3\x82\xc2\xa0gastropod\xc3\x82\xc2\xa0 Bolinus brandaris \xc3\x82\xc2\xa0the process hto make'
p24
sS'left'
p25
S'it\xc3\x82\xc2\xa0costs. \xc3\x82\xc2\xa0Actually it is rather good, and certainly Adobe Creative Suite inspired. \xc3\x82\xc2\xa0Out with Pantone 3282, and in with Pantone 287, a colour\xc3\x82\xc2\xa0very similar to'
p26
sbsS'freebase_id'
p27
S'9202a8c04000641f800000000011acb9'
p28
sS'raw_text_offset'
p29
I14952
sS'wiki_url'
p30
S'http://en.wikipedia.org/wiki/Tyrian_purple'
p31
sba(iedu.umass.cs.iesl.wikilink.expanded.data.ttypes
Mention
p32
(dp33
g16
S'Bolinus brandaris'
p34
sg18
(iedu.umass.cs.iesl.wikilink.expanded.data.ttypes
Context
p35
(dp36
g21
S'Bolinus brandaris'
p37
sg23
S'\xc3\x82\xc2\xa0the process hto make it having been recently rediscovere d\xc3\x82\xc2\xa0as it was lost after the second crusades sack of Byzantium. \xc3\x82\xc2\xa0\xe2\x80\x9dtwelve thousand snails of\xc3\x82\xc2\xa0yield no'
p38
sg25
S'a colour\xc3\x82\xc2\xa0very similar to Imperial Purple , as it was the colour of the incredibly expensive sashes word by roman\xc3\x82\xc2\xa0emperors reproduced\xc3\x82\xc2\xa0at great expense from the\xc3\x82\xc2\xa0gastropod\xc3\x82\xc2\xa0'
p39
sbsg27
S'9202a8c04000641f800000000467e33d'
p40
sg29
I15190
sg30
S'http://en.wikipedia.org/wiki/Bolinus_brandaris'
p41
sbasS'doc_id'
p42
I24964
sS'rare_words'
p43
(lp44
(iedu.umass.cs.iesl.wikilink.expanded.data.ttypes
RareWord
p45
(dp46
S'word'
p47
S'snails'
p48
sS'offset'
p49
I15443
sba(iedu.umass.cs.iesl.wikilink.expanded.data.ttypes
RareWord
p50
(dp51
g47
S'new'
p52
sg49
I14648
sba(iedu.umass.cs.iesl.wikilink.expanded.data.ttypes
RareWord
p53
(dp54
g47
S'sashes'
p55
sg49
I15022
sba(iedu.umass.cs.iesl.wikilink.expanded.data.ttypes
RareWord
p56
(dp57
g47
S'twelve'
p58
sg49
I15427
sba(iedu.umass.cs.iesl.wikilink.expanded.data.ttypes
RareWord
p59
(dp60
g47
S'Suite'
p61
sg49
I14791
sba(iedu.umass.cs.iesl.wikilink.expanded.data.ttypes
RareWord
p62
(dp63
g47
S'done'
p64
sg49
I16157
sba(iedu.umass.cs.iesl.wikilink.expanded.data.ttypes
RareWord
p65
(dp66
g47
S'bought'
p67
sg49
I15855
sba(iedu.umass.cs.iesl.wikilink.expanded.data.ttypes
RareWord
p68
(dp69
g47
S'Decision'
p70
sg49
I37524
sba(iedu.umass.cs.iesl.wikilink.expanded.data.ttypes
RareWord
p71
(dp72
g47
S'pure'
p73
sg49
I15482
sba(iedu.umass.cs.iesl.wikilink.expanded.data.ttypes
RareWord
p74
(dp75
g47
S'departmentally'
p76
sg49
I16166
sbasb.