(iedu.umass.cs.iesl.wikilink.expanded.data.ttypes
WikiLinkItem
p0
(dp1
S'url'
p2
S'http://adventuresofabeautyqueen.com/2012/04/09/annalie-forbes-an-abq-top-12-pick-in-bb-pilipinas-2012/'
p3
sS'content'
p4
(iedu.umass.cs.iesl.wikilink.expanded.data.ttypes
PageContentItem
p5
(dp6
S'articleText'
p7
NsS'raw'
p8
NsS'fullText'
p9
NsS'dom'
p10
S'<html lang="en" dir="ltr">\n  <head profile="http://gmpg.org/xfn/11">\n    <meta content="text/html; charset=UTF-8" http-equiv="Content-Type"></meta>\n    <title>Annalie Forbes: An ABQ Top 12 Pick in Bb. Pilipinas 2012! \xc2\xab Adventures of a Beauty Queen</title>\n    <link media="screen" type="text/css" href="http://s0.wp.com/wp-content/themes/pub/mistylook/style.css?m=1340298656g" rel="stylesheet"></link>\n    <link href="http://adventuresofabeautyqueen.com/xmlrpc.php" rel="pingback"></link>\n    <script type="text/javascript" src="http://r-login.wordpress.com/remote-login.php?action=js&amp;host=adventuresofabeautyqueen.com&amp;id=6272032&amp;t=1349215140&amp;back=adventuresofabeautyqueen.com%2F2012%2F04%2F09%2Fannalie-forbes-an-abq-top-12-pick-in-bb-pilipinas-2012%2F"></script>\n    <script type="text/javascript"> /* &lt;![CDATA[ */ if ( \'function\' === typeof WPRemoteLogin ) { document.cookie = &quot;wordpress_test_cookie=test; path=/&quot;; if ( document.cookie.match( /(;|^)\\s*wordpress_test_cookie\\=/ ) ) { WPRemoteLogin(); } } /* ]]&gt; */ </script>\n    <link href="http://adventuresofabeautyqueen.com/feed/" title="Adventures of a Beauty Queen \xc2\xbb Feed" type="application/rss+xml" rel="alternate"></link>\n    <link href="http://adventuresofabeautyqueen.com/comments/feed/" title="Adventures of a Beauty Queen \xc2\xbb Comments Feed" type="application/rss+xml" rel="alternate"></link>\n    <link href="http://adventuresofabeautyqueen.com/2012/04/09/annalie-forbes-an-abq-top-12-pick-in-bb-pilipinas-2012/feed/" title="Adventures of a Beauty Queen \xc2\xbb Annalie Forbes: An ABQ Top 12 Pick in Bb. Pilipinas\xc2\xa02012! Comments Feed" type="application/rss+xml" rel="alternate"></link>\n    <script type="text/javascript"> /* &lt;![CDATA[ */ function addLoadEvent(func){var oldonload=window.onload;if(typeof window.onload!=\'function\'){window.onload=func;}else{window.onload=function(){oldonload();func();}}} /* ]]&gt; */ </script>\n    <link \n    media="all" type="text/css" href="http://s1.wp.com/_static/??/wp-content/blog-plugins/loggedout-follow/widget.css,/wp-content/blog-plugins/wordads/global.css,/wp-content/blog-plugins/wordads/mistylook-v2.css,/wp-content/mu-plugins/infinity/themes/pub/mistylook.css,/wp-content/mu-plugins/post-flair/style.css,/wp-content/mu-plugins/post-flair/sharing/sharing.css,/wp-content/themes/h4/global.css,/wp-content/mu-plugins/widgets/css/widget-grid-and-list.css?m=1349103886j" rel="stylesheet" id="all-css-0">\n</link>\n    <link media="print" type="text/css" href="http://s0.wp.com/wp-content/mu-plugins/global-print/global-print.css?m=1335386953g" rel="stylesheet" id="print-css-0"></link>\n    <script type="text/javascript"> /* &lt;![CDATA[ */ var LoggedOutFollow = {&quot;invalid_email&quot;:&quot;Your subscription did not succeed, please try again with a valid email address.&quot;}; /* ]]&gt; */ </script>\n    <script src="http://s0.wp.com/_static/??/wp-includes/js/jquery/jquery.js,/wp-content/blog-plugins/loggedout-follow/widget.js,/wp-includes/js/comment-reply.js,/wp-content/mu-plugins/widgets/js/widget-bump-view.js?m=1342269540j" type="text/javascript"></script>\n    <link media="all" type="text/css" href="http://s1.wp.com/wp-content/mu-plugins/highlander-comments/style.css?m=1343991657g" rel="stylesheet" id="all-css-0"></link>\n    <link href="http://adventuresofabeautyqueen.wordpress.com/xmlrpc.php?rsd" title="RSD" type="application/rsd+xml" rel="EditURI"></link>\n    <link href="http://adventuresofabeautyqueen.wordpress.com/wp-includes/wlwmanifest.xml" type="application/wlwmanifest+xml" rel="wlwmanifest"></link>\n    <link href="http://adventuresofabeautyqueen.com/2012/04/08/angelee-claudett-delos-reyes-an-abp-top-12-pick-in-bb-pilipinas-2012/" title="Angelee Claudett delos Reyes: An ABP Top 12 Pick in Bb. Pilipinas\xc2\xa02012!" rel="prev"></link>\n    <link href="http://adventuresofabeautyqueen.com/2012/04/09/sherlyn-gonzales-an-abq-top-12-pick-in-bb-pilipinas-2012/" title="Sherlyn Gonzales: An ABQ Top 12 Pick in Bb. Pilipinas\xc2\xa02012!" rel="next"></link>\n    <meta content="WordPress.com" name="generator"></meta>\n    <link href="http://adventuresofabeautyqueen.com/2012/04/09/annalie-forbes-an-abq-top-12-pick-in-bb-pilipinas-2012/" rel="canonical"></link>\n    <link href="http://wp.me/pqjDO-2vi" rel="shortlink"></link>\n    <link href="http://public-api.wordpress.com/oembed/1.0/?format=json&amp;url=http%3A%2F%2Fadventuresofabeautyqueen.com%2F2012%2F04%2F09%2Fannalie-forbes-an-abq-top-12-pick-in-bb-pilipinas-2012%2F&amp;for=wpcom-auto-discovery" type="application/json+oembed" rel="alternate"></link>\n    <link href="http://public-api.wordpress.com/oembed/1.0/?format=xml&amp;url=http%3A%2F%2Fadventuresofabeautyqueen.com%2F2012%2F04%2F09%2Fannalie-forbes-an-abq-top-12-pick-in-bb-pilipinas-2012%2F&amp;for=wpcom-auto-discovery" type="application/xml+oembed" rel="alternate"></link>\n    <meta content="article" property="og:type"></meta>\n    <meta content="Annalie Forbes: An ABQ Top 12 Pick in Bb. Pilipinas\xc2\xa02012!" property="og:title"></meta>\n    <meta content="http://adventuresofabeautyqueen.com/2012/04/09/annalie-forbes-an-abq-top-12-pick-in-bb-pilipinas-2012/" property="og:url"></meta>\n    <meta content="Bb. #29 Annalie Forbes \xe2\x80\x93 Very pretty face, I think. Pert is the word, actually. Annalie Forbes has found much success in her career as a lounge singer and has been singing in the bars of diff..." property="og:description"></meta>\n    <meta content="Adventures of a Beauty Queen" property="og:site_name"></meta>\n    <meta content="http://adventuresofabeautyqueen.files.wordpress.com/2012/04/annalie-forbes.jpg?h=200" property="og:image"></meta>\n    <meta content="http://adventuresofabeautyqueen.files.wordpress.com/2012/04/523843_412637655419503_403814802968455_1811882_1726138554_n-001.jpg?h=200" property="og:image"></meta>\n    <meta content="http://adventuresofabeautyqueen.files.wordpress.com/2012/04/432044_291407717580708_187008778020603_764059_1685557525_n.jpg?h=200" property="og:image"></meta>\n    <meta content="http://adventuresofabeautyqueen.files.wordpress.com/2012/04/elisa-vs-ali.jpg?w=200" property="og:image"></meta>\n    <meta content="http://adventuresofabeautyqueen.files.wordpress.com/2012/04/annalie-forbes.jpg" name="twitter:image"></meta>\n    <meta content="summary" name="twitter:card"></meta>\n    <meta content="17896374" name="twitter:creator:id"></meta>\n    <link sizes="16x16 24x24 32x32 48x48" href="http://s2.wp.com/i/favicon.ico?m=1317409737g" type="image/x-icon" rel="shortcut icon"></link>\n    <link sizes="16x16 24x24 32x32 48x48" href="http://s2.wp.com/i/favicon.ico?m=1317409737g" type="image/x-icon" rel="icon"></link>\n    <link href="http://s0.wp.com/i/webclip.png?m=1311618091g" rel="apple-touch-icon-precomposed"></link>\n    <link href="http://adventuresofabeautyqueen.wordpress.com/?openidserver=1" rel="openid.server"></link>\n    <link href="http://adventuresofabeautyqueen.wordpress.com/" rel="openid.delegate"></link>\n    <link title="Adventures of a Beauty Queen" href="http://adventuresofabeautyqueen.com/osd.xml" type="application/opensearchdescription+xml" rel="search"></link>\n    <link title="WordPress.com" href="http://wordpress.com/opensearch.xml" type="application/opensearchdescription+xml" rel="search"></link>\n    <style>\n      /* &lt;![CDATA[ */\n\t\t/* Block: reblog */\n\t\t\n\t\t.reblog-from img                   { margin: 0 10px 0 0; vertical-align: middle; padding: 0; border: 0; }\n\t\t.reblogger-note img.avatar         { float: left; padding: 0; border: 0; }\n\t\t.reblogger-note-content            { margin: 0 0 20px; }\n\t\t.reblog-post .wpcom-enhanced-excerpt-content { border-left: 3px solid #eee; padding-left: 15px; }\n\t\t.reblog-post ul.thumb-list         { display: block; list-style: none; margin: 2px 0; padding: 0; clear: both; }\n\t\t.reblog-post ul.thumb-list li      { display: inline; margin: 0; padding: 0 1px; border: 0; }\n\t\t.reblog-post ul.thumb-list li a    { margin: 0; padding: 0; border: 0; }\n\t\t.reblog-post ul.thumb-list li img  { margin: 0; padding: 0; border: 0; }\n\t\t\n\t\t.reblog-post .wpcom-enhanced-excerpt { clear: both; }\n\t\t\n\t\t.reblog-post .wpcom-enhanced-excerpt address,\n\t\t.reblog-post .wpcom-enhanced-excerpt li,\n\t\t.reblog-post .wpcom-enhanced-excerpt h1,\n\t\t.reblog-post .wpcom-enhanced-excerpt h2,\n\t\t.reblog-post .wpcom-enhanced-excerpt h3,\n\t\t.reblog-post .wpcom-enhanced-excerpt h4,\n\t\t.reblog-post .wpcom-enhanced-excerpt h5,\n\t\t.reblog-post .wpcom-enhanced-excerpt h6,\n\t\t.reblog-post .wpcom-enhanced-excerpt p { font-size: 100% !important; }\n\t\t\n\t\t.reblog-post .wpcom-enhanced-excerpt blockquote,\n\t\t.reblog-post .wpcom-enhanced-excerpt pre,\n\t\t.reblog-post .wpcom-enhanced-excerpt code,\n\t\t.reblog-post .wpcom-enhanced-excerpt q { font-size: 98% !important; }\n\t\t\n\n\t\t/* ]]&gt; */\n    </style>\n    <style type="text/css">.recentcomments a{display:inline !important;padding: 0 !important;margin: 0 !important;}</style>\n    <meta content="Adventures of a Beauty Queen" name="application-name"></meta>\n    <meta content="width=device-width;height=device-height" name="msapplication-window"></meta>\n    <meta content="Beauty Queen Joyce Burton-Titular Brings You The Inside Scoop" name="msapplication-tooltip"></meta>\n    <meta content="name=Subscribe;action-uri=http://adventuresofabeautyqueen.com/feed/;icon-uri=http://s2.wp.com/i/favicon.ico" name="msapplication-task"></meta>\n    <meta content="name=Sign up for a free blog;action-uri=http://wordpress.com/signup/;icon-uri=http://s2.wp.com/i/favicon.ico" name="msapplication-task"></meta>\n    <meta content="name=WordPress.com Support;action-uri=http://support.wordpress.com/;icon-uri=http://s2.wp.com/i/favicon.ico" name="msapplication-task"></meta>\n    <meta content="name=WordPress.com Forums;action-uri=http://forums.wordpress.com/;icon-uri=http://s2.wp.com/i/favicon.ico" name="msapplication-task"></meta>\n    <meta content="Annalie Forbes: An ABQ Top 12 Pick in Bb. Pilipinas\xc2\xa02012! | Adventures of a Beauty Queen on WordPress.com" name="title"></meta>\n    <meta \n    content="Bb. #29 Annalie Forbes \xe2\x80\x93 Very pretty face, I think. Pert is the word, actually. Annalie Forbes has found much success in her career as a lounge singer and has been singing in the bars of different 5-star hotels in Metro Manila the past couple of years. While her last name sounds ritzy, she comes\xe2\x80\xa6" name="description">\n</meta>\n    <style type="text/css">\n      table.recentcommentsavatar img.avatar {border: 0px; margin:0;}\ntable.recentcommentsavatar a {border: 0px !important;background-color: transparent !important}\ntd.recentcommentsavatartop {padding:0px 0px 1px 0px;margin:0px; }\ntd.recentcommentsavatarend {padding:0px 0px 1px 0px;margin:0px; }\ntd.recentcommentstexttop { border: none !important;padding:0px 0px 0px 10px;}\ntd.recentcommentstextend { border: none !important;padding:0px 0px 2px 10px;}\n    </style>\n    <style type="text/css"> #header h1 a, #header h2 { color: #265E15 !important; } #headerimage { background: url(\'http://adventuresofabeautyqueen.files.wordpress.com/2009/05/cropped-saving11.jpg\') no-repeat; height: 200px; } </style>\n    <script type="text/javascript"> var fmwp = { cat: \'lifestyle-hobby\', bid: 6272032, pt: \'permalink\', theme: \'mistylook\', colorscheme: \'light\', url: escape(\'http://adventuresofabeautyqueen.com/2012/04/09/annalie-forbes-an-abq-top-12-pick-in-bb-pilipinas-2012/\') }; </script>\n    <script type="text/javascript"> (function() { var useSSL = \'https:\' == document.location.protocol; var src = (useSSL ? \'https:\' : \'http:\') + \'//www.googletagservices.com/tag/js/gpt.js\'; document.write(\'&lt;scr\' + \'ipt src=&quot;\' + src + \'&quot;&gt;&lt;/scr\'+\'ipt&gt;\'); })(); </script>\n    <script type="text/javascript">\n      if ( typeof googletag != \'undefined\' ) {\n  googletag.cmd.push(function() {\ngoogletag.pubads().setTargeting(&quot;BlogId&quot;, &quot;6272032&quot;);\ngoogletag.pubads().setTargeting(&quot;WordAds&quot;, &quot;1&quot;);\ngoogletag.pubads().setTargeting(&quot;Domain&quot;, &quot;adventuresofabeautyqueen.com&quot;);\ngoogletag.pubads().setTargeting(&quot;AdSafe&quot;, &quot;1&quot;);\ngoogletag.pubads().setTargeting(&quot;WordAds-FM&quot;, &quot;1&quot;);\ngoogletag.pubads().setTargeting(&quot;DarkClass&quot;, &quot;&quot;);\ngoogletag.pubads().setTargeting(&quot;MarkupVer&quot;, &quot;2&quot;);\ngoogletag.pubads().setTargeting(&quot;Autotag&quot;, &quot;technology&quot;);\ngoogletag.pubads().setTargeting(&quot;Autotag&quot;, &quot;music&quot;);\ngoogletag.pubads().setTargeting(&quot;Tag&quot;, &quot;ali-forbes&quot;);\ngoogletag.pubads().setTargeting(&quot;Tag&quot;, &quot;annalie-forbes&quot;);\ngoogletag.pubads().setTargeting(&quot;Tag&quot;, &quot;bb-pilipinas-2012&quot;);\ngoogletag.pubads().setTargeting(&quot;Tag&quot;, &quot;elisa-najera&quot;);\n\n  });\n\t}\n    </script>\n    <script type="text/javascript">\n      if ( typeof googletag != \'undefined\' ) {\ngoogletag.cmd.push(function() {\ngoogletag.defineSlot(\'/9240792/Wordads_Leaderboard\', [728, 90], \'div-gpt-ad-1330047761659-0\').addService(googletag.pubads());\ngoogletag.defineSlot(\'/9240792/Wordads_Widesky\', [160, 600], \'div-gpt-ad-1330047832528-0\').addService(googletag.pubads());\ngoogletag.defineSlot(\'/9240792/Wordads_ContentWell\', [468, 60], \'div-gpt-ad-1330229685952-0\').addService(googletag.pubads());\n\ngoogletag.pubads().enableSingleRequest();\ngoogletag.pubads().enableSyncRendering();\ngoogletag.enableServices();\n});\n}\n    </script>\n    <script type="text/javascript"> window.google_analytics_uacct = &quot;UA-52447-2&quot;; </script>\n    <script type="text/javascript">\n      var _gaq = _gaq || [];\n\t_gaq.push([\'_setAccount\', \'UA-52447-2\']);\n\t_gaq.push([\'_setDomainName\', \'none\']);\n\t_gaq.push([\'_setAllowLinker\', true]);\n\t_gaq.push([\'_initData\']);\n\t_gaq.push([\'_trackPageview\']);\n\n\t(function() {\n\t\tvar ga = document.createElement(\'script\'); ga.type = \'text/javascript\'; ga.async = true;\n\t\tga.src = (\'https:\' == document.location.protocol ? \'https://ssl\' : \'http://www\') + \'.google-analytics.com/ga.js\';\n\t\t(document.getElementsByTagName(\'head\')[0] || document.getElementsByTagName(\'body\')[0]).appendChild(ga);\n\t})();\n    </script>\n  </head>\n  <body id="section-index" class="single single-post postid-9628 single-format-standard highlander-enabled highlander-light">\n    <div id="navigation" class="clearfix">\n      <div class="menu">\n        <ul>\n          <li>\n            <a title="Home" href="http://adventuresofabeautyqueen.com/" shape="rect">Home</a>\n          </li>\n          <li class="page_item page-item-2391">\n            <a href="http://adventuresofabeautyqueen.com/beauty-pageants-with-a-purpose/" shape="rect">Beauty Pageants with a\xc2\xa0PURPOSE!</a>\n          </li>\n          <li class="page_item page-item-936">\n            <a href="http://adventuresofabeautyqueen.com/beauty-queen-articles/" shape="rect">Beauty Queen\xc2\xa0Articles</a>\n          </li>\n          <li class="page_item page-item-1360">\n            <a href="http://adventuresofabeautyqueen.com/bizarre-beauty-queen-stories/" shape="rect">Bizarre Beauty Queen\xc2\xa0Stories</a>\n          </li>\n          <li class="page_item page-item-4589">\n            <a href="http://adventuresofabeautyqueen.com/guide-to-ms-universe-2010-contestants/" shape="rect">Guide to MS UNIVERSE 2010\xc2\xa0Contestants</a>\n          </li>\n          <li class="page_item page-item-2382">\n            <a href="http://adventuresofabeautyqueen.com/guidelines-policies-on-comments/" shape="rect">GUIDELINES and POLICIES ON\xc2\xa0COMMENTS</a>\n          </li>\n          <li class="page_item page-item-1040">\n            <a href="http://adventuresofabeautyqueen.com/voicing-queen/" shape="rect">Voicing\xc2\xa0Queen</a>\n          </li>\n          <li class="page_item page-item-2">\n            <a href="http://adventuresofabeautyqueen.com/about/" shape="rect">Who Am\xc2\xa0I?</a>\n          </li>\n          <li class="search">\n            <form action="http://adventuresofabeautyqueen.com" id="searchform" method="get" enctype="application/x-www-form-urlencoded">\n              <input name="s" value="" id="s" class="textbox" type="text"></input>\n              <input value="Search" id="searchsubmit" type="submit"></input>\n            </form>\n          </li>\n        </ul>\n      </div>\n    </div>\n    <div id="container">\n      <div class="wpadvert">\n        <div id="div-gpt-ad-1330047761659-0">\n          <script type="text/javascript"> if ( typeof googletag != \'undefined\' ) { googletag.cmd.push(function() { googletag.display(\'div-gpt-ad-1330047761659-0\'); }); } </script>\n        </div>\n      </div>\n      <div id="header">\n        <h1>\n          <a title="Adventures of a Beauty Queen" href="http://adventuresofabeautyqueen.com/" shape="rect">Adventures of a Beauty Queen</a>\n        </h1>\n        <h2>Beauty Queen Joyce Burton-Titular Brings You The Inside Scoop</h2>\n      </div>\n      <div id="feedarea">\n        <dl>\n          <dt>\n            <strong>Feeds:</strong>\n          </dt>\n          <dd>\n            <a href="http://adventuresofabeautyqueen.com/feed/" shape="rect">Posts</a>\n          </dd>\n          <dd>\n            <a href="http://adventuresofabeautyqueen.com/comments/feed/" shape="rect">Comments</a>\n          </dd>\n        </dl>\n      </div>\n      <div id="headerimage"> </div>\n      <div id="content">\n        <div id="content-main">\n          <div class="postnav">\n            <div class="alignleft">\n              \xc2\xab\n              <a rel="prev" href="http://adventuresofabeautyqueen.com/2012/04/08/angelee-claudett-delos-reyes-an-abp-top-12-pick-in-bb-pilipinas-2012/" shape="rect">Angelee Claudett delos Reyes: An ABP Top 12 Pick in Bb. Pilipinas\xc2\xa02012!</a>\n            </div>\n            <div class="alignright">\n              <a rel="next" href="http://adventuresofabeautyqueen.com/2012/04/09/sherlyn-gonzales-an-abq-top-12-pick-in-bb-pilipinas-2012/" shape="rect">Sherlyn Gonzales: An ABQ Top 12 Pick in Bb. Pilipinas\xc2\xa02012!</a>\n              \xc2\xbb\n            </div>\n          </div>\n          <div id="post-9628" class="post-9628 post type-post status-publish format-standard hentry category-uncategorized tag-ali-forbes tag-annalie-forbes tag-bb-pilipinas-2012 tag-elisa-najera">\n            <div class="posttitle">\n              <h2>Annalie Forbes: An ABQ Top 12 Pick in Bb. Pilipinas\xc2\xa02012!</h2>\n              <p class="post-info">\n                April 9, 2012 by\n                <a title="Posts by adventuresofabeautyqueen" href="http://adventuresofabeautyqueen.com/author/adventuresofabeautyqueen/" shape="rect">adventuresofabeautyqueen</a>\n              </p>\n            </div>\n            <div class="entry">\n              <div id="pd_rating_holder_163774_post_9628" class="pd-rating"></div>\n              <br clear="none"></br>\n              <p style="text-align:left;"> </p>\n              <div style="width: 224px" id="attachment_9635" class="wp-caption alignright">\n                <a href="http://adventuresofabeautyqueen.files.wordpress.com/2012/04/annalie-forbes.jpg" shape="rect">\n                  <img height="300" width="214" alt="" src="http://adventuresofabeautyqueen.files.wordpress.com/2012/04/annalie-forbes.jpg?w=214&amp;h=300" title="Annalie Forbes" class="size-medium wp-image-9635"></img>\n                </a>\n                <p class="wp-caption-text">Annalie Forbes</p>\n              </div>\n              <p style="text-align:left;">\n                <span style="text-decoration:underline;">\n                  <strong>Bb. #29 Annalie Forbes</strong>\n                </span>\n                \xe2\x80\x93 Very pretty face, I think. Pert is the word, actually.\n              </p>\n              <p style="text-align:left;">\n                Annalie Forbes has found much success in her career as a lounge singer and has been singing in the bars of different 5-star hotels in Metro Manila the past couple of years. While her last name sounds ritzy, she comes from very humble beginnings. Her Father is a Cabbie and their combined earnings go to the needs of their family. But even if Annalie Forbes started her singing career at age 17, she hasn\xe2\x80\x99t forgotten the importance of getting an education. Now, at age 19, she\xe2\x80\x99s studying Information Technology at STI Cubao as a Freshman.\n              </p>\n              <p style="text-align:left;">\n                <a href="http://adventuresofabeautyqueen.com/2012/03/31/my-top-twelve-in-2012-abqs-picks-in-bb-pilipinas-2012-are/" shape="rect">\n                  <em>Click here to see the rest of ABQ\xe2\x80\x99s Top 12 for Bb. Pilipinas 2012!</em>\n                </a>\n              </p>\n              <p style="text-align:left;">A formidable opponent, Annalie Forbes has several beauty pageant titles lining her CV \xe2\x80\x93 Bb. Bulacan 2011, Miss Sophie Philippines 2011, First Runner-up Miss Makati 2011 and Bb. STI Colleges Cubao 2012.</p>\n              <p style="text-align:left;">\n                Oh, I almost forgot to mention, her legs are AMAZING! During the Bb. Pilipinas 2012 Talent Show, Annalie Forbes gave us a dose of her singing and a good look at her lower limbs which are worthy of mentioning.\n                <a href="http://adventuresofabeautyqueen.com/2012/02/25/abqs-hot-pick-for-bb-pilipinas-miss-talent-2012-katrina-jayne-dimaranan/" shape="rect">Click here and scroll down to see what I mean\xe2\x80\xa6</a>\n              </p>\n              <p style="text-align:left;">\n                Now it\xe2\x80\x99s Look Alike time and it looks like many pageant fans are calling Annalie Forbes the\n                <a href="http://en.wikipedia.org/wiki/Elisa_N%C3%A1jera" shape="rect">Elisa Najera</a>\n                of the Philippines. (Elisa was 4th Runner-up in Miss Universe 2008 when Dayana Mendoza won.)\xc3\x82\xc2\xa0 Hmmm\xe2\x80\xa6 do you think they look alike?\n              </p>\n              <div style="width: 490px" id="attachment_9632" class="wp-caption aligncenter">\n                <a href="http://adventuresofabeautyqueen.files.wordpress.com/2012/04/elisa-vs-ali.jpg" shape="rect">\n                  <img alt="" src="http://adventuresofabeautyqueen.files.wordpress.com/2012/04/elisa-vs-ali.jpg?w=500" title="Elisa vs Ali" class="size-full wp-image-9632"></img>\n                </a>\n                <p class="wp-caption-text">Elisa vs Ali</p>\n              </div>\n              <div style="width: 338px" id="attachment_9440" class="wp-caption aligncenter">\n                <a href="http://adventuresofabeautyqueen.files.wordpress.com/2012/03/29-annalie-forbes-55-5-021.jpg" shape="rect">\n                  <img alt="" src="http://adventuresofabeautyqueen.files.wordpress.com/2012/03/29-annalie-forbes-55-5-021.jpg?w=500" title="#29 Annalie Forbes - 5\'5.5 -021" class="size-full wp-image-9440"></img>\n                </a>\n                <p class="wp-caption-text">#29 Annalie Forbes - 5\'5.5&quot; - 19 years old - She\'s got a million-dollar smile!</p>\n              </div>\n              <p style="text-align:center;">\n                Whoah! This lovely photo above of\n                <a href="http://www.missosology.org/main/index.php/home/regional-philippines/895-photos-bbp-12-contestants-during-press-presentation-p2-of-2.html" shape="rect">Annalie Forbes was found on this Missosology page</a>\n                !\n              </p>\n              <div style="width: 510px" id="attachment_9633" class="wp-caption aligncenter">\n                <a href="http://adventuresofabeautyqueen.files.wordpress.com/2012/04/432044_291407717580708_187008778020603_764059_1685557525_n.jpg" shape="rect">\n                  <img height="615" width="500" alt="" src="http://adventuresofabeautyqueen.files.wordpress.com/2012/04/432044_291407717580708_187008778020603_764059_1685557525_n.jpg?w=500&amp;h=615" title="432044_291407717580708_187008778020603_764059_1685557525_n" class="size-full wp-image-9633"></img>\n                </a>\n                <p class="wp-caption-text">Ali Forbes, beautiful and dumure in this black number...</p>\n              </div>\n              <div style="width: 426px" id="attachment_9634" class="wp-caption aligncenter">\n                <a href="http://adventuresofabeautyqueen.files.wordpress.com/2012/04/523843_412637655419503_403814802968455_1811882_1726138554_n-001.jpg" shape="rect">\n                  <img alt="" src="http://adventuresofabeautyqueen.files.wordpress.com/2012/04/523843_412637655419503_403814802968455_1811882_1726138554_n-001.jpg?w=500" title="523843_412637655419503_403814802968455_1811882_1726138554_n-001" class="size-full wp-image-9634"></img>\n                </a>\n                <p class="wp-caption-text">Ali Forbes at the Parade of Beauties</p>\n              </div>\n              <p style="text-align:center;"> </p>\n              <p style="text-align:center;"> </p>\n              <p style="text-align:center;"> </p>\n              <div class="wpadvert">\n                <div id="div-gpt-ad-1330229685952-0">\n                  <script type="text/javascript"> if ( typeof googletag != \'undefined\' ) { googletag.cmd.push(function() { googletag.display(\'div-gpt-ad-1330229685952-0\'); }); } </script>\n                </div>\n              </div>\n              <div id="jp-post-flair" class="sharedaddy sd-rating-enabled sd-like-enabled sd-sharing-enabled">\n                <div class="sharedaddy sd-sharing-enabled">\n                  <div class="robots-nocontent sd-block sd-social sd-social-icon-text sd-sharing">\n                    <h3 class="sd-title">Share this:</h3>\n                    <div class="sd-content">\n                      <ul>\n                        <li class="share-email">\n                          <a title="Click to email this to a friend" href="http://adventuresofabeautyqueen.com/2012/04/09/annalie-forbes-an-abq-top-12-pick-in-bb-pilipinas-2012/?share=email" rel="nofollow" class="share-email sd-button share-icon" shape="rect">\n                            <span>Email</span>\n                          </a>\n                        </li>\n                        <li class="share-digg">\n                          <a title="Click to Digg this post" href="http://adventuresofabeautyqueen.com/2012/04/09/annalie-forbes-an-abq-top-12-pick-in-bb-pilipinas-2012/?share=digg" rel="nofollow" class="share-digg sd-button share-icon" shape="rect">\n                            <span>Digg</span>\n                          </a>\n                        </li>\n                        <li class="share-facebook">\n                          <a title="Share on Facebook" href="http://adventuresofabeautyqueen.com/2012/04/09/annalie-forbes-an-abq-top-12-pick-in-bb-pilipinas-2012/?share=facebook" rel="nofollow" id="sharing-facebook-9628" class="share-facebook sd-button share-icon" shape="rect">\n                            <span>Facebook</span>\n                          </a>\n                        </li>\n                        <li class="share-reddit">\n                          <a title="Click to share on Reddit" href="http://adventuresofabeautyqueen.com/2012/04/09/annalie-forbes-an-abq-top-12-pick-in-bb-pilipinas-2012/?share=reddit" rel="nofollow" class="share-reddit sd-button share-icon" shape="rect">\n                            <span>Reddit</span>\n                          </a>\n                        </li>\n                        <li class="share-end"></li>\n                      </ul>\n                      <div class="sharing-clear"></div>\n                    </div>\n                  </div>\n                </div>\n                <div class="wpl-likebox sd-block sd-like">\n                  <h3 class="sd-title">Like this:</h3>\n                  <div class="sd-content">\n                    <div id="like-9628" class="wpl-button">\n                      <a rel="nofollow" title="I like this." href="http://adventuresofabeautyqueen.com/2012/04/09/annalie-forbes-an-abq-top-12-pick-in-bb-pilipinas-2012/?like=1&amp;_wpnonce=d5d394453a" class="like needs-login sd-button" shape="rect">\n                        <span>Like</span>\n                      </a>\n                    </div>\n                    <div class="wpl-count sd-like-count">Be the first to like this.</div>\n                  </div>\n                </div>\n              </div>\n            </div>\n            <p class="postmetadata">\n              Posted in\n              <a rel="category tag" title="View all posts in Uncategorized" href="http://adventuresofabeautyqueen.com/category/uncategorized/" shape="rect">Uncategorized</a>\n              | Tagged\n              <a rel="tag" href="http://adventuresofabeautyqueen.com/tag/ali-forbes/" shape="rect">Ali Forbes</a>\n              ,\n              <a rel="tag" href="http://adventuresofabeautyqueen.com/tag/annalie-forbes/" shape="rect">Annalie Forbes</a>\n              ,\n              <a rel="tag" href="http://adventuresofabeautyqueen.com/tag/bb-pilipinas-2012/" shape="rect">Bb Pilipinas 2012</a>\n              ,\n              <a rel="tag" href="http://adventuresofabeautyqueen.com/tag/elisa-najera/" shape="rect">Elisa Najera</a>\n              | \t\t\t\t\t\t\t\t\t\t\t4 Comments\n            </p>\n            <h3 id="comments">4 Responses</h3>\n            <ol class="commentlist">\n              <li id="comment-13746" class="pingback even thread-even depth-1 highlander-comment">\n                <div id="div-comment-13746">\n                  <div class="cmtinfo">\n                    <em>\n                      on\n                      <a title="" href="#comment-13746" shape="rect">April 9, 2012 at 1:59 pm</a>\n                      |\n                      <a onclick="return addComment.moveForm(&quot;div-comment-13746&quot;, &quot;13746&quot;, &quot;respond&quot;, &quot;9628&quot;)" href="/2012/04/09/annalie-forbes-an-abq-top-12-pick-in-bb-pilipinas-2012/?replytocom=13746#respond" class="comment-reply-link" shape="rect">Reply</a>\n                    </em>\n                    <cite>\n                      <a rel="external nofollow" href="http://adventuresofabeautyqueen.com/2012/03/31/my-top-twelve-in-2012-abqs-picks-in-bb-pilipinas-2012-are/" class="url" shape="rect">My Top Twelve in 2012!!! ABQ\xe2\x80\x99s Picks in Bb. Pilipinas 2012 are\xe2\x80\xa6 \xc2\xab Adventures of a Beauty Queen</a>\n                    </cite>\n                  </div>\n                  <p>[...] Annalie Forbes: An ABQ Top 12 Pick in Bb. Pilipinas\xc2\xa02012! [...]</p>\n                  <br style="clear: both" clear="none"></br>\n                </div>\n              </li>\n              <li id="comment-13833" class="pingback odd alt thread-odd thread-alt depth-1 highlander-comment">\n                <div id="div-comment-13833">\n                  <div class="cmtinfo">\n                    <em>\n                      on\n                      <a title="" href="#comment-13833" shape="rect">April 15, 2012 at 6:59 pm</a>\n                      |\n                      <a onclick="return addComment.moveForm(&quot;div-comment-13833&quot;, &quot;13833&quot;, &quot;respond&quot;, &quot;9628&quot;)" href="/2012/04/09/annalie-forbes-an-abq-top-12-pick-in-bb-pilipinas-2012/?replytocom=13833#respond" class="comment-reply-link" shape="rect">Reply</a>\n                    </em>\n                    <cite>\n                      <a rel="external nofollow" href="http://adventuresofabeautyqueen.com/2012/04/15/bb-pilipinas-universe-2012-janine-tugonon-and-her-court-of-winners/" class="url" shape="rect">Bb. Pilipinas Universe 2012 Janine Tugonon and her Court of Winners \xc2\xab Adventures of a Beauty Queen</a>\n                    </cite>\n                  </div>\n                  <p>[...] Pilipinas 2012 2nd Runner-up \xe2\x80\x93 Ali Forbes Share this:TwitterLike this:LikeBe the first to like this [...]</p>\n                  <br style="clear: both" clear="none"></br>\n                </div>\n              </li>\n              <li id="comment-13936" class="pingback even thread-even depth-1 highlander-comment">\n                <div id="div-comment-13936">\n                  <div class="cmtinfo">\n                    <em>\n                      on\n                      <a title="" href="#comment-13936" shape="rect">April 16, 2012 at 9:51 am</a>\n                      |\n                      <a onclick="return addComment.moveForm(&quot;div-comment-13936&quot;, &quot;13936&quot;, &quot;respond&quot;, &quot;9628&quot;)" href="/2012/04/09/annalie-forbes-an-abq-top-12-pick-in-bb-pilipinas-2012/?replytocom=13936#respond" class="comment-reply-link" shape="rect">Reply</a>\n                    </em>\n                    <img width="48" height="48" src="http://0.gravatar.com/blavatar/0e3f7ddde7e4eaf5925842a7970a747a?s=48" alt="" class="avatar avatar-48"></img>\n                    <cite>\n                      <a rel="external nofollow" href="http://pecintakonteskecantikan.wordpress.com/2012/04/16/binibining-pilipinas-2012-result-finals/" class="url" shape="rect">Binibining Pilipinas 2012 Result Finals | Pecinta Kontes Kecantikan</a>\n                    </cite>\n                  </div>\n                  <p>[...] Bb. Pilipinas 2012 2nd Runner-up \xc3\xa2\xe2\x82\xac\xe2\x80\x9c\xc3\x82\xc2\xa0Ali Forbes [...]</p>\n                  <br style="clear: both" clear="none"></br>\n                </div>\n              </li>\n              <li id="comment-14074" class="pingback odd alt thread-odd thread-alt depth-1 highlander-comment">\n                <div id="div-comment-14074">\n                  <div class="cmtinfo">\n                    <em>\n                      on\n                      <a title="" href="#comment-14074" shape="rect">April 17, 2012 at 3:30 pm</a>\n                      |\n                      <a onclick="return addComment.moveForm(&quot;div-comment-14074&quot;, &quot;14074&quot;, &quot;respond&quot;, &quot;9628&quot;)" href="/2012/04/09/annalie-forbes-an-abq-top-12-pick-in-bb-pilipinas-2012/?replytocom=14074#respond" class="comment-reply-link" shape="rect">Reply</a>\n                    </em>\n                    <cite>\n                      <a rel="external nofollow" href="http://adventuresofabeautyqueen.com/2012/04/17/happiness-is-getting-a-second-chance-to-answer-at-bb-pilipinas/" class="url" shape="rect">(H)appiness is Getting a Second Chance to Answer at Bb. Pilipinas\xe2\x80\xa6 \xc2\xab Adventures of a Beauty Queen</a>\n                    </cite>\n                  </div>\n                  <p>[...] Jorge Domecq was about the disadvantages of Social Media as a form of communication today. Poor Ali Forbes, the sweet darling, got stuck on her first word which was \xe2\x80\x98Communication\xe2\x80\xa6\xe2\x80\x99\xc3\x82\xc2\xa0 and [...]</p>\n                  <br style="clear: both" clear="none"></br>\n                </div>\n              </li>\n            </ol>\n            <div class="navigation">\n              <div class="alignleft"></div>\n              <div class="alignright"></div>\n            </div>\n            <br clear="none"></br>\n            <div class="post-content">\n              <p>\n                <span class="commentsfeed">\n                  <a href="http://adventuresofabeautyqueen.com/2012/04/09/annalie-forbes-an-abq-top-12-pick-in-bb-pilipinas-2012/feed/" shape="rect">Comments RSS</a>\n                </span>\n              </p>\n            </div>\n            <div id="respond">\n              <h3 id="reply-title">\n                Leave a Reply\n                <small>\n                  <a style="display:none;" href="/2012/04/09/annalie-forbes-an-abq-top-12-pick-in-bb-pilipinas-2012/#respond" rel="nofollow" id="cancel-comment-reply-link" shape="rect">Cancel reply</a>\n                </small>\n              </h3>\n              <form action="http://adventuresofabeautyqueen.com/wp-comments-post.php" id="commentform" method="post" enctype="application/x-www-form-urlencoded">\n                <input value="guest" name="hc_post_as" id="hc_post_as" type="hidden"></input>\n                <div class="comment-form-field comment-textarea">\n                  <label for="comment">Enter your comment here...</label>\n                  <div id="comment-form-comment">\n                    <textarea name="comment" id="comment"></textarea>\n                  </div>\n                </div>\n                <div id="comment-form-identity">\n                  <div id="comment-form-nascar">\n                    <p>Fill in your details below or click an icon to log in:</p>\n                    <ul>\n                      <li style="display:none;" class="selected">\n                        <a title="Guest" href="#comment-form-guest" id="postas-guest" shape="rect">\n                          <span></span>\n                        </a>\n                      </li>\n                      <li>\n                        <a title="WordPress.com" href="#comment-form-load-service:WordPress.com" id="postas-wordpress" shape="rect">\n                          <span></span>\n                        </a>\n                      </li>\n                      <li>\n                        <a title="Twitter" href="#comment-form-load-service:Twitter" id="postas-twitter" shape="rect">\n                          <span></span>\n                        </a>\n                      </li>\n                      <li>\n                        <a title="Facebook" href="#comment-form-load-service:Facebook" id="postas-facebook" shape="rect">\n                          <span></span>\n                        </a>\n                      </li>\n                    </ul>\n                  </div>\n                  <div id="comment-form-guest" class="comment-form-service selected">\n                    <div class="comment-form-padder">\n                      <div class="comment-form-avatar">\n                        <a target="_blank" href="https://gravatar.com/site/signup/" shape="rect">\n                          <img width="25" alt="Gravatar" src="http://1.gravatar.com/avatar/ad516503a11cd5ca435acc9bb6523536?s=25&amp;d=identicon&amp;forcedefault=y&amp;r=G" class="no-grav"></img>\n                        </a>\n                      </div>\n                      <div class="comment-form-fields">\n                        <div class="comment-form-field comment-form-email">\n                          <label for="email">\n                            Email\n                            <span class="required">(required)</span>\n                            <span class="nopublish">(Address never made public)</span>\n                          </label>\n                          <div class="comment-form-input">\n                            <input value="" name="email" id="email" type="email"></input>\n                          </div>\n                        </div>\n                        <div class="comment-form-field comment-form-author">\n                          <label for="author">\n                            Name\n                            <span class="required">(required)</span>\n                          </label>\n                          <div class="comment-form-input">\n                            <input value="" name="author" id="author" type="text"></input>\n                          </div>\n                        </div>\n                        <div class="comment-form-field comment-form-url">\n                          <label for="url">Website</label>\n                          <div class="comment-form-input">\n                            <input value="" name="url" id="url" type="text"></input>\n                          </div>\n                        </div>\n                      </div>\n                    </div>\n                  </div>\n                  <div id="comment-form-wordpress" class="comment-form-service">\n                    <div class="comment-form-padder">\n                      <div class="comment-form-avatar">\n                        <img width="25" alt="WordPress.com Logo" src="http://s2.wp.com/wp-content/mu-plugins/highlander-comments/images/wplogo.png?m=1289230950g" class="no-grav"></img>\n                      </div>\n                      <div class="comment-form-fields">\n                        <input value="" name="wp_avatar" id="wordpress-avatar" class="comment-meta-wordpress" type="hidden"></input>\n                        <input value="" name="wp_user_id" id="wordpress-user_id" class="comment-meta-wordpress" type="hidden"></input>\n                        <input value="" name="wp_access_token" id="wordpress-access_token" class="comment-meta-wordpress" type="hidden"></input>\n                        <p class="comment-form-posting-as pa-wordpress">\n                          <strong></strong>\n                          You are commenting using your WordPress.com account.\n                          <span class="comment-form-log-out">\n                            (\xc2\xa0\n                            <a href="javascript:HighlanderComments.doExternalLogout( \'wordpress\' );" shape="rect">Log\xc2\xa0Out</a>\n                            \xc2\xa0/\xc2\xa0\n                            <a onclick="javascript:HighlanderComments.switchAccount();return false;" href="#" shape="rect">Change</a>\n                            \xc2\xa0)\n                          </span>\n                        </p>\n                      </div>\n                    </div>\n                  </div>\n                  <div id="comment-form-twitter" class="comment-form-service">\n                    <div class="comment-form-padder">\n                      <div class="comment-form-avatar">\n                        <img width="25" alt="Twitter picture" src="http://1.gravatar.com/avatar/ad516503a11cd5ca435acc9bb6523536?s=25&amp;d=identicon&amp;forcedefault=y&amp;r=G" class="no-grav"></img>\n                      </div>\n                      <div class="comment-form-fields">\n                        <input value="" name="twitter_avatar" id="twitter-avatar" class="comment-meta-twitter" type="hidden"></input>\n                        <input value="" name="twitter_user_id" id="twitter-user_id" class="comment-meta-twitter" type="hidden"></input>\n                        <input value="" name="twitter_access_token" id="twitter-access_token" class="comment-meta-twitter" type="hidden"></input>\n                        <p class="comment-form-posting-as pa-twitter">\n                          <strong></strong>\n                          You are commenting using your Twitter account.\n                          <span class="comment-form-log-out">\n                            (\xc2\xa0\n                            <a href="javascript:HighlanderComments.doExternalLogout( \'twitter\' );" shape="rect">Log\xc2\xa0Out</a>\n                            \xc2\xa0/\xc2\xa0\n                            <a onclick="javascript:HighlanderComments.switchAccount();return false;" href="#" shape="rect">Change</a>\n                            \xc2\xa0)\n                          </span>\n                        </p>\n                      </div>\n                    </div>\n                  </div>\n                  <div id="comment-form-facebook" class="comment-form-service">\n                    <div class="comment-form-padder">\n                      <div class="comment-form-avatar">\n                        <img width="25" alt="Facebook photo" src="http://1.gravatar.com/avatar/ad516503a11cd5ca435acc9bb6523536?s=25&amp;d=identicon&amp;forcedefault=y&amp;r=G" class="no-grav"></img>\n                      </div>\n                      <div class="comment-form-fields">\n                        <input value="" name="fb_avatar" id="facebook-avatar" class="comment-meta-facebook" type="hidden"></input>\n                        <input value="" name="fb_user_id" id="facebook-user_id" class="comment-meta-facebook" type="hidden"></input>\n                        <input value="" name="fb_access_token" id="facebook-access_token" class="comment-meta-facebook" type="hidden"></input>\n                        <p class="comment-form-posting-as pa-facebook">\n                          <strong></strong>\n                          You are commenting using your Facebook account.\n                          <span class="comment-form-log-out">\n                            (\xc2\xa0\n                            <a href="javascript:HighlanderComments.doExternalLogout( \'facebook\' );" shape="rect">Log\xc2\xa0Out</a>\n                            \xc2\xa0/\xc2\xa0\n                            <a onclick="javascript:HighlanderComments.switchAccount();return false;" href="#" shape="rect">Change</a>\n                            \xc2\xa0)\n                          </span>\n                        </p>\n                      </div>\n                    </div>\n                  </div>\n                  <div id="comment-form-load-service" class="comment-form-service">\n                    <div class="comment-form-posting-as-cancel">\n                      <a href="javascript:HighlanderComments.cancelExternalWindow();" shape="rect">Cancel</a>\n                    </div>\n                    <p>Connecting to %s</p>\n                  </div>\n                </div>\n                <script type="text/javascript">\n                  jQuery(document).ready(function(){\n\tvar input = document.createElement( \'input\' ),\n\t    comment = jQuery( \'#comment\' );\n\n\tif ( \'placeholder\' in input ) {\n\t\tcomment.attr( \'placeholder\', jQuery( \'.comment-textarea label\' ).remove().text() );\n\t}\n\n\t// Expando Mode: start small, then auto-resize on first click + text length\n\tjQuery( \'#comment-form-identity\' ).hide();\n\tjQuery( \'#comment-form-subscribe\' ).hide();\n\tjQuery( \'#commentform .form-submit\' ).hide();\n\n\tcomment.css( { \'height\':\'10px\' } ).one( \'focus\', function() {\n\t\tvar timer = setInterval( HighlanderComments.resizeCallback, 10 )\n\t\tjQuery( this ).animate( { \'height\': HighlanderComments.initialHeight } ).delay( 100 ).queue( function(n) { clearInterval( timer ); HighlanderComments.resizeCallback(); n(); } );\n\t\tjQuery( \'#comment-form-identity\' ).slideDown();\n\t\tjQuery( \'#comment-form-subscribe\' ).slideDown();\n\t\tjQuery( \'#commentform .form-submit\' ).slideDown();\n\t});\n});\n                </script>\n                <div id="comment-form-subscribe">\n                  <p class="comment-subscription-form">\n                    <input style="width: auto;" value="subscribe" name="subscribe" id="subscribe" type="checkbox" tabindex="6"></input>\n                    <label id="subscribe-label" class="subscribe-label" for="subscribe">Notify me of follow-up comments via email.</label>\n                  </p>\n                  <p class="post-subscription-form">\n                    <input style="width: auto;" value="subscribe" name="subscribe_blog" id="subscribe_blog" type="checkbox" tabindex="7"></input>\n                    <label id="subscribe-blog-label" class="subscribe-label" for="subscribe_blog">Notify me of new posts via email.</label>\n                  </p>\n                </div>\n                <p class="form-submit">\n                  <input value="Post Comment" name="submit" id="comment-submit" type="submit"></input>\n                  <input value="9628" name="comment_post_ID" id="comment_post_ID" type="hidden"></input>\n                  <input value="0" name="comment_parent" id="comment_parent" type="hidden"></input>\n                </p>\n                <input value="1349215140" name="genseq" type="hidden"></input>\n                <p style="display: none;">\n                  <input value="b3916f90cb" name="akismet_comment_nonce" id="akismet_comment_nonce" type="hidden"></input>\n                </p>\n                <script src="http://s2.wp.com/wp-content/mu-plugins/akismet-2.5/form.js?m=1308783962g" type="text/javascript"></script>\n                <p style="display: none;">\n                  <input value="15" name="ak_js" id="ak_js" type="hidden"></input>\n                </p>\n              </form>\n            </div>\n            <div style="clear: both"></div>\n          </div>\n          <p align="center"></p>\n        </div>\n        <div id="sidebar">\n          <div class="wpadvert wpwidesky">\n            <div id="div-gpt-ad-1330047832528-0">\n              <script type="text/javascript"> if ( typeof googletag != \'undefined\' ) { googletag.cmd.push(function() { googletag.display(\'div-gpt-ad-1330047832528-0\'); }); } </script>\n            </div>\n          </div>\n          <ul>\n            <li class="sidebox">\n              <h2>Click Below to LIKE ABQ on Facebook!!!</h2>\n              <div class="textwidget">\n                <a title="Adventures of a Beauty Queen" style="font-family:&quot;font-size:11px;font-variant:normal;font-style:normal;font-weight:normal;color:#3B5998;text-decoration:none;" target="_TOP" href="http://www.facebook.com/pages/Adventures-of-a-Beauty-Queen/122718021080474" shape="rect">\n                  Adventures of a Beauty Queen\n                </a>\n                <br clear="none"></br>\n                <a title="Adventures of a Beauty Queen" target="_TOP" href="http://www.facebook.com/pages/Adventures-of-a-Beauty-Queen/122718021080474" shape="rect">\n                  <img style="border:0;" height="125" width="120" src="http://badge.facebook.com/badge/122718021080474.1604.1211761666.png"></img>\n                </a>\n                <br clear="none"></br>\n                <a title="Make your own badge!" style="font-family:&quot;font-size:11px;font-variant:normal;font-style:normal;font-weight:normal;color:#3B5998;text-decoration:none;" target="_TOP" href="http://www.facebook.com/business/dashboard/" shape="rect">Promote Your Page Too</a>\n              </div>\n            </li>\n            <li class="sidebox">\n              <h2>Support my Media Missions! You can make your donations here\xe2\x80\xa6</h2>\n              <div class="textwidget">\n                <a href="https://www.paypal.com/cgi-bin/webscr?cmd=_s-xclick&amp;hosted_button_id=8P3NJF9MFR49W" shape="rect">\n                  <img alt="Please make some donations" src="https://www.paypal.com/en_US/i/btn/x-click-but04.gif"></img>\n                </a>\n              </div>\n            </li>\n            <li class="sidebox">\n              <h2>RECEIVE a GANDANG PINOY beauty tip from me EVERYDAY!</h2>\n              <div class="textwidget">If you are a SMART USER text these words: GANDA ON to 4631 and you will receive a DAILY Gandang Pinoy beauty tip from the blogging beauty queen! Its P2.50 a day LANG! Subscribe NOW!</div>\n            </li>\n            <li class="sidebox">\n              <h2>\n                <a href="http://twitter.com/joycetitular" shape="rect">Tweet Me?</a>\n              </h2>\n              <ul class="tweets">\n                <li>\n                  Meeting Douglas Gresham, Producer of the Narnia Movies and Stepson of CS Lewis!\n                  <a href="http://wp.me/pqjDO-2Vh" shape="rect"> wp.me/pqjDO-2Vh</a>\n                  <a href="http://twitter.com/joycetitular/statuses/252290972111761408" class="timesince" shape="rect">2\xc2\xa0days\xc2\xa0ago</a>\n                </li>\n              </ul>\n            </li>\n            <li class="sidebox">\n              <h2>\n                <a title="Syndicate this content" href="http://firstdayofchristmas.wordpress.com/feed/" class="rsswidget" shape="rect">\n                  <img alt="RSS" src="http://s.wordpress.com/wp-includes/images/rss.png?m=1144196147g" height="14" width="14" style="background:orange;color:white;border:none;"></img>\n                </a>\n                <a title="Just another WordPress.com weblog" href="http://firstdayofchristmas.wordpress.com" class="rsswidget" shape="rect">Donate your Christmas Decor to My Project!!!</a>\n              </h2>\n              <ul>\n                <li>\n                  <a title="" href="http://firstdayofchristmas.wordpress.com/2011/12/12/7-beauty-queens-and-170-volunteers-help-out-at-the-first-day-of-christmas-2011/" class="rsswidget" shape="rect">7 Beauty Queens and 170 Volunteers Help Out at The First Day of Christmas 2011!</a>\n                  <span class="rss-date">December 12, 2011</span>\n                  <div class="rssSummary">\n                    Amazing! That\xe2\x80\x99s the only word I can use to describe this year\xe2\x80\x99s First Day of Christmas decorating event held at Boystown in Marikina last Saturday, December 3, 2011. People donated tons of Christmas Decorations, toys, food and clothing! There were a few who also donated cash which we used for the Art Materials (we had [...]\n                  </div>\n                  <cite>adventuresofabeautyqueen</cite>\n                </li>\n              </ul>\n            </li>\n            <li class="sidebox">\n              <h2>\n                <a title="Syndicate this content" href="http://theedgeradio.net/wordforyoutoday/" class="rsswidget" shape="rect">\n                  <img alt="RSS" src="http://s.wordpress.com/wp-includes/images/rss.png?m=1144196147g" height="14" width="14" style="background:orange;color:white;border:none;"></img>\n                </a>\n                <a title="" href="" class="rsswidget" shape="rect">Need Encouragement? Here\xe2\x80\x99s the Word for You Today\xe2\x80\xa6</a>\n              </h2>\n              <ul>\n                <li>An error has occurred; the feed is probably down. Try again later.</li>\n              </ul>\n            </li>\n            <li class="sidebox">\n              <h2>\n                <a title="Syndicate this content" href="http://30boxes.com/rss/8002113/JoyceBurtonTitular/340829a5839dbd17a61cca01bbf0e6df/0/" class="rsswidget" shape="rect">\n                  <img alt="RSS" src="http://s.wordpress.com/wp-includes/images/rss.png?m=1144196147g" height="14" width="14" style="background:orange;color:white;border:none;"></img>\n                </a>\n                <a title="Joyce Burton Titular\'s calendar at 30 Boxes. Build your own at http://30boxes.com." href="http://30boxes.com/user/8002113" class="rsswidget" shape="rect">Pageant Watch !!</a>\n              </h2>\n              <ul>\n                <li>\n                  <a title="" href="http://30boxes.com/index.php?action=rssClick&amp;altUrl=%2Fwidget%2F8002113%2FJoyceBurtonTitular%2F7ce66e67cc3f4efe47d68bc864ed1003%2F0%2FALL&amp;date=2012-10-20" class="rsswidget" shape="rect">Oct 20 : MISS HUMANITY INTERNATIONAL - Bridgetown, Barbados (Ayelee Dasalla)</a>\n                  <div class="rssSummary"></div>\n                </li>\n                <li>\n                  <a title="" href="http://30boxes.com/index.php?action=rssClick&amp;altUrl=%2Fwidget%2F8002113%2FJoyceBurtonTitular%2F7ce66e67cc3f4efe47d68bc864ed1003%2F0%2FALL&amp;date=2012-10-21" class="rsswidget" shape="rect">Oct 21 : MISS INTERNATIONAL - Okinawa, Japan (Nicole Schmitz)</a>\n                  <div class="rssSummary"></div>\n                </li>\n                <li>\n                  <a title="" href="http://30boxes.com/index.php?action=rssClick&amp;altUrl=%2Fwidget%2F8002113%2FJoyceBurtonTitular%2F7ce66e67cc3f4efe47d68bc864ed1003%2F0%2FALL&amp;date=2012-10-27" class="rsswidget" shape="rect">Oct 27 : MISS SCUBA PHILIPPINES - Toyota Asian Cultural Center, UP Diliman</a>\n                  <div class="rssSummary"></div>\n                </li>\n                <li>\n                  <a title="" href="http://30boxes.com/index.php?action=rssClick&amp;altUrl=%2Fwidget%2F8002113%2FJoyceBurtonTitular%2F7ce66e67cc3f4efe47d68bc864ed1003%2F0%2FALL&amp;date=2012-11-24" class="rsswidget" shape="rect">Nov 24 : MISS EARTH - Manila, Philippines</a>\n                  <div class="rssSummary">Stephany Stefanowitz</div>\n                </li>\n                <li>\n                  <a title="" href="http://30boxes.com/index.php?action=rssClick&amp;altUrl=%2Fwidget%2F8002113%2FJoyceBurtonTitular%2F7ce66e67cc3f4efe47d68bc864ed1003%2F0%2FALL&amp;date=2012-11-30" class="rsswidget" shape="rect">Nov 30 : MISS SCUBA INTERNATIONAL - Bali, Indonesia</a>\n                  <div class="rssSummary"></div>\n                </li>\n                <li>\n                  <a title="" href="http://30boxes.com/index.php?action=rssClick&amp;altUrl=%2Fwidget%2F8002113%2FJoyceBurtonTitular%2F7ce66e67cc3f4efe47d68bc864ed1003%2F0%2FALL&amp;date=2012-12-01" class="rsswidget" shape="rect">\n                    Dec 1 : In December but no scheduled day yet - MISS INTERCONTINENTAL - Dakar, Senegal\n                  </a>\n                  <div class="rssSummary">Camille Guevarra</div>\n                </li>\n                <li>\n                  <a title="" href="http://30boxes.com/index.php?action=rssClick&amp;altUrl=%2Fwidget%2F8002113%2FJoyceBurtonTitular%2F7ce66e67cc3f4efe47d68bc864ed1003%2F0%2FALL&amp;date=2012-12-29" class="rsswidget" shape="rect">Dec 29 : MISS TOURISM QUEEN INTERNATIONAL - China (Katrina Dimaraman)</a>\n                  <div class="rssSummary"></div>\n                </li>\n                <li>\n                  <a title="" href="http://30boxes.com/index.php?action=rssClick&amp;altUrl=%2Fwidget%2F8002113%2FJoyceBurtonTitular%2F7ce66e67cc3f4efe47d68bc864ed1003%2F0%2FALL&amp;date=2012-12-31" class="rsswidget" shape="rect">Dec 31 : MISS TOURISM INTERNATIONAL - Malaysia</a>\n                  <div class="rssSummary">Rizzini Alexis Gomez</div>\n                </li>\n              </ul>\n            </li>\n            <li class="sidebox">\n              <h2>\n                <a title="Syndicate this content" href="http://thetitularpapers.wordpress.com/feed/" class="rsswidget" shape="rect">\n                  <img alt="RSS" src="http://s.wordpress.com/wp-includes/images/rss.png?m=1144196147g" height="14" width="14" style="background:orange;color:white;border:none;"></img>\n                </a>\n                <a title="Just another WordPress.com weblog" href="http://thetitularpapers.wordpress.com" class="rsswidget" shape="rect">My Family Blog</a>\n              </h2>\n              <ul>\n                <li>\n                  <a title="" href="http://thetitularpapers.wordpress.com/2011/06/05/diandra-debuts-on-tv-screens-today/" class="rsswidget" shape="rect">Diandra Debuts on TV Screens Today!</a>\n                  <span class="rss-date">June 5, 2011</span>\n                  <div class="rssSummary">\n                    The day I have been praying\xc3\x82\xc2\xa0 for is finally here! My lovely daughter Diandra makes her TV drama debut today on the Knowledge Channel. She plays the role of Wilma, a \xe2\x80\x98babaeng bakla,\xe2\x80\x99 with dreams of becoming a successful businesswoman in the fashion or beauty world. The mini-teleserye is called \xe2\x80\x9cIbang Klase\xe2\x80\x9d. New episodes are [...]\n                  </div>\n                </li>\n              </ul>\n            </li>\n            <li class="sidebox">\n              <h2>Subscribe NOW!!!</h2>\n              <div class="textwidget">\n                <p>\n                  <a rel="alternate" href="http://feeds.feedburner.com/wordpress/lTJU" shape="rect">\n                    <img alt="" src="http://www.feedburner.com/fb/images/pub/feed-icon32x32.png"></img>\n                  </a>\n                  \xc2\xa0\n                  <a rel="alternate" href="http://feeds.feedburner.com/wordpress/lTJU" shape="rect">Subscribe in a reader</a>\n                </p>\n              </div>\n            </li>\n            <li class="sidebox">\n              <h2>Blog Stats</h2>\n              <ul>\n                <li>1,658,002 hits</li>\n              </ul>\n            </li>\n            <li id="linkcat-1356" class="linkcat widget sidebox">\n              <h2>Blogroll</h2>\n              <ul class="xoxo blogroll">\n                <li>\n                  <a href="http://www.bbpilipinas.com/" shape="rect">Bb. Pilipinas Official Site</a>\n                </li>\n                <li>\n                  <a href="http://beautyinpageants.blogspot.com/" shape="rect">Beauty In Pageants</a>\n                </li>\n                <li>\n                  <a title="Online Library of Mariel Chua\xe2\x80\x99s Philippine Daily Inquirer Articles" href="http://www.beautyinthebigapple.com/" shape="rect">Beauty in the Big Apple</a>\n                </li>\n                <li>\n                  <a href="http://www.contesera.com/" shape="rect">Contestera</a>\n                </li>\n                <li>\n                  <a \n                  title="Critical Beauty is the new name for the site formerly known as The Miss Universe Critic, Boston, Massachusetts, USA. It is unique in the sense that it treats beauty pageants, and anything else related to beauty, from a critical perspective. The site offer" href="http://criticalbeauty.com/" shape="rect">\n                    Critical Beauty\n</a>\n                </li>\n                <li>\n                  <a title="Everything you need to know about Miss World, past, present and future!" href="http://missworld2009.info/" shape="rect">Everything About Miss World \xe2\x80\x93 a Karl John Badeo blog!</a>\n                </li>\n                <li>\n                  <a title="Fatih and Christianity, The Environment, Politics and POP CULTURE!!!" rel="friend met" href="http://adventuresofabeautyqueen.wordpress.com" shape="rect">Filipino Christian Blogger</a>\n                </li>\n                <li>\n                  <a title="Jill Knapp, a mom with 3 kids loses 100 lbs and joined a Beauty Pageant!!! This is her BLOG!!!" href="http://getupandgetmoving.net/" shape="rect">Get Up and Moving!!!</a>\n                </li>\n                <li>\n                  <a title="One of the coolest sites for pageant news\xe2\x80\xa6" rel="contact" href="http://hatawbeauties2007.blogspot.com/" shape="rect">Hataw Beauties</a>\n                </li>\n                <li>\n                  <a title="A blog full of pictures and videos on North and South American Beauty Queens" href="http://www.hectorjoaquin.com/" shape="rect">Hector Joaquin\'s Beauty Queen Blog</a>\n                </li>\n                <li>\n                  <a title="Is your spirit lagging? Check out James\xe2\x80\x99 site for an uplift!!" href="http://www.goodnewsblog.org/" shape="rect">James Parmis\' Good News Blog</a>\n                </li>\n                <li>\n                  <a title="If you\xe2\x80\x99ve got a great blog, might as well EARN FROM IT!!!" rel="friend" href="http://www.MakeMoneyOnlineManila.com" shape="rect">Make Money Online!</a>\n                </li>\n                <li>\n                  <a title="An AMAZING doll site for beauty pageant fans\xe2\x80\xa6" href="http://missdollparaguay.jimdo.com/" shape="rect">Miss Doll Paraguay</a>\n                </li>\n                <li>\n                  <a title="Great forum on Philippine pageants and beauty queens!!!" href="http://missosology.info/forum/portal.php" shape="rect">Missosology \xe2\x80\x93 The Science of Beauty</a>\n                </li>\n                <li>\n                  <a href="http://www.missbikiniphilippines.com.ph/" shape="rect">Ms Bikini Philippines Official Site</a>\n                </li>\n                <li>\n                  <a href="http://www.missphilippines-earth.com/" shape="rect">Ms. Philippines-Earth Official Site</a>\n                </li>\n                <li>\n                  <a title="Mariel Chua\xe2\x80\x99s blog on life in New York and beyond\xe2\x80\xa6" rel="friend met colleague" href="http://www.nyminutenow.com/" shape="rect">NY Minute NOW</a>\n                </li>\n                <li>\n                  <a title="Beauty pageant BLOGAZINE, you must check it out!!!" href="http://opmbworldwide.com/" shape="rect">OPMB World !!!</a>\n                </li>\n                <li>\n                  <a title="Just BEAUTIFUL people\xe2\x80\xa6" rel="contact" href="http://beautifultimes.info/" shape="rect">The Beautiful Times</a>\n                </li>\n                <li>\n                  <a title="Get the Latest on Philippine Pageants HERE!" rel="contact" href="http://kattera.co.cc/" shape="rect">The Beauty of Almost Everything</a>\n                </li>\n                <li>\n                  <a \n                  title="NeuroChiq is a radical young woman, a tough-ass fighter &amp; an OC goddess who believes she thinks like forty the day she was born. She likes getting what she wants, and she\xe2\x80\x99s willing to die trying. In DEEP LOVE with everything that makes people BEAUTIFU" rel="acquaintance" href="http://neurochiq.blogspot.com" shape="rect">\n                    The NeuroChiq\n</a>\n                </li>\n                <li>\n                  <a href="http://wordpress.com/" shape="rect">WordPress.com</a>\n                </li>\n                <li>\n                  <a href="http://wordpress.org/" shape="rect">WordPress.org</a>\n                </li>\n              </ul>\n            </li>\n            <li class="sidebox">\n              <h2>Recent Posts</h2>\n              <ul>\n                <li>\n                  <a title="Meeting Douglas Gresham, Producer of the Narnia Movies and Stepson of CS\xc2\xa0Lewis!" href="http://adventuresofabeautyqueen.com/2012/09/30/meeting-douglas-gresham-producer-of-the-narnia-movies-and-stepson-of-cs-lewis/" shape="rect">\n                    Meeting Douglas Gresham, Producer of the Narnia Movies and Stepson of CS\xc2\xa0Lewis!\n                  </a>\n                </li>\n                <li>\n                  <a title="Meeting Miss Southern Illinois 2013 Sherrie Gearheart and Motivational Speaker Jojo\xc2\xa0Sayson!" href="http://adventuresofabeautyqueen.com/2012/09/29/meeting-miss-southern-illinois-2013-sherrie-gearheart-and-motivational-speaker-jojo-sayson/" shape="rect">\n                    Meeting Miss Southern Illinois 2013 Sherrie Gearheart and Motivational Speaker Jojo\xc2\xa0Sayson!\n                  </a>\n                </li>\n                <li>\n                  <a title="Miss World Philippines Receives 1M Charity Donation from Esquire\xc2\xa0Financing!" href="http://adventuresofabeautyqueen.com/2012/09/28/miss-world-philippines-receives-1m-charity-donation-from-esquire-financing/" shape="rect">\n                    Miss World Philippines Receives 1M Charity Donation from Esquire\xc2\xa0Financing!\n                  </a>\n                </li>\n                <li>\n                  <a title="Filipina Super Model Charlene Almarvez is Featured in \xe2\x80\x9cThe Ones 2\xc2\xa0Watch\xe2\x80\x9d!" href="http://adventuresofabeautyqueen.com/2012/09/28/filipina-super-model-charlene-almarvez-is-featured-in-the-ones-2-watch/" shape="rect">\n                    Filipina Super Model Charlene Almarvez is Featured in \xe2\x80\x9cThe Ones 2\xc2\xa0Watch\xe2\x80\x9d!\n                  </a>\n                </li>\n                <li>\n                  <a title="Nicole Schmitz: Will She Win the 5th Miss International for the\xc2\xa0Philippines?" href="http://adventuresofabeautyqueen.com/2012/09/28/nicole-schmitz-will-she-win-the-5th-miss-international-for-the-philippines/" shape="rect">\n                    Nicole Schmitz: Will She Win the 5th Miss International for the\xc2\xa0Philippines?\n                  </a>\n                </li>\n              </ul>\n            </li>\n            <li class="sidebox">\n              <h2>Archives</h2>\n              <ul>\n                <li>\n                  <a title="September 2012" href="http://adventuresofabeautyqueen.com/2012/09/" shape="rect">September 2012</a>\n                </li>\n                <li>\n                  <a title="August 2012" href="http://adventuresofabeautyqueen.com/2012/08/" shape="rect">August 2012</a>\n                </li>\n                <li>\n                  <a title="July 2012" href="http://adventuresofabeautyqueen.com/2012/07/" shape="rect">July 2012</a>\n                </li>\n                <li>\n                  <a title="June 2012" href="http://adventuresofabeautyqueen.com/2012/06/" shape="rect">June 2012</a>\n                </li>\n                <li>\n                  <a title="May 2012" href="http://adventuresofabeautyqueen.com/2012/05/" shape="rect">May 2012</a>\n                </li>\n                <li>\n                  <a title="April 2012" href="http://adventuresofabeautyqueen.com/2012/04/" shape="rect">April 2012</a>\n                </li>\n                <li>\n                  <a title="March 2012" href="http://adventuresofabeautyqueen.com/2012/03/" shape="rect">March 2012</a>\n                </li>\n                <li>\n                  <a title="February 2012" href="http://adventuresofabeautyqueen.com/2012/02/" shape="rect">February 2012</a>\n                </li>\n                <li>\n                  <a title="January 2012" href="http://adventuresofabeautyqueen.com/2012/01/" shape="rect">January 2012</a>\n                </li>\n                <li>\n                  <a title="December 2011" href="http://adventuresofabeautyqueen.com/2011/12/" shape="rect">December 2011</a>\n                </li>\n                <li>\n                  <a title="November 2011" href="http://adventuresofabeautyqueen.com/2011/11/" shape="rect">November 2011</a>\n                </li>\n                <li>\n                  <a title="October 2011" href="http://adventuresofabeautyqueen.com/2011/10/" shape="rect">October 2011</a>\n                </li>\n                <li>\n                  <a title="September 2011" href="http://adventuresofabeautyqueen.com/2011/09/" shape="rect">September 2011</a>\n                </li>\n                <li>\n                  <a title="August 2011" href="http://adventuresofabeautyqueen.com/2011/08/" shape="rect">August 2011</a>\n                </li>\n                <li>\n                  <a title="July 2011" href="http://adventuresofabeautyqueen.com/2011/07/" shape="rect">July 2011</a>\n                </li>\n                <li>\n                  <a title="June 2011" href="http://adventuresofabeautyqueen.com/2011/06/" shape="rect">June 2011</a>\n                </li>\n                <li>\n                  <a title="May 2011" href="http://adventuresofabeautyqueen.com/2011/05/" shape="rect">May 2011</a>\n                </li>\n                <li>\n                  <a title="April 2011" href="http://adventuresofabeautyqueen.com/2011/04/" shape="rect">April 2011</a>\n                </li>\n                <li>\n                  <a title="March 2011" href="http://adventuresofabeautyqueen.com/2011/03/" shape="rect">March 2011</a>\n                </li>\n                <li>\n                  <a title="February 2011" href="http://adventuresofabeautyqueen.com/2011/02/" shape="rect">February 2011</a>\n                </li>\n                <li>\n                  <a title="January 2011" href="http://adventuresofabeautyqueen.com/2011/01/" shape="rect">January 2011</a>\n                </li>\n                <li>\n                  <a title="December 2010" href="http://adventuresofabeautyqueen.com/2010/12/" shape="rect">December 2010</a>\n                </li>\n                <li>\n                  <a title="November 2010" href="http://adventuresofabeautyqueen.com/2010/11/" shape="rect">November 2010</a>\n                </li>\n                <li>\n                  <a title="October 2010" href="http://adventuresofabeautyqueen.com/2010/10/" shape="rect">October 2010</a>\n                </li>\n                <li>\n                  <a title="September 2010" href="http://adventuresofabeautyqueen.com/2010/09/" shape="rect">September 2010</a>\n                </li>\n                <li>\n                  <a title="August 2010" href="http://adventuresofabeautyqueen.com/2010/08/" shape="rect">August 2010</a>\n                </li>\n                <li>\n                  <a title="July 2010" href="http://adventuresofabeautyqueen.com/2010/07/" shape="rect">July 2010</a>\n                </li>\n                <li>\n                  <a title="June 2010" href="http://adventuresofabeautyqueen.com/2010/06/" shape="rect">June 2010</a>\n                </li>\n                <li>\n                  <a title="May 2010" href="http://adventuresofabeautyqueen.com/2010/05/" shape="rect">May 2010</a>\n                </li>\n                <li>\n                  <a title="April 2010" href="http://adventuresofabeautyqueen.com/2010/04/" shape="rect">April 2010</a>\n                </li>\n                <li>\n                  <a title="March 2010" href="http://adventuresofabeautyqueen.com/2010/03/" shape="rect">March 2010</a>\n                </li>\n                <li>\n                  <a title="February 2010" href="http://adventuresofabeautyqueen.com/2010/02/" shape="rect">February 2010</a>\n                </li>\n                <li>\n                  <a title="January 2010" href="http://adventuresofabeautyqueen.com/2010/01/" shape="rect">January 2010</a>\n                </li>\n                <li>\n                  <a title="December 2009" href="http://adventuresofabeautyqueen.com/2009/12/" shape="rect">December 2009</a>\n                </li>\n                <li>\n                  <a title="November 2009" href="http://adventuresofabeautyqueen.com/2009/11/" shape="rect">November 2009</a>\n                </li>\n                <li>\n                  <a title="October 2009" href="http://adventuresofabeautyqueen.com/2009/10/" shape="rect">October 2009</a>\n                </li>\n                <li>\n                  <a title="September 2009" href="http://adventuresofabeautyqueen.com/2009/09/" shape="rect">September 2009</a>\n                </li>\n                <li>\n                  <a title="August 2009" href="http://adventuresofabeautyqueen.com/2009/08/" shape="rect">August 2009</a>\n                </li>\n                <li>\n                  <a title="July 2009" href="http://adventuresofabeautyqueen.com/2009/07/" shape="rect">July 2009</a>\n                </li>\n                <li>\n                  <a title="June 2009" href="http://adventuresofabeautyqueen.com/2009/06/" shape="rect">June 2009</a>\n                </li>\n                <li>\n                  <a title="May 2009" href="http://adventuresofabeautyqueen.com/2009/05/" shape="rect">May 2009</a>\n                </li>\n                <li>\n                  <a title="April 2009" href="http://adventuresofabeautyqueen.com/2009/04/" shape="rect">April 2009</a>\n                </li>\n                <li>\n                  <a title="March 2009" href="http://adventuresofabeautyqueen.com/2009/03/" shape="rect">March 2009</a>\n                </li>\n                <li>\n                  <a title="February 2009" href="http://adventuresofabeautyqueen.com/2009/02/" shape="rect">February 2009</a>\n                </li>\n                <li>\n                  <a title="January 2009" href="http://adventuresofabeautyqueen.com/2009/01/" shape="rect">January 2009</a>\n                </li>\n              </ul>\n            </li>\n            <li class="sidebox">\n              <h2>Recent Comments</h2>\n              <table border="0" cellpadding="0" cellspacing="0" class="recentcommentsavatar">\n                <tr>\n                  <td style="height:48px; width:48px" title="adventuresofabeautyqueen" class="recentcommentsavatartop" rowspan="1" colspan="1">\n                    <img width="48" height="48" src="http://2.gravatar.com/avatar/5ed1f310f67c6d015482691527461208?s=48&amp;d=identicon&amp;r=G" alt="" class="avatar avatar-48"></img>\n                  </td>\n                  <td class="recentcommentstexttop" rowspan="1" colspan="1">\n                    adventuresofabeautyq\xe2\x80\xa6 on\n                    <a href="http://adventuresofabeautyqueen.com/2012/07/28/heavy-weight-contestants-in-mutya-ng-pilipinas-2012-like-or-unlike/#comment-19678" shape="rect">Heavy Weight Contestants in Mu\xe2\x80\xa6</a>\n                  </td>\n                </tr>\n                <tr>\n                  <td style="height:48px; width:48px" title="Gina Damaso" class="recentcommentsavatarend" rowspan="1" colspan="1">\n                    <img width="48" height="48" src="http://0.gravatar.com/avatar/6379991a005ec8c8b04933618d2ca706?s=48&amp;d=identicon&amp;r=G" alt="" class="avatar avatar-48"></img>\n                  </td>\n                  <td class="recentcommentstextend" rowspan="1" colspan="1">\n                    Gina Damaso on\n                    <a href="http://adventuresofabeautyqueen.com/2012/07/28/heavy-weight-contestants-in-mutya-ng-pilipinas-2012-like-or-unlike/#comment-19677" shape="rect">Heavy Weight Contestants in Mu\xe2\x80\xa6</a>\n                  </td>\n                </tr>\n                <tr>\n                  <td style="height:48px; width:48px" title="Ronald" class="recentcommentsavatarend" rowspan="1" colspan="1">\n                    <img width="48" height="48" src="http://0.gravatar.com/avatar/306a0a2db28501001cda0e1d166ba3c0?s=48&amp;d=identicon&amp;r=G" alt="" class="avatar avatar-48"></img>\n                  </td>\n                  <td class="recentcommentstextend" rowspan="1" colspan="1">\n                    Ronald on\n                    <a href="http://adventuresofabeautyqueen.com/2012/09/28/nicole-schmitz-will-she-win-the-5th-miss-international-for-the-philippines/#comment-19675" shape="rect">Nicole Schmitz: Will She Win t\xe2\x80\xa6</a>\n                  </td>\n                </tr>\n                <tr>\n                  <td style="height:48px; width:48px" title="Ronald" class="recentcommentsavatarend" rowspan="1" colspan="1">\n                    <img width="48" height="48" src="http://0.gravatar.com/avatar/306a0a2db28501001cda0e1d166ba3c0?s=48&amp;d=identicon&amp;r=G" alt="" class="avatar avatar-48"></img>\n                  </td>\n                  <td class="recentcommentstextend" rowspan="1" colspan="1">\n                    Ronald on\n                    <a href="http://adventuresofabeautyqueen.com/2012/09/28/nicole-schmitz-will-she-win-the-5th-miss-international-for-the-philippines/#comment-19674" shape="rect">Nicole Schmitz: Will She Win t\xe2\x80\xa6</a>\n                  </td>\n                </tr>\n                <tr>\n                  <td style="height:48px; width:48px" title="adventuresofabeautyqueen" class="recentcommentsavatarend" rowspan="1" colspan="1">\n                    <img width="48" height="48" src="http://2.gravatar.com/avatar/5ed1f310f67c6d015482691527461208?s=48&amp;d=identicon&amp;r=G" alt="" class="avatar avatar-48"></img>\n                  </td>\n                  <td class="recentcommentstextend" rowspan="1" colspan="1">\n                    adventuresofabeautyq\xe2\x80\xa6 on\n                    <a href="http://adventuresofabeautyqueen.com/2012/09/28/nicole-schmitz-will-she-win-the-5th-miss-international-for-the-philippines/#comment-19672" shape="rect">Nicole Schmitz: Will She Win t\xe2\x80\xa6</a>\n                  </td>\n                </tr>\n              </table>\n            </li>\n            <li class="sidebox">\n              <h2>Top Posts</h2>\n              <ul>\n                <li>\n                  <a data-bump-view="tp" href="http://adventuresofabeautyqueen.com/2012/09/28/nicole-schmitz-will-she-win-the-5th-miss-international-for-the-philippines/" class="bump-view" shape="rect">Nicole Schmitz: Will She Win the 5th Miss International for the Philippines?</a>\n                </li>\n                <li>\n                  <a data-bump-view="tp" href="http://adventuresofabeautyqueen.com/2012/07/09/beauty-queen-lara-quigaman-weds-actor-marco-alcaraz-in-a-veejay-floresca-blushing-gown/" class="bump-view" shape="rect">Beauty Queen Lara Quigaman Weds Actor Marco Alcaraz in a Blushing VeeJay Floresca Gown</a>\n                </li>\n                <li>\n                  <a data-bump-view="tp" href="http://adventuresofabeautyqueen.com/2012/05/27/abqs-choices-for-semi-finalists-in-miss-philippines-earth-2012/" class="bump-view" shape="rect">ABQ\'s Choices for Semi-Finalists in Miss Philippines Earth 2012!</a>\n                </li>\n                <li>\n                  <a data-bump-view="tp" href="http://adventuresofabeautyqueen.com/2011/03/29/how-my-dog-bailey-survived-distemper-and-how-yours-could-too/" class="bump-view" shape="rect">How My Dog Bailey Survived Distemper and How Yours Could TOO!</a>\n                </li>\n                <li>\n                  <a data-bump-view="tp" href="http://adventuresofabeautyqueen.com/2012/04/15/bb-pilipinas-universe-2012-janine-tugonon-and-her-court-of-winners/" class="bump-view" shape="rect">Bb. Pilipinas Universe 2012 Janine Tugonon and her Court of Winners</a>\n                </li>\n              </ul>\n            </li>\n            <li class="sidebox">\n              <div class="textwidget">\n                <a href="http://s07.flagcounter.com/more/Do08" shape="rect">\n                  <img border="0" alt="free counters" src="http://s06.flagcounter.com/count/Do08/bg=FFFFFF/txt=000000/border=CCCCCC/columns=2/maxflags=12/viewers=ABQ+Readers/labels=0/pageviews=1/"></img>\n                </a>\n              </div>\n            </li>\n            <li class="sidebox">\n              <h2>Tags</h2>\n              <div style="overflow:hidden">\n                <a style="font-size: 9.4411764705882pt;" title="6 topics" href="http://adventuresofabeautyqueen.com/tag/angelee-claudett-delos-reyes/" class="tag-link-20144987" shape="rect">Angelee Claudett delos Reyes</a>\n                <a style="font-size: 8pt;" title="5 topics" href="http://adventuresofabeautyqueen.com/tag/april-love-jordan/" class="tag-link-17378257" shape="rect">April Love Jordan</a>\n                <a style="font-size: 10.470588235294pt;" title="7 topics" href="http://adventuresofabeautyqueen.com/tag/athena-imperial/" class="tag-link-58352788" shape="rect">Athena Imperial</a>\n                <a style="font-size: 10.470588235294pt;" title="7 topics" href="http://adventuresofabeautyqueen.com/tag/bb-pilipinas-2010/" class="tag-link-26230956" shape="rect">Bb. Pilipinas 2010</a>\n                <a style="font-size: 9.4411764705882pt;" title="6 topics" href="http://adventuresofabeautyqueen.com/tag/bb-pilipinas-international-2009/" class="tag-link-27554157" shape="rect">Bb. Pilipinas International 2009</a>\n                <a style="font-size: 14.794117647059pt;" title="12 topics" href="http://adventuresofabeautyqueen.com/tag/bb-pilipinas-universe-2010/" class="tag-link-32779618" shape="rect">Bb. Pilipinas Universe 2010</a>\n                <a style="font-size: 20.352941176471pt;" title="23 topics" href="http://adventuresofabeautyqueen.com/tag/bb-pilipinas-2012/" class="tag-link-72799703" shape="rect">Bb Pilipinas 2012</a>\n                <a style="font-size: 16.647058823529pt;" title="15 topics" href="http://adventuresofabeautyqueen.com/tag/blogging-beauty-queen/" class="tag-link-20632254" shape="rect">blogging Beauty Queen</a>\n                <a style="font-size: 9.4411764705882pt;" title="6 topics" href="http://adventuresofabeautyqueen.com/tag/camilla-kim-galvez/" class="tag-link-23782861" shape="rect">Camilla Kim Galvez</a>\n                <a style="font-size: 9.4411764705882pt;" title="6 topics" href="http://adventuresofabeautyqueen.com/tag/carla-lizardo/" class="tag-link-40516672" shape="rect">Carla Lizardo</a>\n                <a style="font-size: 10.470588235294pt;" title="7 topics" href="http://adventuresofabeautyqueen.com/tag/chiang-rai/" class="tag-link-204375" shape="rect">Chiang Rai</a>\n                <a style="font-size: 12.529411764706pt;" title="9 topics" href="http://adventuresofabeautyqueen.com/tag/cory-quirino/" class="tag-link-1127524" shape="rect">Cory Quirino</a>\n                <a style="font-size: 10.470588235294pt;" title="7 topics" href="http://adventuresofabeautyqueen.com/tag/czarina-gatbonton/" class="tag-link-31742447" shape="rect">Czarina Gatbonton</a>\n                <a style="font-size: 11.5pt;" title="8 topics" href="http://adventuresofabeautyqueen.com/tag/diandra-zach/" class="tag-link-26700245" shape="rect">Diandra Zach</a>\n                <a style="font-size: 17.264705882353pt;" title="16 topics" href="http://adventuresofabeautyqueen.com/tag/dianne-necio/" class="tag-link-18917792" shape="rect">Dianne Necio</a>\n                <a style="font-size: 9.4411764705882pt;" title="6 topics" href="http://adventuresofabeautyqueen.com/tag/elaine-kay-moll/" class="tag-link-62886233" shape="rect">Elaine Kay Moll</a>\n                <a style="font-size: 10.470588235294pt;" title="7 topics" href="http://adventuresofabeautyqueen.com/tag/ilocos-norte/" class="tag-link-259750" shape="rect">Ilocos Norte</a>\n                <a style="font-size: 9.4411764705882pt;" title="6 topics" href="http://adventuresofabeautyqueen.com/tag/isabella-manjon/" class="tag-link-49950846" shape="rect">Isabella Manjon</a>\n                <a style="font-size: 9.4411764705882pt;" title="6 topics" href="http://adventuresofabeautyqueen.com/tag/jane-banares/" class="tag-link-23635647" shape="rect">Jane Banares</a>\n                <a style="font-size: 11.5pt;" title="8 topics" href="http://adventuresofabeautyqueen.com/tag/janine-tugonon/" class="tag-link-50153589" shape="rect">Janine Tugonon</a>\n                <a style="font-size: 14.794117647059pt;" title="12 topics" href="http://adventuresofabeautyqueen.com/tag/joyce-ann-burton/" class="tag-link-17928076" shape="rect">joyce ann burton</a>\n                <a style="font-size: 14.176470588235pt;" title="11 topics" href="http://adventuresofabeautyqueen.com/tag/joyce-burton-titular/" class="tag-link-21174658" shape="rect">Joyce Burton Titular</a>\n                <a style="font-size: 17.264705882353pt;" title="16 topics" href="http://adventuresofabeautyqueen.com/tag/ma-venus-raj/" class="tag-link-32523164" shape="rect">Ma. Venus Raj</a>\n                <a style="font-size: 9.4411764705882pt;" title="6 topics" href="http://adventuresofabeautyqueen.com/tag/manila-ocean-park/" class="tag-link-2211455" shape="rect">Manila Ocean Park</a>\n                <a style="font-size: 10.470588235294pt;" title="7 topics" href="http://adventuresofabeautyqueen.com/tag/media-pillar/" class="tag-link-24913984" shape="rect">Media Pillar</a>\n                <a style="font-size: 13.352941176471pt;" title="10 topics" href="http://adventuresofabeautyqueen.com/tag/melody-gersbach/" class="tag-link-17378255" shape="rect">Melody Gersbach</a>\n                <a style="font-size: 10.470588235294pt;" title="7 topics" href="http://adventuresofabeautyqueen.com/tag/miss-universe-2010/" class="tag-link-24414353" shape="rect">Miss Universe 2010</a>\n                <a style="font-size: 9.4411764705882pt;" title="6 topics" href="http://adventuresofabeautyqueen.com/tag/miss-universe-2011-contestants/" class="tag-link-55197834" shape="rect">Miss Universe 2011 Contestants</a>\n                <a style="font-size: 12.529411764706pt;" title="9 topics" href="http://adventuresofabeautyqueen.com/tag/miss-world-philippines-2011/" class="tag-link-51487315" shape="rect">Miss World Philippines 2011</a>\n                <a style="font-size: 22pt;" title="28 topics" href="http://adventuresofabeautyqueen.com/tag/miss-world-philippines-2012/" class="tag-link-71720317" shape="rect">Miss World Philippines 2012</a>\n                <a style="font-size: 9.4411764705882pt;" title="6 topics" href="http://adventuresofabeautyqueen.com/tag/ms-universe-2009/" class="tag-link-23633756" shape="rect">Ms Universe 2009</a>\n                <a style="font-size: 9.4411764705882pt;" title="6 topics" href="http://adventuresofabeautyqueen.com/tag/mutya-ng-pilipinas-2009/" class="tag-link-23309102" shape="rect">Mutya ng Pilipinas 2009</a>\n                <a style="font-size: 10.470588235294pt;" title="7 topics" href="http://adventuresofabeautyqueen.com/tag/mutya-ng-pilipinas-2010/" class="tag-link-34793312" shape="rect">Mutya ng Pilipinas 2010</a>\n                <a style="font-size: 12.529411764706pt;" title="9 topics" href="http://adventuresofabeautyqueen.com/tag/mutya-ng-pilipinas-2012/" class="tag-link-95137019" shape="rect">Mutya ng Pilipinas 2012</a>\n                <a style="font-size: 10.470588235294pt;" title="7 topics" href="http://adventuresofabeautyqueen.com/tag/new-zealand/" class="tag-link-5833" shape="rect">New Zealand</a>\n                <a style="font-size: 10.470588235294pt;" title="7 topics" href="http://adventuresofabeautyqueen.com/tag/nicole-schmitz/" class="tag-link-74406024" shape="rect">Nicole Schmitz</a>\n                <a style="font-size: 11.5pt;" title="8 topics" href="http://adventuresofabeautyqueen.com/tag/nikette-henson/" class="tag-link-33571775" shape="rect">Nikette Henson</a>\n                <a style="font-size: 14.794117647059pt;" title="12 topics" href="http://adventuresofabeautyqueen.com/tag/pamela-bianca-manalo/" class="tag-link-17656958" shape="rect">Pamela Bianca Manalo</a>\n                <a style="font-size: 12.529411764706pt;" title="9 topics" href="http://adventuresofabeautyqueen.com/tag/queenie-rehman/" class="tag-link-53153091" shape="rect">Queenie Rehman</a>\n                <a style="font-size: 14.176470588235pt;" title="11 topics" href="http://adventuresofabeautyqueen.com/tag/queenierich-rehman/" class="tag-link-50153823" shape="rect">Queenierich Rehman</a>\n                <a style="font-size: 9.4411764705882pt;" title="6 topics" href="http://adventuresofabeautyqueen.com/tag/rizzini-alexis-gomez/" class="tag-link-93217042" shape="rect">Rizzini Alexis Gomez</a>\n                <a style="font-size: 8pt;" title="5 topics" href="http://adventuresofabeautyqueen.com/tag/sandra-seifert/" class="tag-link-17378259" shape="rect">Sandra Seifert</a>\n                <a style="font-size: 13.352941176471pt;" title="10 topics" href="http://adventuresofabeautyqueen.com/tag/shamcey-supsup/" class="tag-link-49950978" shape="rect">Shamcey Supsup</a>\n                <a style="font-size: 10.470588235294pt;" title="7 topics" href="http://adventuresofabeautyqueen.com/tag/thailand/" class="tag-link-10760" shape="rect">Thailand</a>\n                <a style="font-size: 12.529411764706pt;" title="9 topics" href="http://adventuresofabeautyqueen.com/tag/venus-raj/" class="tag-link-30321426" shape="rect">Venus Raj</a>\n              </div>\n            </li>\n            <li class="sidebox">\n              <h2>Meta</h2>\n              <ul>\n                <li>\n                  <a href="http://adventuresofabeautyqueen.wordpress.com/wp-login.php?action=register" shape="rect">Register</a>\n                </li>\n                <li>\n                  <a href="http://adventuresofabeautyqueen.wordpress.com/wp-login.php" shape="rect">Log in</a>\n                </li>\n                <li>\n                  <a title="Syndicate this site using RSS 2.0" href="http://adventuresofabeautyqueen.com/feed/" shape="rect">\n                    Entries\n                    <abbr title="Really Simple Syndication">RSS</abbr>\n                  </a>\n                </li>\n                <li>\n                  <a title="The latest comments to all posts in RSS" href="http://adventuresofabeautyqueen.com/comments/feed/" shape="rect">\n                    Comments\n                    <abbr title="Really Simple Syndication">RSS</abbr>\n                  </a>\n                </li>\n                <li>\n                  <a title="Powered by WordPress, state-of-the-art semantic personal publishing platform." href="http://wordpress.com/" shape="rect">WordPress.com</a>\n                </li>\n              </ul>\n            </li>\n            <li class="sidebox">\n              <h2>SEARCH ENGINE OPTIMIZATION!</h2>\n              <div class="textwidget">\n                <a href="http://www.submitexpress.com/" shape="rect">\n                  <img width="88" height="31" border="0" src="http://www.submitexpress.com/submitexpress.gif"></img>\n                </a>\n                <br clear="none"></br>\n                <a href="http://www.submitexpress.com/" shape="rect">Search Engine Optimization and SEO Tools</a>\n              </div>\n            </li>\n            <li class="sidebox">\n              <div class="textwidget"></div>\n            </li>\n          </ul>\n        </div>\n      </div>\n    </div>\n    <div id="footer">\n      <div id="colophon">\n        <p>\n          <a rel="generator" href="http://wordpress.com/?ref=footer" shape="rect">Blog at WordPress.com</a>\n          .\n        </p>\n        <p>\n          Theme:\n          <a title="Learn more about this theme" href="http://theme.wordpress.com/themes/mistylook/" shape="rect">MistyLook</a>\n          by WPThemes.\n        </p>\n        <br class="clear" clear="none"></br>\n      </div>\n    </div>\n    <script type="text/javascript">\n      var _qevents = _qevents || [], wpcomQuantcastData = {&quot;qacct&quot;:&quot;p-18-mFEk4J448M&quot;,&quot;labels&quot;:&quot;,language.en,type.wpcom,posttag.ali-forbes,posttag.annalie-forbes,posttag.bb-pilipinas-2012,posttag.elisa-najera,wa.as.fm.lifestyle-hobby,wa.pv.ads.adventuresofabeautyqueen&quot;};\nfunction wpcomQuantcastPixel( labels, options ) {\n\tvar i, defaults = wpcomQuantcastData, data = { event: \'ajax\' };\n\n\tlabels  = labels  || \'\';\n\toptions = options || {};\n\n\tif ( typeof labels != \'string\' )\n\t\toptions = labels;\n\n\tfor ( i in defaults ) {\n\t\tdata[i] = defaults[i];\n\t}\n\n\tfor ( i in options ) {\n\t\tdata[i] = options[i];\n\t}\n\n\tif ( data.labels ) {\n\t\tdata.labels += \',\' + labels;\n\t} else {\n\t\tdata.labels = labels;\n\t}\n\n\t_qevents.push( data );\n};\n(function() {var elem = document.createElement(\'script\');elem.src = (document.location.protocol == &quot;https:&quot; ? &quot;https://secure&quot; : &quot;http://edge&quot;) + &quot;.quantserve.com/quant.js&quot;;elem.async = true;elem.type = &quot;text/javascript&quot;;var scpt = document.getElementsByTagName(\'script\')[0];scpt.parentNode.insertBefore(elem, scpt);  })();\n_qevents.push( wpcomQuantcastData );\n    </script>\n    <noscript>\n      <div style="display: none;">\n        <img alt="" width="1" height="1" src="//pixel.quantserve.com/pixel/p-18-mFEk4J448M.gif?labels=%2Clanguage.en%2Ctype.wpcom%2Cposttag.ali-forbes%2Cposttag.annalie-forbes%2Cposttag.bb-pilipinas-2012%2Cposttag.elisa-najera%2Cwa.as.fm.lifestyle-hobby%2Cwa.pv.ads.adventuresofabeautyqueen"></img>\n      </div>\n    </noscript>\n    <script type="text/javascript">\n      /* &lt;![CDATA[ */\n\t(function($){\n\t\t$(document).on( \'ready post-load\', function() {\n\n\t\t\t// Remove the login box when clicking the page\n\t\t\t$( document ).mousedown( function( e ) {\n\t\t\t\tif ( null == $( e.target ).closest( \'#wpl-mustlogin\' ).get( 0 ) ) {\n\t\t\t\t\t$( \'#wpl-mustlogin\' ).remove();\n\t\t\t\t}\n\t\t\t});\n\n\t\t\t// Handle clicking the like button itself\n\t\t\t$(\'.wpl-button &gt; a.like\').click( function(e) {\n\t\t\t\te.preventDefault();\n\n\t\t\t\tvar postid = $(this).parent().attr(\'id\').split(\'like-\')[1];\n\t\t\t\t$.post( \'http://adventuresofabeautyqueen.com/wp-admin/admin-ajax.php\', {\n\t\t\t\t\t\'action\': \'wpl_record_stat\',\n\t\t\t\t\t\'stat_name\': \'loggedout_like_click\'\n\t\t\t\t} );\n\n\t\t\t\tvar tenMins = new Date();\n\t\t\t\ttenMins.setTime( tenMins.getTime() + 600000 );\n\t\t\t\tdocument.cookie = \'wpl_rand=6fc5a25624; expires=\' + tenMins.toGMTString() + \'; domain=wordpress.com; path=/;\';\n\n\t\t\t\t$(this).parent().siblings(\'.wpl-count\').after( \'\\\n\t\t\t\t\t&lt;div id=&quot;wpl-mustlogin&quot;&gt; \\\n\t\t\t\t\t\t&lt;form action=&quot;https://adventuresofabeautyqueen.wordpress.com/wp-login.php&quot; method=&quot;post&quot;&gt; \\\n\t\t\t\t\t\t\t&lt;p&gt;Just one more step to like this:&lt;/p&gt; \\\n\t\t\t\t\t\t\t&lt;label&gt;&lt;span&gt;Username&lt;/span&gt; &lt;input type=&quot;text&quot; name=&quot;log&quot; id=&quot;user_login&quot; class=&quot;input&quot; value=&quot;&quot; size=&quot;20&quot; tabindex=&quot;80&quot; /&gt;&lt;/label&gt; \\\n\t\t\t\t\t\t\t&lt;label&gt;&lt;span&gt;Password&lt;/span&gt; &lt;input type=&quot;password&quot; name=&quot;pwd&quot; id=&quot;user_pass&quot; class=&quot;input&quot; value=&quot;&quot; size=&quot;20&quot; tabindex=&quot;81&quot; /&gt;&lt;/label&gt; \\\n\t\t\t\t\t\t\t&lt;input type=&quot;submit&quot; name=&quot;wp-submit&quot; id=&quot;wp-submit&quot; class=&quot;button-primary&quot; value=&quot;Log In&quot; tabindex=&quot;82&quot; /&gt; \\\n\t\t\t\t\t\t\t&lt;input type=&quot;hidden&quot; name=&quot;postid&quot; value=&quot;\' + postid + \'&quot; /&gt; \\\n\t\t\t\t\t\t\t&lt;input type=&quot;hidden&quot; name=&quot;redirect_to&quot; value=&quot;http://adventuresofabeautyqueen.com/2012/04/09/annalie-forbes-an-abq-top-12-pick-in-bb-pilipinas-2012?year=2012&amp;#038;monthnum=04&amp;#038;day=09&amp;#038;name=annalie-forbes-an-abq-top-12-pick-in-bb-pilipinas-2012&amp;#038;like=1&quot; /&gt; \\\n\t\t\t\t\t\t\t&lt;input type=&quot;hidden&quot; name=&quot;wpl_rand&quot; value=&quot;6fc5a25624&quot; /&gt; \\\n\t\t\t\t\t\t\t&lt;p&gt;Not a member yet? &lt;a href=&quot;http://wordpress.com/signup/?ref=likebox&quot; id=&quot;wpl-signup-link&quot;&gt;Sign up with WordPress.com&lt;/a&gt;&lt;/p&gt; \\\n\t\t\t\t\t\t&lt;/form&gt; \\\n\t\t\t\t\t&lt;/div&gt; \\\n\t\t\t\t\');\n\n\t\t\t\t$(\'#wpl-mustlogin\').hide().slideDown(\'fast\');\n\t\t\t} );\n\n\t\t\t$(\'#wpl-mustlogin input.input\').live( \'focus\', function() {\n\t\t\t\t$(this).prev().hide();\n\t\t\t}).live( \'blur\', function() {\n\t\t\t\tif ( $(this).val() == \'\' ) {\n\t\t\t\t\t$(this).prev().show();\n\t\t\t\t}\n\t\t\t});\n\n\t\t\t$(\'#wpl-mustlogin input#wp-submit\').live( \'click\', function(e) {\n\t\t\t\te.preventDefault();\n\n\t\t\t\t$.post( \'http://adventuresofabeautyqueen.com/wp-admin/admin-ajax.php\', {\n\t\t\t\t\t\'action\': \'wpl_record_stat\',\n\t\t\t\t\t\'stat_name\': \'loggedout_login_submit\'\n\t\t\t\t}, function() {\n\t\t\t\t\t$(\'#wpl-mustlogin form\').submit();\n\t\t\t\t} );\n\t\t\t});\n\n\t\t\t$(\'#wpl-mustlogin a#wpl-signup-link\').live( \'click\', function(e) {\n\t\t\t\te.preventDefault();\n\n\t\t\t\tvar link = $(this).attr(\'href\');\n\n\t\t\t\t$.post( \'http://adventuresofabeautyqueen.com/wp-admin/admin-ajax.php\', {\n\t\t\t\t\t\'action\': \'wpl_record_stat\',\n\t\t\t\t\t\'stat_name\': \'loggedout_signup_click\'\n\t\t\t\t}, function() {\n\t\t\t\t\tlocation.href = link;\n\t\t\t\t} );\n\t\t\t});\n\t\t})\n\t})(jQuery);\n\t/* ]]&gt; */\n    </script>\n    <script src="http://s.gravatar.com/js/gprofiles.js?ver=201240ab" type="text/javascript"></script>\n    <script type="text/javascript"> /* &lt;![CDATA[ */ var WPGroHo = {&quot;my_hash&quot;:&quot;&quot;}; /* ]]&gt; */ </script>\n    <script src="http://s1.wp.com/wp-content/mu-plugins/gravatar-hovercards/wpgroho.js?m=1318621548g" type="text/javascript"></script>\n    <script>jQuery(document).ready(function($){ Gravatar.profile_cb = function( h, d ) { WPGroHo.syncProfileData( h, d ); }; Gravatar.my_hash = WPGroHo.my_hash; Gravatar.init( \'body\', \'#wp-admin-bar-my-account\' ); });</script>\n    <div style="display:none">\n      <div class="grofile-hash-map-5ed1f310f67c6d015482691527461208"> </div>\n      <div class="grofile-hash-map-6379991a005ec8c8b04933618d2ca706"> </div>\n      <div class="grofile-hash-map-306a0a2db28501001cda0e1d166ba3c0"> </div>\n    </div>\n    <script type="text/javascript">\n      /* &lt;![CDATA[ */\nvar HighlanderComments = {&quot;loggingInText&quot;:&quot;Logging In\\u2026&quot;,&quot;submittingText&quot;:&quot;Posting Comment\\u2026&quot;,&quot;postCommentText&quot;:&quot;Post Comment&quot;,&quot;connectingToText&quot;:&quot;Connecting to %s&quot;,&quot;commentingAsText&quot;:&quot;%1$s: You are commenting using your %2$s account.&quot;,&quot;logoutText&quot;:&quot;Log Out&quot;,&quot;loginText&quot;:&quot;Log In&quot;,&quot;connectURL&quot;:&quot;http:\\/\\/adventuresofabeautyqueen.wordpress.com\\/public.api\\/connect\\/?action=request&quot;,&quot;logoutURL&quot;:&quot;http:\\/\\/adventuresofabeautyqueen.wordpress.com\\/wp-login.php?action=logout&amp;_wpnonce=2e7e08429c&quot;,&quot;homeURL&quot;:&quot;http:\\/\\/adventuresofabeautyqueen.com\\/&quot;,&quot;postID&quot;:&quot;9628&quot;,&quot;gravDefault&quot;:&quot;identicon&quot;,&quot;enterACommentError&quot;:&quot;Please enter a comment&quot;,&quot;enterEmailError&quot;:&quot;Please enter your email address here&quot;,&quot;invalidEmailError&quot;:&quot;Invalid email address&quot;,&quot;enterAuthorError&quot;:&quot;Please enter your name here&quot;,&quot;gravatarFromEmail&quot;:&quot;This picture will show whenever you leave a comment. Click to customize it.&quot;,&quot;logInToExternalAccount&quot;:&quot;Log in to use details from one of these accounts.&quot;,&quot;change&quot;:&quot;Change&quot;,&quot;changeAccount&quot;:&quot;Change Account&quot;,&quot;comment_registration&quot;:&quot;&quot;,&quot;userIsLoggedIn&quot;:&quot;&quot;,&quot;isJetpack&quot;:&quot;0&quot;};\n/* ]]&gt; */\n    </script>\n    <script src="http://s0.wp.com/wp-content/mu-plugins/highlander-comments/script.js?m=1342824083g" type="text/javascript"></script>\n    <div id="bit" class="loggedout-follow-normal">\n      <a href="javascript:void(0)" class="bsub" shape="rect">\n        <span id="bsub-text">Follow</span>\n      </a>\n      <div id="bitsubscribe">\n        <h3>\n          <label for="loggedout-follow-field">Follow \xe2\x80\x9cAdventures of a Beauty Queen\xe2\x80\x9d</label>\n        </h3>\n        <form accept-charset="utf-8" action="https://subscribe.wordpress.com" id="loggedout-follow" method="post" enctype="application/x-www-form-urlencoded">\n          <p>Get every new post delivered to your Inbox.</p>\n          <p style="display: none;" id="loggedout-follow-error"></p>\n          <p class="bit-follow-count">Join 122 other followers</p>\n          <p>\n            <input \n            onblur="this.value=(this.value==&quot;&quot;) ? &quot;Enter email address&quot; : this.value;" onfocus="this.value=(this.value==&quot;Enter your email address&quot;) ? &quot;&quot; : this.value;" value="Enter your email address" style="width: 95%; padding: 1px 2px" name="email" id="loggedout-follow-field" type="email">\n</input>\n          </p>\n          <input value="subscribe" name="action" type="hidden"></input>\n          <input value="6272032" name="blog_id" type="hidden"></input>\n          <input value="http://adventuresofabeautyqueen.com/2012/04/09/annalie-forbes-an-abq-top-12-pick-in-bb-pilipinas-2012/" name="source" type="hidden"></input>\n          <input value="loggedout-follow" name="sub-type" type="hidden"></input>\n          <input value="b21dc870c0" name="_wpnonce" id="_wpnonce" type="hidden"></input>\n          <input value="/2012/04/09/annalie-forbes-an-abq-top-12-pick-in-bb-pilipinas-2012/" name="_wp_http_referer" type="hidden"></input>\n          <p id="bsub-subscribe-button">\n            <input value="Sign me up" type="submit"></input>\n          </p>\n        </form>\n        <div id="bsub-credit">\n          <a href="http://wordpress.com/signup/?ref=lof" shape="rect">Powered by WordPress.com</a>\n        </div>\n      </div>\n    </div>\n    <script charset="UTF-8" type="text/javascript" id="polldaddyRatings">\n      &lt;!--//--&gt;&lt;![CDATA[//&gt;&lt;!--\nPDRTJS_settings_163774_post_9628={&quot;id&quot;:163774,&quot;unique_id&quot;:&quot;wp-post-9628&quot;,&quot;title&quot;:&quot;Annalie%20Forbes%3A%20An%20ABQ%20Top%2012%20Pick%20in%20Bb.%20Pilipinas%26nbsp%3B2012%21&quot;,&quot;permalink&quot;:&quot;http:\\/\\/adventuresofabeautyqueen.com\\/2012\\/04\\/09\\/annalie-forbes-an-abq-top-12-pick-in-bb-pilipinas-2012\\/&quot;,&quot;item_id&quot;:&quot;_post_9628&quot;}; if ( typeof PDRTJS_RATING !== \'undefined\' ){if ( typeof PDRTJS_163774_post_9628 == \'undefined\' ){PDRTJS_163774_post_9628 = new PDRTJS_RATING( PDRTJS_settings_163774_post_9628 );}}\n//--&gt;&lt;!]]&gt;\n    </script>\n    <script src="http://i.polldaddy.com/ratings/rating.js" charset="UTF-8" type="text/javascript"></script>\n    <script type="text/javascript"> WPCOM_sharing_counts = {&quot;http:\\/\\/adventuresofabeautyqueen.com\\/2012\\/04\\/09\\/annalie-forbes-an-abq-top-12-pick-in-bb-pilipinas-2012\\/&quot;:9628} </script>\n    <script src="http://s0.wp.com/wp-content/mu-plugins/post-flair/sharing/sharing.js?m=1345189394g" type="text/javascript"></script>\n    <div style="display: none;" id="sharing_email">\n      <form action="" method="post" enctype="application/x-www-form-urlencoded">\n        <label for="target_email">Send to Email Address</label>\n        <input value="" name="target_email" id="target_email" type="text"></input>\n        <label for="source_name">Your Name</label>\n        <input value="" name="source_name" id="source_name" type="text"></input>\n        <label for="source_email">Your Email Address</label>\n        <input value="" name="source_email" id="source_email" type="text"></input>\n        <div id="sharing_recaptcha" class="recaptcha"></div>\n        <input value="6LcYW8MSAAAAADBAuEH9yaPcF7lWh11Iq62ZKtoo" name="recaptcha_public_key" id="recaptcha_public_key" type="hidden"></input>\n        <img height="16" width="16" alt="loading" src="http://s2.wp.com/wp-content/mu-plugins/post-flair/sharing/images/loading.gif?m=1315610318g" style="float: right; display: none" class="loading"></img>\n        <input value="Send Email" class="sharing_send" type="submit"></input>\n        <a href="#cancel" class="sharing_cancel" shape="rect">Cancel</a>\n        <div style="display: none;" class="errors errors-1"> Post was not sent - check your email addresses! </div>\n        <div style="display: none;" class="errors errors-2"> Email check failed, please try again </div>\n        <div style="display: none;" class="errors errors-3"> Sorry, your blog cannot share posts by email. </div>\n      </form>\n    </div>\n    <script charset="utf-8" type="text/javascript"> jQuery(document).ready(function(){ jQuery( \'.share-facebook\' ).click(function(){ window.open( jQuery(this).attr( \'href\' ), \'wpcomfacebook\', \'menubar=1,resizable=1,width=600,height=400\' ); return false; }); }); </script>\n    <script src="http://platform.twitter.com/widgets.js?ver=20111117" type="text/javascript"></script>\n    <script src="http://s1.wp.com/wp-content/js/devicepx.js?m=1349105731g" type="text/javascript"></script>\n    <script type="text/javascript">\n      // &lt;![CDATA[\n(function() {\ntry{\n  if ( window.external &amp;&amp;\'msIsSiteMode\' in window.external) {\n    if (window.external.msIsSiteMode()) {\n      var jl = document.createElement(\'script\');\n      jl.type=\'text/javascript\';\n      jl.async=true;\n      jl.src=\'/wp-content/plugins/ie-sitemode/custom-jumplist.php\';\n      var s = document.getElementsByTagName(\'script\')[0];\n      s.parentNode.insertBefore(jl, s);\n    }\n  }\n}catch(e){}\n})();\n// ]]&gt;\n    </script>\n    <script type="text/javascript" src="http://s.stats.wordpress.com/w.js?21"></script>\n    <script type="text/javascript">\n      st_go({\'blog\':\'6272032\',\'v\':\'wpcom\',\'user_id\':\'0\',\'post\':\'9628\',\'subd\':\'adventuresofabeautyqueen\'});\nex_go({\'crypt\':\'UE5VTUIlVktzQTNyL25iRl05dzhCTE14TX5KLmxxemZzXVR+NlYxZT1XWkxvZjUzJWNjRUNTeUhUZTVRN1ZqZFF4UXhGUHpjUiVJR1k1MFQ4KzklcUdWWXpmS2d5W0dhQlNZY05IUjNCUFVlSmwxNUtoVX53fitYMURvd0dvcGYyW0VoZmRVRVJ5alZ1Z3NhNS9hfjBGaVVGekRXb3FfczREWlNFc2RuJj9iNng2bHx2VE5jb29CWzhxbng/ZUhjTjZOWHBSNVJhZTNSLXVmandJaFVCbE8veHQyVkc5Z11tVWslU1o/U3o1YyY0eFsmd0JrVU84Ug==\'});\naddLoadEvent(function(){linktracker_init(\'6272032\',9628);});\n    </script>\n    <noscript>\n      <img alt="" style="height:0px;width:0px;overflow:hidden" src="http://stats.wordpress.com/b.gif?v=noscript"></img>\n    </noscript>\n  </body>\n</html>'
p11
sbsS'mentions'
p12
(lp13
(iedu.umass.cs.iesl.wikilink.expanded.data.ttypes
Mention
p14
(dp15
S'anchor_text'
p16
S'Elisa Najera'
p17
sS'context'
p18
(iedu.umass.cs.iesl.wikilink.expanded.data.ttypes
Context
p19
(dp20
S'middle'
p21
S'Elisa Najera'
p22
sS'right'
p23
S'of the Philippines. (Elisa was 4th Runner-up in Miss Universe 2008 when Dayana Mendoza won.)\xc3\x82\xc2\xa0 Hmmm\xe2\x80\xa6 do you think they look alike? Elisa vs Ali'
p24
sS'left'
p25
S'and scroll down to see what I mean\xe2\x80\xa6 Now it\xe2\x80\x99s Look Alike time and it looks like many pageant fans are calling Annalie Forbes the'
p26
sbsS'freebase_id'
p27
NsS'raw_text_offset'
p28
I16606
sS'wiki_url'
p29
S'http://en.wikipedia.org/wiki/Elisa_N%C3%A1jera'
p30
sbasS'doc_id'
p31
I12706
sS'rare_words'
p32
(lp33
(iedu.umass.cs.iesl.wikilink.expanded.data.ttypes
RareWord
p34
(dp35
S'word'
p36
S'Father'
p37
sS'offset'
p38
I15217
sba(iedu.umass.cs.iesl.wikilink.expanded.data.ttypes
RareWord
p39
(dp40
g36
S'gave'
p41
sg38
I16135
sba(iedu.umass.cs.iesl.wikilink.expanded.data.ttypes
RareWord
p42
(dp43
g36
S'Metro'
p44
sg38
I15101
sba(iedu.umass.cs.iesl.wikilink.expanded.data.ttypes
RareWord
p45
(dp46
g36
S'scroll'
p47
sg38
I16377
sba(iedu.umass.cs.iesl.wikilink.expanded.data.ttypes
RareWord
p48
(dp49
g36
S'forgot'
p50
sg38
I16036
sba(iedu.umass.cs.iesl.wikilink.expanded.data.ttypes
RareWord
p51
(dp52
g36
S'formidable'
p53
sg38
I15785
sba(iedu.umass.cs.iesl.wikilink.expanded.data.ttypes
RareWord
p54
(dp55
g36
S'Freshman'
p56
sg38
I15507
sba(iedu.umass.cs.iesl.wikilink.expanded.data.ttypes
RareWord
p57
(dp58
g36
S'beginnings'
p59
sg38
I15201
sba(iedu.umass.cs.iesl.wikilink.expanded.data.ttypes
RareWord
p60
(dp61
g36
S't'
p62
sg38
I15377
sba(iedu.umass.cs.iesl.wikilink.expanded.data.ttypes
RareWord
p63
(dp64
g36
S'Gonzales'
p65
sg38
I13614
sbasb.