(iedu.umass.cs.iesl.wikilink.expanded.data.ttypes
WikiLinkItem
p0
(dp1
S'url'
p2
S'http://actsofminortreason.blogspot.com/2011/04/quaff-review-12-hitachino-nest-jca.html'
p3
sS'content'
p4
(iedu.umass.cs.iesl.wikilink.expanded.data.ttypes
PageContentItem
p5
(dp6
S'articleText'
p7
NsS'raw'
p8
NsS'fullText'
p9
NsS'dom'
p10
S'<html dir="ltr">\n  <head>\n    <meta content="text/html; charset=UTF-8" http-equiv="Content-Type"></meta>\n    <script type="text/javascript">\n      (function() { var a=window,b=&quot;jstiming&quot;,d=&quot;tick&quot;;var e=function(c){this.t={};this.tick=function(c,p,h){h=void 0!=h?h:(new Date).getTime();this.t[c]=[h,p]};this[d](&quot;start&quot;,null,c)},f=new e;a.jstiming={Timer:e,load:f};if(a.performance&amp;&amp;a.performance.timing){var g=a.performance.timing,j=a[b].load,k=g.navigationStart,l=g.responseStart;0&lt;k&amp;&amp;l&gt;=k&amp;&amp;(j[d](&quot;_wtsrt&quot;,void 0,k),j[d](&quot;wtsrt_&quot;,&quot;_wtsrt&quot;,l),j[d](&quot;tbsd_&quot;,&quot;wtsrt_&quot;))}\ntry{var m=null;a.chrome&amp;&amp;a.chrome.csi&amp;&amp;(m=Math.floor(a.chrome.csi().pageT),j&amp;&amp;0&lt;k&amp;&amp;(j[d](&quot;_tbnd&quot;,void 0,a.chrome.csi().startE),j[d](&quot;tbnd_&quot;,&quot;_tbnd&quot;,k)));null==m&amp;&amp;a.gtbExternal&amp;&amp;(m=a.gtbExternal.pageT());null==m&amp;&amp;a.external&amp;&amp;(m=a.external.pageT,j&amp;&amp;0&lt;k&amp;&amp;(j[d](&quot;_tbnd&quot;,void 0,a.external.startE),j[d](&quot;tbnd_&quot;,&quot;_tbnd&quot;,k)));m&amp;&amp;(a[b].pt=m)}catch(n){};a.tickAboveFold=function(c){var i=0;if(c.offsetParent){do i+=c.offsetTop;while(c=c.offsetParent)}c=i;750&gt;=c&amp;&amp;a[b].load[d](&quot;aft&quot;)};var q=!1;function r(){q||(q=!0,a[b].load[d](&quot;firstScrollTime&quot;))}a.addEventListener?a.addEventListener(&quot;scroll&quot;,r,!1):a.attachEvent(&quot;onscroll&quot;,r);\n })();\n    </script>\n    <meta content="true" name="MSSmartTagsPreventParsing"></meta>\n    <meta content="blogger" name="generator"></meta>\n    <link type="image/x-icon" rel="icon" href="http://actsofminortreason.blogspot.com/favicon.ico"></link>\n    <link rel="canonical" href="http://actsofminortreason.blogspot.com/2011/04/quaff-review-12-hitachino-nest-jca.html"></link>\n    <link href="http://actsofminortreason.blogspot.com/feeds/posts/default" title="Acts of Minor Treason - Atom" type="application/atom+xml" rel="alternate"></link>\n    <link href="http://actsofminortreason.blogspot.com/feeds/posts/default?alt=rss" title="Acts of Minor Treason - RSS" type="application/rss+xml" rel="alternate"></link>\n    <link href="http://www.blogger.com/feeds/1737980321158585254/posts/default" title="Acts of Minor Treason - Atom" type="application/atom+xml" rel="service.post"></link>\n    <link href="http://www.blogger.com/rsd.g?blogID=1737980321158585254" title="RSD" type="application/rsd+xml" rel="EditURI"></link>\n    <link href="http://actsofminortreason.blogspot.com/feeds/2402820819140014373/comments/default" title="Acts of Minor Treason - Atom" type="application/atom+xml" rel="alternate"></link>\n    <link href="http://4.bp.blogspot.com/-hpzNh4-ftSw/TbrfkApjraI/AAAAAAAABpY/osdtgVscUZ8/s72-c/hitachinonest.jpg" rel="image_src"></link>\n    <title>Acts of Minor Treason: Quaff Review #12: Hitachino Nest JCA</title>\n    <link href="//www.blogger.com/static/v1/widgets/1937454905-widget_css_bundle.css" rel="stylesheet" type="text/css"></link>\n    <link href="//www.google.com/uds/css/gsearch.css" rel="stylesheet" type="text/css"></link>\n    <link href="//www.blogger.com/dyn-css/authorization.css?targetBlogID=1737980321158585254&amp;zx=bfa256d1-9c5b-4249-bc5f-0b12c24e55b7" rel="stylesheet" type="text/css"></link>\n    <style type="text/css" id="page-skin-1">\n      &lt;!--\n/*\n-----------------------------------------------\nBlogger Template Style\nName:     Minima Black\nDate:     26 Feb 2004\nUpdated by: Blogger Team\n----------------------------------------------- */\n/* Variable definitions\n====================\n&lt;Variable name=&quot;bgcolor&quot; description=&quot;Page Background Color&quot;\ntype=&quot;color&quot; default=&quot;#000&quot;&gt;\n&lt;Variable name=&quot;textcolor&quot; description=&quot;Text Color&quot;\ntype=&quot;color&quot; default=&quot;#ccc&quot;&gt;\n&lt;Variable name=&quot;linkcolor&quot; description=&quot;Link Color&quot;\ntype=&quot;color&quot; default=&quot;#9ad&quot;&gt;\n&lt;Variable name=&quot;pagetitlecolor&quot; description=&quot;Blog Title Color&quot;\ntype=&quot;color&quot; default=&quot;#ccc&quot;&gt;\n&lt;Variable name=&quot;descriptioncolor&quot; description=&quot;Blog Description Color&quot;\ntype=&quot;color&quot; default=&quot;#777&quot;&gt;\n&lt;Variable name=&quot;titlecolor&quot; description=&quot;Post Title Color&quot;\ntype=&quot;color&quot; default=&quot;#ad9&quot;&gt;\n&lt;Variable name=&quot;bordercolor&quot; description=&quot;Border Color&quot;\ntype=&quot;color&quot; default=&quot;#333&quot;&gt;\n&lt;Variable name=&quot;sidebarcolor&quot; description=&quot;Sidebar Title Color&quot;\ntype=&quot;color&quot; default=&quot;#777&quot;&gt;\n&lt;Variable name=&quot;sidebartextcolor&quot; description=&quot;Sidebar Text Color&quot;\ntype=&quot;color&quot; default=&quot;#999&quot;&gt;\n&lt;Variable name=&quot;visitedlinkcolor&quot; description=&quot;Visited Link Color&quot;\ntype=&quot;color&quot; default=&quot;#a7a&quot;&gt;\n&lt;Variable name=&quot;bodyfont&quot; description=&quot;Text Font&quot;\ntype=&quot;font&quot; default=&quot;normal normal 100% \'Trebuchet MS\',Trebuchet,Verdana,Sans-serif&quot;&gt;\n&lt;Variable name=&quot;headerfont&quot; description=&quot;Sidebar Title Font&quot;\ntype=&quot;font&quot;\ndefault=&quot;normal bold 78% \'Trebuchet MS\',Trebuchet,Arial,Verdana,Sans-serif&quot;&gt;\n&lt;Variable name=&quot;pagetitlefont&quot; description=&quot;Blog Title Font&quot;\ntype=&quot;font&quot;\ndefault=&quot;normal bold 200% \'Trebuchet MS\',Trebuchet,Verdana,Sans-serif&quot;&gt;\n&lt;Variable name=&quot;descriptionfont&quot; description=&quot;Blog Description Font&quot;\ntype=&quot;font&quot;\ndefault=&quot;normal normal 78% \'Trebuchet MS\', Trebuchet, Verdana, Sans-serif&quot;&gt;\n&lt;Variable name=&quot;postfooterfont&quot; description=&quot;Post Footer Font&quot;\ntype=&quot;font&quot;\ndefault=&quot;normal normal 78% \'Trebuchet MS\', Trebuchet, Arial, Verdana, Sans-serif&quot;&gt;\n&lt;Variable name=&quot;startSide&quot; description=&quot;Start side in blog language&quot;\ntype=&quot;automatic&quot; default=&quot;left&quot;&gt;\n&lt;Variable name=&quot;endSide&quot; description=&quot;End side in blog language&quot;\ntype=&quot;automatic&quot; default=&quot;right&quot;&gt;\n*/\n/* Use this with templates/template-twocol.html */\nbody {\nbackground:#000000;\nmargin:0;\ncolor:#cccccc;\nfont: x-small &quot;Trebuchet MS&quot;, Trebuchet, Verdana, Sans-serif;\nfont-size/* */:/**/small;\nfont-size: /**/small;\ntext-align: center;\n}\na:link {\ncolor:#99aadd;\ntext-decoration:none;\n}\na:visited {\ncolor:#aa77aa;\ntext-decoration:none;\n}\na:hover {\ncolor:#99aadd;\ntext-decoration:underline;\n}\na img {\nborder-width:0;\n}\n/* Header\n-----------------------------------------------\n*/\n#header-wrapper {\nwidth:660px;\nmargin:0 auto 10px;\nborder:1px solid #777777;\n}\n#header-inner {\nbackground-position: center;\nmargin-left: auto;\nmargin-right: auto;\n}\n#header {\nmargin: 5px;\nborder: 1px solid #777777;\ntext-align: center;\ncolor:#e6e6e6;\n}\n#header h1 {\nmargin:5px 5px 0;\npadding:15px 20px .25em;\nline-height:1.2em;\ntext-transform:uppercase;\nletter-spacing:.2em;\nfont: normal bold 200% Verdana, sans-serif;\n}\n#header a {\ncolor:#e6e6e6;\ntext-decoration:none;\n}\n#header a:hover {\ncolor:#e6e6e6;\n}\n#header .description {\nmargin:0 5px 5px;\npadding:0 20px 15px;\nmax-width:700px;\ntext-transform:uppercase;\nletter-spacing:.2em;\nline-height: 1.4em;\nfont: normal bold 30% Courier, monospace;\ncolor: #000000;\n}\n#header img {\nmargin-left: auto;\nmargin-right: auto;\n}\n/* Outer-Wrapper\n----------------------------------------------- */\n#outer-wrapper {\nwidth: 660px;\nmargin:0 auto;\npadding:10px;\ntext-align:left;\nfont: normal normal 99% Verdana, sans-serif;\n}\n#main-wrapper {\nwidth: 410px;\nfloat: left;\nword-wrap: break-word; /* fix for long text breaking sidebar float in IE */\noverflow: hidden;     /* fix for long non-text content breaking IE sidebar float */\n}\n#sidebar-wrapper {\nwidth: 220px;\nfloat: right;\nword-wrap: break-word; /* fix for long text breaking sidebar float in IE */\noverflow: hidden;     /* fix for long non-text content breaking IE sidebar float */\n}\n/* Headings\n----------------------------------------------- */\nh2 {\nmargin:1.5em 0 .75em;\nfont:italic normal 86% Verdana, sans-serif;\nline-height: 1.4em;\ntext-transform:uppercase;\nletter-spacing:.2em;\ncolor:#777777;\n}\n/* Posts\n-----------------------------------------------\n*/\nh2.date-header {\nmargin:1.5em 0 .5em;\n}\n.post {\nmargin:.5em 0 1.5em;\nborder-bottom:1px dotted #777777;\npadding-bottom:1.5em;\n}\n.post h3 {\nmargin:.25em 0 0;\npadding:0 0 4px;\nfont-size:140%;\nfont-weight:normal;\nline-height:1.4em;\ncolor:#99aadd;\n}\n.post h3 a, .post h3 a:visited, .post h3 strong {\ndisplay:block;\ntext-decoration:none;\ncolor:#99aadd;\nfont-weight:bold;\n}\n.post h3 strong, .post h3 a:hover {\ncolor:#cccccc;\n}\n.post-body {\nmargin:0 0 .75em;\nline-height:1.6em;\n}\n.post-body blockquote {\nline-height:1.3em;\n}\n.post-footer {\nmargin: .75em 0;\ncolor:#777777;\ntext-transform:uppercase;\nletter-spacing:.1em;\nfont: normal normal 78% Trebuchet, Trebuchet MS, Arial, sans-serif;\nline-height: 1.4em;\n}\n.comment-link {\nmargin-left:.6em;\n}\n.post img, table.tr-caption-container {\npadding:4px;\nborder:1px solid #777777;\n}\n.tr-caption-container img {\nborder: none;\npadding: 0;\n}\n.post blockquote {\nmargin:1em 20px;\n}\n.post blockquote p {\nmargin:.75em 0;\n}\n/* Comments\n----------------------------------------------- */\n#comments h4 {\nmargin:1em 0;\nfont-weight: bold;\nline-height: 1.4em;\ntext-transform:uppercase;\nletter-spacing:.2em;\ncolor: #777777;\n}\n#comments-block {\nmargin:1em 0 1.5em;\nline-height:1.6em;\n}\n#comments-block .comment-author {\nmargin:.5em 0;\n}\n#comments-block .comment-body {\nmargin:.25em 0 0;\n}\n#comments-block .comment-footer {\nmargin:-.25em 0 2em;\nline-height: 1.4em;\ntext-transform:uppercase;\nletter-spacing:.1em;\n}\n#comments-block .comment-body p {\nmargin:0 0 .75em;\n}\n.deleted-comment {\nfont-style:italic;\ncolor:gray;\n}\n.feed-links {\nclear: both;\nline-height: 2.5em;\n}\n#blog-pager-newer-link {\nfloat: left;\n}\n#blog-pager-older-link {\nfloat: right;\n}\n#blog-pager {\ntext-align: center;\n}\n/* Sidebar Content\n----------------------------------------------- */\n.sidebar {\ncolor: #999999;\nline-height: 1.5em;\n}\n.sidebar ul {\nlist-style:none;\nmargin:0 0 0;\npadding:0 0 0;\n}\n.sidebar li {\nmargin:0;\npadding-top:0;\npadding-right:0;\npadding-bottom:.25em;\npadding-left:15px;\ntext-indent:-15px;\nline-height:1.5em;\n}\n.sidebar .widget, .main .widget {\nborder-bottom:1px dotted #777777;\nmargin:0 0 1.5em;\npadding:0 0 1.5em;\n}\n.main .Blog {\nborder-bottom-width: 0;\n}\n/* Profile\n----------------------------------------------- */\n.profile-img {\nfloat: left;\nmargin-top: 0;\nmargin-right: 5px;\nmargin-bottom: 5px;\nmargin-left: 0;\npadding: 4px;\nborder: 1px solid #777777;\n}\n.profile-data {\nmargin:0;\ntext-transform:uppercase;\nletter-spacing:.1em;\nfont: normal normal 78% Trebuchet, Trebuchet MS, Arial, sans-serif;\ncolor: #777777;\nfont-weight: bold;\nline-height: 1.6em;\n}\n.profile-datablock {\nmargin:.5em 0 .5em;\n}\n.profile-textblock {\nmargin: 0.5em 0;\nline-height: 1.6em;\n}\n.profile-link {\nfont: normal normal 78% Trebuchet, Trebuchet MS, Arial, sans-serif;\ntext-transform: uppercase;\nletter-spacing: .1em;\n}\n/* Footer\n----------------------------------------------- */\n#footer {\nwidth:660px;\nclear:both;\nmargin:0 auto;\npadding-top:15px;\nline-height: 1.6em;\ntext-transform:uppercase;\nletter-spacing:.1em;\ntext-align: center;\n}\n\n--&gt;\n    </style>\n    <script type="text/javascript">\n      var a=navigator,b=&quot;userAgent&quot;,c=&quot;indexOf&quot;,f=&quot;&amp;m=1&quot;,g=&quot;(^|&amp;)m=&quot;,h=&quot;?&quot;,i=&quot;?m=1&quot;;function j(){var d=window.location.href,e=d.split(h);switch(e.length){case 1:return d+i;case 2:return 0&lt;=e[1].search(g)?null:d+f;default:return null}}if(-1!=a[b][c](&quot;Mobile&quot;)&amp;&amp;-1!=a[b][c](&quot;WebKit&quot;)&amp;&amp;-1==a[b][c](&quot;iPad&quot;)||-1!=a[b][c](&quot;Opera Mini&quot;)||-1!=a[b][c](&quot;IEMobile&quot;)){var k=j();k&amp;&amp;window.location.replace(k)};\n    </script>\n    <script type="text/javascript"> if (window.jstiming) window.jstiming.load.tick(\'headEnd\'); </script>\n  </head>\n  <body>\n    <div id="navbar" class="navbar section">\n      <div id="Navbar1" class="widget Navbar">\n        <script type="text/javascript"> function setAttributeOnload(object, attribute, val) { if(window.addEventListener) { window.addEventListener(\'load\', function(){ object[attribute] = val; }, false); } else { window.attachEvent(\'onload\', function(){ object[attribute] = val; }); } } </script>\n        <div id="navbar-iframe-container"></div>\n        <script src="https://apis.google.com/js/plusone.js" type="text/javascript"></script>\n        <script type="text/javascript">\n          gapi.load(&quot;iframes-styles-bubble&quot;, function() {\n          if (window.iframes &amp;&amp; iframes.open) {\n            iframes.open(\n                \'//www.blogger.com/navbar.g?targetBlogID\\0751737980321158585254\\46blogName\\75Acts+of+Minor+Treason\\46publishMode\\75PUBLISH_MODE_BLOGSPOT\\46navbarType\\75BLUE\\46layoutType\\75LAYOUTS\\46searchRoot\\75http://actsofminortreason.blogspot.com/search\\46blogLocale\\75en\\46v\\0752\\46homepageUrl\\75http://actsofminortreason.blogspot.com/\\46targetPostID\\0752402820819140014373\\46blogPostOrPageUrl\\75http://actsofminortreason.blogspot.com/2011/04/quaff-review-12-hitachino-nest-jca.html\\46vt\\75-7298996543721485584\',\n                {\n                  container: &quot;navbar-iframe-container&quot;,\n                  id: &quot;navbar-iframe&quot;\n                },\n                {\n                });\n          }\n        });\n        </script>\n        <script type="text/javascript">\n          (function() {\nvar script = document.createElement(\'script\');\nscript.type = \'text/javascript\';\nscript.src = \'//pagead2.googlesyndication.com/pagead/js/google_top_exp.js\';\nvar head = document.getElementsByTagName(\'head\')[0];\nif (head) {\nhead.appendChild(script);\n}})();\n        </script>\n      </div>\n    </div>\n    <div id="outer-wrapper">\n      <div id="wrap2">\n        <span style="display:none;" id="skiplinks">\n          <a href="#main" shape="rect">skip to main </a>\n          |\n          <a href="#sidebar" shape="rect">skip to sidebar</a>\n        </span>\n        <div id="header-wrapper">\n          <div id="header" class="header section">\n            <div id="Header1" class="widget Header">\n              <div id="header-inner">\n                <a style="display: block" href="http://actsofminortreason.blogspot.com/" shape="rect">\n                  <img width="648px; " style="display: block" src="http://1.bp.blogspot.com/-GpM-7eQhv5A/T8AEgZzVgQI/AAAAAAAACxU/lsqMyVs9SbQ/s1600/quebecheader.jpg" height="120px; " alt="Acts of Minor Treason" id="Header1_headerimg"></img>\n                </a>\n              </div>\n            </div>\n          </div>\n        </div>\n        <div id="content-wrapper">\n          <div style="text-align:center" id="crosscol-wrapper">\n            <div id="crosscol" class="crosscol section"></div>\n          </div>\n          <div id="main-wrapper">\n            <div id="main" class="main section">\n              <div id="Blog1" class="widget Blog">\n                <div class="blog-posts hfeed">\n                  <div class="date-outer">\n                    <h2 class="date-header">\n                      <span>Friday, April 29, 2011</span>\n                    </h2>\n                    <div class="date-posts">\n                      <div class="post-outer">\n                        <div itemtype="http://schema.org/BlogPosting" itemscope="itemscope" class="post hentry"> </div>\n                      </div>\n                    </div>\n                  </div>\n                </div>\n              </div>\n            </div>\n          </div>\n        </div>\n      </div>\n    </div>\n  </body>\n  <head>\n    <meta itemprop="image_url" content="http://4.bp.blogspot.com/-hpzNh4-ftSw/TbrfkApjraI/AAAAAAAABpY/osdtgVscUZ8/s72-c/hitachinonest.jpg"></meta>\n  </head>\n  <body>\n    <a name="2402820819140014373" shape="rect"></a>\n    <h3 itemprop="name" class="post-title entry-title"> Quaff Review #12: Hitachino Nest JCA </h3>\n    <div class="post-header">\n      <div class="post-header-line-1"></div>\n    </div>\n    <div itemprop="description articleBody" id="post-body-2402820819140014373" class="post-body entry-content">\n      <span style="font-family:verdana;">\n        At one time, I figured that by now I\'d be in Japan already. Back during my last years of university, when the Great Recession was just an unresolved future possibility, I was after a post as an Assistant Language Teacher in the JET Programme, a Japanese government initiative that brings native English speakers into Japanese classrooms. I got rejected twice; both times they liked my essay, and both times the interview did not go nearly so well. Still, while I was in Toronto it was simple to move on.\n      </span>\n      <br clear="none"></br>\n      <br clear="none"></br>\n      <span style="font-family:verdana;">\n        Here in Vancouver, there are rather more reminders of that possible path I didn\'t take. One of them I found in, of all places, a beer and wine store: a bottle of Hitachino Nest Japanese Classic Ale - from &quot;hitachino,&quot; which not only does not seem to mean &quot;owl&quot; but does not even appear in my Japanese dictionary, and &quot;nest,&quot; meaning... well,\n        <span style="font-style: italic;">nest</span>\n        . The front label is easily understandable; it\'s the back that\'s swimming in hiragana. It\'s one of several beers produced by the\n        <a href="http://www.kodawari.cc/?en_home.html" shape="rect">Kiuchi Brewery</a>\n        in\n        <a href="http://en.wikipedia.org/wiki/Naka,_Ibaraki" shape="rect">Naka, Ibaraki</a>\n        - close enough to Fukushima Prefecture that the company\'s English website has front-and-center assurances that no radioactivity was detected in their products.\n      </span>\n      <br clear="none"></br>\n      <br clear="none"></br>\n      <a href="http://4.bp.blogspot.com/-hpzNh4-ftSw/TbrfkApjraI/AAAAAAAABpY/osdtgVscUZ8/s1600/hitachinonest.jpg" onblur="try {parent.deselectBloggerImageGracefully();} catch(e) {}" shape="rect">\n        <img border="0" alt="" src="http://4.bp.blogspot.com/-hpzNh4-ftSw/TbrfkApjraI/AAAAAAAABpY/osdtgVscUZ8/s320/hitachinonest.jpg" style="display: block; margin: 0px auto 10px; text-align: center; cursor: pointer; width: 320px; height: 240px;" id="BLOGGER_PHOTO_ID_5601034896331222434"></img>\n      </a>\n      <span style="font-family:verdana;">\n        One reason I was interested in this, aside from the Japanese connection, was that this is a historical beer - hence the name Japanese\n        <span style="font-style: italic;">Classic</span>\n        Ale. According to the back label, this is a modern reconstruction of the first kind of Japanese beer, brewed during the\n        <a href="http://en.wikipedia.org/wiki/Edo_period" shape="rect">Edo period</a>\n        , which for those of you who fell asleep in Japanese History class lasted from 1603 to 1868. Japanese Classic Ale is aged in cedar casks, though there\'s no mention of how long, in a technique borrowed from the old English IPA method.\n      </span>\n      <br clear="none"></br>\n      <br clear="none"></br>\n      <span style="font-family:verdana;">\n        So how\'s it taste? Like nothing I\'ve ever had before - not even Route des \xc3\x83\xc2\xa9pices, that Qu\xc3\x83\xc2\xa9becois beer with peppercorns in it. Kiuchi\'s website describes it as having &quot;a unique note of cedar and [a] complex spicy yet mild aroma,&quot; and it did start out tasting spicy when I took my first sip, and pleasantly spicy at that. Beyond that there was another sensation in it, something that took me a while to pin down - it wasn\'t fizzy, more like little bubbles full of strange flavor coursing over my tongue.\n      </span>\n      <br clear="none"></br>\n      <br clear="none"></br>\n      <span style="font-family:verdana;">\n        Salt. Japanese Classic Ale tasted\n        <span style="font-weight: bold;">salty</span>\n        . It may just be in my mind; the only ingredients attested on the label are water, malt, hops, and yeast, and it took me a couple of minutes just to identify the taste. The salty aftertaste lingered for a while afterward, too  - which is where Hitachino Nest Japanese Classic Ale loses points with me. Generally speaking, I\'m not a fan of aftertastes.\n      </span>\n      <br clear="none"></br>\n      <br clear="none"></br>\n      <span style="font-family:verdana;">\n        The bottle I picked up contained 330 mL with 7.5% alc./vol. Kiuchi\'s website says that it\'s available in Japan and the United States, but this isn\'t completely accurate; I found my bottle at Firefly Fine Wines and Ales in Vancouver, and I was far from the only one to try it out, it seems.\n      </span>\n      <br clear="none"></br>\n      <br clear="none"></br>\n      <span style="font-family:verdana;">\n        <span style="font-weight: bold;">ANDREW\'S RATING:</span>\n        3/5\n      </span>\n      <br clear="none"></br>\n      <br clear="none"></br>\n      <span style="font-weight: bold;font-family:verdana;">Previous Quaff Reviews</span>\n      <br clear="none"></br>\n      <ul>\n        <li>\n          <span style="font-family:verdana;">\n            #11:\n            <a href="http://actsofminortreason.blogspot.com/2011/03/quaff-review-11-la-loubecoise.html" shape="rect">La Loub\xc3\x83\xc2\xa9coise</a>\n          </span>\n          <br clear="none"></br>\n        </li>\n        <li>\n          <span style="font-family:verdana;">\n            #10:\n            <a href="http://actsofminortreason.blogspot.com/2011/02/quaff-review-10-summer-honey-seasonal.html" shape="rect">Summer Honey Seasonal Ale</a>\n          </span>\n          <br clear="none"></br>\n        </li>\n        <li>\n          <span style="font-family:verdana;">\n            #9:\n            <a href="http://actsofminortreason.blogspot.com/2010/10/quaff-review-9-earthquake-high-gravity.html" shape="rect">Earthquake High Gravity Lager</a>\n          </span>\n          <br clear="none"></br>\n        </li>\n        <li>\n          <span style="font-family:verdana;">\n            #8:\n            <a href="http://actsofminortreason.blogspot.com/2010/09/quaff-review-8-route-des-epices.html" shape="rect">Route des \xc3\x83\xc2\xa9pices</a>\n          </span>\n          <br clear="none"></br>\n        </li>\n        <li>\n          <span style="font-family:verdana;">\n            #7:\n            <a href="http://actsofminortreason.blogspot.com/2009/12/quaff-review-7-sparks-plus.html" shape="rect">Sparks Plus</a>\n          </span>\n          <br clear="none"></br>\n        </li>\n        <li>\n          <span style="font-family:verdana;">\n            #6:\n            <a href="http://actsofminortreason.blogspot.com/2009/10/quaff-review-6-hurricane-high-gravity.html" shape="rect">Hurricane High Gravity Lager</a>\n          </span>\n          <br clear="none"></br>\n        </li>\n        <li>\n          <span style="font-family:verdana;">\n            #5:\n            <a href="http://actsofminortreason.blogspot.com/2009/08/quaff-review-5-lindependante.html" shape="rect">L\'Ind\xc3\x83\xc2\xa9pendante</a>\n          </span>\n          <br clear="none"></br>\n        </li>\n        <li>\n          <span style="font-family:verdana;">\n            #4:\n            <a href="http://actsofminortreason.blogspot.com/2009/07/quaff-review-4-antigravity-light-ale.html" shape="rect">Antigravity Light Ale</a>\n          </span>\n          <br clear="none"></br>\n        </li>\n        <li>\n          <span style="font-family:verdana;">\n            #3:\n            <a href="http://actsofminortreason.blogspot.com/2009/06/quaff-review-3-nektar.html" shape="rect">Nektar</a>\n          </span>\n          <br clear="none"></br>\n        </li>\n        <li>\n          <span style="font-family:verdana;">\n            #2:\n            <a href="http://actsofminortreason.blogspot.com/2009/05/quaff-review-2-innis-gunn-original.html" shape="rect">Innis &amp; Gunn Original</a>\n          </span>\n          <br clear="none"></br>\n        </li>\n        <li>\n          <span style="font-family:verdana;">\n            #1:\n            <a href="http://actsofminortreason.blogspot.com/2009/04/quaff-review-1-abbey-belgian-spiced-ale.html" shape="rect">Abbey Belgian Spiced Ale</a>\n          </span>\n        </li>\n      </ul>\n      <div style="clear: both;"></div>\n    </div>\n    <div class="post-footer">\n      <div class="post-footer-line post-footer-line-1">\n        <span class="post-author vcard">\n          Posted by\n          <span itemtype="http://schema.org/Person" itemscope="itemscope" itemprop="author" class="fn"> </span>\n        </span>\n      </div>\n    </div>\n  </body>\n  <head>\n    <meta itemprop="url" content="http://www.blogger.com/profile/10457452561340581723"></meta>\n    <meta itemprop="articleBody/aiaBlogId" content="1737980321158585254"></meta>\n    <meta itemprop="articleBody/aiaPostId" content="2402820819140014373"></meta>\n  </head>\n  <body>\n    <a title="author profile" rel="author" href="http://www.blogger.com/profile/10457452561340581723" shape="rect">\n      <span itemprop="name">Andrew Barton</span>\n    </a>\n    <span class="post-timestamp"> at </span>\n  </body>\n  <head>\n    <meta itemprop="url" content="http://actsofminortreason.blogspot.com/2011/04/quaff-review-12-hitachino-nest-jca.html"></meta>\n  </head>\n  <body>\n    <a title="permanent link" rel="bookmark" href="http://actsofminortreason.blogspot.com/2011/04/quaff-review-12-hitachino-nest-jca.html" class="timestamp-link" shape="rect">\n      <abbr title="2011-04-29T09:02:00-07:00" itemprop="datePublished" class="published">09:02</abbr>\n    </a>\n    <span class="post-comment-link"> </span>\n    <span class="post-icons">\n      <span class="item-action">\n        <a title="Email Post" href="http://www.blogger.com/email-post.g?blogID=1737980321158585254&amp;postID=2402820819140014373" shape="rect">\n          <img width="18" src="http://img1.blogblog.com/img/icon18_email.gif" height="13" alt="" class="icon-action"></img>\n        </a>\n      </span>\n      <span class="item-control blog-admin pid-443424643">\n        <a title="Edit Post" href="http://www.blogger.com/post-edit.g?blogID=1737980321158585254&amp;postID=2402820819140014373&amp;from=pencil" shape="rect">\n          <img width="18" src="http://img2.blogblog.com/img/icon18_edit_allbkg.gif" height="18" alt="" class="icon-action"></img>\n        </a>\n      </span>\n    </span>\n    <div class="post-footer-line post-footer-line-2">\n      <span class="post-labels">\n        Labels:\n        <a rel="tag" href="http://actsofminortreason.blogspot.com/search/label/beer" shape="rect">beer</a>\n        ,\n        <a rel="tag" href="http://actsofminortreason.blogspot.com/search/label/japan" shape="rect">japan</a>\n        ,\n        <a rel="tag" href="http://actsofminortreason.blogspot.com/search/label/quaff" shape="rect">quaff</a>\n        ,\n        <a rel="tag" href="http://actsofminortreason.blogspot.com/search/label/review" shape="rect">review</a>\n      </span>\n    </div>\n    <div class="post-footer-line post-footer-line-3">\n      <span class="reaction-buttons"> </span>\n      <table width="100%" cellspacing="0" cellpadding="0" border="0">\n        <tr>\n          <td width="1%" class="reactions-label-cell" valign="top" rowspan="1" nowrap="nowrap" colspan="1">\n            <span class="reactions-label"> Reactions:</span>\n            \xc2\xa0\n          </td>\n          <td rowspan="1" colspan="1">\n            <iframe \n            src="http://www.blogger.com/blog-post-reactions.g?options=%5Btry+harder,+interesting,+awesome%5D&amp;textColor=%23cccccc#http://actsofminortreason.blogspot.com/2011/04/quaff-review-12-hitachino-nest-jca.html" name="reactions" allowtransparency="true" class="reactions-iframe" scrolling="no" frameborder="0">\n</iframe>\n          </td>\n        </tr>\n      </table>\n    </div>\n    <div id="comments" class="comments">\n      <a name="comments" shape="rect"></a>\n      <h4>No comments:</h4>\n      <div id="Blog1_comments-block-wrapper">\n        <dl id="comments-block" class="avatar-comment-indent"></dl>\n      </div>\n      <p class="comment-footer"> </p>\n      <div class="comment-form">\n        <a name="comment-form" shape="rect"></a>\n        <h4 id="comment-post-message">Post a Comment</h4>\n        <p> </p>\n        <a href="http://www.blogger.com/comment-iframe.g?blogID=1737980321158585254&amp;postID=2402820819140014373" id="comment-editor-src" shape="rect"></a>\n        <iframe width="100%" src="" name="comment-editor" height="410" allowtransparency="true" id="comment-editor" class="blogger-iframe-colorize blogger-comment-from-post" scrolling="auto" frameborder="0"></iframe>\n        <script src="//www.blogger.com/static/v1/jsbin/4030612614-comment_from_post_iframe.js" type="text/javascript"></script>\n        <script type="text/javascript"> BLOG_CMT_createIframe(\'http://www.blogger.com/rpc_relay.html\', \'04963122765543466569\'); </script>\n      </div>\n      <div id="backlinks-container">\n        <div id="Blog1_backlinks-container"> </div>\n      </div>\n    </div>\n    <div id="blog-pager" class="blog-pager">\n      <span id="blog-pager-newer-link">\n        <a title="Newer Post" href="http://actsofminortreason.blogspot.com/2011/04/photo-i-know-where-rainbow-ends.html" id="Blog1_blog-pager-newer-link" class="blog-pager-newer-link" shape="rect">Newer Post</a>\n      </span>\n      <span id="blog-pager-older-link">\n        <a title="Older Post" href="http://actsofminortreason.blogspot.com/2011/04/photo-new-wests-first-line-of-defense.html" id="Blog1_blog-pager-older-link" class="blog-pager-older-link" shape="rect">Older Post</a>\n      </span>\n      <a href="http://actsofminortreason.blogspot.com/" class="home-link" shape="rect">Home</a>\n    </div>\n    <div class="clear"></div>\n    <div class="post-feeds">\n      <div class="feed-links">\n        Subscribe to:\n        <a type="application/atom+xml" target="_blank" href="http://actsofminortreason.blogspot.com/feeds/2402820819140014373/comments/default" class="feed-link" shape="rect">Post Comments (Atom)</a>\n      </div>\n    </div>\n    <div id="sidebar-wrapper">\n      <div id="sidebar" class="sidebar section">\n        <div id="Profile2" class="widget Profile">\n          <h2>About the Dude What Writes Here</h2>\n          <div class="widget-content">\n            <a href="http://www.blogger.com/profile/10457452561340581723" shape="rect">\n              <img width="76" src="http://3.bp.blogspot.com/-vTjC1iTzPmg/Tdsy0OZFIpI/AAAAAAAABsY/gRK02CRhYRM/s220/runningboardclinger.jpg" height="80" alt="My Photo" class="profile-img"></img>\n            </a>\n            <dl class="profile-datablock">\n              <dt class="profile-data">\n                <a style="background-image: url(//www.blogger.com/img/logo-16.png);" rel="author" href="http://www.blogger.com/profile/10457452561340581723" class="profile-name-link" shape="rect"> Andrew Barton </a>\n              </dt>\n              <dd class="profile-data">New Westminster, British Columbia, Canada</dd>\n              <dd class="profile-textblock">\n                Andrew is a Greater Toronto-raised scientifictionist, photographic dabbler, transit nerd, and stranger in a strange land. He has been accused of being a &quot;pencil neck geek&quot; and unsuccessfully ran for Mayor of Toronto in 2010.\n                <br clear="none"></br>\n                <br clear="none"></br>\n                You can email him, if for some reason you want to, at apbarton AT gmail DOT com.\n              </dd>\n            </dl>\n            <a rel="author" href="http://www.blogger.com/profile/10457452561340581723" class="profile-link" shape="rect">View my complete profile</a>\n            <div class="clear"></div>\n            <span class="widget-item-control">\n              <span class="item-control blog-admin">\n                <a \n                title="Edit" target="configProfile2" onclick="return _WidgetManager._PopupConfig(document.getElementById(&quot;Profile2&quot;));" href="//www.blogger.com/rearrange?blogID=1737980321158585254&amp;widgetType=Profile&amp;widgetId=Profile2&amp;action=editWidget&amp;sectionId=sidebar" class="quickedit" shape="rect">\n                  <img width="18" src="http://img1.blogblog.com/img/icon18_wrench_allbkg.png" height="18" alt=""></img>\n</a>\n              </span>\n            </span>\n            <div class="clear"></div>\n          </div>\n        </div>\n        <div id="HTML5" class="widget HTML">\n          <div class="widget-content">\n            <center>\n              <a href="http://en.wikipedia.org/wiki/Netscape_Navigator" shape="rect">\n                <img src="http://1.bp.blogspot.com/-3jQqv_O1hLo/TZFxHI4poCI/AAAAAAAABlo/qupURkY9j6Y/s1600/netscape2.gif"></img>\n              </a>\n            </center>\n          </div>\n          <div class="clear"></div>\n          <span class="widget-item-control">\n            <span class="item-control blog-admin">\n              <a \n              title="Edit" target="configHTML5" onclick="return _WidgetManager._PopupConfig(document.getElementById(&quot;HTML5&quot;));" href="//www.blogger.com/rearrange?blogID=1737980321158585254&amp;widgetType=HTML&amp;widgetId=HTML5&amp;action=editWidget&amp;sectionId=sidebar" class="quickedit" shape="rect">\n                <img width="18" src="http://img1.blogblog.com/img/icon18_wrench_allbkg.png" height="18" alt=""></img>\n</a>\n            </span>\n          </span>\n          <div class="clear"></div>\n        </div>\n        <div id="LinkList1" class="widget LinkList">\n          <h2>These Here Are Links</h2>\n          <div class="widget-content">\n            <ul>\n              <li>\n                <a href="http://rfmcdpei.livejournal.com/" shape="rect">A Bit More Detail</a>\n              </li>\n              <li>\n                <a href="http://www.bakkaphoenixbooks.com/" shape="rect">Bakka-Phoenix</a>\n              </li>\n              <li>\n                <a href="http://www.brisbanetimes.com.au/opinion/blog/blunt-instrument" shape="rect">Blunt Instrument</a>\n              </li>\n              <li>\n                <a href="http://www.boingboing.net/" shape="rect">Boing Boing</a>\n              </li>\n              <li>\n                <a href="http://bowjamesbow.ca/blog.shtml" shape="rect">Bow. James Bow.</a>\n              </li>\n              <li>\n                <a href="http://exonaught.blogspot.com/" shape="rect">Bringing the Light</a>\n              </li>\n              <li>\n                <a href="http://www.thebusbench.com/" shape="rect">The Bus Bench</a>\n              </li>\n              <li>\n                <a href="http://www.etherwing.net/" shape="rect">Etherwing Studios</a>\n              </li>\n              <li>\n                <a href="http://www.hadleyrillebooks.com/" shape="rect">Hadley Rille Books</a>\n              </li>\n              <li>\n                <a href="http://james-nicoll.livejournal.com/" shape="rect">More Words, Deeper Hole</a>\n              </li>\n              <li>\n                <a href="http://hfspersonaldiary.blog.fc2.com/" shape="rect">One\'s Daily Life</a>\n              </li>\n              <li>\n                <a href="http://www.tenthtothefraser.ca/" shape="rect">Tenth to the Fraser</a>\n              </li>\n              <li>\n                <a href="http://thesource.metro.net/" shape="rect">The Source</a>\n              </li>\n              <li>\n                <a href="http://www.thewaythefutureblogs.com/" shape="rect">The Way the Future Blogs</a>\n              </li>\n            </ul>\n            <div class="clear"></div>\n            <span class="widget-item-control">\n              <span class="item-control blog-admin">\n                <a \n                title="Edit" target="configLinkList1" onclick="return _WidgetManager._PopupConfig(document.getElementById(&quot;LinkList1&quot;));" href="//www.blogger.com/rearrange?blogID=1737980321158585254&amp;widgetType=LinkList&amp;widgetId=LinkList1&amp;action=editWidget&amp;sectionId=sidebar" class="quickedit" shape="rect">\n                  <img width="18" src="http://img1.blogblog.com/img/icon18_wrench_allbkg.png" height="18" alt=""></img>\n</a>\n              </span>\n            </span>\n            <div class="clear"></div>\n          </div>\n        </div>\n        <div id="HTML3" class="widget HTML">\n          <h2 class="title">Scott Pilgrim Phototour</h2>\n          <div class="widget-content">\n            <a href="http://actsofminortreason.blogspot.com/2010/03/phototour-scott-pilgrim-age.html" shape="rect">See Toronto the Scott Pilgrim way - photos of places from the series!</a>\n          </div>\n          <div class="clear"></div>\n          <span class="widget-item-control">\n            <span class="item-control blog-admin">\n              <a \n              title="Edit" target="configHTML3" onclick="return _WidgetManager._PopupConfig(document.getElementById(&quot;HTML3&quot;));" href="//www.blogger.com/rearrange?blogID=1737980321158585254&amp;widgetType=HTML&amp;widgetId=HTML3&amp;action=editWidget&amp;sectionId=sidebar" class="quickedit" shape="rect">\n                <img width="18" src="http://img1.blogblog.com/img/icon18_wrench_allbkg.png" height="18" alt=""></img>\n</a>\n            </span>\n          </span>\n          <div class="clear"></div>\n        </div>\n        <div id="HTML4" class="widget HTML">\n          <h2 class="title">Tunnel Visions and Other Things</h2>\n          <div class="widget-content">\n            <a href="http://actsofminortreason.blogspot.ca/2012/06/tunnel-visions-seattle-center-monorail.html" shape="rect">Tunnel Visions: The Seattle Center Monorail</a>\n            <br clear="none"></br>\n            <br clear="none"></br>\n            <a href="http://actsofminortreason.blogspot.com/2011/09/tunnel-visions-bay-area-rapid-transit.html" shape="rect">Tunnel Visions: Bay Area Rapid Transit</a>\n            <br clear="none"></br>\n            <br clear="none"></br>\n            <a href="http://actsofminortreason.blogspot.com/2011/06/tunnel-visions-san-franciscos-muni.html" shape="rect">Tunnel Visions: San Francisco\'s Muni Metro</a>\n            <br clear="none"></br>\n            <br clear="none"></br>\n            <a href="http://actsofminortreason.blogspot.com/2011/02/tunnel-visions-phoenixs-metro-light.html" shape="rect">Tunnel Visions: Phoenix\'s Metro Light Rail</a>\n            <br clear="none"></br>\n            <br clear="none"></br>\n            <a href="http://actsofminortreason.blogspot.com/2010/09/tunnel-visions-kenosha-electric-railway.html" shape="rect">Tunnel Visions: The Kenosha Electric Railway</a>\n            <br clear="none"></br>\n            <br clear="none"></br>\n            <a href="http://actsofminortreason.blogspot.com/2010/09/tunnel-visions-vancouvers-skytrain.html" shape="rect">Tunnel Visions: Vancouver\'s SkyTrain</a>\n            <br clear="none"></br>\n            <br clear="none"></br>\n            <a href="http://actsofminortreason.blogspot.com/2010/03/tunnel-visions-toronto-subway-and-rt.html" shape="rect">Tunnel Visions: The Toronto Subway and RT</a>\n            <br clear="none"></br>\n            <br clear="none"></br>\n            <a href="http://actsofminortreason.blogspot.com/2010/01/tunnel-visions-los-angeles-county-metro.html" shape="rect">Tunnel Visions: The Los Angeles County Metro Rail</a>\n            <br clear="none"></br>\n            <br clear="none"></br>\n            <a href="http://actsofminortreason.blogspot.com/2009/10/tunnel-visions-chicago-l.html" shape="rect">Tunnel Visions: The Chicago \'L\'</a>\n            <br clear="none"></br>\n            <br clear="none"></br>\n            <a href="http://actsofminortreason.blogspot.com/2009/08/tunnel-visions-torontos-subway-and.html" shape="rect">Tunnel Visions: The Montreal Metro</a>\n            <br clear="none"></br>\n            <br clear="none"></br>\n            <a href="http://www.mediafire.com/?sharekey=4af10fe949139b6f67cd7f7bd65f7eefe04e75f6e8ebb871" shape="rect">The Platinum Desolation - a Creative Commons-licensed sf short story by Andrew Barton</a>\n            <br clear="none"></br>\n            <br clear="none"></br>\n            <a href="http://twitter.com/ActsofAndrewB" shape="rect">Twitter Feed: @ActsofAndrewB</a>\n          </div>\n          <div class="clear"></div>\n          <span class="widget-item-control">\n            <span class="item-control blog-admin">\n              <a \n              title="Edit" target="configHTML4" onclick="return _WidgetManager._PopupConfig(document.getElementById(&quot;HTML4&quot;));" href="//www.blogger.com/rearrange?blogID=1737980321158585254&amp;widgetType=HTML&amp;widgetId=HTML4&amp;action=editWidget&amp;sectionId=sidebar" class="quickedit" shape="rect">\n                <img width="18" src="http://img1.blogblog.com/img/icon18_wrench_allbkg.png" height="18" alt=""></img>\n</a>\n            </span>\n          </span>\n          <div class="clear"></div>\n        </div>\n        <div id="CustomSearch1" class="widget CustomSearch">\n          <h2 class="title">Search This Weblog</h2>\n          <div class="widget-content">\n            <div id="CustomSearch1_form">\n              <span class="cse-status">Loading...</span>\n            </div>\n          </div>\n          <style type="text/css">\n            #uds-searchControl .gs-result .gs-title,\n      #uds-searchControl .gs-result .gs-title *,\n      #uds-searchControl .gsc-results .gsc-trailing-more-results,\n      #uds-searchControl .gsc-results .gsc-trailing-more-results * {\n        color:#99aadd;\n      }\n\n      #uds-searchControl .gs-result .gs-title a:visited,\n      #uds-searchControl .gs-result .gs-title a:visited * {\n        color:#aa77aa;\n      }\n\n      #uds-searchControl .gs-relativePublishedDate,\n      #uds-searchControl .gs-publishedDate {\n        color: #777777;\n      }\n\n      #uds-searchControl .gs-result a.gs-visibleUrl,\n      #uds-searchControl .gs-result .gs-visibleUrl {\n        color: #99aadd;\n      }\n\n      #uds-searchControl .gsc-results {\n        border-color: #777777;\n        background-color: #000000;\n      }\n\n      #uds-searchControl .gsc-tabhActive {\n        border-color: #777777;\n        border-top-color: #99aadd;\n        background-color: #000000;\n        color: #cccccc;\n      }\n\n      #uds-searchControl .gsc-tabhInactive {\n        border-color: #777777;\n        background-color: transparent;\n        color: #99aadd;\n      }\n\n      #uds-searchClearResults {\n        border-color: #777777;\n      }\n\n      #uds-searchClearResults:hover {\n        border-color: #99aadd;\n      }\n\n      #uds-searchControl .gsc-cursor-page {\n        color: #99aadd;\n      }\n\n      #uds-searchControl .gsc-cursor-current-page {\n        color: #cccccc;\n      }\n          </style>\n          <div class="clear"></div>\n          <span class="widget-item-control">\n            <span class="item-control blog-admin">\n              <a \n              title="Edit" target="configCustomSearch1" onclick="return _WidgetManager._PopupConfig(document.getElementById(&quot;CustomSearch1&quot;));" href="//www.blogger.com/rearrange?blogID=1737980321158585254&amp;widgetType=CustomSearch&amp;widgetId=CustomSearch1&amp;action=editWidget&amp;sectionId=sidebar" class="quickedit" shape="rect">\n                <img width="18" src="http://img1.blogblog.com/img/icon18_wrench_allbkg.png" height="18" alt=""></img>\n</a>\n            </span>\n          </span>\n          <div class="clear"></div>\n        </div>\n        <div id="BlogArchive2" class="widget BlogArchive">\n          <h2>Posts That Have Come Before</h2>\n          <div class="widget-content">\n            <div id="ArchiveList">\n              <div id="BlogArchive2_ArchiveList">\n                <ul class="hierarchy">\n                  <li class="archivedate collapsed">\n                    <a href="javascript:void(0)" class="toggle" shape="rect">\n                      <span class="zippy"> \xe2\x96\xba\xc2\xa0 </span>\n                    </a>\n                    <a href="http://actsofminortreason.blogspot.com/search?updated-min=2012-01-01T00:00:00-08:00&amp;updated-max=2013-01-01T00:00:00-08:00&amp;max-results=50" class="post-count-link" shape="rect">2012</a>\n                    <span dir="ltr" class="post-count">(259)</span>\n                    <ul class="hierarchy">\n                      <li class="archivedate collapsed">\n                        <a href="javascript:void(0)" class="toggle" shape="rect">\n                          <span class="zippy"> \xe2\x96\xba\xc2\xa0 </span>\n                        </a>\n                        <a href="http://actsofminortreason.blogspot.com/2012_10_01_archive.html" class="post-count-link" shape="rect">October</a>\n                        <span dir="ltr" class="post-count">(1)</span>\n                      </li>\n                    </ul>\n                    <ul class="hierarchy">\n                      <li class="archivedate collapsed">\n                        <a href="javascript:void(0)" class="toggle" shape="rect">\n                          <span class="zippy"> \xe2\x96\xba\xc2\xa0 </span>\n                        </a>\n                        <a href="http://actsofminortreason.blogspot.com/2012_09_01_archive.html" class="post-count-link" shape="rect">September</a>\n                        <span dir="ltr" class="post-count">(14)</span>\n                      </li>\n                    </ul>\n                    <ul class="hierarchy">\n                      <li class="archivedate collapsed">\n                        <a href="javascript:void(0)" class="toggle" shape="rect">\n                          <span class="zippy"> \xe2\x96\xba\xc2\xa0 </span>\n                        </a>\n                        <a href="http://actsofminortreason.blogspot.com/2012_08_01_archive.html" class="post-count-link" shape="rect">August</a>\n                        <span dir="ltr" class="post-count">(31)</span>\n                      </li>\n                    </ul>\n                    <ul class="hierarchy">\n                      <li class="archivedate collapsed">\n                        <a href="javascript:void(0)" class="toggle" shape="rect">\n                          <span class="zippy"> \xe2\x96\xba\xc2\xa0 </span>\n                        </a>\n                        <a href="http://actsofminortreason.blogspot.com/2012_07_01_archive.html" class="post-count-link" shape="rect">July</a>\n                        <span dir="ltr" class="post-count">(31)</span>\n                      </li>\n                    </ul>\n                    <ul class="hierarchy">\n                      <li class="archivedate collapsed">\n                        <a href="javascript:void(0)" class="toggle" shape="rect">\n                          <span class="zippy"> \xe2\x96\xba\xc2\xa0 </span>\n                        </a>\n                        <a href="http://actsofminortreason.blogspot.com/2012_06_01_archive.html" class="post-count-link" shape="rect">June</a>\n                        <span dir="ltr" class="post-count">(30)</span>\n                      </li>\n                    </ul>\n                    <ul class="hierarchy">\n                      <li class="archivedate collapsed">\n                        <a href="javascript:void(0)" class="toggle" shape="rect">\n                          <span class="zippy"> \xe2\x96\xba\xc2\xa0 </span>\n                        </a>\n                        <a href="http://actsofminortreason.blogspot.com/2012_05_01_archive.html" class="post-count-link" shape="rect">May</a>\n                        <span dir="ltr" class="post-count">(31)</span>\n                      </li>\n                    </ul>\n                    <ul class="hierarchy">\n                      <li class="archivedate collapsed">\n                        <a href="javascript:void(0)" class="toggle" shape="rect">\n                          <span class="zippy"> \xe2\x96\xba\xc2\xa0 </span>\n                        </a>\n                        <a href="http://actsofminortreason.blogspot.com/2012_04_01_archive.html" class="post-count-link" shape="rect">April</a>\n                        <span dir="ltr" class="post-count">(30)</span>\n                      </li>\n                    </ul>\n                    <ul class="hierarchy">\n                      <li class="archivedate collapsed">\n                        <a href="javascript:void(0)" class="toggle" shape="rect">\n                          <span class="zippy"> \xe2\x96\xba\xc2\xa0 </span>\n                        </a>\n                        <a href="http://actsofminortreason.blogspot.com/2012_03_01_archive.html" class="post-count-link" shape="rect">March</a>\n                        <span dir="ltr" class="post-count">(31)</span>\n                      </li>\n                    </ul>\n                    <ul class="hierarchy">\n                      <li class="archivedate collapsed">\n                        <a href="javascript:void(0)" class="toggle" shape="rect">\n                          <span class="zippy"> \xe2\x96\xba\xc2\xa0 </span>\n                        </a>\n                        <a href="http://actsofminortreason.blogspot.com/2012_02_01_archive.html" class="post-count-link" shape="rect">February</a>\n                        <span dir="ltr" class="post-count">(29)</span>\n                      </li>\n                    </ul>\n                    <ul class="hierarchy">\n                      <li class="archivedate collapsed">\n                        <a href="javascript:void(0)" class="toggle" shape="rect">\n                          <span class="zippy"> \xe2\x96\xba\xc2\xa0 </span>\n                        </a>\n                        <a href="http://actsofminortreason.blogspot.com/2012_01_01_archive.html" class="post-count-link" shape="rect">January</a>\n                        <span dir="ltr" class="post-count">(31)</span>\n                      </li>\n                    </ul>\n                  </li>\n                </ul>\n                <ul class="hierarchy">\n                  <li class="archivedate expanded">\n                    <a href="javascript:void(0)" class="toggle" shape="rect">\n                      <span class="zippy toggle-open">\xe2\x96\xbc\xc2\xa0</span>\n                    </a>\n                    <a href="http://actsofminortreason.blogspot.com/search?updated-min=2011-01-01T00:00:00-08:00&amp;updated-max=2012-01-01T00:00:00-08:00&amp;max-results=50" class="post-count-link" shape="rect">2011</a>\n                    <span dir="ltr" class="post-count">(365)</span>\n                    <ul class="hierarchy">\n                      <li class="archivedate collapsed">\n                        <a href="javascript:void(0)" class="toggle" shape="rect">\n                          <span class="zippy"> \xe2\x96\xba\xc2\xa0 </span>\n                        </a>\n                        <a href="http://actsofminortreason.blogspot.com/2011_12_01_archive.html" class="post-count-link" shape="rect">December</a>\n                        <span dir="ltr" class="post-count">(31)</span>\n                      </li>\n                    </ul>\n                    <ul class="hierarchy">\n                      <li class="archivedate collapsed">\n                        <a href="javascript:void(0)" class="toggle" shape="rect">\n                          <span class="zippy"> \xe2\x96\xba\xc2\xa0 </span>\n                        </a>\n                        <a href="http://actsofminortreason.blogspot.com/2011_11_01_archive.html" class="post-count-link" shape="rect">November</a>\n                        <span dir="ltr" class="post-count">(30)</span>\n                      </li>\n                    </ul>\n                    <ul class="hierarchy">\n                      <li class="archivedate collapsed">\n                        <a href="javascript:void(0)" class="toggle" shape="rect">\n                          <span class="zippy"> \xe2\x96\xba\xc2\xa0 </span>\n                        </a>\n                        <a href="http://actsofminortreason.blogspot.com/2011_10_01_archive.html" class="post-count-link" shape="rect">October</a>\n                        <span dir="ltr" class="post-count">(31)</span>\n                      </li>\n                    </ul>\n                    <ul class="hierarchy">\n                      <li class="archivedate collapsed">\n                        <a href="javascript:void(0)" class="toggle" shape="rect">\n                          <span class="zippy"> \xe2\x96\xba\xc2\xa0 </span>\n                        </a>\n                        <a href="http://actsofminortreason.blogspot.com/2011_09_01_archive.html" class="post-count-link" shape="rect">September</a>\n                        <span dir="ltr" class="post-count">(30)</span>\n                      </li>\n                    </ul>\n                    <ul class="hierarchy">\n                      <li class="archivedate collapsed">\n                        <a href="javascript:void(0)" class="toggle" shape="rect">\n                          <span class="zippy"> \xe2\x96\xba\xc2\xa0 </span>\n                        </a>\n                        <a href="http://actsofminortreason.blogspot.com/2011_08_01_archive.html" class="post-count-link" shape="rect">August</a>\n                        <span dir="ltr" class="post-count">(31)</span>\n                      </li>\n                    </ul>\n                    <ul class="hierarchy">\n                      <li class="archivedate collapsed">\n                        <a href="javascript:void(0)" class="toggle" shape="rect">\n                          <span class="zippy"> \xe2\x96\xba\xc2\xa0 </span>\n                        </a>\n                        <a href="http://actsofminortreason.blogspot.com/2011_07_01_archive.html" class="post-count-link" shape="rect">July</a>\n                        <span dir="ltr" class="post-count">(31)</span>\n                      </li>\n                    </ul>\n                    <ul class="hierarchy">\n                      <li class="archivedate collapsed">\n                        <a href="javascript:void(0)" class="toggle" shape="rect">\n                          <span class="zippy"> \xe2\x96\xba\xc2\xa0 </span>\n                        </a>\n                        <a href="http://actsofminortreason.blogspot.com/2011_06_01_archive.html" class="post-count-link" shape="rect">June</a>\n                        <span dir="ltr" class="post-count">(30)</span>\n                      </li>\n                    </ul>\n                    <ul class="hierarchy">\n                      <li class="archivedate collapsed">\n                        <a href="javascript:void(0)" class="toggle" shape="rect">\n                          <span class="zippy"> \xe2\x96\xba\xc2\xa0 </span>\n                        </a>\n                        <a href="http://actsofminortreason.blogspot.com/2011_05_01_archive.html" class="post-count-link" shape="rect">May</a>\n                        <span dir="ltr" class="post-count">(31)</span>\n                      </li>\n                    </ul>\n                    <ul class="hierarchy">\n                      <li class="archivedate expanded">\n                        <a href="javascript:void(0)" class="toggle" shape="rect">\n                          <span class="zippy toggle-open">\xe2\x96\xbc\xc2\xa0</span>\n                        </a>\n                        <a href="http://actsofminortreason.blogspot.com/2011_04_01_archive.html" class="post-count-link" shape="rect">April</a>\n                        <span dir="ltr" class="post-count">(30)</span>\n                        <ul class="posts">\n                          <li>\n                            <a href="http://actsofminortreason.blogspot.com/2011/04/photo-i-know-where-rainbow-ends.html" shape="rect">Photo: I Know Where the Rainbow Ends</a>\n                          </li>\n                          <li>\n                            <a href="http://actsofminortreason.blogspot.com/2011/04/quaff-review-12-hitachino-nest-jca.html" shape="rect">Quaff Review #12: Hitachino Nest JCA</a>\n                          </li>\n                          <li>\n                            <a href="http://actsofminortreason.blogspot.com/2011/04/photo-new-wests-first-line-of-defense.html" shape="rect">Photo: New West\'s First Line of Defense</a>\n                          </li>\n                          <li>\n                            <a href="http://actsofminortreason.blogspot.com/2011/04/advancing-democracy-look-at-some-poll.html" shape="rect">Advancing Democracy: A Look at Some Poll Numbers</a>\n                          </li>\n                          <li>\n                            <a href="http://actsofminortreason.blogspot.com/2011/04/photo-bridge-and-beaver.html" shape="rect">Photo: The Bridge and the Beaver</a>\n                          </li>\n                          <li>\n                            <a href="http://actsofminortreason.blogspot.com/2011/04/all-i-ask-is-good-bike-and-post-to-lock.html" shape="rect">All I Ask Is a Good Bike and a Post to Lock it To</a>\n                          </li>\n                          <li>\n                            <a href="http://actsofminortreason.blogspot.com/2011/04/photo-borderline.html" shape="rect">Photo: Borderline</a>\n                          </li>\n                          <li>\n                            <a href="http://actsofminortreason.blogspot.com/2011/04/light-rails-greatest-hits.html" shape="rect">Light Rail\'s Greatest Hits</a>\n                          </li>\n                          <li>\n                            <a href="http://actsofminortreason.blogspot.com/2011/04/photo-serendipity-on-water.html" shape="rect">Photo: Serendipity on the Water</a>\n                          </li>\n                          <li>\n                            <a href="http://actsofminortreason.blogspot.com/2011/04/instant-society-just-add-water.html" shape="rect">Instant Society, Just Add Water</a>\n                          </li>\n                          <li>\n                            <a href="http://actsofminortreason.blogspot.com/2011/04/photo-flurry-of-motion.html" shape="rect">Photo: A Flurry of Motion</a>\n                          </li>\n                          <li>\n                            <a href="http://actsofminortreason.blogspot.com/2011/04/run-sovereignty-up-flagpole.html" shape="rect">Run Sovereignty Up the Flagpole</a>\n                          </li>\n                          <li>\n                            <a href="http://actsofminortreason.blogspot.com/2011/04/photo-lufthansa-approaching.html" shape="rect">Photo: Lufthansa Approaching</a>\n                          </li>\n                          <li>\n                            <a href="http://actsofminortreason.blogspot.com/2011/04/historical-perspective-maltese.html" shape="rect">A Historical Perspective: The Maltese Deployment</a>\n                          </li>\n                          <li>\n                            <a href="http://actsofminortreason.blogspot.com/2011/04/photo-look-out-its-got-stick.html" shape="rect">Photo: Look Out, It\'s Got A Stick</a>\n                          </li>\n                          <li>\n                            <a href="http://actsofminortreason.blogspot.com/2011/04/radiating-ignorance-in-legislature.html" shape="rect">Radiating Ignorance in the Legislature</a>\n                          </li>\n                          <li>\n                            <a href="http://actsofminortreason.blogspot.com/2011/04/photo-more-than-just-rabbit.html" shape="rect">Photo: More than Just a Rabbit</a>\n                          </li>\n                          <li>\n                            <a href="http://actsofminortreason.blogspot.com/2011/04/transit-by-night.html" shape="rect">Transit By Night</a>\n                          </li>\n                          <li>\n                            <a href="http://actsofminortreason.blogspot.com/2011/04/photo-way-to-lawrence-donway.html" shape="rect">Photo: The Way to Lawrence-Donway</a>\n                          </li>\n                          <li>\n                            <a href="http://actsofminortreason.blogspot.com/2011/04/yuris-day.html" shape="rect">Yuri\'s Day</a>\n                          </li>\n                          <li>\n                            <a href="http://actsofminortreason.blogspot.com/2011/04/photo-planes-beneath-mountains.html" shape="rect">Photo: Planes Beneath the Mountains</a>\n                          </li>\n                          <li>\n                            <a href="http://actsofminortreason.blogspot.com/2011/04/green-party-problems-and-progress.html" shape="rect">The Green Party, Problems and Progress</a>\n                          </li>\n                          <li>\n                            <a href="http://actsofminortreason.blogspot.com/2011/04/photo-blurs-and-bus.html" shape="rect">Photo: The Blurs and the Bus</a>\n                          </li>\n                          <li>\n                            <a href="http://actsofminortreason.blogspot.com/2011/04/i-have-incredible-deal-for-you.html" shape="rect">I Have An Incredible Deal For You</a>\n                          </li>\n                          <li>\n                            <a href="http://actsofminortreason.blogspot.com/2011/04/photo-shuttles-reflection.html" shape="rect">Photo: The Shuttle\'s Reflection</a>\n                          </li>\n                          <li>\n                            <a href="http://actsofminortreason.blogspot.com/2011/04/plausibility-plots-and-future.html" shape="rect">Plausibility, Plots, and the Future</a>\n                          </li>\n                          <li>\n                            <a href="http://actsofminortreason.blogspot.com/2011/04/photo-cherry-blossoms-by-night.html" shape="rect">Photo: Cherry Blossoms By Night</a>\n                          </li>\n                          <li>\n                            <a href="http://actsofminortreason.blogspot.com/2011/04/subsidizing-democracy.html" shape="rect">Subsidizing Democracy</a>\n                          </li>\n                          <li>\n                            <a href="http://actsofminortreason.blogspot.com/2011/04/photo-burrards-cherry-blossoms.html" shape="rect">Photo: Burrard\'s Cherry Blossoms</a>\n                          </li>\n                          <li>\n                            <a href="http://actsofminortreason.blogspot.com/2011/04/discovered-my-greatest-masterpiece.html" shape="rect">Discovered: My Greatest Masterpiece!</a>\n                          </li>\n                        </ul>\n                      </li>\n                    </ul>\n                    <ul class="hierarchy">\n                      <li class="archivedate collapsed">\n                        <a href="javascript:void(0)" class="toggle" shape="rect">\n                          <span class="zippy"> \xe2\x96\xba\xc2\xa0 </span>\n                        </a>\n                        <a href="http://actsofminortreason.blogspot.com/2011_03_01_archive.html" class="post-count-link" shape="rect">March</a>\n                        <span dir="ltr" class="post-count">(31)</span>\n                      </li>\n                    </ul>\n                    <ul class="hierarchy">\n                      <li class="archivedate collapsed">\n                        <a href="javascript:void(0)" class="toggle" shape="rect">\n                          <span class="zippy"> \xe2\x96\xba\xc2\xa0 </span>\n                        </a>\n                        <a href="http://actsofminortreason.blogspot.com/2011_02_01_archive.html" class="post-count-link" shape="rect">February</a>\n                        <span dir="ltr" class="post-count">(28)</span>\n                      </li>\n                    </ul>\n                    <ul class="hierarchy">\n                      <li class="archivedate collapsed">\n                        <a href="javascript:void(0)" class="toggle" shape="rect">\n                          <span class="zippy"> \xe2\x96\xba\xc2\xa0 </span>\n                        </a>\n                        <a href="http://actsofminortreason.blogspot.com/2011_01_01_archive.html" class="post-count-link" shape="rect">January</a>\n                        <span dir="ltr" class="post-count">(31)</span>\n                      </li>\n                    </ul>\n                  </li>\n                </ul>\n                <ul class="hierarchy">\n                  <li class="archivedate collapsed">\n                    <a href="javascript:void(0)" class="toggle" shape="rect">\n                      <span class="zippy"> \xe2\x96\xba\xc2\xa0 </span>\n                    </a>\n                    <a href="http://actsofminortreason.blogspot.com/search?updated-min=2010-01-01T00:00:00-08:00&amp;updated-max=2011-01-01T00:00:00-08:00&amp;max-results=50" class="post-count-link" shape="rect">2010</a>\n                    <span dir="ltr" class="post-count">(365)</span>\n                    <ul class="hierarchy">\n                      <li class="archivedate collapsed">\n                        <a href="javascript:void(0)" class="toggle" shape="rect">\n                          <span class="zippy"> \xe2\x96\xba\xc2\xa0 </span>\n                        </a>\n                        <a href="http://actsofminortreason.blogspot.com/2010_12_01_archive.html" class="post-count-link" shape="rect">December</a>\n                        <span dir="ltr" class="post-count">(31)</span>\n                      </li>\n                    </ul>\n                    <ul class="hierarchy">\n                      <li class="archivedate collapsed">\n                        <a href="javascript:void(0)" class="toggle" shape="rect">\n                          <span class="zippy"> \xe2\x96\xba\xc2\xa0 </span>\n                        </a>\n                        <a href="http://actsofminortreason.blogspot.com/2010_11_01_archive.html" class="post-count-link" shape="rect">November</a>\n                        <span dir="ltr" class="post-count">(30)</span>\n                      </li>\n                    </ul>\n                    <ul class="hierarchy">\n                      <li class="archivedate collapsed">\n                        <a href="javascript:void(0)" class="toggle" shape="rect">\n                          <span class="zippy"> \xe2\x96\xba\xc2\xa0 </span>\n                        </a>\n                        <a href="http://actsofminortreason.blogspot.com/2010_10_01_archive.html" class="post-count-link" shape="rect">October</a>\n                        <span dir="ltr" class="post-count">(31)</span>\n                      </li>\n                    </ul>\n                    <ul class="hierarchy">\n                      <li class="archivedate collapsed">\n                        <a href="javascript:void(0)" class="toggle" shape="rect">\n                          <span class="zippy"> \xe2\x96\xba\xc2\xa0 </span>\n                        </a>\n                        <a href="http://actsofminortreason.blogspot.com/2010_09_01_archive.html" class="post-count-link" shape="rect">September</a>\n                        <span dir="ltr" class="post-count">(30)</span>\n                      </li>\n                    </ul>\n                    <ul class="hierarchy">\n                      <li class="archivedate collapsed">\n                        <a href="javascript:void(0)" class="toggle" shape="rect">\n                          <span class="zippy"> \xe2\x96\xba\xc2\xa0 </span>\n                        </a>\n                        <a href="http://actsofminortreason.blogspot.com/2010_08_01_archive.html" class="post-count-link" shape="rect">August</a>\n                        <span dir="ltr" class="post-count">(31)</span>\n                      </li>\n                    </ul>\n                    <ul class="hierarchy">\n                      <li class="archivedate collapsed">\n                        <a href="javascript:void(0)" class="toggle" shape="rect">\n                          <span class="zippy"> \xe2\x96\xba\xc2\xa0 </span>\n                        </a>\n                        <a href="http://actsofminortreason.blogspot.com/2010_07_01_archive.html" class="post-count-link" shape="rect">July</a>\n                        <span dir="ltr" class="post-count">(31)</span>\n                      </li>\n                    </ul>\n                    <ul class="hierarchy">\n                      <li class="archivedate collapsed">\n                        <a href="javascript:void(0)" class="toggle" shape="rect">\n                          <span class="zippy"> \xe2\x96\xba\xc2\xa0 </span>\n                        </a>\n                        <a href="http://actsofminortreason.blogspot.com/2010_06_01_archive.html" class="post-count-link" shape="rect">June</a>\n                        <span dir="ltr" class="post-count">(30)</span>\n                      </li>\n                    </ul>\n                    <ul class="hierarchy">\n                      <li class="archivedate collapsed">\n                        <a href="javascript:void(0)" class="toggle" shape="rect">\n                          <span class="zippy"> \xe2\x96\xba\xc2\xa0 </span>\n                        </a>\n                        <a href="http://actsofminortreason.blogspot.com/2010_05_01_archive.html" class="post-count-link" shape="rect">May</a>\n                        <span dir="ltr" class="post-count">(31)</span>\n                      </li>\n                    </ul>\n                    <ul class="hierarchy">\n                      <li class="archivedate collapsed">\n                        <a href="javascript:void(0)" class="toggle" shape="rect">\n                          <span class="zippy"> \xe2\x96\xba\xc2\xa0 </span>\n                        </a>\n                        <a href="http://actsofminortreason.blogspot.com/2010_04_01_archive.html" class="post-count-link" shape="rect">April</a>\n                        <span dir="ltr" class="post-count">(30)</span>\n                      </li>\n                    </ul>\n                    <ul class="hierarchy">\n                      <li class="archivedate collapsed">\n                        <a href="javascript:void(0)" class="toggle" shape="rect">\n                          <span class="zippy"> \xe2\x96\xba\xc2\xa0 </span>\n                        </a>\n                        <a href="http://actsofminortreason.blogspot.com/2010_03_01_archive.html" class="post-count-link" shape="rect">March</a>\n                        <span dir="ltr" class="post-count">(31)</span>\n                      </li>\n                    </ul>\n                    <ul class="hierarchy">\n                      <li class="archivedate collapsed">\n                        <a href="javascript:void(0)" class="toggle" shape="rect">\n                          <span class="zippy"> \xe2\x96\xba\xc2\xa0 </span>\n                        </a>\n                        <a href="http://actsofminortreason.blogspot.com/2010_02_01_archive.html" class="post-count-link" shape="rect">February</a>\n                        <span dir="ltr" class="post-count">(28)</span>\n                      </li>\n                    </ul>\n                    <ul class="hierarchy">\n                      <li class="archivedate collapsed">\n                        <a href="javascript:void(0)" class="toggle" shape="rect">\n                          <span class="zippy"> \xe2\x96\xba\xc2\xa0 </span>\n                        </a>\n                        <a href="http://actsofminortreason.blogspot.com/2010_01_01_archive.html" class="post-count-link" shape="rect">January</a>\n                        <span dir="ltr" class="post-count">(31)</span>\n                      </li>\n                    </ul>\n                  </li>\n                </ul>\n                <ul class="hierarchy">\n                  <li class="archivedate collapsed">\n                    <a href="javascript:void(0)" class="toggle" shape="rect">\n                      <span class="zippy"> \xe2\x96\xba\xc2\xa0 </span>\n                    </a>\n                    <a href="http://actsofminortreason.blogspot.com/search?updated-min=2009-01-01T00:00:00-08:00&amp;updated-max=2010-01-01T00:00:00-08:00&amp;max-results=50" class="post-count-link" shape="rect">2009</a>\n                    <span dir="ltr" class="post-count">(328)</span>\n                    <ul class="hierarchy">\n                      <li class="archivedate collapsed">\n                        <a href="javascript:void(0)" class="toggle" shape="rect">\n                          <span class="zippy"> \xe2\x96\xba\xc2\xa0 </span>\n                        </a>\n                        <a href="http://actsofminortreason.blogspot.com/2009_12_01_archive.html" class="post-count-link" shape="rect">December</a>\n                        <span dir="ltr" class="post-count">(31)</span>\n                      </li>\n                    </ul>\n                    <ul class="hierarchy">\n                      <li class="archivedate collapsed">\n                        <a href="javascript:void(0)" class="toggle" shape="rect">\n                          <span class="zippy"> \xe2\x96\xba\xc2\xa0 </span>\n                        </a>\n                        <a href="http://actsofminortreason.blogspot.com/2009_11_01_archive.html" class="post-count-link" shape="rect">November</a>\n                        <span dir="ltr" class="post-count">(30)</span>\n                      </li>\n                    </ul>\n                    <ul class="hierarchy">\n                      <li class="archivedate collapsed">\n                        <a href="javascript:void(0)" class="toggle" shape="rect">\n                          <span class="zippy"> \xe2\x96\xba\xc2\xa0 </span>\n                        </a>\n                        <a href="http://actsofminortreason.blogspot.com/2009_10_01_archive.html" class="post-count-link" shape="rect">October</a>\n                        <span dir="ltr" class="post-count">(31)</span>\n                      </li>\n                    </ul>\n                    <ul class="hierarchy">\n                      <li class="archivedate collapsed">\n                        <a href="javascript:void(0)" class="toggle" shape="rect">\n                          <span class="zippy"> \xe2\x96\xba\xc2\xa0 </span>\n                        </a>\n                        <a href="http://actsofminortreason.blogspot.com/2009_09_01_archive.html" class="post-count-link" shape="rect">September</a>\n                        <span dir="ltr" class="post-count">(30)</span>\n                      </li>\n                    </ul>\n                    <ul class="hierarchy">\n                      <li class="archivedate collapsed">\n                        <a href="javascript:void(0)" class="toggle" shape="rect">\n                          <span class="zippy"> \xe2\x96\xba\xc2\xa0 </span>\n                        </a>\n                        <a href="http://actsofminortreason.blogspot.com/2009_08_01_archive.html" class="post-count-link" shape="rect">August</a>\n                        <span dir="ltr" class="post-count">(31)</span>\n                      </li>\n                    </ul>\n                    <ul class="hierarchy">\n                      <li class="archivedate collapsed">\n                        <a href="javascript:void(0)" class="toggle" shape="rect">\n                          <span class="zippy"> \xe2\x96\xba\xc2\xa0 </span>\n                        </a>\n                        <a href="http://actsofminortreason.blogspot.com/2009_07_01_archive.html" class="post-count-link" shape="rect">July</a>\n                        <span dir="ltr" class="post-count">(32)</span>\n                      </li>\n                    </ul>\n                    <ul class="hierarchy">\n                      <li class="archivedate collapsed">\n                        <a href="javascript:void(0)" class="toggle" shape="rect">\n                          <span class="zippy"> \xe2\x96\xba\xc2\xa0 </span>\n                        </a>\n                        <a href="http://actsofminortreason.blogspot.com/2009_06_01_archive.html" class="post-count-link" shape="rect">June</a>\n                        <span dir="ltr" class="post-count">(30)</span>\n                      </li>\n                    </ul>\n                    <ul class="hierarchy">\n                      <li class="archivedate collapsed">\n                        <a href="javascript:void(0)" class="toggle" shape="rect">\n                          <span class="zippy"> \xe2\x96\xba\xc2\xa0 </span>\n                        </a>\n                        <a href="http://actsofminortreason.blogspot.com/2009_05_01_archive.html" class="post-count-link" shape="rect">May</a>\n                        <span dir="ltr" class="post-count">(32)</span>\n                      </li>\n                    </ul>\n                    <ul class="hierarchy">\n                      <li class="archivedate collapsed">\n                        <a href="javascript:void(0)" class="toggle" shape="rect">\n                          <span class="zippy"> \xe2\x96\xba\xc2\xa0 </span>\n                        </a>\n                        <a href="http://actsofminortreason.blogspot.com/2009_04_01_archive.html" class="post-count-link" shape="rect">April</a>\n                        <span dir="ltr" class="post-count">(29)</span>\n                      </li>\n                    </ul>\n                    <ul class="hierarchy">\n                      <li class="archivedate collapsed">\n                        <a href="javascript:void(0)" class="toggle" shape="rect">\n                          <span class="zippy"> \xe2\x96\xba\xc2\xa0 </span>\n                        </a>\n                        <a href="http://actsofminortreason.blogspot.com/2009_03_01_archive.html" class="post-count-link" shape="rect">March</a>\n                        <span dir="ltr" class="post-count">(31)</span>\n                      </li>\n                    </ul>\n                    <ul class="hierarchy">\n                      <li class="archivedate collapsed">\n                        <a href="javascript:void(0)" class="toggle" shape="rect">\n                          <span class="zippy"> \xe2\x96\xba\xc2\xa0 </span>\n                        </a>\n                        <a href="http://actsofminortreason.blogspot.com/2009_02_01_archive.html" class="post-count-link" shape="rect">February</a>\n                        <span dir="ltr" class="post-count">(7)</span>\n                      </li>\n                    </ul>\n                    <ul class="hierarchy">\n                      <li class="archivedate collapsed">\n                        <a href="javascript:void(0)" class="toggle" shape="rect">\n                          <span class="zippy"> \xe2\x96\xba\xc2\xa0 </span>\n                        </a>\n                        <a href="http://actsofminortreason.blogspot.com/2009_01_01_archive.html" class="post-count-link" shape="rect">January</a>\n                        <span dir="ltr" class="post-count">(14)</span>\n                      </li>\n                    </ul>\n                  </li>\n                </ul>\n              </div>\n            </div>\n            <div class="clear"></div>\n            <span class="widget-item-control">\n              <span class="item-control blog-admin">\n                <a \n                title="Edit" target="configBlogArchive2" onclick="return _WidgetManager._PopupConfig(document.getElementById(&quot;BlogArchive2&quot;));" href="//www.blogger.com/rearrange?blogID=1737980321158585254&amp;widgetType=BlogArchive&amp;widgetId=BlogArchive2&amp;action=editWidget&amp;sectionId=sidebar" class="quickedit" shape="rect">\n                  <img width="18" src="http://img1.blogblog.com/img/icon18_wrench_allbkg.png" height="18" alt=""></img>\n</a>\n              </span>\n            </span>\n            <div class="clear"></div>\n          </div>\n        </div>\n        <div id="Followers1" class="widget Followers">\n          <h2 class="title">Followers</h2>\n          <div class="widget-content">\n            <div id="Followers1-wrapper">\n              <div style="margin-right:2px;">\n                <script type="text/javascript"> if (!window.google || !google.friendconnect) { document.write(\'&lt;script type=&quot;text/javascript&quot;\' + \'src=&quot;http://www.google.com/friendconnect/script/friendconnect.js&quot;&gt;\' + \'&lt;/scr\'+\'ipt&gt;\'); } </script>\n                <script type="text/javascript">\n                  if (!window.registeredBloggerCallbacks) {\n        window.registeredBloggerCallbacks = true;\n\n        \n\n        \n        gadgets.rpc.register(\'requestReload\', function() {\n          document.location.reload();\n        });\n\n        \n        gadgets.rpc.register(\'requestSignOut\', function(siteId) {\n          \n          google.friendconnect.container.openSocialSiteId = siteId;\n          google.friendconnect.requestSignOut();\n        });\n      }\n                </script>\n                <script type="text/javascript">\n                  function registerGetBlogUrls() {\n      gadgets.rpc.register(\'getBlogUrls\', function() {\n        var holder = {};\n        \n          \n            \n            \n              holder.currentPost = &quot;http://www.blogger.com/feeds/1737980321158585254/posts/default/2402820819140014373&quot;;\n            \n            \n            \n              holder.currentComments = &quot;http://www.blogger.com/feeds/1737980321158585254/2402820819140014373/comments/default&quot;;\n            \n            holder.currentPostUrl = &quot;&quot;;\n            holder.currentPostId = 2402820819140014373\n          \n          \n          \n            holder.postFeed = &quot;http://www.blogger.com/feeds/1737980321158585254/posts/default&quot;;\n          \n          \n          \n            holder.commentFeed = &quot;http://www.blogger.com/feeds/1737980321158585254/comments/default&quot;;\n          \n          holder.currentBlogUrl = &quot;http://actsofminortreason.blogspot.com/&quot;;\n          holder.currentBlogId = &quot;1737980321158585254&quot;;\n        \n        return holder;\n      });\n    }\n                </script>\n                <script type="text/javascript">\n                  if (!window.registeredCommonBloggerCallbacks) {\n    window.registeredCommonBloggerCallbacks = true;\n\n    gadgets.rpc.register(\'resize_iframe\', function(height) {\n      var el = document.getElementById(this[\'f\']);\n      if (el) {\n        el.style.height = height + \'px\';\n      }\n    });\n\n    \n    gadgets.rpc.register(\'set_pref\', function() {});\n\n    registerGetBlogUrls();\n  }\n                </script>\n                <div style="width: 100%; " id="div-15zy9snesri0u"></div>\n                <script type="text/javascript">\n                  var skin = {};\n    skin[\'FACE_SIZE\'] = \'32\';\n    skin[\'HEIGHT\'] = &quot;260&quot;;\n    skin[\'TITLE\'] = &quot;Followers&quot;;\n    skin[\'BORDER_COLOR\'] = &quot;transparent&quot;;\n    skin[\'ENDCAP_BG_COLOR\'] = &quot;transparent&quot;;\n    skin[\'ENDCAP_TEXT_COLOR\'] = &quot;#999999&quot;;\n    skin[\'ENDCAP_LINK_COLOR\'] = &quot;#99aadd&quot;;\n    skin[\'ALTERNATE_BG_COLOR\'] = &quot;transparent&quot;;\n    \n    skin[\'CONTENT_BG_COLOR\'] = &quot;transparent&quot;;\n    skin[\'CONTENT_LINK_COLOR\'] = &quot;#99aadd&quot;;\n    skin[\'CONTENT_TEXT_COLOR\'] = &quot;#999999&quot;;\n    skin[\'CONTENT_SECONDARY_LINK_COLOR\'] = &quot;#99aadd&quot;;\n    skin[\'CONTENT_SECONDARY_TEXT_COLOR\'] = &quot;#000000&quot;;\n    skin[\'CONTENT_HEADLINE_COLOR\'] = &quot;#99aadd&quot;;\n    skin[\'FONT_FACE\'] = &quot;normal normal 99% Verdana, sans-serif&quot;;\n    google.friendconnect.container.setParentUrl(&quot;/&quot;);\n    google.friendconnect.container[&quot;renderMembersGadget&quot;](\n    {id: &quot;div-15zy9snesri0u&quot;,\n     height: 260,\n     \n     \n     \n     site: &quot;04963122765543466569&quot;,\n     \n     locale: \'en\' },\n     skin);\n                </script>\n              </div>\n            </div>\n            <div class="clear"></div>\n            <span class="widget-item-control">\n              <span class="item-control blog-admin">\n                <a \n                title="Edit" target="configFollowers1" onclick="return _WidgetManager._PopupConfig(document.getElementById(&quot;Followers1&quot;));" href="//www.blogger.com/rearrange?blogID=1737980321158585254&amp;widgetType=Followers&amp;widgetId=Followers1&amp;action=editWidget&amp;sectionId=sidebar" class="quickedit" shape="rect">\n                  <img width="18" src="http://img1.blogblog.com/img/icon18_wrench_allbkg.png" height="18" alt=""></img>\n</a>\n              </span>\n            </span>\n            <div class="clear"></div>\n          </div>\n        </div>\n        <div id="HTML2" class="widget HTML">\n          <h2 class="title">Content Use and Legal Stuff</h2>\n          <div class="widget-content">\n            Unless specified otherwise, all original content on this weblog is made available under a\n            <a href="http://creativecommons.org/licenses/by-nc-nd/3.0/" shape="rect">Creative Commons Attribution-Non Commercial-No Derivatives license</a>\n            . This means you are free to copy, distribute and transmit the content so long as Andrew Barton is attributed as the creator; so long as the content is not used for commercial purposes; and so long as you do not create derivative works of the content. Still, if there\'s something you\'d like to use, talk to me - any of these conditions can be waived.\n          </div>\n          <div class="clear"></div>\n          <span class="widget-item-control">\n            <span class="item-control blog-admin">\n              <a \n              title="Edit" target="configHTML2" onclick="return _WidgetManager._PopupConfig(document.getElementById(&quot;HTML2&quot;));" href="//www.blogger.com/rearrange?blogID=1737980321158585254&amp;widgetType=HTML&amp;widgetId=HTML2&amp;action=editWidget&amp;sectionId=sidebar" class="quickedit" shape="rect">\n                <img width="18" src="http://img1.blogblog.com/img/icon18_wrench_allbkg.png" height="18" alt=""></img>\n</a>\n            </span>\n          </span>\n          <div class="clear"></div>\n        </div>\n      </div>\n    </div>\n    <div class="clear">\xc2\xa0</div>\n    <div id="footer-wrapper">\n      <div id="footer" class="footer section">\n        <div id="HTML1" class="widget HTML">\n          <h2 class="title">\xc3\x90\xe2\x80\x9c\xc3\x90\xc5\xb8\xc3\x91\xe2\x82\xac\xc3\x90\xc2\xb1\xc3\x90\xc2\xb0\xc3\x91\xe2\x80\xa1\xc3\x90\xc2\xb5\xc3\x90\xc2\xb2 \xc3\x90\xc2\xbf\xc3\x90\xc5\xb8\xc3\x90\xc2\xb5\xc3\x91\xe2\x80\x9a \xc3\x91\xe2\x80\x9a\xc3\x91\xe2\x82\xac\xc3\x90\xc2\xb0\xc3\x90\xc2\xba\xc3\x91\xe2\x80\x9a\xc3\x90\xc5\xb8\xc3\x91\xe2\x82\xac\xc3\x90\xc5\xb8\xc3\x90\xc2\xb2: \xc3\x91\xe2\x82\xac\xc3\x90\xc2\xb5\xc3\x90\xc2\xbf\xc3\x90\xc2\xb0! \xc3\x90\xc2\xaf\xc3\x90\xc2\xb3\xc3\x90\xc5\xb8\xc3\x90\xc5\xbd\xc3\x90\xc5\xbe\xc3\x91\xe2\x80\xa0\xc3\x91\xe2\x80\xb9!</h2>\n          <div class="widget-content">\n            <center>\n              <div id="eXTReMe">\n                <a href="http://extremetracking.com/open?login=arbarton" shape="rect">\n                  <img src="http://t1.extreme-dm.com/i.gif" alt="eXTReMe Tracker" width="41" height="38" style="border: 0;" id="EXim"></img>\n                </a>\n                <script type="text/javascript">\n                  &lt;!--\nvar EXlogin=\'arbarton\' // Login\nvar EXvsrv=\'s11\' // VServer\nEXs=screen;EXw=EXs.width;navigator.appName!=&quot;Netscape&quot;?\nEXb=EXs.colorDepth:EXb=EXs.pixelDepth;EXsrc=&quot;src&quot;;\nnavigator.javaEnabled()==1?EXjv=&quot;y&quot;:EXjv=&quot;n&quot;;\nEXd=document;EXw?&quot;&quot;:EXw=&quot;na&quot;;EXb?&quot;&quot;:EXb=&quot;na&quot;;\nEXd.write(&quot;&lt;img &quot;+EXsrc+&quot;=http://e2.extreme-dm.com&quot;,\n&quot;/&quot;+EXvsrv+&quot;.g?login=&quot;+EXlogin+&quot;&amp;amp;&quot;,\n&quot;jv=&quot;+EXjv+&quot;&amp;amp;j=y&amp;amp;srw=&quot;+EXw+&quot;&amp;amp;srb=&quot;+EXb+&quot;&amp;amp;&quot;,\n&quot;l=&quot;+escape(EXd.referrer)+&quot; height=1 width=1&gt;&quot;);//--&gt;\n                </script>\n                <noscript>\n                  <div id="neXTReMe">\n                    <img src="http://e2.extreme-dm.com/s11.g?login=arbarton&amp;j=n&amp;jv=n" height="1" alt="" width="1"></img>\n                  </div>\n                </noscript>\n              </div>\n            </center>\n          </div>\n          <div class="clear"></div>\n          <span class="widget-item-control">\n            <span class="item-control blog-admin">\n              <a \n              title="Edit" target="configHTML1" onclick="return _WidgetManager._PopupConfig(document.getElementById(&quot;HTML1&quot;));" href="//www.blogger.com/rearrange?blogID=1737980321158585254&amp;widgetType=HTML&amp;widgetId=HTML1&amp;action=editWidget&amp;sectionId=footer" class="quickedit" shape="rect">\n                <img width="18" src="http://img1.blogblog.com/img/icon18_wrench_allbkg.png" height="18" alt=""></img>\n</a>\n            </span>\n          </span>\n          <div class="clear"></div>\n        </div>\n      </div>\n    </div>\n    <script type="text/javascript"> if (window.jstiming) window.jstiming.load.tick(\'widgetJsBefore\'); </script>\n    <script src="//www.blogger.com/static/v1/widgets/1040267425-widgets.js" type="text/javascript"></script>\n    <script src="//www.google.com/jsapi" type="text/javascript"></script>\n    <script type="text/javascript">\n      if (typeof(BLOG_attachCsiOnload) != \'undefined\' &amp;&amp; BLOG_attachCsiOnload != null) { window[\'blogger_templates_experiment_id\'] = &quot;templatesV1&quot;;window[\'blogger_blog_id\'] = \'1737980321158585254\';BLOG_attachCsiOnload(\'item_\'); }_WidgetManager._Init(\'//www.blogger.com/rearrange?blogID\\x3d1737980321158585254\',\'//actsofminortreason.blogspot.com/2011/04/quaff-review-12-hitachino-nest-jca.html\',\'1737980321158585254\');\n_WidgetManager._SetDataContext([{\'name\': \'blog\', \'data\': {\'blogId\': \'1737980321158585254\', \'bloggerUrl\': \'http://www.blogger.com\', \'title\': \'Acts of Minor Treason\', \'pageType\': \'item\', \'url\': \'http://actsofminortreason.blogspot.com/2011/04/quaff-review-12-hitachino-nest-jca.html\', \'canonicalUrl\': \'http://actsofminortreason.blogspot.com/2011/04/quaff-review-12-hitachino-nest-jca.html\', \'canonicalHomepageUrl\': \'http://actsofminortreason.blogspot.com/\', \'homepageUrl\': \'http://actsofminortreason.blogspot.com/\', \'blogspotFaviconUrl\': \'http://actsofminortreason.blogspot.com/favicon.ico\', \'enabledCommentProfileImages\': true, \'adultContent\': false, \'disableAdSenseWidget\': false, \'analyticsAccountNumber\': \'\', \'searchLabel\': \'\', \'searchQuery\': \'\', \'pageName\': \'Quaff Review #12: Hitachino Nest JCA\', \'pageTitle\': \'Acts of Minor Treason: Quaff Review #12: Hitachino Nest JCA\', \'encoding\': \'UTF-8\', \'locale\': \'en\', \'isPrivate\': false, \'isMobile\': false, \'isMobileRequest\': false, \'mobileClass\': \'\', \'isPrivateBlog\': false, \'languageDirection\': \'ltr\', \'feedLinks\': \'\\74link rel\\75\\42alternate\\42 type\\75\\42application/atom+xml\\42 title\\75\\42Acts of Minor Treason - Atom\\42 href\\75\\42http://actsofminortreason.blogspot.com/feeds/posts/default\\42 /\\76\\n\\74link rel\\75\\42alternate\\42 type\\75\\42application/rss+xml\\42 title\\75\\42Acts of Minor Treason - RSS\\42 href\\75\\42http://actsofminortreason.blogspot.com/feeds/posts/default?alt\\75rss\\42 /\\76\\n\\74link rel\\75\\42service.post\\42 type\\75\\42application/atom+xml\\42 title\\75\\42Acts of Minor Treason - Atom\\42 href\\75\\42http://www.blogger.com/feeds/1737980321158585254/posts/default\\42 /\\76\\n\\74link rel\\75\\42EditURI\\42 type\\75\\42application/rsd+xml\\42 title\\75\\42RSD\\42 href\\75\\42http://www.blogger.com/rsd.g?blogID\\0751737980321158585254\\42 /\\76\\n\\74link rel\\75\\42alternate\\42 type\\75\\42application/atom+xml\\42 title\\75\\42Acts of Minor Treason - Atom\\42 href\\75\\42http://actsofminortreason.blogspot.com/feeds/2402820819140014373/comments/default\\42 /\\76\\n\', \'meTag\': \'\', \'openIdOpTag\': \'\', \'postImageThumbnailUrl\': \'http://4.bp.blogspot.com/-hpzNh4-ftSw/TbrfkApjraI/AAAAAAAABpY/osdtgVscUZ8/s72-c/hitachinonest.jpg\', \'imageSrcTag\': \'\\74link rel\\75\\42image_src\\42 href\\75\\42http://4.bp.blogspot.com/-hpzNh4-ftSw/TbrfkApjraI/AAAAAAAABpY/osdtgVscUZ8/s72-c/hitachinonest.jpg\\42 /\\76\\n\', \'latencyHeadScript\': \'\\74script type\\75\\42text/javascript\\42\\76(function() { var a\\75window,b\\75\\42jstiming\\42,d\\75\\42tick\\42;var e\\75function(c){this.t\\75{};this.tick\\75function(c,p,h){h\\75void 0!\\75h?h:(new Date).getTime();this.t[c]\\75[h,p]};this[d](\\42start\\42,null,c)},f\\75new e;a.jstiming\\75{Timer:e,load:f};if(a.performance\\46\\46a.performance.timing){var g\\75a.performance.timing,j\\75a[b].load,k\\75g.navigationStart,l\\75g.responseStart;0\\74k\\46\\46l\\76\\75k\\46\\46(j[d](\\42_wtsrt\\42,void 0,k),j[d](\\42wtsrt_\\42,\\42_wtsrt\\42,l),j[d](\\42tbsd_\\42,\\42wtsrt_\\42))}\\ntry{var m\\75null;a.chrome\\46\\46a.chrome.csi\\46\\46(m\\75Math.floor(a.chrome.csi().pageT),j\\46\\0460\\74k\\46\\46(j[d](\\42_tbnd\\42,void 0,a.chrome.csi().startE),j[d](\\42tbnd_\\42,\\42_tbnd\\42,k)));null\\75\\75m\\46\\46a.gtbExternal\\46\\46(m\\75a.gtbExternal.pageT());null\\75\\75m\\46\\46a.external\\46\\46(m\\75a.external.pageT,j\\46\\0460\\74k\\46\\46(j[d](\\42_tbnd\\42,void 0,a.external.startE),j[d](\\42tbnd_\\42,\\42_tbnd\\42,k)));m\\46\\46(a[b].pt\\75m)}catch(n){};a.tickAboveFold\\75function(c){var i\\0750;if(c.offsetParent){do i+\\75c.offsetTop;while(c\\75c.offsetParent)}c\\75i;750\\76\\75c\\46\\46a[b].load[d](\\42aft\\42)};var q\\75!1;function r(){q||(q\\75!0,a[b].load[d](\\42firstScrollTime\\42))}a.addEventListener?a.addEventListener(\\42scroll\\42,r,!1):a.attachEvent(\\42onscroll\\42,r);\\n })();\\74/script\\076\', \'mobileHeadScript\': \'\', \'view\': \'\', \'dynamicViewsCommentsSrc\': \'//www.blogblog.com/dynamicviews/4224c15c4e7c9321/js/comments.js\', \'dynamicViewsScriptSrc\': \'//www.blogblog.com/dynamicviews/04452fcc9c8aa994\'}}, {\'name\': \'skin\', \'data\': {\'vars\': {\'sidebartextcolor\': \'#999999\', \'linkcolor\': \'#99aadd\', \'visitedlinkcolor\': \'#aa77aa\', \'textcolor\': \'#cccccc\', \'headerfont\': \'italic normal 86% Verdana, sans-serif\', \'pagetitlefont\': \'normal bold 200% Verdana, sans-serif\', \'bgcolor\': \'#000000\', \'descriptioncolor\': \'#000000\', \'titlecolor\': \'#99aadd\', \'bordercolor\': \'#777777\', \'postfooterfont\': \'normal normal 78% Trebuchet, Trebuchet MS, Arial, sans-serif\', \'pagetitlecolor\': \'#e6e6e6\', \'bodyfont\': \'normal normal 99% Verdana, sans-serif\', \'endSide\': \'right\', \'startSide\': \'left\', \'descriptionfont\': \'normal bold 30% Courier, monospace\', \'sidebarcolor\': \'#777777\'}, \'override\': \'\'}}, {\'name\': \'view\', \'data\': {\'classic\': {\'name\': \'classic\', \'url\': \'/?view\\75classic\'}, \'flipcard\': {\'name\': \'flipcard\', \'url\': \'/?view\\75flipcard\'}, \'magazine\': {\'name\': \'magazine\', \'url\': \'/?view\\75magazine\'}, \'mosaic\': {\'name\': \'mosaic\', \'url\': \'/?view\\75mosaic\'}, \'sidebar\': {\'name\': \'sidebar\', \'url\': \'/?view\\75sidebar\'}, \'snapshot\': {\'name\': \'snapshot\', \'url\': \'/?view\\75snapshot\'}, \'timeslide\': {\'name\': \'timeslide\', \'url\': \'/?view\\75timeslide\'}}}]);\n_WidgetManager._RegisterWidget(\'_HTMLView\', new _WidgetInfo(\'HTML1\', \'footer\', null, document.getElementById(\'HTML1\'), {}, \'displayModeFull\'));\n_WidgetManager._RegisterWidget(\'_ProfileView\', new _WidgetInfo(\'Profile2\', \'sidebar\', null, document.getElementById(\'Profile2\'), {}, \'displayModeFull\'));\n_WidgetManager._RegisterWidget(\'_HTMLView\', new _WidgetInfo(\'HTML5\', \'sidebar\', null, document.getElementById(\'HTML5\'), {}, \'displayModeFull\'));\n_WidgetManager._RegisterWidget(\'_LinkListView\', new _WidgetInfo(\'LinkList1\', \'sidebar\', null, document.getElementById(\'LinkList1\'), {}, \'displayModeFull\'));\n_WidgetManager._RegisterWidget(\'_HTMLView\', new _WidgetInfo(\'HTML3\', \'sidebar\', null, document.getElementById(\'HTML3\'), {}, \'displayModeFull\'));\n_WidgetManager._RegisterWidget(\'_HTMLView\', new _WidgetInfo(\'HTML4\', \'sidebar\', null, document.getElementById(\'HTML4\'), {}, \'displayModeFull\'));\n_WidgetManager._RegisterWidget(\'_CustomSearchView\', new _WidgetInfo(\'CustomSearch1\', \'sidebar\', null, document.getElementById(\'CustomSearch1\'), {\'title\': \'Search This Weblog\', \'includeBlog\': true, \'includePostLinks\': false, \'includeWeb\': true, \'linkLists\': [], \'blogUrl\': \'http://actsofminortreason.blogspot.com/\', \'loadingMsg\': \'Loading...\', \'thisBlogMsg\': \'This Blog\', \'linkedFromHereMsg\': \'Linked From Here\', \'theWebMsg\': \'The Web\', \'backgroundColor\': \'#000000\', \'textColor\': \'#cccccc\', \'dateColor\': \'#777777\', \'linkColor\': \'#99aadd\', \'urlColor\': \'#99aadd\', \'visitedLinkColor\': \'#aa77aa\', \'borderColor\': \'#777777\', \'activeBorderColor\': \'#99aadd\'}, \'displayModeFull\'));\n_WidgetManager._RegisterWidget(\'_BlogArchiveView\', new _WidgetInfo(\'BlogArchive2\', \'sidebar\', null, document.getElementById(\'BlogArchive2\'), {\'languageDirection\': \'ltr\'}, \'displayModeFull\'));\n_WidgetManager._RegisterWidget(\'_FollowersView\', new _WidgetInfo(\'Followers1\', \'sidebar\', null, document.getElementById(\'Followers1\'), {\'title\': \'Followers\', \'codeSnippet\': \'\\74script type\\75\\42text/javascript\\42\\76\\n        if (!window.google || !google.friendconnect) {\\n          document.write(\\47\\74script type\\75\\42text/javascript\\42\\47 +\\n              \\47src\\75\\42http://www.google.com/friendconnect/script/friendconnect.js\\42\\76\\47 +\\n              \\47\\74/scr\\47 + \\47ipt\\76\\47);\\n        }\\n      \\74/script\\76\\n\\74script type\\75\\42text/javascript\\42\\76\\n      if (!window.registeredBloggerCallbacks) {\\n        window.registeredBloggerCallbacks \\75 true;\\n\\n        \\n\\n        \\n        gadgets.rpc.register(\\47requestReload\\47, function() {\\n          document.location.reload();\\n        });\\n\\n        \\n        gadgets.rpc.register(\\47requestSignOut\\47, function(siteId) {\\n          \\n          google.friendconnect.container.openSocialSiteId \\75 siteId;\\n          google.friendconnect.requestSignOut();\\n        });\\n      }\\n    \\74/script\\76\\n\\74script type\\75\\42text/javascript\\42\\76\\n    \\n    function registerGetBlogUrls() {\\n      gadgets.rpc.register(\\47getBlogUrls\\47, function() {\\n        var holder \\75 {};\\n        \\n          \\n            \\n            \\n              holder.currentPost \\75 \\42http://www.blogger.com/feeds/1737980321158585254/posts/default/2402820819140014373\\42;\\n            \\n            \\n            \\n              holder.currentComments \\75 \\42http://www.blogger.com/feeds/1737980321158585254/2402820819140014373/comments/default\\42;\\n            \\n            holder.currentPostUrl \\75 \\42\\42;\\n            holder.currentPostId \\75 2402820819140014373\\n          \\n          \\n          \\n            holder.postFeed \\75 \\42http://www.blogger.com/feeds/1737980321158585254/posts/default\\42;\\n          \\n          \\n          \\n            holder.commentFeed \\75 \\42http://www.blogger.com/feeds/1737980321158585254/comments/default\\42;\\n          \\n          holder.currentBlogUrl \\75 \\42http://actsofminortreason.blogspot.com/\\42;\\n          holder.currentBlogId \\75 \\0421737980321158585254\\42;\\n        \\n        return holder;\\n      });\\n    }\\n  \\74/script\\76\\n\\74script type\\75\\42text/javascript\\42\\76\\n  if (!window.registeredCommonBloggerCallbacks) {\\n    window.registeredCommonBloggerCallbacks \\75 true;\\n\\n    gadgets.rpc.register(\\47resize_iframe\\47, function(height) {\\n      var el \\75 document.getElementById(this[\\47f\\47]);\\n      if (el) {\\n        el.style.height \\75 height + \\47px\\47;\\n      }\\n    });\\n\\n    \\n    gadgets.rpc.register(\\47set_pref\\47, function() {});\\n\\n    registerGetBlogUrls();\\n  }\\n  \\74/script\\76\\n\\74div id\\75\\42div-emj5qi3aw3mr\\42 style\\75\\42width: 100%; \\42\\76\\74/div\\76\\n\\74script type\\75\\42text/javascript\\42\\76\\n    var skin \\75 {};\\n    skin[\\47FACE_SIZE\\47] \\75 \\04732\\47;\\n    skin[\\47HEIGHT\\47] \\75 \\042260\\42;\\n    skin[\\47TITLE\\47] \\75 \\42Followers\\42;\\n    skin[\\47BORDER_COLOR\\47] \\75 \\42transparent\\42;\\n    skin[\\47ENDCAP_BG_COLOR\\47] \\75 \\42transparent\\42;\\n    skin[\\47ENDCAP_TEXT_COLOR\\47] \\75 \\42#999999\\42;\\n    skin[\\47ENDCAP_LINK_COLOR\\47] \\75 \\42#99aadd\\42;\\n    skin[\\47ALTERNATE_BG_COLOR\\47] \\75 \\42transparent\\42;\\n    \\n    skin[\\47CONTENT_BG_COLOR\\47] \\75 \\42transparent\\42;\\n    skin[\\47CONTENT_LINK_COLOR\\47] \\75 \\42#99aadd\\42;\\n    skin[\\47CONTENT_TEXT_COLOR\\47] \\75 \\42#999999\\42;\\n    skin[\\47CONTENT_SECONDARY_LINK_COLOR\\47] \\75 \\42#99aadd\\42;\\n    skin[\\47CONTENT_SECONDARY_TEXT_COLOR\\47] \\75 \\42#000000\\42;\\n    skin[\\47CONTENT_HEADLINE_COLOR\\47] \\75 \\42#99aadd\\42;\\n    skin[\\47FONT_FACE\\47] \\75 \\42normal normal 99% Verdana, sans-serif\\42;\\n    google.friendconnect.container.setParentUrl(\\42/\\42);\\n    google.friendconnect.container[\\42renderMembersGadget\\42](\\n    {id: \\42div-emj5qi3aw3mr\\42,\\n     height: 260,\\n     \\n     \\n     \\n     site: \\04204963122765543466569\\42,\\n     \\n     locale: \\47en\\47 },\\n     skin);\\n  \\74/script\\076\'}, \'displayModeFull\'));\n_WidgetManager._RegisterWidget(\'_HTMLView\', new _WidgetInfo(\'HTML2\', \'sidebar\', null, document.getElementById(\'HTML2\'), {}, \'displayModeFull\'));\n_WidgetManager._RegisterWidget(\'_HeaderView\', new _WidgetInfo(\'Header1\', \'header\', null, document.getElementById(\'Header1\'), {}, \'displayModeFull\'));\n_WidgetManager._RegisterWidget(\'_NavbarView\', new _WidgetInfo(\'Navbar1\', \'navbar\', null, document.getElementById(\'Navbar1\'), {}, \'displayModeFull\'));\n_WidgetManager._RegisterWidget(\'_BlogView\', new _WidgetInfo(\'Blog1\', \'main\', null, document.getElementById(\'Blog1\'), {\'cmtInteractionsEnabled\': false, \'lightboxEnabled\': true, \'lightboxModuleUrl\': \'//www.blogger.com/static/v1/jsbin/1664432155-lbx.js\', \'lightboxCssUrl\': \'//www.blogger.com/static/v1/v-css/228702327-lightbox_bundle.css\'}, \'displayModeFull\'));\n    </script>\n  </body>\n</html>'
p11
sbsS'mentions'
p12
(lp13
(iedu.umass.cs.iesl.wikilink.expanded.data.ttypes
Mention
p14
(dp15
S'anchor_text'
p16
S'Naka, Ibaraki'
p17
sS'context'
p18
(iedu.umass.cs.iesl.wikilink.expanded.data.ttypes
Context
p19
(dp20
S'middle'
p21
S'Naka, Ibaraki'
p22
sS'right'
p23
S"- close enough to Fukushima Prefecture that the company's English website has front-and-center assurances that no radioactivity was detected in their products. One reason I"
p24
sS'left'
p25
S". The front label is easily understandable; it's the back that's swimming in hiragana. It's one of several beers produced by the Kiuchi Brewery in"
p26
sbsS'freebase_id'
p27
S'9202a8c04000641f800000000038b344'
p28
sS'raw_text_offset'
p29
I15752
sS'wiki_url'
p30
S'http://en.wikipedia.org/wiki/Naka,_Ibaraki'
p31
sba(iedu.umass.cs.iesl.wikilink.expanded.data.ttypes
Mention
p32
(dp33
g16
S'Edo period'
p34
sg18
(iedu.umass.cs.iesl.wikilink.expanded.data.ttypes
Context
p35
(dp36
g21
S'Edo period'
p37
sg23
S', which for those of you who fell asleep in Japanese History class lasted from 1603 to 1868. Japanese Classic Ale is aged in cedar'
p38
sg25
S'the name Japanese Classic Ale. According to the back label, this is a modern reconstruction of the first kind of Japanese beer, brewed during the'
p39
sbsg27
S'9202a8c04000641f800000000012f97b'
p40
sg29
I16799
sg30
S'http://en.wikipedia.org/wiki/Edo_period'
p41
sbasS'doc_id'
p42
I10916
sS'rare_words'
p43
(lp44
(iedu.umass.cs.iesl.wikilink.expanded.data.ttypes
RareWord
p45
(dp46
S'word'
p47
S'aftertaste'
p48
sS'offset'
p49
I17915
sba(iedu.umass.cs.iesl.wikilink.expanded.data.ttypes
RareWord
p50
(dp51
g47
S'had'
p52
sg49
I17142
sba(iedu.umass.cs.iesl.wikilink.expanded.data.ttypes
RareWord
p53
(dp54
g47
S'easily'
p55
sg49
I15522
sba(iedu.umass.cs.iesl.wikilink.expanded.data.ttypes
RareWord
p56
(dp57
g47
S'possibility'
p58
sg49
I14713
sba(iedu.umass.cs.iesl.wikilink.expanded.data.ttypes
RareWord
p59
(dp60
g47
S'Kiuchi'
p61
sg49
I15677
sba(iedu.umass.cs.iesl.wikilink.expanded.data.ttypes
RareWord
p62
(dp63
g47
S'beers'
p64
sg49
I15608
sba(iedu.umass.cs.iesl.wikilink.expanded.data.ttypes
RareWord
p65
(dp66
g47
S'speaking'
p67
sg49
I18048
sba(iedu.umass.cs.iesl.wikilink.expanded.data.ttypes
RareWord
p68
(dp69
g47
S'possible'
p70
sg49
I15173
sba(iedu.umass.cs.iesl.wikilink.expanded.data.ttypes
RareWord
p71
(dp72
g47
S'center'
p73
sg49
I15858
sba(iedu.umass.cs.iesl.wikilink.expanded.data.ttypes
RareWord
p74
(dp75
g47
S'seems'
p76
sg49
I18424
sbasb.