(iedu.umass.cs.iesl.wikilink.expanded.data.ttypes
WikiLinkItem
p0
(dp1
S'url'
p2
S'http://actressflesh.wordpress.com/2010/10/17/nude-ashley-judd/'
p3
sS'content'
p4
(iedu.umass.cs.iesl.wikilink.expanded.data.ttypes
PageContentItem
p5
(dp6
S'articleText'
p7
NsS'raw'
p8
NsS'fullText'
p9
NsS'dom'
p10
S'<html lang="en" dir="ltr">\n  <head profile="http://gmpg.org/xfn/11">\n    <meta content="text/html; charset=UTF-8" http-equiv="Content-Type"></meta>\n    <title>Nude Ashley\xc3\x82\xc2\xa0Judd \xc2\xab Naked Actress Arround You</title>\n    <link media="screen" type="text/css" href="http://s2.wp.com/wp-content/themes/pub/chaoticsoul/style.css?m=1346781493g" rel="stylesheet"></link>\n    <link href="http://actressflesh.wordpress.com/xmlrpc.php" rel="pingback"></link>\n    <link href="http://actressflesh.wordpress.com/feed/" title="Naked Actress Arround You \xc2\xbb Feed" type="application/rss+xml" rel="alternate"></link>\n    <link href="http://actressflesh.wordpress.com/comments/feed/" title="Naked Actress Arround You \xc2\xbb Comments Feed" type="application/rss+xml" rel="alternate"></link>\n    <link href="http://actressflesh.wordpress.com/2010/10/17/nude-ashley-judd/feed/" title="Naked Actress Arround You \xc2\xbb Nude\xc2\xa0Ashley\xc3\x82\xc2\xa0Judd Comments Feed" type="application/rss+xml" rel="alternate"></link>\n    <script type="text/javascript"> /* &lt;![CDATA[ */ function addLoadEvent(func){var oldonload=window.onload;if(typeof window.onload!=\'function\'){window.onload=func;}else{window.onload=function(){oldonload();func();}}} /* ]]&gt; */ </script>\n    <link \n    media="all" type="text/css" href="http://s1.wp.com/_static/??/wp-content/blog-plugins/loggedout-follow/widget.css,/wp-content/mu-plugins/infinity/themes/pub/chaoticsoul.css,/wp-content/mu-plugins/post-flair/style.css,/wp-content/themes/h4/global.css?m=1345177132j" rel="stylesheet" id="all-css-0">\n</link>\n    <link media="print" type="text/css" href="http://s0.wp.com/wp-content/mu-plugins/global-print/global-print.css?m=1335386953g" rel="stylesheet" id="print-css-0"></link>\n    <script type="text/javascript"> /* &lt;![CDATA[ */ var LoggedOutFollow = {&quot;invalid_email&quot;:&quot;Your subscription did not succeed, please try again with a valid email address.&quot;}; /* ]]&gt; */ </script>\n    <script src="http://s2.wp.com/_static/??/wp-includes/js/jquery/jquery.js,/wp-content/blog-plugins/loggedout-follow/widget.js,/wp-includes/js/comment-reply.js?m=1333391137j" type="text/javascript"></script>\n    <link media="all" type="text/css" href="http://s1.wp.com/wp-content/mu-plugins/highlander-comments/style.css?m=1343991657g" rel="stylesheet" id="all-css-0"></link>\n    <link href="http://actressflesh.wordpress.com/xmlrpc.php?rsd" title="RSD" type="application/rsd+xml" rel="EditURI"></link>\n    <link href="http://actressflesh.wordpress.com/wp-includes/wlwmanifest.xml" type="application/wlwmanifest+xml" rel="wlwmanifest"></link>\n    <link href="http://actressflesh.wordpress.com/2010/10/17/nude-ashley-greene/" title="Nude\xc2\xa0Ashley\xc3\x82\xc2\xa0Greene" rel="prev"></link>\n    <link href="http://actressflesh.wordpress.com/2010/10/17/nude-audrina-patridge/" title="Nude\xc2\xa0Audrina\xc3\x82\xc2\xa0Patridge" rel="next"></link>\n    <meta content="WordPress.com" name="generator"></meta>\n    <link href="http://actressflesh.wordpress.com/2010/10/17/nude-ashley-judd/" rel="canonical"></link>\n    <link href="http://wp.me/p18w0Z-1p" rel="shortlink"></link>\n    <link href="http://public-api.wordpress.com/oembed/1.0/?format=json&amp;url=http%3A%2F%2Factressflesh.wordpress.com%2F2010%2F10%2F17%2Fnude-ashley-judd%2F&amp;for=wpcom-auto-discovery" type="application/json+oembed" rel="alternate"></link>\n    <link href="http://public-api.wordpress.com/oembed/1.0/?format=xml&amp;url=http%3A%2F%2Factressflesh.wordpress.com%2F2010%2F10%2F17%2Fnude-ashley-judd%2F&amp;for=wpcom-auto-discovery" type="application/xml+oembed" rel="alternate"></link>\n    <meta content="article" property="og:type"></meta>\n    <meta content="Nude\xc2\xa0Ashley\xc3\x82\xc2\xa0Judd" property="og:title"></meta>\n    <meta content="http://actressflesh.wordpress.com/2010/10/17/nude-ashley-judd/" property="og:url"></meta>\n    <meta content="Ashley Judd (born April 19, 1968) is an American actress, who is best known for playing a number of strong characters in films such as Ruby in Paradise, Kiss the Girls, Double Jeopardy, Where the H..." property="og:description"></meta>\n    <meta content="Naked Actress Arround You" property="og:site_name"></meta>\n    <meta content="http://actressflesh.files.wordpress.com/2010/10/ashley-judd-1.jpg?w=200" property="og:image"></meta>\n    <meta content="http://actressflesh.files.wordpress.com/2010/10/ashley-judd-2.jpg?w=200" property="og:image"></meta>\n    <meta content="http://actressflesh.files.wordpress.com/2010/10/ashley-judd-3.jpg?w=200" property="og:image"></meta>\n    <meta content="http://actressflesh.files.wordpress.com/2010/10/ashley-judd-4.jpg?w=200" property="og:image"></meta>\n    <meta content="http://actressflesh.files.wordpress.com/2010/10/ashley-judd-1.jpg" name="twitter:image"></meta>\n    <meta content="summary" name="twitter:card"></meta>\n    <meta content="249643311490" property="fb:app_id"></meta>\n    <link sizes="16x16" href="http://0.gravatar.com/blavatar/22f5a05956836ec60d5029b813e3bc86?s=16" type="image/x-icon" rel="shortcut icon"></link>\n    <link sizes="16x16" href="http://0.gravatar.com/blavatar/22f5a05956836ec60d5029b813e3bc86?s=16" type="image/x-icon" rel="icon"></link>\n    <link href="http://1.gravatar.com/blavatar/13ecc597bf75027765ce71023f72548d?s=114" rel="apple-touch-icon-precomposed"></link>\n    <link href="http://actressflesh.wordpress.com/?openidserver=1" rel="openid.server"></link>\n    <link href="http://actressflesh.wordpress.com/" rel="openid.delegate"></link>\n    <link title="Naked Actress Arround You" href="http://actressflesh.wordpress.com/osd.xml" type="application/opensearchdescription+xml" rel="search"></link>\n    <link title="WordPress.com" href="http://wordpress.com/opensearch.xml" type="application/opensearchdescription+xml" rel="search"></link>\n    <style>\n      /* &lt;![CDATA[ */\n\t\t/* Block: reblog */\n\t\t\n\t\t.reblog-from img                   { margin: 0 10px 0 0; vertical-align: middle; padding: 0; border: 0; }\n\t\t.reblogger-note img.avatar         { float: left; padding: 0; border: 0; }\n\t\t.reblogger-note-content            { margin: 0 0 20px; }\n\t\t.reblog-post .wpcom-enhanced-excerpt-content { border-left: 3px solid #eee; padding-left: 15px; }\n\t\t.reblog-post ul.thumb-list         { display: block; list-style: none; margin: 2px 0; padding: 0; clear: both; }\n\t\t.reblog-post ul.thumb-list li      { display: inline; margin: 0; padding: 0 1px; border: 0; }\n\t\t.reblog-post ul.thumb-list li a    { margin: 0; padding: 0; border: 0; }\n\t\t.reblog-post ul.thumb-list li img  { margin: 0; padding: 0; border: 0; }\n\t\t\n\t\t.reblog-post .wpcom-enhanced-excerpt { clear: both; }\n\t\t\n\t\t.reblog-post .wpcom-enhanced-excerpt address,\n\t\t.reblog-post .wpcom-enhanced-excerpt li,\n\t\t.reblog-post .wpcom-enhanced-excerpt h1,\n\t\t.reblog-post .wpcom-enhanced-excerpt h2,\n\t\t.reblog-post .wpcom-enhanced-excerpt h3,\n\t\t.reblog-post .wpcom-enhanced-excerpt h4,\n\t\t.reblog-post .wpcom-enhanced-excerpt h5,\n\t\t.reblog-post .wpcom-enhanced-excerpt h6,\n\t\t.reblog-post .wpcom-enhanced-excerpt p { font-size: 100% !important; }\n\t\t\n\t\t.reblog-post .wpcom-enhanced-excerpt blockquote,\n\t\t.reblog-post .wpcom-enhanced-excerpt pre,\n\t\t.reblog-post .wpcom-enhanced-excerpt code,\n\t\t.reblog-post .wpcom-enhanced-excerpt q { font-size: 98% !important; }\n\t\t\n\n\t\t/* ]]&gt; */\n    </style>\n    <meta content="Naked Actress Arround You" name="application-name"></meta>\n    <meta content="width=device-width;height=device-height" name="msapplication-window"></meta>\n    <meta content="Just another WordPress.com site" name="msapplication-tooltip"></meta>\n    <meta content="name=Subscribe;action-uri=http://actressflesh.wordpress.com/feed/;icon-uri=http://0.gravatar.com/blavatar/22f5a05956836ec60d5029b813e3bc86?s=16" name="msapplication-task"></meta>\n    <meta content="name=Sign up for a free blog;action-uri=http://wordpress.com/signup/;icon-uri=http://s2.wp.com/i/favicon.ico" name="msapplication-task"></meta>\n    <meta content="name=WordPress.com Support;action-uri=http://support.wordpress.com/;icon-uri=http://s2.wp.com/i/favicon.ico" name="msapplication-task"></meta>\n    <meta content="name=WordPress.com Forums;action-uri=http://forums.wordpress.com/;icon-uri=http://s2.wp.com/i/favicon.ico" name="msapplication-task"></meta>\n    <meta content="Nude\xc2\xa0Ashley\xc3\x82\xc2\xa0Judd | Naked Actress Arround You on WordPress.com" name="title"></meta>\n    <meta \n    content="Ashley Judd (born April 19, 1968) is an American actress, who is best known for playing a number of strong characters in films such as Ruby in Paradise, Kiss the Girls, Double Jeopardy, Where the Heart Is and High Crimes. Ashley was born as Ashley Tyler Ciminella in Granada Hills, California. She is the daughter\xe2\x80\xa6" name="description">\n</meta>\n  </head>\n  <body class="single single-post postid-87 single-format-standard highlander-enabled highlander-dark">\n    <div id="page">\n      <div id="header">\n        <h1>\n          <a href="http://actressflesh.wordpress.com/" shape="rect">Naked Actress Arround You</a>\n        </h1>\n        <div class="description">Just another WordPress.com site</div>\n      </div>\n      <div class="hr">\xc2\xa0</div>\n      <div id="headerimg" class="clearfix">\n        <div id="header-overlay"> </div>\n        <div id="header-image">\n          <img src="http://actressflesh.files.wordpress.com/2010/10/cropped-group-shot-rebrand-copy1.jpg" alt=""></img>\n        </div>\n      </div>\n      <div class="hr">\xc2\xa0</div>\n      <div id="wrapper" class="clearfix">\n        <div id="content" class="widecolumn">\n          <div id="post-87" class="post-87 post type-post status-publish format-standard hentry category-ashley-judd category-nude-actress">\n            <h2 class="title">Nude\xc2\xa0Ashley\xc3\x82\xc2\xa0Judd</h2>\n            <div class="entrytext">\n              <p>\n                <strong>Ashley Judd</strong>\n                (born April 19, 1968) is an\n                <a href="http://en.wikipedia.org/wiki/United_States" title="United States" shape="rect">American</a>\n                <a href="http://en.wikipedia.org/wiki/Actress" title="Actress" shape="rect">actress</a>\n                , who is best known for playing a number of strong characters in films such as\n                <em>\n                  <a href="http://en.wikipedia.org/wiki/Ruby_in_Paradise" title="Ruby in Paradise" shape="rect">Ruby in Paradise</a>\n                  ,\n                </em>\n                <em>\n                  <a href="http://en.wikipedia.org/wiki/Kiss_the_Girls_%28film%29" title="Kiss the Girls (film)" shape="rect">Kiss the Girls</a>\n                </em>\n                ,\n                <em>\n                  <a href="http://en.wikipedia.org/wiki/Double_Jeopardy_%28film%29" title="Double Jeopardy (film)" shape="rect">Double Jeopardy</a>\n                </em>\n                ,\n                <em>\n                  <a href="http://en.wikipedia.org/wiki/Where_the_Heart_Is" title="Where the Heart Is" shape="rect">Where the Heart Is</a>\n                </em>\n                and\n                <em>\n                  <a href="http://en.wikipedia.org/wiki/High_Crimes" title="High Crimes" shape="rect">High Crimes</a>\n                </em>\n                .\n              </p>\n              <p>\n                Ashley was born as\n                <strong>Ashley Tyler Ciminella</strong>\n                in\n                <a href="http://en.wikipedia.org/wiki/Granada_Hills,_California" title="Granada Hills, California" shape="rect">Granada Hills, California</a>\n                . She is the daughter of\n                <a href="http://en.wikipedia.org/wiki/Naomi_Judd" title="Naomi Judd" shape="rect">Naomi Judd</a>\n                , a\n                <a href="http://en.wikipedia.org/wiki/Country_music" title="Country music" shape="rect">country music</a>\n                singer and motivational speaker, and Michael C. Ciminella, a marketing analyst for the\n                <a href="http://en.wikipedia.org/wiki/Horseracing" title="Horseracing" shape="rect">horseracing</a>\n                industry. Ashley\xe2\x80\x99s elder half-sister\n                <a href="http://en.wikipedia.org/wiki/Wynonna_Judd" title="Wynonna Judd" shape="rect">Wynonna</a>\n                is also a country music singer. At the time of her birth, her mother  was unemployed and did not become well-known as a singer until the early  1980s. Judd\xe2\x80\x99s parents divorced in 1972, and in 1973, her mother took  her back to her native\n                <a href="http://en.wikipedia.org/wiki/Kentucky" title="Kentucky" shape="rect">Kentucky</a>\n                , where Judd spent the majority of her childhood\n                <sup>.</sup>\n                She also lived in\n                <a href="http://en.wikipedia.org/wiki/Marin_County,_California" title="Marin County, California" shape="rect">Marin County, California</a>\n                for two years during grade school.\n              </p>\n              <h2>Career</h2>\n              <p>\n                udd appeared as\n                <a href="http://en.wikipedia.org/wiki/Ensign_%28Star_Trek%29" title="Ensign (Star Trek)" shape="rect">Ensign</a>\n                <a href="http://en.wikipedia.org/wiki/Robin_Lefler" title="Robin Lefler" shape="rect">Robin Lefler</a>\n                , a\n                <a href="http://en.wikipedia.org/wiki/Starfleet" title="Starfleet" shape="rect">Starfleet</a>\n                officer, in two 1991 episodes of\n                <em>\n                  <a href="http://en.wikipedia.org/wiki/Star_Trek:_The_Next_Generation" title="Star Trek: The Next Generation" shape="rect">Star Trek: The Next Generation</a>\n                </em>\n                , \xe2\x80\x9c\n                <a href="http://en.wikipedia.org/wiki/Darmok" title="Darmok" shape="rect">Darmok</a>\n                \xe2\x80\x9d and \xe2\x80\x9c\n                <a href="http://en.wikipedia.org/wiki/The_Game_%28Star_Trek:_The_Next_Generation%29" title="The Game (Star Trek: The Next Generation)" shape="rect">The Game</a>\n                \xe2\x80\x9c. From 1991 to 1994, she had a recurring role as Reed, the daughter of Alex (\n                <a href="http://en.wikipedia.org/wiki/Swoosie_Kurtz" title="Swoosie Kurtz" shape="rect">Swoosie Kurtz</a>\n                ), on the NBC drama\n                <em>\n                  <a href="http://en.wikipedia.org/wiki/Sisters_%28TV_series%29" title="Sisters (TV series)" shape="rect">Sisters</a>\n                </em>\n                . She made her feature film debut with a small role in 1992\xe2\x80\xb2s\n                <em>\n                  <a href="http://en.wikipedia.org/wiki/Kuffs" title="Kuffs" shape="rect">Kuffs</a>\n                </em>\n                . In 1993 Judd fought for and was cast in her first starring role playing the title character in\n                <a href="http://en.wikipedia.org/wiki/Victor_Nu%C3%B1ez" title="Victor Nu\xc3\x83\xc2\xb1ez" shape="rect">Victor Nu\xc3\x83\xc2\xb1ez</a>\n                \xe2\x80\x98s\n                <a href="http://en.wikipedia.org/wiki/Sundance_Film_Festival" title="Sundance Film Festival" shape="rect">Sundance Film Festival</a>\n                Grand Jury Prize Winning,\n                <em>\n                  <a href="http://en.wikipedia.org/wiki/Ruby_in_Paradise" title="Ruby in Paradise" shape="rect">Ruby in Paradise</a>\n                </em>\n                .  She received rave reviews playing Ruby Lee Gissing, a young woman  trying to make a new life for herself, and it was this performance that  would launch her career as an actress.\n                <a href="http://en.wikipedia.org/wiki/Oliver_Stone" title="Oliver Stone" shape="rect">Oliver Stone</a>\n                , who had seen her in Nu\xc3\x83\xc2\xb1ez\xe2\x80\x99s film, cast Judd in\n                <em>\n                  <a href="http://en.wikipedia.org/wiki/Natural_Born_Killers" title="Natural Born Killers" shape="rect">Natural Born Killers</a>\n                </em>\n                ,  but her scenes were later cut from the version of the film released  theatrically. The following year she gained further critical acclaim for  her role as\n                <a href="http://en.wikipedia.org/wiki/Harvey_Keitel" title="Harvey Keitel" shape="rect">Harvey Keitel</a>\n                \xe2\x80\x98s estranged daughter in\n                <a href="http://en.wikipedia.org/wiki/Wayne_Wang" title="Wayne Wang" shape="rect">Wayne Wang</a>\n                \xe2\x80\x98s\n                <em>\n                  <a href="http://en.wikipedia.org/wiki/Smoke_%28film%29" title="Smoke (film)" shape="rect">Smoke</a>\n                </em>\n                and also as\n                <a href="http://en.wikipedia.org/wiki/Val_Kilmer" title="Val Kilmer" shape="rect">Val Kilmer</a>\n                \xe2\x80\x98s wife in\n                <a href="http://en.wikipedia.org/wiki/Michael_Mann_%28director%29" title="Michael Mann (director)" shape="rect">Michael Mann</a>\n                \xe2\x80\x98s\n                <em>\n                  <a href="http://en.wikipedia.org/wiki/Heat_%281995_film%29" title="Heat (1995 film)" shape="rect">Heat</a>\n                </em>\n                . That same year she also played the role of Callie in\n                <a href="http://en.wikipedia.org/wiki/Philip_Ridley" title="Philip Ridley" shape="rect">Philip Ridley</a>\n                \xe2\x80\x98s dark, adult fairy tale,\n                <em>\n                  <a href="http://en.wikipedia.org/wiki/The_Passion_of_Darkly_Noon" title="The Passion of Darkly Noon" shape="rect">The Passion of Darkly Noon</a>\n                </em>\n                .\n              </p>\n              <p>\n                By the end of the 1990s, Judd had managed to achieve significant fame  and success as a leading actress, after leading roles in several  thrillers that performed well at the box office, including\n                <em>\n                  <a href="http://en.wikipedia.org/wiki/Kiss_the_Girls_%28film%29" title="Kiss the Girls (film)" shape="rect">Kiss the Girls</a>\n                </em>\n                in 1997 and 1999\xe2\x80\xb2s\n                <em>\n                  <a href="http://en.wikipedia.org/wiki/Double_Jeopardy_%28film%29" title="Double Jeopardy (film)" shape="rect">Double Jeopardy</a>\n                </em>\n                . Several of her early 2000s films, including 2001\xe2\x80\xb2s\n                <em>\n                  <a href="http://en.wikipedia.org/wiki/Someone_Like_You_%28film%29" title="Someone Like You (film)" shape="rect">Someone Like You</a>\n                </em>\n                and 2002\xe2\x80\xb2s\n                <em>\n                  <a href="http://en.wikipedia.org/wiki/High_Crimes" title="High Crimes" shape="rect">High Crimes</a>\n                </em>\n                , received only mixed reviews and moderate box office success; although, she did receive positive recognition, and a\n                <a href="http://en.wikipedia.org/wiki/Golden_Globe" title="Golden Globe" shape="rect">Golden Globe</a>\n                nomination for Best Actress, for her performance in the 2004 biography of\n                <a href="http://en.wikipedia.org/wiki/Cole_Porter" title="Cole Porter" shape="rect">Cole Porter</a>\n                ,\n                <em>\n                  <a href="http://en.wikipedia.org/wiki/De-Lovely" title="De-Lovely" shape="rect">De-Lovely</a>\n                </em>\n                , opposite\n                <a href="http://en.wikipedia.org/wiki/Kevin_Kline" title="Kevin Kline" shape="rect">Kevin Kline</a>\n                .\n              </p>\n              <p>\n                Judd is currently the magazine advertising \xe2\x80\x9cface\xe2\x80\x9d of\n                <a href="http://en.wikipedia.org/w/index.php?title=American_Beauty_%28perfume%29&amp;action=edit&amp;redlink=1" title="American Beauty (perfume) (page does not exist)" shape="rect">American Beauty</a>\n                , an\n                <a href="http://en.wikipedia.org/wiki/Est%C3%A9e_Lauder" title="Est\xc3\x83\xc2\xa9e Lauder" shape="rect">Est\xc3\x83\xc2\xa9e Lauder</a>\n                cosmetic brand sold exclusively at\n                <a href="http://en.wikipedia.org/wiki/Kohl%27s" title="Kohl\'s" shape="rect">Kohl\xe2\x80\x99s</a>\n                department stores, and\n                <a href="http://en.wikipedia.org/wiki/Hans_Stern" title="Hans Stern" shape="rect">H. Stern</a>\n                jewelers. In June 2007,\n                <a href="http://en.wikipedia.org/wiki/Goody%27s_Family_Clothing" title="Goody\'s Family Clothing" shape="rect">Goody\xe2\x80\x99s Family Clothing</a>\n                announced they were going to be releasing three fashion clothing lines  with Judd in the Fall to be called \xe2\x80\x93 \xe2\x80\x9cAJ\xe2\x80\x9d, \xe2\x80\x9cLove Ashley\xe2\x80\x9d and \xe2\x80\x9cAshley  Judd.\xe2\x80\x9d Regarding the clothing line, Judd said, \xe2\x80\x9cI\xe2\x80\x99m thrilled to be  involved in a clothing line that provides simple, lovely solutions for  women\xe2\x80\x99s wardrobes. I\xe2\x80\x99ve always loved items that you can throw on easily  and know that you\xe2\x80\x99ll feel and look good. This line does just that, while  keeping with the best of current styles and trends.\xe2\x80\x9d\n              </p>\n              <p>Some Pictures of Ashley Judd</p>\n              <style type="text/css"> #gallery-87-2 { margin: auto; } #gallery-87-2 .gallery-item { float: left; margin-top: 10px; text-align: center; width: 33%; } #gallery-87-2 img { border: 2px solid #cfcfcf; } #gallery-87-2 .gallery-caption { margin-left: 0; } </style>\n              <div data-carousel-extra="{&quot;blog_id&quot;:16806029,&quot;permalink&quot;:&quot;http:\\/\\/actressflesh.wordpress.com\\/2010\\/10\\/17\\/nude-ashley-judd\\/&quot;,&quot;like_it_nonce&quot;:&quot;d5d394453a&quot;}" id="gallery-87-2" class="gallery galleryid-87 gallery-columns-3 gallery-size-thumbnail">\n                <dl class="gallery-item">\n                  <dt class="gallery-icon">\n                    <a title="ashley-judd (1)" href="http://actressflesh.wordpress.com/2010/10/17/nude-ashley-judd/ashley-judd-1/" shape="rect">\n                      <img \n                      title="ashley-judd (1)" alt="ashley-judd (1)" src="http://actressflesh.files.wordpress.com/2010/10/ashley-judd-1.jpg?w=150&amp;h=115" height="115" width="150" data-large-file="http://actressflesh.files.wordpress.com/2010/10/ashley-judd-1.jpg?w=900" data-medium-file="http://actressflesh.files.wordpress.com/2010/10/ashley-judd-1.jpg?w=300" data-image-description="" data-image-meta="{&quot;aperture&quot;:&quot;0&quot;,&quot;credit&quot;:&quot;&quot;,&quot;camera&quot;:&quot;&quot;,&quot;caption&quot;:&quot;&quot;,&quot;created_timestamp&quot;:&quot;0&quot;,&quot;copyright&quot;:&quot;&quot;,&quot;focal_length&quot;:&quot;0&quot;,&quot;iso&quot;:&quot;0&quot;,&quot;shutter_speed&quot;:&quot;0&quot;,&quot;title&quot;:&quot;&quot;}" data-comments-opened="1" data-orig-size="900,692" data-orig-file="http://actressflesh.files.wordpress.com/2010/10/ashley-judd-1.jpg" data-attachment-id="88" data-reblogged="0" data-liked="0" class="attachment-thumbnail">\n</img>\n                    </a>\n                  </dt>\n                </dl>\n                <dl class="gallery-item">\n                  <dt class="gallery-icon">\n                    <a title="ashley-judd (2)" href="http://actressflesh.wordpress.com/2010/10/17/nude-ashley-judd/ashley-judd-2/" shape="rect">\n                      <img \n                      title="ashley-judd (2)" alt="ashley-judd (2)" src="http://actressflesh.files.wordpress.com/2010/10/ashley-judd-2.jpg?w=150&amp;h=115" height="115" width="150" data-large-file="http://actressflesh.files.wordpress.com/2010/10/ashley-judd-2.jpg?w=900" data-medium-file="http://actressflesh.files.wordpress.com/2010/10/ashley-judd-2.jpg?w=300" data-image-description="" data-image-meta="{&quot;aperture&quot;:&quot;0&quot;,&quot;credit&quot;:&quot;&quot;,&quot;camera&quot;:&quot;&quot;,&quot;caption&quot;:&quot;&quot;,&quot;created_timestamp&quot;:&quot;0&quot;,&quot;copyright&quot;:&quot;&quot;,&quot;focal_length&quot;:&quot;0&quot;,&quot;iso&quot;:&quot;0&quot;,&quot;shutter_speed&quot;:&quot;0&quot;,&quot;title&quot;:&quot;&quot;}" data-comments-opened="1" data-orig-size="900,692" data-orig-file="http://actressflesh.files.wordpress.com/2010/10/ashley-judd-2.jpg" data-attachment-id="89" data-reblogged="0" data-liked="0" class="attachment-thumbnail">\n</img>\n                    </a>\n                  </dt>\n                </dl>\n                <dl class="gallery-item">\n                  <dt class="gallery-icon">\n                    <a title="ashley-judd (3)" href="http://actressflesh.wordpress.com/2010/10/17/nude-ashley-judd/ashley-judd-3/" shape="rect">\n                      <img \n                      title="ashley-judd (3)" alt="ashley-judd (3)" src="http://actressflesh.files.wordpress.com/2010/10/ashley-judd-3.jpg?w=109&amp;h=150" height="150" width="109" data-large-file="http://actressflesh.files.wordpress.com/2010/10/ashley-judd-3.jpg?w=509" data-medium-file="http://actressflesh.files.wordpress.com/2010/10/ashley-judd-3.jpg?w=218" data-image-description="" data-image-meta="{&quot;aperture&quot;:&quot;0&quot;,&quot;credit&quot;:&quot;&quot;,&quot;camera&quot;:&quot;&quot;,&quot;caption&quot;:&quot;&quot;,&quot;created_timestamp&quot;:&quot;0&quot;,&quot;copyright&quot;:&quot;&quot;,&quot;focal_length&quot;:&quot;0&quot;,&quot;iso&quot;:&quot;0&quot;,&quot;shutter_speed&quot;:&quot;0&quot;,&quot;title&quot;:&quot;&quot;}" data-comments-opened="1" data-orig-size="509,700" data-orig-file="http://actressflesh.files.wordpress.com/2010/10/ashley-judd-3.jpg" data-attachment-id="90" data-reblogged="0" data-liked="0" class="attachment-thumbnail">\n</img>\n                    </a>\n                  </dt>\n                </dl>\n                <br style="clear: both" clear="none"></br>\n                <dl class="gallery-item">\n                  <dt class="gallery-icon">\n                    <a title="ashley-judd (4)" href="http://actressflesh.wordpress.com/2010/10/17/nude-ashley-judd/ashley-judd-4/" shape="rect">\n                      <img \n                      title="ashley-judd (4)" alt="ashley-judd (4)" src="http://actressflesh.files.wordpress.com/2010/10/ashley-judd-4.jpg?w=116&amp;h=150" height="150" width="116" data-large-file="http://actressflesh.files.wordpress.com/2010/10/ashley-judd-4.jpg?w=594" data-medium-file="http://actressflesh.files.wordpress.com/2010/10/ashley-judd-4.jpg?w=232" data-image-description="" data-image-meta="{&quot;aperture&quot;:&quot;0&quot;,&quot;credit&quot;:&quot;&quot;,&quot;camera&quot;:&quot;&quot;,&quot;caption&quot;:&quot;&quot;,&quot;created_timestamp&quot;:&quot;0&quot;,&quot;copyright&quot;:&quot;&quot;,&quot;focal_length&quot;:&quot;0&quot;,&quot;iso&quot;:&quot;0&quot;,&quot;shutter_speed&quot;:&quot;0&quot;,&quot;title&quot;:&quot;&quot;}" data-comments-opened="1" data-orig-size="594,768" data-orig-file="http://actressflesh.files.wordpress.com/2010/10/ashley-judd-4.jpg" data-attachment-id="91" data-reblogged="0" data-liked="0" class="attachment-thumbnail">\n</img>\n                    </a>\n                  </dt>\n                </dl>\n                <br style="clear: both;" clear="none"></br>\n              </div>\n              <div id="jp-post-flair" class="sharedaddy sharedaddy-dark sd-like-enabled">\n                <div class="wpl-likebox sd-block sd-like">\n                  <h3 class="sd-title">Like this:</h3>\n                  <div class="sd-content">\n                    <div id="like-87" class="wpl-button">\n                      <a rel="nofollow" title="I like this." href="http://actressflesh.wordpress.com/2010/10/17/nude-ashley-judd/?like=1&amp;_wpnonce=d5d394453a" class="like needs-login sd-button" shape="rect">\n                        <span>Like</span>\n                      </a>\n                    </div>\n                    <div class="wpl-count sd-like-count">Be the first to like this.</div>\n                  </div>\n                </div>\n              </div>\n              <p class="authormeta">~ by manumon24 on October 17, 2010.</p>\n              <p class="postmetadata">\n                Posted in\n                <a rel="category tag" title="View all posts in Ashley Judd" href="http://actressflesh.wordpress.com/category/nude-actress/ashley-judd/" shape="rect">Ashley Judd</a>\n                ,\n                <a rel="category tag" title="View all posts in Nude actress" href="http://actressflesh.wordpress.com/category/nude-actress/" shape="rect">Nude actress</a>\n              </p>\n            </div>\n          </div>\n          <div class="comments clearfix">\n            <div id="respond">\n              <h3 id="reply-title">\n                Leave a Reply\n                <small>\n                  <a style="display:none;" href="/2010/10/17/nude-ashley-judd/#respond" rel="nofollow" id="cancel-comment-reply-link" shape="rect">Cancel reply</a>\n                </small>\n              </h3>\n              <form action="http://actressflesh.wordpress.com/wp-comments-post.php" id="commentform" method="post" enctype="application/x-www-form-urlencoded">\n                <input value="guest" name="hc_post_as" id="hc_post_as" type="hidden"></input>\n                <div class="comment-form-field comment-textarea">\n                  <label for="comment">Enter your comment here...</label>\n                  <div id="comment-form-comment">\n                    <textarea name="comment" id="comment"></textarea>\n                  </div>\n                </div>\n                <div id="comment-form-identity">\n                  <div id="comment-form-nascar">\n                    <p>Fill in your details below or click an icon to log in:</p>\n                    <ul>\n                      <li style="display:none;" class="selected">\n                        <a title="Guest" href="#comment-form-guest" id="postas-guest" shape="rect">\n                          <span></span>\n                        </a>\n                      </li>\n                      <li>\n                        <a title="WordPress.com" href="#comment-form-load-service:WordPress.com" id="postas-wordpress" shape="rect">\n                          <span></span>\n                        </a>\n                      </li>\n                      <li>\n                        <a title="Twitter" href="#comment-form-load-service:Twitter" id="postas-twitter" shape="rect">\n                          <span></span>\n                        </a>\n                      </li>\n                      <li>\n                        <a title="Facebook" href="#comment-form-load-service:Facebook" id="postas-facebook" shape="rect">\n                          <span></span>\n                        </a>\n                      </li>\n                    </ul>\n                  </div>\n                  <div id="comment-form-guest" class="comment-form-service selected">\n                    <div class="comment-form-padder">\n                      <div class="comment-form-avatar">\n                        <a target="_blank" href="https://gravatar.com/site/signup/" shape="rect">\n                          <img width="25" alt="Gravatar" src="http://1.gravatar.com/avatar/ad516503a11cd5ca435acc9bb6523536?s=25&amp;d=identicon&amp;forcedefault=y&amp;r=G" class="no-grav"></img>\n                        </a>\n                      </div>\n                      <div class="comment-form-fields">\n                        <div class="comment-form-field comment-form-email">\n                          <label for="email">\n                            Email\n                            <span class="required">(required)</span>\n                            <span class="nopublish">(Address never made public)</span>\n                          </label>\n                          <div class="comment-form-input">\n                            <input value="" name="email" id="email" type="email"></input>\n                          </div>\n                        </div>\n                        <div class="comment-form-field comment-form-author">\n                          <label for="author">\n                            Name\n                            <span class="required">(required)</span>\n                          </label>\n                          <div class="comment-form-input">\n                            <input value="" name="author" id="author" type="text"></input>\n                          </div>\n                        </div>\n                        <div class="comment-form-field comment-form-url">\n                          <label for="url">Website</label>\n                          <div class="comment-form-input">\n                            <input value="" name="url" id="url" type="text"></input>\n                          </div>\n                        </div>\n                      </div>\n                    </div>\n                  </div>\n                  <div id="comment-form-wordpress" class="comment-form-service">\n                    <div class="comment-form-padder">\n                      <div class="comment-form-avatar">\n                        <img width="25" alt="WordPress.com Logo" src="http://s2.wp.com/wp-content/mu-plugins/highlander-comments/images/wplogo.png?m=1289230950g" class="no-grav"></img>\n                      </div>\n                      <div class="comment-form-fields">\n                        <input value="" name="wp_avatar" id="wordpress-avatar" class="comment-meta-wordpress" type="hidden"></input>\n                        <input value="" name="wp_user_id" id="wordpress-user_id" class="comment-meta-wordpress" type="hidden"></input>\n                        <input value="" name="wp_access_token" id="wordpress-access_token" class="comment-meta-wordpress" type="hidden"></input>\n                        <p class="comment-form-posting-as pa-wordpress">\n                          <strong></strong>\n                          You are commenting using your WordPress.com account.\n                          <span class="comment-form-log-out">\n                            (\xc2\xa0\n                            <a href="javascript:HighlanderComments.doExternalLogout( \'wordpress\' );" shape="rect">Log\xc2\xa0Out</a>\n                            \xc2\xa0/\xc2\xa0\n                            <a onclick="javascript:HighlanderComments.switchAccount();return false;" href="#" shape="rect">Change</a>\n                            \xc2\xa0)\n                          </span>\n                        </p>\n                      </div>\n                    </div>\n                  </div>\n                  <div id="comment-form-twitter" class="comment-form-service">\n                    <div class="comment-form-padder">\n                      <div class="comment-form-avatar">\n                        <img width="25" alt="Twitter picture" src="http://1.gravatar.com/avatar/ad516503a11cd5ca435acc9bb6523536?s=25&amp;d=identicon&amp;forcedefault=y&amp;r=G" class="no-grav"></img>\n                      </div>\n                      <div class="comment-form-fields">\n                        <input value="" name="twitter_avatar" id="twitter-avatar" class="comment-meta-twitter" type="hidden"></input>\n                        <input value="" name="twitter_user_id" id="twitter-user_id" class="comment-meta-twitter" type="hidden"></input>\n                        <input value="" name="twitter_access_token" id="twitter-access_token" class="comment-meta-twitter" type="hidden"></input>\n                        <p class="comment-form-posting-as pa-twitter">\n                          <strong></strong>\n                          You are commenting using your Twitter account.\n                          <span class="comment-form-log-out">\n                            (\xc2\xa0\n                            <a href="javascript:HighlanderComments.doExternalLogout( \'twitter\' );" shape="rect">Log\xc2\xa0Out</a>\n                            \xc2\xa0/\xc2\xa0\n                            <a onclick="javascript:HighlanderComments.switchAccount();return false;" href="#" shape="rect">Change</a>\n                            \xc2\xa0)\n                          </span>\n                        </p>\n                      </div>\n                    </div>\n                  </div>\n                  <div id="comment-form-facebook" class="comment-form-service">\n                    <div class="comment-form-padder">\n                      <div class="comment-form-avatar">\n                        <img width="25" alt="Facebook photo" src="http://1.gravatar.com/avatar/ad516503a11cd5ca435acc9bb6523536?s=25&amp;d=identicon&amp;forcedefault=y&amp;r=G" class="no-grav"></img>\n                      </div>\n                      <div class="comment-form-fields">\n                        <input value="" name="fb_avatar" id="facebook-avatar" class="comment-meta-facebook" type="hidden"></input>\n                        <input value="" name="fb_user_id" id="facebook-user_id" class="comment-meta-facebook" type="hidden"></input>\n                        <input value="" name="fb_access_token" id="facebook-access_token" class="comment-meta-facebook" type="hidden"></input>\n                        <p class="comment-form-posting-as pa-facebook">\n                          <strong></strong>\n                          You are commenting using your Facebook account.\n                          <span class="comment-form-log-out">\n                            (\xc2\xa0\n                            <a href="javascript:HighlanderComments.doExternalLogout( \'facebook\' );" shape="rect">Log\xc2\xa0Out</a>\n                            \xc2\xa0/\xc2\xa0\n                            <a onclick="javascript:HighlanderComments.switchAccount();return false;" href="#" shape="rect">Change</a>\n                            \xc2\xa0)\n                          </span>\n                        </p>\n                      </div>\n                    </div>\n                  </div>\n                  <div id="comment-form-load-service" class="comment-form-service">\n                    <div class="comment-form-posting-as-cancel">\n                      <a href="javascript:HighlanderComments.cancelExternalWindow();" shape="rect">Cancel</a>\n                    </div>\n                    <p>Connecting to %s</p>\n                  </div>\n                </div>\n                <script type="text/javascript">\n                  jQuery(document).ready(function(){\n\tvar input = document.createElement( \'input\' ),\n\t    comment = jQuery( \'#comment\' );\n\n\tif ( \'placeholder\' in input ) {\n\t\tcomment.attr( \'placeholder\', jQuery( \'.comment-textarea label\' ).remove().text() );\n\t}\n\n\t// Expando Mode: start small, then auto-resize on first click + text length\n\tjQuery( \'#comment-form-identity\' ).hide();\n\tjQuery( \'#comment-form-subscribe\' ).hide();\n\tjQuery( \'#commentform .form-submit\' ).hide();\n\n\tcomment.css( { \'height\':\'10px\' } ).one( \'focus\', function() {\n\t\tvar timer = setInterval( HighlanderComments.resizeCallback, 10 )\n\t\tjQuery( this ).animate( { \'height\': HighlanderComments.initialHeight } ).delay( 100 ).queue( function(n) { clearInterval( timer ); HighlanderComments.resizeCallback(); n(); } );\n\t\tjQuery( \'#comment-form-identity\' ).slideDown();\n\t\tjQuery( \'#comment-form-subscribe\' ).slideDown();\n\t\tjQuery( \'#commentform .form-submit\' ).slideDown();\n\t});\n});\n                </script>\n                <div id="comment-form-subscribe">\n                  <p class="comment-subscription-form">\n                    <input style="width: auto;" value="subscribe" name="subscribe" id="subscribe" type="checkbox" tabindex="6"></input>\n                    <label id="subscribe-label" class="subscribe-label" for="subscribe">Notify me of follow-up comments via email.</label>\n                  </p>\n                </div>\n                <p class="form-submit">\n                  <input value="Post Comment" name="submit" id="comment-submit" type="submit"></input>\n                  <input value="87" name="comment_post_ID" id="comment_post_ID" type="hidden"></input>\n                  <input value="0" name="comment_parent" id="comment_parent" type="hidden"></input>\n                </p>\n                <input value="1349213676" name="genseq" type="hidden"></input>\n                <p style="display: none;">\n                  <input value="1f21e778af" name="akismet_comment_nonce" id="akismet_comment_nonce" type="hidden"></input>\n                </p>\n                <script src="http://s2.wp.com/wp-content/mu-plugins/akismet-2.5/form.js?m=1308783962g" type="text/javascript"></script>\n                <p style="display: none;">\n                  <input value="156" name="ak_js" id="ak_js" type="hidden"></input>\n                </p>\n              </form>\n            </div>\n            <div style="clear: both"></div>\n          </div>\n        </div>\n        <div id="sidebar">\n          <form action="/" id="searchform" method="get" enctype="application/x-www-form-urlencoded">\n            <div>\n              <input value="Journal Search\xe2\x80\xa6" name="s" id="s" type="text"></input>\n            </div>\n          </form>\n          <h3>About This Post</h3>\n          <p class="postmetadata alt">\n            <small>\n              This entry was posted on October 17, 2010 at 6:29 AM and is filed under\n              <a rel="category tag" title="View all posts in Ashley Judd" href="http://actressflesh.wordpress.com/category/nude-actress/ashley-judd/" shape="rect">Ashley Judd</a>\n              ,\n              <a rel="category tag" title="View all posts in Nude actress" href="http://actressflesh.wordpress.com/category/nude-actress/" shape="rect">Nude actress</a>\n              .You can follow any responses to this entry through the\n              <a href="http://actressflesh.wordpress.com/2010/10/17/nude-ashley-judd/feed/" shape="rect">RSS 2.0</a>\n              feed.You can\n              <a href="#respond" shape="rect">leave a response</a>\n              , or\n              <a rel="trackback" href="http://actressflesh.wordpress.com/2010/10/17/nude-ashley-judd/trackback/" shape="rect">trackback</a>\n              from your own site.\n            </small>\n          </p>\n          <h3>Navigate</h3>\n          <ul class="navigation">\n            <li>\n              Previous:\xc2\xa0\n              <strong>\n                <a rel="prev" href="http://actressflesh.wordpress.com/2010/10/17/nude-ashley-greene/" shape="rect">Nude\xc2\xa0Ashley\xc3\x82\xc2\xa0Greene</a>\n              </strong>\n            </li>\n            <li>\n              Next:\xc2\xa0\n              <strong>\n                <a rel="next" href="http://actressflesh.wordpress.com/2010/10/17/nude-audrina-patridge/" shape="rect">Nude\xc2\xa0Audrina\xc3\x82\xc2\xa0Patridge</a>\n              </strong>\n            </li>\n          </ul>\n        </div>\n      </div>\n      <div class="hr last">\xc2\xa0</div>\n      <div id="footer">\n        <p>\n          <a rel="generator" href="http://wordpress.com/?ref=footer" shape="rect">Blog at WordPress.com</a>\n          . Theme:\n          <a title="Learn more about this theme" href="http://theme.wordpress.com/themes/chaoticsoul/" shape="rect">ChaoticSoul</a>\n          by\n          <a rel="designer" href="http://avalonstar.com" shape="rect">Bryan Veloso</a>\n          .\n        </p>\n      </div>\n    </div>\n    <script type="text/javascript">\n      var _qevents = _qevents || [], wpcomQuantcastData = {&quot;qacct&quot;:&quot;p-18-mFEk4J448M&quot;,&quot;labels&quot;:&quot;,language.en,type.wpcom&quot;};\nfunction wpcomQuantcastPixel( labels, options ) {\n\tvar i, defaults = wpcomQuantcastData, data = { event: \'ajax\' };\n\n\tlabels  = labels  || \'\';\n\toptions = options || {};\n\n\tif ( typeof labels != \'string\' )\n\t\toptions = labels;\n\n\tfor ( i in defaults ) {\n\t\tdata[i] = defaults[i];\n\t}\n\n\tfor ( i in options ) {\n\t\tdata[i] = options[i];\n\t}\n\n\tif ( data.labels ) {\n\t\tdata.labels += \',\' + labels;\n\t} else {\n\t\tdata.labels = labels;\n\t}\n\n\t_qevents.push( data );\n};\n(function() {var elem = document.createElement(\'script\');elem.src = (document.location.protocol == &quot;https:&quot; ? &quot;https://secure&quot; : &quot;http://edge&quot;) + &quot;.quantserve.com/quant.js&quot;;elem.async = true;elem.type = &quot;text/javascript&quot;;var scpt = document.getElementsByTagName(\'script\')[0];scpt.parentNode.insertBefore(elem, scpt);  })();\n_qevents.push( wpcomQuantcastData );\n    </script>\n    <noscript>\n      <div style="display: none;">\n        <img alt="" width="1" height="1" src="//pixel.quantserve.com/pixel/p-18-mFEk4J448M.gif?labels=%2Clanguage.en%2Ctype.wpcom"></img>\n      </div>\n    </noscript>\n    <script type="text/javascript">\n      /* &lt;![CDATA[ */\n\t(function($){\n\t\t$(document).on( \'ready post-load\', function() {\n\n\t\t\t// Remove the login box when clicking the page\n\t\t\t$( document ).mousedown( function( e ) {\n\t\t\t\tif ( null == $( e.target ).closest( \'#wpl-mustlogin\' ).get( 0 ) ) {\n\t\t\t\t\t$( \'#wpl-mustlogin\' ).remove();\n\t\t\t\t}\n\t\t\t});\n\n\t\t\t// Handle clicking the like button itself\n\t\t\t$(\'.wpl-button &gt; a.like\').click( function(e) {\n\t\t\t\te.preventDefault();\n\n\t\t\t\tvar postid = $(this).parent().attr(\'id\').split(\'like-\')[1];\n\t\t\t\t$.post( \'http://actressflesh.wordpress.com/wp-admin/admin-ajax.php\', {\n\t\t\t\t\t\'action\': \'wpl_record_stat\',\n\t\t\t\t\t\'stat_name\': \'loggedout_like_click\'\n\t\t\t\t} );\n\n\t\t\t\tvar tenMins = new Date();\n\t\t\t\ttenMins.setTime( tenMins.getTime() + 600000 );\n\t\t\t\tdocument.cookie = \'wpl_rand=ec12bb6141; expires=\' + tenMins.toGMTString() + \'; domain=wordpress.com; path=/;\';\n\n\t\t\t\t$(this).parent().siblings(\'.wpl-count\').after( \'\\\n\t\t\t\t\t&lt;div id=&quot;wpl-mustlogin&quot;&gt; \\\n\t\t\t\t\t\t&lt;form action=&quot;https://actressflesh.wordpress.com/wp-login.php&quot; method=&quot;post&quot;&gt; \\\n\t\t\t\t\t\t\t&lt;p&gt;Just one more step to like this:&lt;/p&gt; \\\n\t\t\t\t\t\t\t&lt;label&gt;&lt;span&gt;Username&lt;/span&gt; &lt;input type=&quot;text&quot; name=&quot;log&quot; id=&quot;user_login&quot; class=&quot;input&quot; value=&quot;&quot; size=&quot;20&quot; tabindex=&quot;80&quot; /&gt;&lt;/label&gt; \\\n\t\t\t\t\t\t\t&lt;label&gt;&lt;span&gt;Password&lt;/span&gt; &lt;input type=&quot;password&quot; name=&quot;pwd&quot; id=&quot;user_pass&quot; class=&quot;input&quot; value=&quot;&quot; size=&quot;20&quot; tabindex=&quot;81&quot; /&gt;&lt;/label&gt; \\\n\t\t\t\t\t\t\t&lt;input type=&quot;submit&quot; name=&quot;wp-submit&quot; id=&quot;wp-submit&quot; class=&quot;button-primary&quot; value=&quot;Log In&quot; tabindex=&quot;82&quot; /&gt; \\\n\t\t\t\t\t\t\t&lt;input type=&quot;hidden&quot; name=&quot;postid&quot; value=&quot;\' + postid + \'&quot; /&gt; \\\n\t\t\t\t\t\t\t&lt;input type=&quot;hidden&quot; name=&quot;redirect_to&quot; value=&quot;http://actressflesh.wordpress.com/2010/10/17/nude-ashley-judd?year=2010&amp;#038;monthnum=10&amp;#038;day=17&amp;#038;name=nude-ashley-judd&amp;#038;like=1&quot; /&gt; \\\n\t\t\t\t\t\t\t&lt;input type=&quot;hidden&quot; name=&quot;wpl_rand&quot; value=&quot;ec12bb6141&quot; /&gt; \\\n\t\t\t\t\t\t\t&lt;p&gt;Not a member yet? &lt;a href=&quot;http://wordpress.com/signup/?ref=likebox&quot; id=&quot;wpl-signup-link&quot;&gt;Sign up with WordPress.com&lt;/a&gt;&lt;/p&gt; \\\n\t\t\t\t\t\t&lt;/form&gt; \\\n\t\t\t\t\t&lt;/div&gt; \\\n\t\t\t\t\');\n\n\t\t\t\t$(\'#wpl-mustlogin\').hide().slideDown(\'fast\');\n\t\t\t} );\n\n\t\t\t$(\'#wpl-mustlogin input.input\').live( \'focus\', function() {\n\t\t\t\t$(this).prev().hide();\n\t\t\t}).live( \'blur\', function() {\n\t\t\t\tif ( $(this).val() == \'\' ) {\n\t\t\t\t\t$(this).prev().show();\n\t\t\t\t}\n\t\t\t});\n\n\t\t\t$(\'#wpl-mustlogin input#wp-submit\').live( \'click\', function(e) {\n\t\t\t\te.preventDefault();\n\n\t\t\t\t$.post( \'http://actressflesh.wordpress.com/wp-admin/admin-ajax.php\', {\n\t\t\t\t\t\'action\': \'wpl_record_stat\',\n\t\t\t\t\t\'stat_name\': \'loggedout_login_submit\'\n\t\t\t\t}, function() {\n\t\t\t\t\t$(\'#wpl-mustlogin form\').submit();\n\t\t\t\t} );\n\t\t\t});\n\n\t\t\t$(\'#wpl-mustlogin a#wpl-signup-link\').live( \'click\', function(e) {\n\t\t\t\te.preventDefault();\n\n\t\t\t\tvar link = $(this).attr(\'href\');\n\n\t\t\t\t$.post( \'http://actressflesh.wordpress.com/wp-admin/admin-ajax.php\', {\n\t\t\t\t\t\'action\': \'wpl_record_stat\',\n\t\t\t\t\t\'stat_name\': \'loggedout_signup_click\'\n\t\t\t\t}, function() {\n\t\t\t\t\tlocation.href = link;\n\t\t\t\t} );\n\t\t\t});\n\t\t})\n\t})(jQuery);\n\t/* ]]&gt; */\n    </script>\n    <script src="http://s.gravatar.com/js/gprofiles.js?ver=201240ab" type="text/javascript"></script>\n    <script type="text/javascript"> /* &lt;![CDATA[ */ var WPGroHo = {&quot;my_hash&quot;:&quot;&quot;}; /* ]]&gt; */ </script>\n    <script src="http://s1.wp.com/wp-content/mu-plugins/gravatar-hovercards/wpgroho.js?m=1318621548g" type="text/javascript"></script>\n    <script>jQuery(document).ready(function($){ Gravatar.profile_cb = function( h, d ) { WPGroHo.syncProfileData( h, d ); }; Gravatar.my_hash = WPGroHo.my_hash; Gravatar.init( \'body\', \'#wp-admin-bar-my-account\' ); });</script>\n    <div style="display:none"> </div>\n    <script type="text/javascript">\n      /* &lt;![CDATA[ */\nvar HighlanderComments = {&quot;loggingInText&quot;:&quot;Logging In\\u2026&quot;,&quot;submittingText&quot;:&quot;Posting Comment\\u2026&quot;,&quot;postCommentText&quot;:&quot;Post Comment&quot;,&quot;connectingToText&quot;:&quot;Connecting to %s&quot;,&quot;commentingAsText&quot;:&quot;%1$s: You are commenting using your %2$s account.&quot;,&quot;logoutText&quot;:&quot;Log Out&quot;,&quot;loginText&quot;:&quot;Log In&quot;,&quot;connectURL&quot;:&quot;http:\\/\\/actressflesh.wordpress.com\\/public.api\\/connect\\/?action=request&quot;,&quot;logoutURL&quot;:&quot;http:\\/\\/actressflesh.wordpress.com\\/wp-login.php?action=logout&amp;_wpnonce=2e7e08429c&quot;,&quot;homeURL&quot;:&quot;http:\\/\\/actressflesh.wordpress.com\\/&quot;,&quot;postID&quot;:&quot;87&quot;,&quot;gravDefault&quot;:&quot;identicon&quot;,&quot;enterACommentError&quot;:&quot;Please enter a comment&quot;,&quot;enterEmailError&quot;:&quot;Please enter your email address here&quot;,&quot;invalidEmailError&quot;:&quot;Invalid email address&quot;,&quot;enterAuthorError&quot;:&quot;Please enter your name here&quot;,&quot;gravatarFromEmail&quot;:&quot;This picture will show whenever you leave a comment. Click to customize it.&quot;,&quot;logInToExternalAccount&quot;:&quot;Log in to use details from one of these accounts.&quot;,&quot;change&quot;:&quot;Change&quot;,&quot;changeAccount&quot;:&quot;Change Account&quot;,&quot;comment_registration&quot;:&quot;0&quot;,&quot;userIsLoggedIn&quot;:&quot;&quot;,&quot;isJetpack&quot;:&quot;0&quot;};\n/* ]]&gt; */\n    </script>\n    <script src="http://s0.wp.com/wp-content/mu-plugins/highlander-comments/script.js?m=1342824083g" type="text/javascript"></script>\n    <div id="bit" class="loggedout-follow-normal">\n      <a href="javascript:void(0)" class="bsub" shape="rect">\n        <span id="bsub-text">Follow</span>\n      </a>\n      <div id="bitsubscribe">\n        <h3>\n          <label for="loggedout-follow-field">Follow \xe2\x80\x9cNaked Actress Arround You\xe2\x80\x9d</label>\n        </h3>\n        <form accept-charset="utf-8" action="https://subscribe.wordpress.com" id="loggedout-follow" method="post" enctype="application/x-www-form-urlencoded">\n          <p>Get every new post delivered to your Inbox.</p>\n          <p style="display: none;" id="loggedout-follow-error"></p>\n          <p>\n            <input \n            onblur="this.value=(this.value==&quot;&quot;) ? &quot;Enter email address&quot; : this.value;" onfocus="this.value=(this.value==&quot;Enter your email address&quot;) ? &quot;&quot; : this.value;" value="Enter your email address" style="width: 95%; padding: 1px 2px" name="email" id="loggedout-follow-field" type="email">\n</input>\n          </p>\n          <input value="subscribe" name="action" type="hidden"></input>\n          <input value="16806029" name="blog_id" type="hidden"></input>\n          <input value="http://actressflesh.wordpress.com/2010/10/17/nude-ashley-judd/" name="source" type="hidden"></input>\n          <input value="loggedout-follow" name="sub-type" type="hidden"></input>\n          <input value="75cea98191" name="_wpnonce" id="_wpnonce" type="hidden"></input>\n          <input value="/2010/10/17/nude-ashley-judd/" name="_wp_http_referer" type="hidden"></input>\n          <p id="bsub-subscribe-button">\n            <input value="Sign me up" type="submit"></input>\n          </p>\n        </form>\n        <div id="bsub-credit">\n          <a href="http://wordpress.com/signup/?ref=lof" shape="rect">Powered by WordPress.com</a>\n        </div>\n      </div>\n    </div>\n    <div id="carousel-reblog-box">\n      <form name="carousel-reblog" action="" method="get" enctype="application/x-www-form-urlencoded">\n        <textarea onblur="if ( this.value == \'\' || this.value == \'\' ) { this.value = \'Add your thoughts here... (optional)\'; }" onclick="if ( this.value == \'Add your thoughts here... (optional)\' ) { this.value = \'\'; }" name="carousel-reblog-content" id="carousel-reblog-content">\n          Add your thoughts here... (optional)\n        </textarea>\n        <label id="carousel-reblog-lblogid" for="carousel-reblog-to-blog-id">Post to</label>\n        <select name="carousel-reblog-to-blog-id" id="carousel-reblog-to-blog-id"></select>\n        <div class="submit">\n          <input value="Reblog Post" name="carousel-reblog-submit" id="carousel-reblog-submit" class="button" type="submit"></input>\n          <span class="canceltext">\n            or\n            <a href="" class="cancel" shape="rect">Cancel</a>\n          </span>\n          <input value="16806029" id="carousel-reblog-blog-id" type="hidden"></input>\n          <input value="http://actressflesh.wordpress.com" id="carousel-reblog-blog-url" type="hidden"></input>\n          <input value="Naked Actress Arround You" id="carousel-reblog-blog-title" type="hidden"></input>\n          <input value="" id="carousel-reblog-post-url" type="hidden"></input>\n          <input value="" id="carousel-reblog-post-title" type="hidden"></input>\n        </div>\n        <input value="81a816e96e" name="_wpnonce" id="_wpnonce" type="hidden"></input>\n        <input value="/2010/10/17/nude-ashley-judd/" name="_wp_http_referer" type="hidden"></input>\n      </form>\n      <div class="arrow"></div>\n    </div>\n    <script src="http://b.scorecardresearch.com/beacon.js" type="text/javascript"></script>\n    <script type="text/javascript">try{COMSCORE.beacon({c1:2,c2:7518284});}catch(e){}</script>\n    <noscript>\n      <p class="robots-nocontent">\n        <img height="1" width="1" style="display:none" alt="" src="http://b.scorecardresearch.com/p?cj=1c1=2&amp;c2=7518284"></img>\n      </p>\n    </noscript>\n    <link media="all" type="text/css" href="http://s2.wp.com/wp-content/mu-plugins/carousel/jetpack-carousel.css?m=1347477931g" rel="stylesheet" id="all-css-0"></link>\n    <script type="text/javascript">\n      /* &lt;![CDATA[ */\nvar jetpackCarouselStrings = {&quot;widths&quot;:[370,700,1000,1200,1400,2000],&quot;is_logged_in&quot;:&quot;&quot;,&quot;ajaxurl&quot;:&quot;http:\\/\\/actressflesh.wordpress.com\\/wp-admin\\/admin-ajax.php&quot;,&quot;nonce&quot;:&quot;7f6469d82b&quot;,&quot;display_exif&quot;:&quot;1&quot;,&quot;display_geo&quot;:&quot;1&quot;,&quot;background_color&quot;:&quot;black&quot;,&quot;comment&quot;:&quot;Comment&quot;,&quot;post_comment&quot;:&quot;Post Comment&quot;,&quot;loading_comments&quot;:&quot;Loading Comments...&quot;,&quot;download_original&quot;:&quot;View full size &lt;span class=\\&quot;photo-size\\&quot;&gt;{0}&lt;span class=\\&quot;photo-size-times\\&quot;&gt;\\u00d7&lt;\\/span&gt;{1}&lt;\\/span&gt;&quot;,&quot;no_comment_text&quot;:&quot;Please be sure to submit some text with your comment.&quot;,&quot;no_comment_email&quot;:&quot;Please provide an email address to comment.&quot;,&quot;no_comment_author&quot;:&quot;Please provide your name to comment.&quot;,&quot;comment_post_error&quot;:&quot;Sorry, but there was an error posting your comment. Please try again later.&quot;,&quot;comment_approved&quot;:&quot;Your comment was approved.&quot;,&quot;comment_unapproved&quot;:&quot;Your comment is in moderation.&quot;,&quot;camera&quot;:&quot;Camera&quot;,&quot;aperture&quot;:&quot;Aperture&quot;,&quot;shutter_speed&quot;:&quot;Shutter Speed&quot;,&quot;focal_length&quot;:&quot;Focal Length&quot;,&quot;local_comments_commenting_as&quot;:&quot;&lt;fieldset&gt;&lt;label for=\\&quot;email\\&quot;&gt;Email (Required)&lt;\\/label&gt; &lt;input type=\\&quot;text\\&quot; name=\\&quot;email\\&quot; class=\\&quot;jp-carousel-comment-form-field jp-carousel-comment-form-text-field\\&quot; id=\\&quot;jp-carousel-comment-form-email-field\\&quot; \\/&gt;&lt;\\/fieldset&gt;&lt;fieldset&gt;&lt;label for=\\&quot;author\\&quot;&gt;Name (Required)&lt;\\/label&gt; &lt;input type=\\&quot;text\\&quot; name=\\&quot;author\\&quot; class=\\&quot;jp-carousel-comment-form-field jp-carousel-comment-form-text-field\\&quot; id=\\&quot;jp-carousel-comment-form-author-field\\&quot; \\/&gt;&lt;\\/fieldset&gt;&lt;fieldset&gt;&lt;label for=\\&quot;url\\&quot;&gt;Website&lt;\\/label&gt; &lt;input type=\\&quot;text\\&quot; name=\\&quot;url\\&quot; class=\\&quot;jp-carousel-comment-form-field jp-carousel-comment-form-text-field\\&quot; id=\\&quot;jp-carousel-comment-form-url-field\\&quot; \\/&gt;&lt;\\/fieldset&gt;&quot;,&quot;like&quot;:&quot;Like&quot;,&quot;unlike&quot;:&quot;Unlike&quot;,&quot;reblog&quot;:&quot;Reblog&quot;,&quot;reblogged&quot;:&quot;Reblogged&quot;,&quot;reblog_add_thoughts&quot;:&quot;Add your thoughts here... (optional)&quot;,&quot;reblogging&quot;:&quot;Reblogging...&quot;,&quot;post_reblog&quot;:&quot;Post Reblog&quot;,&quot;stats_query_args&quot;:&quot;blog=16806029&amp;v=wpcom&amp;user_id=0&amp;subd=actressflesh&quot;,&quot;is_public&quot;:&quot;1&quot;};\nvar jetpackCarouselStrings = {&quot;widths&quot;:[370,700,1000,1200,1400,2000],&quot;is_logged_in&quot;:&quot;&quot;,&quot;ajaxurl&quot;:&quot;http:\\/\\/actressflesh.wordpress.com\\/wp-admin\\/admin-ajax.php&quot;,&quot;nonce&quot;:&quot;7f6469d82b&quot;,&quot;display_exif&quot;:&quot;1&quot;,&quot;display_geo&quot;:&quot;1&quot;,&quot;background_color&quot;:&quot;black&quot;,&quot;comment&quot;:&quot;Comment&quot;,&quot;post_comment&quot;:&quot;Post Comment&quot;,&quot;loading_comments&quot;:&quot;Loading Comments...&quot;,&quot;download_original&quot;:&quot;View full size &lt;span class=\\&quot;photo-size\\&quot;&gt;{0}&lt;span class=\\&quot;photo-size-times\\&quot;&gt;\\u00d7&lt;\\/span&gt;{1}&lt;\\/span&gt;&quot;,&quot;no_comment_text&quot;:&quot;Please be sure to submit some text with your comment.&quot;,&quot;no_comment_email&quot;:&quot;Please provide an email address to comment.&quot;,&quot;no_comment_author&quot;:&quot;Please provide your name to comment.&quot;,&quot;comment_post_error&quot;:&quot;Sorry, but there was an error posting your comment. Please try again later.&quot;,&quot;comment_approved&quot;:&quot;Your comment was approved.&quot;,&quot;comment_unapproved&quot;:&quot;Your comment is in moderation.&quot;,&quot;camera&quot;:&quot;Camera&quot;,&quot;aperture&quot;:&quot;Aperture&quot;,&quot;shutter_speed&quot;:&quot;Shutter Speed&quot;,&quot;focal_length&quot;:&quot;Focal Length&quot;,&quot;local_comments_commenting_as&quot;:&quot;&lt;fieldset&gt;&lt;label for=\\&quot;email\\&quot;&gt;Email (Required)&lt;\\/label&gt; &lt;input type=\\&quot;text\\&quot; name=\\&quot;email\\&quot; class=\\&quot;jp-carousel-comment-form-field jp-carousel-comment-form-text-field\\&quot; id=\\&quot;jp-carousel-comment-form-email-field\\&quot; \\/&gt;&lt;\\/fieldset&gt;&lt;fieldset&gt;&lt;label for=\\&quot;author\\&quot;&gt;Name (Required)&lt;\\/label&gt; &lt;input type=\\&quot;text\\&quot; name=\\&quot;author\\&quot; class=\\&quot;jp-carousel-comment-form-field jp-carousel-comment-form-text-field\\&quot; id=\\&quot;jp-carousel-comment-form-author-field\\&quot; \\/&gt;&lt;\\/fieldset&gt;&lt;fieldset&gt;&lt;label for=\\&quot;url\\&quot;&gt;Website&lt;\\/label&gt; &lt;input type=\\&quot;text\\&quot; name=\\&quot;url\\&quot; class=\\&quot;jp-carousel-comment-form-field jp-carousel-comment-form-text-field\\&quot; id=\\&quot;jp-carousel-comment-form-url-field\\&quot; \\/&gt;&lt;\\/fieldset&gt;&quot;,&quot;like&quot;:&quot;Like&quot;,&quot;unlike&quot;:&quot;Unlike&quot;,&quot;reblog&quot;:&quot;Reblog&quot;,&quot;reblogged&quot;:&quot;Reblogged&quot;,&quot;reblog_add_thoughts&quot;:&quot;Add your thoughts here... (optional)&quot;,&quot;reblogging&quot;:&quot;Reblogging...&quot;,&quot;post_reblog&quot;:&quot;Post Reblog&quot;,&quot;stats_query_args&quot;:&quot;blog=16806029&amp;v=wpcom&amp;user_id=0&amp;subd=actressflesh&quot;,&quot;is_public&quot;:&quot;1&quot;};\n/* ]]&gt; */\n    </script>\n    <script src="http://s2.wp.com/_static/??/wp-content/js/devicepx.js,/wp-includes/js/spin.js,/wp-includes/js/jquery/jquery.spin.js,/wp-content/mu-plugins/carousel/jetpack-carousel.js?m=1349105731j" type="text/javascript"></script>\n    <script type="text/javascript">\n      // &lt;![CDATA[\n(function() {\ntry{\n  if ( window.external &amp;&amp;\'msIsSiteMode\' in window.external) {\n    if (window.external.msIsSiteMode()) {\n      var jl = document.createElement(\'script\');\n      jl.type=\'text/javascript\';\n      jl.async=true;\n      jl.src=\'/wp-content/plugins/ie-sitemode/custom-jumplist.php\';\n      var s = document.getElementsByTagName(\'script\')[0];\n      s.parentNode.insertBefore(jl, s);\n    }\n  }\n}catch(e){}\n})();\n// ]]&gt;\n    </script>\n    <script type="text/javascript" src="http://s.stats.wordpress.com/w.js?21"></script>\n    <script type="text/javascript">\n      st_go({\'blog\':\'16806029\',\'v\':\'wpcom\',\'user_id\':\'0\',\'post\':\'87\',\'subd\':\'actressflesh\'});\nex_go({\'crypt\':\'UE40eW5QN0p8M2Y/RE1oOHBqWkJdYy5wL35xRnR4SVtWLmluVHQrZ3JBRDNRaV9yeU4rX041RXBzU1FiayxfJjYsMDhLNmIrWEkxPVlzQyxNNGQ2NW0yby9hamR5VzhjU1dhdXVkZjE0S2xMem1ZeFpWTjRUQTFiW3R+ZzZ2TjVIXyYyYj14WV9iM1tPR0g0XVJnLERDUHkxYW9zfjlmaTBDQXZZZTRTWlAyT3R4aWFTbk04bkM9Li9VUVZ4fC8tTnZyK11Sfnx3L1FvJiZXNXFram9sTmEmVk9xbWVuTklbaz1HWXNlX1BCMEh+bCZxPz1HdmVVJWpiWStmdCZBUHdPYXU/PWhtcXZoaC0udUhZ\'});\naddLoadEvent(function(){linktracker_init(\'16806029\',87);});\n    </script>\n    <noscript>\n      <img alt="" style="height:0px;width:0px;overflow:hidden" src="http://stats.wordpress.com/b.gif?v=noscript"></img>\n    </noscript>\n  </body>\n</html>'
p11
sbsS'mentions'
p12
(lp13
(iedu.umass.cs.iesl.wikilink.expanded.data.ttypes
Mention
p14
(dp15
S'anchor_text'
p16
S'actress'
p17
sS'context'
p18
(iedu.umass.cs.iesl.wikilink.expanded.data.ttypes
Context
p19
(dp20
S'middle'
p21
S'actress'
p22
sS'right'
p23
S', who is best known for playing a number of strong characters in films such as Ruby in Paradise , Kiss the Girls , Double'
p24
sS'left'
p25
S'\xc2\xab Naked Actress Arround You Naked Actress Arround You Just another WordPress.com site \xc2\xa0 \xc2\xa0 Nude\xc2\xa0Ashley\xc3\x82\xc2\xa0Judd Ashley Judd (born April 19, 1968) is an American'
p26
sbsS'freebase_id'
p27
S'9202a8c04000641f8000000004fbbc36'
p28
sS'raw_text_offset'
p29
I9886
sS'wiki_url'
p30
S'http://en.wikipedia.org/wiki/Actress'
p31
sba(iedu.umass.cs.iesl.wikilink.expanded.data.ttypes
Mention
p32
(dp33
g16
S'Ruby in Paradise'
p34
sg18
(iedu.umass.cs.iesl.wikilink.expanded.data.ttypes
Context
p35
(dp36
g21
S'Ruby in Paradise'
p37
sg23
S', Kiss the Girls , Double Jeopardy , Where the Heart Is and High Crimes . Ashley was born as Ashley Tyler Ciminella in Granada'
p38
sg25
S'Judd (born April 19, 1968) is an American actress , who is best known for playing a number of strong characters in films such as'
p39
sbsg27
S'9202a8c04000641f8000000000845f7e'
p40
sg29
I10061
sg30
S'http://en.wikipedia.org/wiki/Ruby_in_Paradise'
p41
sba(iedu.umass.cs.iesl.wikilink.expanded.data.ttypes
Mention
p42
(dp43
g16
S'High Crimes'
p44
sg18
(iedu.umass.cs.iesl.wikilink.expanded.data.ttypes
Context
p45
(dp46
g21
S'High Crimes'
p47
sg23
S'. Ashley was born as Ashley Tyler Ciminella in Granada Hills, California . She is the daughter of Naomi Judd , a country music singer'
p48
sg25
S'a number of strong characters in films such as Ruby in Paradise , Kiss the Girls , Double Jeopardy , Where the Heart Is and'
p49
sbsg27
S'9202a8c04000641f80000000003ea05e'
p50
sg29
I10535
sg30
S'http://en.wikipedia.org/wiki/High_Crimes'
p51
sba(iedu.umass.cs.iesl.wikilink.expanded.data.ttypes
Mention
p52
(dp53
g16
S'Granada Hills, California'
p54
sg18
(iedu.umass.cs.iesl.wikilink.expanded.data.ttypes
Context
p55
(dp56
g21
S'Granada Hills, California'
p57
sg23
S'. She is the daughter of Naomi Judd , a country music singer and motivational speaker, and Michael C. Ciminella, a marketing analyst for the'
p58
sg25
S'Paradise , Kiss the Girls , Double Jeopardy , Where the Heart Is and High Crimes . Ashley was born as Ashley Tyler Ciminella in'
p59
sbsg27
S'9202a8c04000641f8000000000359d0d'
p60
sg29
I10725
sg30
S'http://en.wikipedia.org/wiki/Granada_Hills,_California'
p61
sba(iedu.umass.cs.iesl.wikilink.expanded.data.ttypes
Mention
p62
(dp63
g16
S'Naomi Judd'
p64
sg18
(iedu.umass.cs.iesl.wikilink.expanded.data.ttypes
Context
p65
(dp66
g21
S'Naomi Judd'
p67
sg23
S', a country music singer and motivational speaker, and Michael C. Ciminella, a marketing analyst for the horseracing industry. Ashley\xe2\x80\x99s elder half-sister Wynonna is also'
p68
sg25
S'Where the Heart Is and High Crimes . Ashley was born as Ashley Tyler Ciminella in Granada Hills, California . She is the daughter of'
p69
sbsg27
S'9202a8c04000641f8000000000570620'
p70
sg29
I10848
sg30
S'http://en.wikipedia.org/wiki/Naomi_Judd'
p71
sba(iedu.umass.cs.iesl.wikilink.expanded.data.ttypes
Mention
p72
(dp73
g16
S'country music'
p74
sg18
(iedu.umass.cs.iesl.wikilink.expanded.data.ttypes
Context
p75
(dp76
g21
S'country music'
p77
sg23
S'singer and motivational speaker, and Michael C. Ciminella, a marketing analyst for the horseracing industry. Ashley\xe2\x80\x99s elder half-sister Wynonna is also a country music singer.'
p78
sg25
S'and High Crimes . Ashley was born as Ashley Tyler Ciminella in Granada Hills, California . She is the daughter of Naomi Judd , a'
p79
sbsg27
S'9202a8c04000641f800000000000cbba'
p80
sg29
I10941
sg30
S'http://en.wikipedia.org/wiki/Country_music'
p81
sba(iedu.umass.cs.iesl.wikilink.expanded.data.ttypes
Mention
p82
(dp83
g16
S'horseracing'
p84
sg18
(iedu.umass.cs.iesl.wikilink.expanded.data.ttypes
Context
p85
(dp86
g21
S'horseracing'
p87
sg23
S'industry. Ashley\xe2\x80\x99s elder half-sister Wynonna is also a country music singer. At the time of her birth, her mother was unemployed and did not become'
p88
sg25
S'. She is the daughter of Naomi Judd , a country music singer and motivational speaker, and Michael C. Ciminella, a marketing analyst for the'
p89
sbsg27
S'9202a8c04000641f8000000000087399'
p90
sg29
I11117
sg30
S'http://en.wikipedia.org/wiki/Horseracing'
p91
sba(iedu.umass.cs.iesl.wikilink.expanded.data.ttypes
Mention
p92
(dp93
g16
S'Wynonna'
p94
sg18
(iedu.umass.cs.iesl.wikilink.expanded.data.ttypes
Context
p95
(dp96
g21
S'Wynonna'
p97
sg23
S'is also a country music singer. At the time of her birth, her mother was unemployed and did not become well-known as a singer until'
p98
sg25
S'of Naomi Judd , a country music singer and motivational speaker, and Michael C. Ciminella, a marketing analyst for the horseracing industry. Ashley\xe2\x80\x99s elder half-sister'
p99
sbsg27
S'9202a8c04000641f8000000003b51c25'
p100
sg29
I11249
sg30
S'http://en.wikipedia.org/wiki/Wynonna_Judd'
p101
sba(iedu.umass.cs.iesl.wikilink.expanded.data.ttypes
Mention
p102
(dp103
g16
S'Kentucky'
p104
sg18
(iedu.umass.cs.iesl.wikilink.expanded.data.ttypes
Context
p105
(dp106
g21
S'Kentucky'
p107
sg23
S', where Judd spent the majority of her childhood . She also lived in Marin County, California for two years during grade school. Career udd'
p108
sg25
S'become well-known as a singer until the early 1980s. Judd\xe2\x80\x99s parents divorced in 1972, and in 1973, her mother took her back to her native'
p109
sbsg27
S'9202a8c04000641f800000000002251d'
p110
sg29
I11569
sg30
S'http://en.wikipedia.org/wiki/Kentucky'
p111
sba(iedu.umass.cs.iesl.wikilink.expanded.data.ttypes
Mention
p112
(dp113
g16
S'Marin County, California'
p114
sg18
(iedu.umass.cs.iesl.wikilink.expanded.data.ttypes
Context
p115
(dp116
g21
S'Marin County, California'
p117
sg23
S'for two years during grade school. Career udd appeared as Ensign Robin Lefler , a Starfleet officer, in two 1991 episodes of Star Trek: The'
p118
sg25
S'in 1973, her mother took her back to her native Kentucky , where Judd spent the majority of her childhood . She also lived in'
p119
sbsg27
S'9202a8c04000641f80000000000909ed'
p120
sg29
I11757
sg30
S'http://en.wikipedia.org/wiki/Marin_County,_California'
p121
sba(iedu.umass.cs.iesl.wikilink.expanded.data.ttypes
Mention
p122
(dp123
g16
S'Robin Lefler'
p124
sg18
(iedu.umass.cs.iesl.wikilink.expanded.data.ttypes
Context
p125
(dp126
g21
S'Robin Lefler'
p127
sg23
S', a Starfleet officer, in two 1991 episodes of Star Trek: The Next Generation , \xe2\x80\x9c Darmok \xe2\x80\x9d and \xe2\x80\x9c The Game \xe2\x80\x9c. From 1991'
p128
sg25
S'spent the majority of her childhood . She also lived in Marin County, California for two years during grade school. Career udd appeared as Ensign'
p129
sbsg27
Nsg29
I12033
sg30
S'http://en.wikipedia.org/wiki/Robin_Lefler'
p130
sba(iedu.umass.cs.iesl.wikilink.expanded.data.ttypes
Mention
p131
(dp132
g16
S'Starfleet'
p133
sg18
(iedu.umass.cs.iesl.wikilink.expanded.data.ttypes
Context
p134
(dp135
g21
S'Starfleet'
p136
sg23
S'officer, in two 1991 episodes of Star Trek: The Next Generation , \xe2\x80\x9c Darmok \xe2\x80\x9d and \xe2\x80\x9c The Game \xe2\x80\x9c. From 1991 to 1994, she'
p137
sg25
S'her childhood . She also lived in Marin County, California for two years during grade school. Career udd appeared as Ensign Robin Lefler , a'
p138
sbsg27
S'9202a8c04000641f800000000003a0ee'
p139
sg29
I12120
sg30
S'http://en.wikipedia.org/wiki/Starfleet'
p140
sba(iedu.umass.cs.iesl.wikilink.expanded.data.ttypes
Mention
p141
(dp142
g16
S'Star Trek: The Next Generation'
p143
sg18
(iedu.umass.cs.iesl.wikilink.expanded.data.ttypes
Context
p144
(dp145
g21
S'Star Trek: The Next Generation'
p146
sg23
S', \xe2\x80\x9c Darmok \xe2\x80\x9d and \xe2\x80\x9c The Game \xe2\x80\x9c. From 1991 to 1994, she had a recurring role as Reed, the daughter of Alex ('
p147
sg25
S'Marin County, California for two years during grade school. Career udd appeared as Ensign Robin Lefler , a Starfleet officer, in two 1991 episodes of'
p148
sbsg27
S'9202a8c04000641f8000000000035b5f'
p149
sg29
I12280
sg30
S'http://en.wikipedia.org/wiki/Star_Trek:_The_Next_Generation'
p150
sba(iedu.umass.cs.iesl.wikilink.expanded.data.ttypes
Mention
p151
(dp152
g16
S'Darmok'
p153
sg18
(iedu.umass.cs.iesl.wikilink.expanded.data.ttypes
Context
p154
(dp155
g21
S'Darmok'
p156
sg23
S'\xe2\x80\x9d and \xe2\x80\x9c The Game \xe2\x80\x9c. From 1991 to 1994, she had a recurring role as Reed, the daughter of Alex ( Swoosie Kurtz ),'
p157
sg25
S'grade school. Career udd appeared as Ensign Robin Lefler , a Starfleet officer, in two 1991 episodes of Star Trek: The Next Generation , \xe2\x80\x9c'
p158
sbsg27
S'9202a8c04000641f80000000001e979a'
p159
sg29
I12389
sg30
S'http://en.wikipedia.org/wiki/Darmok'
p160
sba(iedu.umass.cs.iesl.wikilink.expanded.data.ttypes
Mention
p161
(dp162
g16
S'Swoosie Kurtz'
p163
sg18
(iedu.umass.cs.iesl.wikilink.expanded.data.ttypes
Context
p164
(dp165
g21
S'Swoosie Kurtz'
p166
sg23
S'), on the NBC drama Sisters . She made her feature film debut with a small role in 1992\xe2\x80\xb2s Kuffs . In 1993 Judd fought'
p167
sg25
S', \xe2\x80\x9c Darmok \xe2\x80\x9d and \xe2\x80\x9c The Game \xe2\x80\x9c. From 1991 to 1994, she had a recurring role as Reed, the daughter of Alex ('
p168
sbsg27
S'9202a8c04000641f80000000005cf6b3'
p169
sg29
I12724
sg30
S'http://en.wikipedia.org/wiki/Swoosie_Kurtz'
p170
sba(iedu.umass.cs.iesl.wikilink.expanded.data.ttypes
Mention
p171
(dp172
g16
S'Kuffs'
p173
sg18
(iedu.umass.cs.iesl.wikilink.expanded.data.ttypes
Context
p174
(dp175
g21
S'Kuffs'
p176
sg23
S'. In 1993 Judd fought for and was cast in her first starring role playing the title character in Victor Nu\xc3\x83\xc2\xb1ez \xe2\x80\x98s Sundance Film Festival'
p177
sg25
S'daughter of Alex ( Swoosie Kurtz ), on the NBC drama Sisters . She made her feature film debut with a small role in 1992\xe2\x80\xb2s'
p178
sbsg27
S'9202a8c04000641f80000000007e0821'
p179
sg29
I13003
sg30
S'http://en.wikipedia.org/wiki/Kuffs'
p180
sba(iedu.umass.cs.iesl.wikilink.expanded.data.ttypes
Mention
p181
(dp182
g16
S'Victor Nu\xc3\x83\xc2\xb1ez'
p183
sg18
(iedu.umass.cs.iesl.wikilink.expanded.data.ttypes
Context
p184
(dp185
g21
S'Victor Nu\xc3\x83\xc2\xb1ez'
p186
sg23
S'\xe2\x80\x98s Sundance Film Festival Grand Jury Prize Winning, Ruby in Paradise . She received rave reviews playing Ruby Lee Gissing, a young woman trying to'
p187
sg25
S'a small role in 1992\xe2\x80\xb2s Kuffs . In 1993 Judd fought for and was cast in her first starring role playing the title character in'
p188
sbsg27
Nsg29
I13193
sg30
S'http://en.wikipedia.org/wiki/Victor_Nu%C3%B1ez'
p189
sba(iedu.umass.cs.iesl.wikilink.expanded.data.ttypes
Mention
p190
(dp191
g16
S'Sundance Film Festival'
p192
sg18
(iedu.umass.cs.iesl.wikilink.expanded.data.ttypes
Context
p193
(dp194
g21
S'Sundance Film Festival'
p195
sg23
S'Grand Jury Prize Winning, Ruby in Paradise . She received rave reviews playing Ruby Lee Gissing, a young woman trying to make a new life'
p196
sg25
S'in 1992\xe2\x80\xb2s Kuffs . In 1993 Judd fought for and was cast in her first starring role playing the title character in Victor Nu\xc3\x83\xc2\xb1ez \xe2\x80\x98s'
p197
sbsg27
S'9202a8c04000641f8000000000039ca1'
p198
sg29
I13312
sg30
S'http://en.wikipedia.org/wiki/Sundance_Film_Festival'
p199
sba(iedu.umass.cs.iesl.wikilink.expanded.data.ttypes
Mention
p200
(dp201
g16
S'Ruby in Paradise'
p202
sg18
(iedu.umass.cs.iesl.wikilink.expanded.data.ttypes
Context
p203
(dp204
g21
S'Ruby in Paradise'
p205
sg23
S'. She received rave reviews playing Ruby Lee Gissing, a young woman trying to make a new life for herself, and it was this performance'
p206
sg25
S'fought for and was cast in her first starring role playing the title character in Victor Nu\xc3\x83\xc2\xb1ez \xe2\x80\x98s Sundance Film Festival Grand Jury Prize Winning,'
p207
sbsg27
S'9202a8c04000641f8000000000845f7e'
p208
sg29
I13450
sg30
S'http://en.wikipedia.org/wiki/Ruby_in_Paradise'
p209
sba(iedu.umass.cs.iesl.wikilink.expanded.data.ttypes
Mention
p210
(dp211
g16
S'Oliver Stone'
p212
sg18
(iedu.umass.cs.iesl.wikilink.expanded.data.ttypes
Context
p213
(dp214
g21
S'Oliver Stone'
p215
sg23
S', who had seen her in Nu\xc3\x83\xc2\xb1ez\xe2\x80\x99s film, cast Judd in Natural Born Killers , but her scenes were later cut from the version of'
p216
sg25
S'Gissing, a young woman trying to make a new life for herself, and it was this performance that would launch her career as an actress.'
p217
sbsg27
S'9202a8c04000641f800000000002c5b8'
p218
sg29
I13730
sg30
S'http://en.wikipedia.org/wiki/Oliver_Stone'
p219
sba(iedu.umass.cs.iesl.wikilink.expanded.data.ttypes
Mention
p220
(dp221
g16
S'Natural Born Killers'
p222
sg18
(iedu.umass.cs.iesl.wikilink.expanded.data.ttypes
Context
p223
(dp224
g21
S'Natural Born Killers'
p225
sg23
S', but her scenes were later cut from the version of the film released theatrically. The following year she gained further critical acclaim for her'
p226
sg25
S'it was this performance that would launch her career as an actress. Oliver Stone , who had seen her in Nu\xc3\x83\xc2\xb1ez\xe2\x80\x99s film, cast Judd in'
p227
sbsg27
S'9202a8c04000641f800000000002a6eb'
p228
sg29
I13895
sg30
S'http://en.wikipedia.org/wiki/Natural_Born_Killers'
p229
sba(iedu.umass.cs.iesl.wikilink.expanded.data.ttypes
Mention
p230
(dp231
g16
S'Harvey Keitel'
p232
sg18
(iedu.umass.cs.iesl.wikilink.expanded.data.ttypes
Context
p233
(dp234
g21
S'Harvey Keitel'
p235
sg23
S'\xe2\x80\x98s estranged daughter in Wayne Wang \xe2\x80\x98s Smoke and also as Val Kilmer \xe2\x80\x98s wife in Michael Mann \xe2\x80\x98s Heat . That same year she'
p236
sg25
S'her scenes were later cut from the version of the film released theatrically. The following year she gained further critical acclaim for her role as'
p237
sbsg27
S'9202a8c04000641f800000000008c9e7'
p238
sg29
I14157
sg30
S'http://en.wikipedia.org/wiki/Harvey_Keitel'
p239
sba(iedu.umass.cs.iesl.wikilink.expanded.data.ttypes
Mention
p240
(dp241
g16
S'Wayne Wang'
p242
sg18
(iedu.umass.cs.iesl.wikilink.expanded.data.ttypes
Context
p243
(dp244
g21
S'Wayne Wang'
p245
sg23
S'\xe2\x80\x98s Smoke and also as Val Kilmer \xe2\x80\x98s wife in Michael Mann \xe2\x80\x98s Heat . That same year she also played the role of Callie'
p246
sg25
S'the version of the film released theatrically. The following year she gained further critical acclaim for her role as Harvey Keitel \xe2\x80\x98s estranged daughter in'
p247
sbsg27
S'9202a8c04000641f800000000013b795'
p248
sg29
I14274
sg30
S'http://en.wikipedia.org/wiki/Wayne_Wang'
p249
sba(iedu.umass.cs.iesl.wikilink.expanded.data.ttypes
Mention
p250
(dp251
g16
S'Val Kilmer'
p252
sg18
(iedu.umass.cs.iesl.wikilink.expanded.data.ttypes
Context
p253
(dp254
g21
S'Val Kilmer'
p255
sg23
S'\xe2\x80\x98s wife in Michael Mann \xe2\x80\x98s Heat . That same year she also played the role of Callie in Philip Ridley \xe2\x80\x98s dark, adult fairy'
p256
sg25
S'The following year she gained further critical acclaim for her role as Harvey Keitel \xe2\x80\x98s estranged daughter in Wayne Wang \xe2\x80\x98s Smoke and also as'
p257
sbsg27
S'9202a8c04000641f8000000000067d04'
p258
sg29
I14474
sg30
S'http://en.wikipedia.org/wiki/Val_Kilmer'
p259
sba(iedu.umass.cs.iesl.wikilink.expanded.data.ttypes
Mention
p260
(dp261
g16
S'Philip Ridley'
p262
sg18
(iedu.umass.cs.iesl.wikilink.expanded.data.ttypes
Context
p263
(dp264
g21
S'Philip Ridley'
p265
sg23
S'\xe2\x80\x98s dark, adult fairy tale, The Passion of Darkly Noon . By the end of the 1990s, Judd had managed to achieve significant fame and'
p266
sg25
S'Smoke and also as Val Kilmer \xe2\x80\x98s wife in Michael Mann \xe2\x80\x98s Heat . That same year she also played the role of Callie in'
p267
sbsg27
S'9202a8c04000641f80000000007905e3'
p268
sg29
I14861
sg30
S'http://en.wikipedia.org/wiki/Philip_Ridley'
p269
sba(iedu.umass.cs.iesl.wikilink.expanded.data.ttypes
Mention
p270
(dp271
g16
S'The Passion of Darkly Noon'
p272
sg18
(iedu.umass.cs.iesl.wikilink.expanded.data.ttypes
Context
p273
(dp274
g21
S'The Passion of Darkly Noon'
p275
sg23
S'. By the end of the 1990s, Judd had managed to achieve significant fame and success as a leading actress, after leading roles in several'
p276
sg25
S'wife in Michael Mann \xe2\x80\x98s Heat . That same year she also played the role of Callie in Philip Ridley \xe2\x80\x98s dark, adult fairy tale,'
p277
sbsg27
S'9202a8c04000641f8000000000e3b0ea'
p278
sg29
I15016
sg30
S'http://en.wikipedia.org/wiki/The_Passion_of_Darkly_Noon'
p279
sba(iedu.umass.cs.iesl.wikilink.expanded.data.ttypes
Mention
p280
(dp281
g16
S'High Crimes'
p282
sg18
(iedu.umass.cs.iesl.wikilink.expanded.data.ttypes
Context
p283
(dp284
g21
S'High Crimes'
p285
sg23
S', received only mixed reviews and moderate box office success; although, she did receive positive recognition, and a Golden Globe nomination for Best Actress, for'
p286
sg25
S'office, including Kiss the Girls in 1997 and 1999\xe2\x80\xb2s Double Jeopardy . Several of her early 2000s films, including 2001\xe2\x80\xb2s Someone Like You and 2002\xe2\x80\xb2s'
p287
sbsg27
S'9202a8c04000641f80000000003ea05e'
p288
sg29
I15809
sg30
S'http://en.wikipedia.org/wiki/High_Crimes'
p289
sba(iedu.umass.cs.iesl.wikilink.expanded.data.ttypes
Mention
p290
(dp291
g16
S'Golden Globe'
p292
sg18
(iedu.umass.cs.iesl.wikilink.expanded.data.ttypes
Context
p293
(dp294
g21
S'Golden Globe'
p295
sg23
S'nomination for Best Actress, for her performance in the 2004 biography of Cole Porter , De-Lovely , opposite Kevin Kline . Judd is currently the'
p296
sg25
S'Someone Like You and 2002\xe2\x80\xb2s High Crimes , received only mixed reviews and moderate box office success; although, she did receive positive recognition, and a'
p297
sbsg27
S'9202a8c04000641f800000000010fcff'
p298
sg29
I16019
sg30
S'http://en.wikipedia.org/wiki/Golden_Globe'
p299
sba(iedu.umass.cs.iesl.wikilink.expanded.data.ttypes
Mention
p300
(dp301
g16
S'Cole Porter'
p302
sg18
(iedu.umass.cs.iesl.wikilink.expanded.data.ttypes
Context
p303
(dp304
g21
S'Cole Porter'
p305
sg23
S', De-Lovely , opposite Kevin Kline . Judd is currently the magazine advertising \xe2\x80\x9cface\xe2\x80\x9d of American Beauty , an Est\xc3\x83\xc2\xa9e Lauder cosmetic brand sold exclusively'
p306
sg25
S'box office success; although, she did receive positive recognition, and a Golden Globe nomination for Best Actress, for her performance in the 2004 biography of'
p307
sbsg27
S'9202a8c04000641f80000000030beae6'
p308
sg29
I16181
sg30
S'http://en.wikipedia.org/wiki/Cole_Porter'
p309
sba(iedu.umass.cs.iesl.wikilink.expanded.data.ttypes
Mention
p310
(dp311
g16
S'De-Lovely'
p312
sg18
(iedu.umass.cs.iesl.wikilink.expanded.data.ttypes
Context
p313
(dp314
g21
S'De-Lovely'
p315
sg23
S', opposite Kevin Kline . Judd is currently the magazine advertising \xe2\x80\x9cface\xe2\x80\x9d of American Beauty , an Est\xc3\x83\xc2\xa9e Lauder cosmetic brand sold exclusively at Kohl\xe2\x80\x99s'
p316
sg25
S'although, she did receive positive recognition, and a Golden Globe nomination for Best Actress, for her performance in the 2004 biography of Cole Porter ,'
p317
sbsg27
S'9202a8c04000641f800000000037b673'
p318
sg29
I16269
sg30
S'http://en.wikipedia.org/wiki/De-Lovely'
p319
sba(iedu.umass.cs.iesl.wikilink.expanded.data.ttypes
Mention
p320
(dp321
g16
S'Kevin Kline'
p322
sg18
(iedu.umass.cs.iesl.wikilink.expanded.data.ttypes
Context
p323
(dp324
g21
S'Kevin Kline'
p325
sg23
S'. Judd is currently the magazine advertising \xe2\x80\x9cface\xe2\x80\x9d of American Beauty , an Est\xc3\x83\xc2\xa9e Lauder cosmetic brand sold exclusively at Kohl\xe2\x80\x99s department stores, and H.'
p326
sg25
S'receive positive recognition, and a Golden Globe nomination for Best Actress, for her performance in the 2004 biography of Cole Porter , De-Lovely , opposite'
p327
sbsg27
S'9202a8c04000641f8000000000172a86'
p328
sg29
I16369
sg30
S'http://en.wikipedia.org/wiki/Kevin_Kline'
p329
sba(iedu.umass.cs.iesl.wikilink.expanded.data.ttypes
Mention
p330
(dp331
g16
S'Est\xc3\x83\xc2\xa9e Lauder'
p332
sg18
(iedu.umass.cs.iesl.wikilink.expanded.data.ttypes
Context
p333
(dp334
g21
S'Est\xc3\x83\xc2\xa9e Lauder'
p335
sg23
S'cosmetic brand sold exclusively at Kohl\xe2\x80\x99s department stores, and H. Stern jewelers. In June 2007, Goody\xe2\x80\x99s Family Clothing announced they were going to be releasing'
p336
sg25
S'the 2004 biography of Cole Porter , De-Lovely , opposite Kevin Kline . Judd is currently the magazine advertising \xe2\x80\x9cface\xe2\x80\x9d of American Beauty , an'
p337
sbsg27
Nsg29
I16729
sg30
S'http://en.wikipedia.org/wiki/Est%C3%A9e_Lauder'
p338
sba(iedu.umass.cs.iesl.wikilink.expanded.data.ttypes
Mention
p339
(dp340
g16
S'H. Stern'
p341
sg18
(iedu.umass.cs.iesl.wikilink.expanded.data.ttypes
Context
p342
(dp343
g21
S'H. Stern'
p344
sg23
S'jewelers. In June 2007, Goody\xe2\x80\x99s Family Clothing announced they were going to be releasing three fashion clothing lines with Judd in the Fall to be'
p345
sg25
S'Kline . Judd is currently the magazine advertising \xe2\x80\x9cface\xe2\x80\x9d of American Beauty , an Est\xc3\x83\xc2\xa9e Lauder cosmetic brand sold exclusively at Kohl\xe2\x80\x99s department stores, and'
p346
sbsg27
S'9202a8c04000641f8000000006ba402d'
p347
sg29
I16954
sg30
S'http://en.wikipedia.org/wiki/Hans_Stern'
p348
sba(iedu.umass.cs.iesl.wikilink.expanded.data.ttypes
Mention
p349
(dp350
g16
S'Heat'
p351
sg18
(iedu.umass.cs.iesl.wikilink.expanded.data.ttypes
Context
p352
(dp353
g21
S'Heat'
p354
sg23
S'. That same year she also played the role of Callie in Philip Ridley \xe2\x80\x98s dark, adult fairy tale, The Passion of Darkly Noon .'
p355
sg25
S'for her role as Harvey Keitel \xe2\x80\x98s estranged daughter in Wayne Wang \xe2\x80\x98s Smoke and also as Val Kilmer \xe2\x80\x98s wife in Michael Mann \xe2\x80\x98s'
p356
sbsg27
S'9202a8c04000641f8000000000057311'
p357
sg29
I14718
sg30
S'http://en.wikipedia.org/wiki/Heat_(1995_film)'
p358
sba(iedu.umass.cs.iesl.wikilink.expanded.data.ttypes
Mention
p359
(dp360
g16
S"Kohl's"
p361
sg18
Nsg27
S'9202a8c04000641f800000000033f097'
p362
sg29
I16845
sg30
S"http://en.wikipedia.org/wiki/Kohl's"
p363
sba(iedu.umass.cs.iesl.wikilink.expanded.data.ttypes
Mention
p364
(dp365
g16
S'Someone Like You'
p366
sg18
(iedu.umass.cs.iesl.wikilink.expanded.data.ttypes
Context
p367
(dp368
g21
S'Someone Like You'
p369
sg23
S'and 2002\xe2\x80\xb2s High Crimes , received only mixed reviews and moderate box office success; although, she did receive positive recognition, and a Golden Globe nomination'
p370
sg25
S'performed well at the box office, including Kiss the Girls in 1997 and 1999\xe2\x80\xb2s Double Jeopardy . Several of her early 2000s films, including 2001\xe2\x80\xb2s'
p371
sbsg27
Nsg29
I15691
sg30
S'http://en.wikipedia.org/wiki/Someone_Like_You_(film)'
p372
sba(iedu.umass.cs.iesl.wikilink.expanded.data.ttypes
Mention
p373
(dp374
g16
S'The Game'
p375
sg18
(iedu.umass.cs.iesl.wikilink.expanded.data.ttypes
Context
p376
(dp377
g21
S'The Game'
p378
sg23
S'\xe2\x80\x9c. From 1991 to 1994, she had a recurring role as Reed, the daughter of Alex ( Swoosie Kurtz ), on the NBC drama Sisters'
p379
sg25
S'appeared as Ensign Robin Lefler , a Starfleet officer, in two 1991 episodes of Star Trek: The Next Generation , \xe2\x80\x9c Darmok \xe2\x80\x9d and \xe2\x80\x9c'
p380
sbsg27
S'9202a8c04000641f80000000002ff3a9'
p381
sg29
I12553
sg30
S'http://en.wikipedia.org/wiki/The_Game_(Star_Trek:_The_Next_Generation)'
p382
sba(iedu.umass.cs.iesl.wikilink.expanded.data.ttypes
Mention
p383
(dp384
g16
S'Smoke'
p385
sg18
(iedu.umass.cs.iesl.wikilink.expanded.data.ttypes
Context
p386
(dp387
g21
S'Smoke'
p388
sg23
S'and also as Val Kilmer \xe2\x80\x98s wife in Michael Mann \xe2\x80\x98s Heat . That same year she also played the role of Callie in Philip'
p389
sg25
S'the film released theatrically. The following year she gained further critical acclaim for her role as Harvey Keitel \xe2\x80\x98s estranged daughter in Wayne Wang \xe2\x80\x98s'
p390
sbsg27
S'9202a8c04000641f80000000005de4a0'
p391
sg29
I14378
sg30
S'http://en.wikipedia.org/wiki/Smoke_(film)'
p392
sba(iedu.umass.cs.iesl.wikilink.expanded.data.ttypes
Mention
p393
(dp394
g16
S'Ensign'
p395
sg18
(iedu.umass.cs.iesl.wikilink.expanded.data.ttypes
Context
p396
(dp397
g21
S'Ensign'
p398
sg23
S'Robin Lefler , a Starfleet officer, in two 1991 episodes of Star Trek: The Next Generation , \xe2\x80\x9c Darmok \xe2\x80\x9d and \xe2\x80\x9c The Game \xe2\x80\x9c.'
p399
sg25
S'Judd spent the majority of her childhood . She also lived in Marin County, California for two years during grade school. Career udd appeared as'
p400
sbsg27
Nsg29
I11949
sg30
S'http://en.wikipedia.org/wiki/Ensign_(Star_Trek)'
p401
sba(iedu.umass.cs.iesl.wikilink.expanded.data.ttypes
Mention
p402
(dp403
g16
S'Sisters'
p404
sg18
(iedu.umass.cs.iesl.wikilink.expanded.data.ttypes
Context
p405
(dp406
g21
S'Sisters'
p407
sg23
S'. She made her feature film debut with a small role in 1992\xe2\x80\xb2s Kuffs . In 1993 Judd fought for and was cast in her'
p408
sg25
S'Game \xe2\x80\x9c. From 1991 to 1994, she had a recurring role as Reed, the daughter of Alex ( Swoosie Kurtz ), on the NBC drama'
p409
sbsg27
S'9202a8c04000641f80000000003be010'
p410
sg29
I12856
sg30
S'http://en.wikipedia.org/wiki/Sisters_(TV_series)'
p411
sba(iedu.umass.cs.iesl.wikilink.expanded.data.ttypes
Mention
p412
(dp413
g16
S'Kiss the Girls'
p414
sg18
(iedu.umass.cs.iesl.wikilink.expanded.data.ttypes
Context
p415
(dp416
g21
S'Kiss the Girls'
p417
sg23
S'in 1997 and 1999\xe2\x80\xb2s Double Jeopardy . Several of her early 2000s films, including 2001\xe2\x80\xb2s Someone Like You and 2002\xe2\x80\xb2s High Crimes , received only'
p418
sg25
S'managed to achieve significant fame and success as a leading actress, after leading roles in several thrillers that performed well at the box office, including'
p419
sbsg27
S'9202a8c04000641f800000000045d758'
p420
sg29
I10187
sg30
S'http://en.wikipedia.org/wiki/Kiss_the_Girls_(film)'
p421
sba(iedu.umass.cs.iesl.wikilink.expanded.data.ttypes
Mention
p422
(dp423
g16
S'Kiss the Girls'
p424
sg18
(iedu.umass.cs.iesl.wikilink.expanded.data.ttypes
Context
p425
(dp426
g21
S'Kiss the Girls'
p427
sg23
S'in 1997 and 1999\xe2\x80\xb2s Double Jeopardy . Several of her early 2000s films, including 2001\xe2\x80\xb2s Someone Like You and 2002\xe2\x80\xb2s High Crimes , received only'
p428
sg25
S'managed to achieve significant fame and success as a leading actress, after leading roles in several thrillers that performed well at the box office, including'
p429
sbsg27
S'9202a8c04000641f800000000045d758'
p430
sg29
I15355
sg30
S'http://en.wikipedia.org/wiki/Kiss_the_Girls_(film)'
p431
sba(iedu.umass.cs.iesl.wikilink.expanded.data.ttypes
Mention
p432
(dp433
g16
S'Double Jeopardy'
p434
sg18
(iedu.umass.cs.iesl.wikilink.expanded.data.ttypes
Context
p435
(dp436
g21
S'Double Jeopardy'
p437
sg23
S'. Several of her early 2000s films, including 2001\xe2\x80\xb2s Someone Like You and 2002\xe2\x80\xb2s High Crimes , received only mixed reviews and moderate box office'
p438
sg25
S'as a leading actress, after leading roles in several thrillers that performed well at the box office, including Kiss the Girls in 1997 and 1999\xe2\x80\xb2s'
p439
sbsg27
S'9202a8c04000641f8000000000367587'
p440
sg29
I10313
sg30
S'http://en.wikipedia.org/wiki/Double_Jeopardy_(film)'
p441
sba(iedu.umass.cs.iesl.wikilink.expanded.data.ttypes
Mention
p442
(dp443
g16
S'Double Jeopardy'
p444
sg18
(iedu.umass.cs.iesl.wikilink.expanded.data.ttypes
Context
p445
(dp446
g21
S'Double Jeopardy'
p447
sg23
S'. Several of her early 2000s films, including 2001\xe2\x80\xb2s Someone Like You and 2002\xe2\x80\xb2s High Crimes , received only mixed reviews and moderate box office'
p448
sg25
S'as a leading actress, after leading roles in several thrillers that performed well at the box office, including Kiss the Girls in 1997 and 1999\xe2\x80\xb2s'
p449
sbsg27
S'9202a8c04000641f8000000000367587'
p450
sg29
I15505
sg30
S'http://en.wikipedia.org/wiki/Double_Jeopardy_(film)'
p451
sba(iedu.umass.cs.iesl.wikilink.expanded.data.ttypes
Mention
p452
(dp453
g16
S'Michael Mann'
p454
sg18
(iedu.umass.cs.iesl.wikilink.expanded.data.ttypes
Context
p455
(dp456
g21
S'Michael Mann'
p457
sg23
S'\xe2\x80\x98s Heat . That same year she also played the role of Callie in Philip Ridley \xe2\x80\x98s dark, adult fairy tale, The Passion of Darkly'
p458
sg25
S'further critical acclaim for her role as Harvey Keitel \xe2\x80\x98s estranged daughter in Wayne Wang \xe2\x80\x98s Smoke and also as Val Kilmer \xe2\x80\x98s wife in'
p459
sbsg27
S'9202a8c04000641f8000000000027517'
p460
sg29
I14604
sg30
S'http://en.wikipedia.org/wiki/Michael_Mann_(director)'
p461
sba(iedu.umass.cs.iesl.wikilink.expanded.data.ttypes
Mention
p462
(dp463
g16
S"Goody's Family Clothing"
p464
sg18
Nsg27
S'9202a8c04000641f80000000009a295e'
p465
sg29
I17088
sg30
S"http://en.wikipedia.org/wiki/Goody's_Family_Clothing"
p466
sbasS'doc_id'
p467
I10894
sS'rare_words'
p468
(lp469
(iedu.umass.cs.iesl.wikilink.expanded.data.ttypes
RareWord
p470
(dp471
S'word'
p472
S'Grand'
p473
sS'offset'
p474
I13339
sba(iedu.umass.cs.iesl.wikilink.expanded.data.ttypes
RareWord
p475
(dp476
g472
S'Kentucky'
p477
sg474
I11569
sba(iedu.umass.cs.iesl.wikilink.expanded.data.ttypes
RareWord
p478
(dp479
g472
S'career'
p480
sg474
I13635
sba(iedu.umass.cs.iesl.wikilink.expanded.data.ttypes
RareWord
p481
(dp482
g472
S'm'
p483
sg474
I17368
sba(iedu.umass.cs.iesl.wikilink.expanded.data.ttypes
RareWord
p484
(dp485
g472
S"Nu\xc3\x83\xc2\xb1ez's"
p486
sg474
I13768
sba(iedu.umass.cs.iesl.wikilink.expanded.data.ttypes
RareWord
p487
(dp488
g472
S"Goody's"
p489
sg474
I17088
sba(iedu.umass.cs.iesl.wikilink.expanded.data.ttypes
RareWord
p490
(dp491
g472
S'fashion'
p492
sg474
I17170
sba(iedu.umass.cs.iesl.wikilink.expanded.data.ttypes
RareWord
p493
(dp494
g472
S'school'
p495
sg474
I11813
sba(iedu.umass.cs.iesl.wikilink.expanded.data.ttypes
RareWord
p496
(dp497
g472
S'nomination'
p498
sg474
I16036
sba(iedu.umass.cs.iesl.wikilink.expanded.data.ttypes
RareWord
p499
(dp500
g472
S'know'
p501
sg474
I17547
sbasb.